XAS99 CROSS-ASSEMBLER   VERSION 3.6.5
     **** ****     > adventire.a99
0001               	; CVBasic compiler v0.9.2 Mar/12/2026
0002               	; Command: /cygdrive/c/Users/Howie/github.git/nanochess/CVBasic/cvbasic --ti994a adventire.bas adventire.a99 C:/Users/Howie/github.git/nanochess/CVBasic/
0003               	; Created: Fri Jul  3 20:48:22 2026
0004               
0005      0000     COLECO:	equ 0
0006      0000     SG1000:	equ 0
0007      0000     MSX:	equ 0
0008      0000     FM_SUPPORT:	equ 0
0009      0000     SGM:	equ 0
0010      0000     SVI:	equ 0
0011      0000     SORD:	equ 0
0012      0000     MEMOTECH:	equ 0
0013      0000     EINSTEIN:	equ 0
0014      0000     CPM:	equ 0
0015      0000     PENCIL:	equ 0
0016      0000     PV2000:	equ 0
0017      0001     TI99:	equ 1
0018      0000     NABU:	equ 0
0019      0000     SMS:	equ 0
0020               
0021      0000     CVBASIC_MUSIC_PLAYER:	equ 0
0022      0000     CVBASIC_COMPRESSION:	equ 0
0023      0000     CVBASIC_BANK_SWITCHING:	equ 0
0024      0000     CVBASIC_BANK_ROM_SIZE:	equ 0
0025      0000     COLECO_SPINNER:	equ 0
0026               
0027      2080     BASE_RAM:	equ >2080	; Base of RAM
0028      1F80     RAM_SIZE:	equ >1f80	; Base of RAM
0029      4000     STACK:	equ >4000	; Base stack pointer
0030      8800     VDP:	equ >8800	; VDP port (write)
0031      8C00     VDPR:	equ >8c00	; VDP port (read)
0032               
0033               ;
0034               ; CVBasic prologue (BASIC compiler, 9900 target)
0035               ;
0036               ; by Tursi
0037               ; https//harmlesslion.com
0038               ;
0039               ; based on code by
0040               ;
0041               ; by Oscar Toledo G.
0042               ; https//nanochess.org/
0043               ;
0044               ; Creation date Aug/05/2024.
0045               ; Revision date Aug/06/2024. Ported music player from Z80 CVBasic.
0046               ; Revision date Aug/07/2024. Ported Pletter decompressor from Z80 CVBasic.
0047               ;                            Added VDP delays.
0048               ; Revision date Aug/12/2024. Rewrite started for TMS9900 cpu
0049               ; Revision date Aug/16/2024. Corrected bug in define_char_unpack.
0050               ; Revision date Aug/18/2024. Ported bugfixes to TMS9900 version
0051               ; Revision date Aug/30/2024. All samples except pletter and banking working on TMS9900 version
0052               ; Revision date Oct/15/2024. Added LDIRMV.
0053               ; Revision date May/03/2025. Fix for unpack3 which was using the stack pointer as a temp register
0054               
0055               ;
0056               ; Platforms supported:
0057               ; o TI-99/4A with 32k Memory Expansion
0058               
0059               ; this is intended to be assembled by xdt99, no console ROM dependencies
0060               ;   cvbasic --ti994a test1.bas test1.a99
0061               ;   xas99.py -R test1.a99
0062               
0063               ; When looking at this - remember that JUMP and BRANCH have the /opposite/
0064               ; meanings to the 6502 - JUMP is the short relative one, and BRANCH is absolute.
0065               
0066               ;
0067               ; CVBasic variables in scratchpad.
0068               ;
0069               
0070               ; don't warn on branch/jump optimizations or unused variables
0071               ;: warn-opts = off
0072               ;: warn-symbols = off
0073               
0074               ; use original (possibly incorrectly ported) random
0075      0000     OLD_RND equ 0
0076               
0077               ; We have to use our own workspace, not GPLWS, because the interrupt routine makes it unsafe to
0078               ; use r11, which we kind of need! So that eats 32 bytes of RAM but means most of the register
0079               ; restrictions I wrote this code on (avoid R1, avoid R6, avoid R13-R15) are lifted.
0080      8300     mywp      equ >8300
0081      8320     myintwp   equ >8320
0082               
0083               ; data storage in scratchpad
0084                   dorg >8340
0085               
0086               ; used to track scratchpad variables
0087      8340     firstsp         equ $
0088               
0089 8340          read_pointer    bss 2       ; for data/read statements
0090 8342          cursor		    bss 2       ; screen position
0091 8344          pletter_off	    bss 2       ; Used by Pletter
0092               
0093               ; joystick bytes
0094 8346          joy1_data	    bss 1       ; keep these bytes together and even aligned
0095 8347          joy2_data	    bss 1
0096               
0097 8348          key1_data	    bss 1       ; byte - keyboard - keep these bytes together and even aligned
0098 8349          key2_data	    bss 1       ; byte - keyboard (not used)
0099               
0100 834A          frame	        bss 2       ; word
0101 834C          lfsr		    bss 2       ; word MUST BE EVEN ALIGNED
0102               
0103 834E          mode            bss 1
0104 834F          flicker         bss 1
0105               
0106 8350          ntsc            bss 1
0107               
0148               
0154               
0155               ; used to track scratchpad variables
0156                   even
0157      8352     lastsp              equ $
0158               
0159               ; While we don't mean to USE the console ROM, for interrupts we
0160               ; are forced to interface with some of it. We need these addresses
0161               ; to minimize what it does so we can maximize our use of scratchpad.
0162               ; While I'd like to use the cassette hook - requires only 10 instructions
0163               ; and only uses 6 words of scratchpad, we can't here because it
0164               ; loses the return address, meaning you can only use it if you
0165               ; know where your LIMI 2 is and interrupts are otherwise disabled. So
0166               ; we have to use the longer but more standard interrupt hook, which also
0167               ; reads VDP status for us (no choice).
0168               
0169      8379     intcnt              equ >8379   ; interrupt counter byte, adds 1 (from GPLWS r14) every frame
0170      837B     vdp_status          equ >837B   ; VDP status byte mirror
0171      83C2     intwsr1             equ >83c2   ; INT WS R1  - interrupt control flags - must be >8000
0172      83C4     intwsr2             equ >83c4   ; INT WS R2  - address of user interrupt routine (point to int_handler)
0173      83D6     intwsr11            equ >83d6   ; screen timeout counter - must be odd (init to 1, is inct every frame)
0174      83DA     intwsr13            equ >83da   ; INT WS R13 - used for interrupt call (word)
0175      83DC     intwsr14            equ >83dc   ; INT WS R14 - used for interrupt call (word)
0176      83DE     intwsr15            equ >83de   ; INT WS R15 - used for interrupt call (word)
0177      83F6     gplwsr11            equ >83f6   ; GPL WS R11 - return address to interrupt ROM (not used, but overwritten each int)
0178      83F8     gplwsr12            equ >83f8   ; GPL WS R12 - used for cassette test and interrupt hook test (zeroed each int)
0179      83FA     gplwsr13            equ >83fa   ; GPL WS R13 - used in my interrupt handler
0180      83FC     gplwsr14            equ >83fc   ; GPL WS R14 - flags used to detect cassette - must be >0108 (or at least >0020 clear)
0181      83FE     gplwsr15            equ >83fe   ; GPL WS R15 - base address of VDP for status read - must be >8C02
0182               
0183               ; Some hardware equates
0184      83C0     INTWS     equ >83C0     ; interrupt calling Workspace
0185      83E0     GPLWP     equ >83E0     ; we use this one
0186      8400     SOUND     equ >8400
0187      8800     VDPDATA   equ >8800
0188      8802     VDPSTATUS equ >8802
0189      8C00     VDPWDATA  equ >8c00
0190      8C02     VDPWADR   equ >8c02
0191               
0192               ; cartridge header for all ROM pages
0193               ; this might do weird things to bank 0 but we have to chop it up anyway...
0194                   bank all,>6000
0195               
0196 6000 AA01         data >aa01,>0100,>0000,proglist,>0000,>0000
     6002 0100     
     6004 0000     
     6006 600C     
     6008 0000     
     600A 0000     
0197               proglist
0198 600C 0000         data >0000,SFIRST
     600E 6026     
0199 6010 14           byte 20
0200 6011   43         text 'CVBASIC GAME        *'    ; 20 characters to allow name to be hex edited
     6012 5642     
     6014 4153     
     6016 4943     
     6018 2047     
     601A 414D     
     601C 4520     
     601E 2020     
     6020 2020     
     6022 2020     
     6024 202A     
0201               
0202               ; startup code copies the first three banks to 24k RAM (always) and jumps there
0203               SFIRST
0204 6026 04E0  34     clr @>6000      ; set bank 0 - last shared instruction
     6028 6000     
0205               
0206                   bank 0
0207               
0208 602A 0203  20     li r3,3         ; how many banks
     602C 0003     
0209 602E 0204  20     li r4,>6000     ; from bank
     6030 6000     
0210 6032 0200  20     li r0,>a000     ; target in RAM
     6034 A000     
0211               SFLP
0212 6036 04F4  30     clr *r4+        ; set the bank
0213 6038 0201  20     li r1,>6050     ; from address
     603A 6050     
0214 603C 0202  20     li r2,>1FB0     ; count
     603E 1FB0     
0215               SFLP2
0216 6040 CC31  46     mov *r1+,*r0+   ; move words
0217 6042 0642  14     dect r2         ; count down
0218 6044 16FD  14     jne SFLP2
0219 6046 0603  14     dec r3          ; count down pages
0220 6048 16F6  14     jne SFLP
0221               CODEST
0222 604A 0460  28     b @START        ; jump to startup code in RAM
     604C A980     
0223               
0224               ; fixed program in high RAM - magic bank number higher than normally legal
0225               ; this will be chopped up and inserted into the first three banks
0226               ; we're still in bank 0 - this will result in a gap in the output binary
0227               ; that we can use to put the pieces together more easily.
0228                   aorg >a000
0229               
0230               ; Utility functions
0231               
0232               ; Write register to VDP - R0 = reg in MSB, data in LSB
0233               WRTVDP
0234 A000 0260  22     ori r0,>8000
     A002 8000     
0235 A004 1002  14     jmp SETRD
0236               
0237               ; Set VDP for write address - address in R0
0238               SETWRT
0239 A006 0260  22     ori r0,>4000
     A008 4000     
0240               ; fall through
0241               
0242               ; Set VDP for read address - address in R0
0243               SETRD
0244 A00A 06C0  14     swpb r0
0245 A00C D800  30     movb r0,@VDPWADR
     A00E 8C02     
0246 A010 06C0  14     swpb r0
0247 A012 D800  30     movb r0,@VDPWADR
     A014 8C02     
0248 A016 045B  20     b *r11
0249               
0250               ; Write byte to VDP - address in R0, data in MSB R2
0251               ; Inline address set to avoid needing to cache r11
0252               WRTVRM
0253 A018 0260  22     ori r0,>4000
     A01A 4000     
0254 A01C 06C0  14     swpb r0
0255 A01E D800  30     movb r0,@VDPWADR
     A020 8C02     
0256 A022 06C0  14     swpb r0
0257 A024 D800  30     movb r0,@VDPWADR
     A026 8C02     
0258               ; No need to delay after setting a write address - there's no VRAM access
0259 A028 D802  30     movb r2,@VDPWDATA
     A02A 8C00     
0260 A02C 045B  20     b *r11
0261               
0262               ; Read byte from VDP - address in R0, data returned in MSB R0
0263               ; Inline address set to avoid needing to cache r11
0264               RDVRM
0265 A02E 06C0  14     swpb r0
0266 A030 D800  30     movb r0,@VDPWADR
     A032 8C02     
0267 A034 06C0  14     swpb r0
0268 A036 D800  30     movb r0,@VDPWADR
     A038 8C02     
0269 A03A 1000  14     nop
0270 A03C D020  30     movb @VDPDATA,r0
     A03E 8800     
0271 A040 045B  20     b *r11
0272               
0273               ; Fill VRAM - address in R0, byte in R2, count in R3
0274               ; Original: address in pointer, byte in temp, count in temp2 (ZP)
0275               ; Inline address set to avoid needing to cache r11
0276               FILVRM
0277 A042 0260  22     ori r0,>4000
     A044 4000     
0278 A046 06C0  14     swpb r0
0279 A048 D800  30     movb r0,@VDPWADR
     A04A 8C02     
0280 A04C 06C0  14     swpb r0
0281 A04E D800  30     movb r0,@VDPWADR
     A050 8C02     
0282               ; No need to delay after setting a write address - there's no VRAM access
0283               !1
0284 A052 D802  30     movb r2,@VDPWDATA
     A054 8C00     
0285 A056 0603  14     dec r3
0286 A058 16FC  14     jne -!1
0287 A05A 045B  20     b *r11
0288               
0289               ; Read VRAM - address in R0, CPU data at R2, count in R3
0290               ; Inline address set to avoid needing to cache r11
0291               LDIRMV
0292 A05C 06C0  14     swpb r0
0293 A05E D800  30     movb r0,@VDPWADR
     A060 8C02     
0294 A062 06C0  14     swpb r0
0295 A064 D800  30     movb r0,@VDPWADR
     A066 8C02     
0296 A068 06C0  14     swpb r0
0297 A06A 06C0  14     swpb r0
0298               !1
0299 A06C DCA0  44     movb @VDPDATA,*r2+
     A06E 8800     
0300 A070 0603  14     dec r3
0301 A072 16FC  14     jne -!1
0302 A074 045B  20     b *r11
0303               
0304               ; Load VRAM - address in R0, CPU data at R2, count in R3
0305               ; Original: address in pointer, CPU address at temp, count in temp2
0306               ; Inline address set to avoid needing to cache r11
0307               LDIRVM
0308 A076 0260  22     ori r0,>4000
     A078 4000     
0309 A07A 06C0  14     swpb r0
0310 A07C D800  30     movb r0,@VDPWADR
     A07E 8C02     
0311 A080 06C0  14     swpb r0
0312 A082 D800  30     movb r0,@VDPWADR
     A084 8C02     
0313               ; No need to delay after setting a write address - there's no VRAM access
0314               !1
0315 A086 D832  40     movb *r2+,@VDPWDATA
     A088 8C00     
0316 A08A 0603  14     dec r3
0317 A08C 16FC  14     jne -!1
0318 A08E 045B  20     b *r11
0319               
0320               ; Define a pattern three times with 2k offsets - used for bitmap color and pattern tables
0321               ; Load VRAM 3 times with offset - address in R0, CPU data at R2, count in R3
0322               ; Original: address in pointer, CPU address at temp, count in temp2
0323               LDIRVM3
0324 A090 C10B  18     mov r11,r4      ; save return address
0325 A092 C142  18     mov r2,r5       ; save CPU address
0326 A094 C1C3  18     mov r3,r7       ; save count
0327 A096 06A0  32     bl @LDIRVM
     A098 A076     
0328 A09A 0220  22     ai r0,>0800     ; the OR'd mask doesn't matter
     A09C 0800     
0329 A09E C085  18     mov r5,r2       ; restore CPU
0330 A0A0 C0C7  18     mov r7,r3       ; restore count
0331 A0A2 06A0  32     bl @LDIRVM
     A0A4 A076     
0332 A0A6 0220  22     ai r0,>0800     ; the OR'd mask doesn't matter
     A0A8 0800     
0333 A0AA C085  18     mov r5,r2
0334 A0AC C0C7  18     mov r7,r3
0335 A0AE C2C4  18     mov r4,r11      ; for tail recursion
0336 A0B0 10E2  14     jmp LDIRVM
0337               
0338               ; Disable screen by setting VDP register 1 to >a2
0339               DISSCR
0340 A0B2 0300  22     limi 0
     A0B4 0000     
0341 A0B6 0200  20     li r0,>81a2
     A0B8 81A2     
0342               DISSCR2
0343 A0BA 06C0  14     swpb r0
0344 A0BC D800  30     movb r0,@VDPWADR
     A0BE 8C02     
0345 A0C0 06C0  14     swpb r0
0346 A0C2 D800  30     movb r0,@VDPWADR
     A0C4 8C02     
0347 A0C6 0300  22     limi 2
     A0C8 0002     
0348 A0CA 045B  20     b *r11
0349               
0350               ; enable screen by setting VDP register 1 to >E2
0351               ENASCR
0352 A0CC 0300  22     limi 0
     A0CE 0000     
0353 A0D0 0200  20     li r0,>81e2
     A0D2 81E2     
0354 A0D4 10F2  14     jmp DISSCR2
0355               
0356               ; copy a set of blocks of data to VDP, offset by 32 bytes each
0357               ; address in R8, CPU data at R9, count per row in R6 (MSB), number rows in R4 (MSB), CPU stride in R5 (MSB) (VDP stride fixed at 32)
0358               ; original: address in pointer, CPU address at temp, count per row in temp2, num rows in temp2+1, stride in YYXX
0359               CPYBLK
0360 A0D6 C1CB  18     mov r11,r7      ; save return
0361 A0D8 0986  32     srl r6,8
0362 A0DA 0984  32     srl r4,8
0363 A0DC 0985  32     srl r5,8        ; bytes to words
0364 A0DE 0300  22     limi 0
     A0E0 0000     
0365               !1
0366 A0E2 C008  18     mov r8,r0       ; get vdp address
0367 A0E4 C089  18     mov r9,r2       ; get cpu address
0368 A0E6 C0C6  18     mov r6,r3       ; get count
0369 A0E8 06A0  32     bl @LDIRVM      ; copy one row
     A0EA A076     
0370 A0EC A245  18     a r5,r9         ; add stride to CPU address
0371 A0EE 0228  22     ai r8,32        ; add 32 to VDP
     A0F0 0020     
0372 A0F2 0604  14     dec r4          ; count down rows
0373 A0F4 16F6  14     jne -!1         ; loop till done
0374 A0F6 0300  22     limi 2
     A0F8 0002     
0375 A0FA 0457  20     b *r7           ; back to caller
0376               
0377               ; clear screen and reset cursor to >1800
0378               cls
0379 A0FC C10B  18     mov r11,r4      ; save return
0380 A0FE 0200  20     li r0,>1800     ; SIT address
     A100 1800     
0381 A102 C800  30     mov r0,@cursor  ; save cursor
     A104 8342     
0382 A106 0202  20     li r2,>2000     ; byte to write
     A108 2000     
0383 A10A 0203  20     li r3,768       ; number of bytes
     A10C 0300     
0384 A10E 0300  22     limi 0          ; ints off
     A110 0000     
0385 A112 06A0  32     bl @FILVRM      ; write them
     A114 A042     
0386 A116 0300  22     limi 2          ; ints back on
     A118 0002     
0387 A11A 0454  20     b *r4           ; back to caller
0388               
0389               ; copy a string to screen at cursor - address enforced
0390               ; CPU address in R2, length in R3
0391               print_string
0392 A11C C10B  18     mov r11,r4      ; save return
0393 A11E C020  30     mov @cursor,r0  ; get cursor pos
     A120 8342     
0394 A122 0240  22     andi r0,>07ff   ; enforce position - pretty large range though? 80 column support maybe?
     A124 07FF     
0395 A126 0220  22     ai r0,>1800     ; add is safer than OR, and we have that option
     A128 1800     
0396 A12A A803  30     a r3,@cursor    ; add the count to cursor (might as well do it now!)
     A12C 8342     
0397 A12E 0300  22     limi 0
     A130 0000     
0398 A132 06A0  32     bl @LDIRVM      ; do the write
     A134 A076     
0399 A136 0300  22     limi 2
     A138 0002     
0400 A13A 0454  20     b *r4           ; back to caller
0401               
0402               ; emit a 16-bit number as decimal with leading zero masking at cursor
0403               ; R0 - number to print
0404               ; original number in YYAA?
0405               print_number
0406 A13C 0300  22     limi 0              ; interrupts off so we can hold the VDP address
     A13E 0000     
0407 A140 04C5  14     clr r5              ; leading zero flag
0408               print_number5
0409 A142 0201  20     li r1,10000         ; divisor
     A144 2710     
0410 A146 C10B  18     mov r11,r4
0411 A148 06A0  32     bl @print_digit
     A14A A18A     
0412 A14C C2C4  18     mov r4,r11
0413               print_number4
0414 A14E 0201  20     li r1,1000          ; divisor
     A150 03E8     
0415 A152 C10B  18     mov r11,r4
0416 A154 06A0  32     bl @print_digit
     A156 A18A     
0417 A158 C2C4  18     mov r4,r11
0418               print_number3
0419 A15A 0201  20     li r1,100           ; divisor
     A15C 0064     
0420 A15E C10B  18     mov r11,r4
0421 A160 06A0  32     bl @print_digit
     A162 A18A     
0422 A164 C2C4  18     mov r4,r11
0423               print_number2
0424 A166 0201  20     li r1,10
     A168 000A     
0425 A16A C10B  18     mov r11,r4
0426 A16C 06A0  32     bl @print_digit
     A16E A18A     
0427 A170 C2C4  18     mov r4,r11
0428               print_number1
0429 A172 0201  20     li r1,1
     A174 0001     
0430 A176 0245  22     andi r5,>00ff
     A178 00FF     
0431 A17A 0265  22     ori r5,>0100
     A17C 0100     
0432 A17E C10B  18     mov r11,r4
0433 A180 06A0  32     bl @print_digit
     A182 A18A     
0434 A184 0300  22     limi 2              ; ints on
     A186 0002     
0435 A188 0454  20     b *r4               ; back to caller
0436               
0437               print_digit
0438 A18A C18B  18     mov r11,r6
0439 A18C 04C2  14     clr r2
0440 A18E 3C81 128     div r1,r2
0441 A190 0222  22     ai r2,>30
     A192 0030     
0442 A194 0282  22     ci r2,>30
     A196 0030     
0443 A198 160B  14     jne !3
0444 A19A 0285  22     ci r5,>0100
     A19C 0100     
0445 A19E 1401  14     jhe !4
0446 A1A0 0456  20     b *r6
0447               !4
0448 A1A2 0285  22     ci r5,>0200
     A1A4 0200     
0449 A1A6 1A02  14     jl !6
0450 A1A8 C085  18     mov r5,r2
0451 A1AA 1606  14     jne print_char2
0452               !6
0453 A1AC 0202  20     li r2,>30
     A1AE 0030     
0454               !3
0455 A1B0 0245  22     andi r5,>00ff
     A1B2 00FF     
0456 A1B4 0265  22     ori r5,>0100
     A1B6 0100     
0457               print_char2
0458 A1B8 C020  30     mov @cursor,r0      ; get cursor
     A1BA 8342     
0459 A1BC 0240  22     andi r0,>07ff       ; enforce position - large range for two screen pages
     A1BE 07FF     
0460 A1C0 0220  22     ai r0,>1800         ; add is safer than OR, and we have that option
     A1C2 1800     
0461 A1C4 06A0  32     bl @SETWRT          ; set write address
     A1C6 A006     
0462 A1C8 06C2  14     swpb r2
0463 A1CA D802  30     movb r2,@VDPWDATA
     A1CC 8C00     
0464 A1CE 05A0  26     inc @cursor         ; track it
     A1D0 8342     
0465 A1D2 0456  20     b *r6
0466               print_char
0467 A1D4 C18B  18     mov r11,r6
0468 A1D6 0460  28     b @print_char2
     A1D8 A1B8     
0469               
0470               ; Load sprite definitions: Sprite number in R4, CPU data in R0, count of sprites in R5 (MSB)
0471               ; Original: pointer = sprite number, temp = CPU address, a = number sprites
0472               ; Note: sprites are all expected to be double-size 16x16, 32 bytes each, so sprite char 1 is character 4
0473               ; Sprite pattern table at >3800
0474               define_sprite
0475 A1DA C20B  18     mov r11,r8          ; save return
0476 A1DC C080  18     mov r0,r2           ; Source data.
0477 A1DE C004  18     mov r4,r0           ; VRAM target.
0478 A1E0 0A50  26     sla r0,5            ; sprite number times 32 for bytes
0479 A1E2 0220  22     ai r0,>3800         ; add VDP base
     A1E4 3800     
0480 A1E6 C0C5  18     mov r5,r3		; Length.
0481 A1E8 0983  32     srl r3,8            ; make int
0482 A1EA 0A53  26     sla r3,5            ; count times 32
0483 A1EC 0300  22     limi 0              ; ints off
     A1EE 0000     
0484 A1F0 06A0  32     bl @LDIRVM          ; do the copy
     A1F2 A076     
0485 A1F4 0300  22     limi 2              ; ints on
     A1F6 0002     
0486 A1F8 0458  20     b *r8               ; back to caller
0487               
0488               ; Load character definitions: Char number in R1, CPU data in R2, count in R3 (MSB)
0489               ; Original: pointer = char number, temp = CPU address, a = number chars
0490               ; Note this loads the pattern three times if in bitmap mode (MODE&0x04)
0491               ; Pattern table at >0000
0492               define_char
0493 A1FA C20B  18     mov r11,r8          ; save return
0494 A1FC C080  18     mov r0,r2           ; source data
0495 A1FE C004  18     mov r4,r0           ; move input to scratch
0496 A200 0A30  22     sla r0,3            ; char number times 8 (VDP base is 0, so already there)
0497 A202 C0C5  18     mov r5,r3
0498 A204 0983  32     srl r3,8            ; make word
0499 A206 0A33  22     sla r3,3            ; count times 8
0500 A208 D160  30     movb @mode,r5       ; get mode flags
     A20A 834E     
0501 A20C 0245  22     andi r5,>0800
     A20E 0800     
0502 A210 1607  14     jne !1              ; not in bitmap mode, do a single copy
0503               
0504 A212 0300  22     limi 0              ; ints off
     A214 0000     
0505 A216 06A0  32     bl @LDIRVM3         ; do the triple copy
     A218 A090     
0506 A21A 0300  22     limi 2              ; ints on
     A21C 0002     
0507 A21E 0458  20     b *r8               ; back to caller
0508               
0509               !1
0510 A220 0300  22     limi 0              ; ints off
     A222 0000     
0511 A224 06A0  32     bl @LDIRVM          ; do the single copy
     A226 A076     
0512 A228 0300  22     limi 2              ; ints on
     A22A 0002     
0513 A22C 0458  20     b *r8               ; back to caller
0514               
0515               ; Load bitmap color definitions: Char number in R1, CPU data in R2, count in R3 (MSB)
0516               ; Original: pointer = char number, temp = CPU address, a = number chars
0517               ; Note: always does the triple copy. Color table at >2000
0518               define_color
0519 A22E C20B  18     mov r11,r8          ; save return
0520 A230 C080  18     mov r0,r2           ; source data
0521 A232 C004  18     mov r4,r0           ; move input to scratch
0522 A234 0A30  22     sla r0,3            ; char number times 8
0523 A236 0220  22     ai r0,>2000         ; add base address
     A238 2000     
0524 A23A C0C5  18     mov r5,r3
0525 A23C 0983  32     srl r3,8            ; make word
0526 A23E 0A33  22     sla r3,3            ; count times 8
0527 A240 0300  22     limi 0              ; ints off
     A242 0000     
0528 A244 06A0  32     bl @LDIRVM3         ; do the triple copy
     A246 A090     
0529 A248 0300  22     limi 2              ; ints on
     A24A 0002     
0530 A24C 0458  20     b *r8               ; back to caller
0531               
0532               ; Update sprite entry - copy data (4 bytes) to sprite table mirror at sprites
0533               ; R4 = sprite number, R5 = byte 1, r6 = byte 2, r7 = byte 3, r0 = byte 4 (all MSB)
0534               ; Original: A = sprite number, source data at sprite_data
0535               update_sprite
0536 A24E 0984  32     srl r4,8            ; make word
0537 A250 0A24  20     sla r4,2            ; x4 for address
0538 A252 0224  22     ai r4,sprites       ; sprite mirror address
     A254 2000     
0539 A256 DD05  32     movb r5,*r4+        ; move bytes
0540 A258 DD06  32     movb r6,*r4+        ; move bytes
0541 A25A DD07  32     movb r7,*r4+        ; move bytes
0542 A25C DD00  32     movb r0,*r4+        ; move bytes
0543 A25E 045B  20     b *r11
0544               
0545               ; SGN R0 - return 1, -1 or 0 as 16 bit
0546               _sgn16
0547 A260 C000  18     mov r0,r0       ; check for zero
0548 A262 1306  14     jeq !1          ; if yes, we're done
0549 A264 0240  22     andi r0,>8000   ; check for negative
     A266 8000     
0550 A268 1302  14     jeq !2          ; was not
0551 A26A 0700  14     seto r0         ; was negative, make it -1
0552 A26C 045B  20     b *r11          ; back to caller
0553               !2
0554 A26E 0580  14     inc r0          ; we know it was zero, and we want 1
0555               !1
0556 A270 045B  20     b *r11          ; back to caller
0557               
0558               ; 16-bit signed modulo. R1 % R2 = R0 - 9900 doesn't do signed divide
0559               ; original was stack%stack=YYAA
0560               ; Remainder is negative if the dividend was negative
0561               _mod16s
0562 A272 04C0  14     clr r0          ; make dividend 32-bit
0563 A274 C082  18     mov r2,r2       ; check divisor for zero
0564 A276 130A  14     jeq !1
0565 A278 0742  18     abs r2          ; make sure divisor is positive
0566 A27A C041  18     mov r1,r1       ; check sign of dividend
0567 A27C 1505  14     jgt !2          ; go do the faster positive version
0568               
0569 A27E 0741  18     abs r1          ; was negative, make it positive
0570 A280 3C02 128     div r2,r0       ; do the division => r2=quotient, r3=remainder
0571 A282 0501  14     neg r1          ; make remainder negative
0572 A284 C001  18     mov r1,r0       ; into r0
0573 A286 045B  20     b *r11
0574               
0575               !2
0576 A288 3C02 128     div r2,r0       ; do the division => r2=quotient, r3=remainder
0577 A28A C001  18     mov r1,r0       ; into r0
0578               !1
0579 A28C 045B  20     b *r11
0580               
0581               ; 16-bit signed divide. R1 / R2 = R0 - 9900 doesn't do signed divide
0582               ; original was stack/stack=YYAA
0583               ; Remainder is negative if the signs differ
0584               _div16s
0585 A28E 04C0  14     clr r0          ; make dividend 32-bit
0586 A290 C0C2  18     mov r2,r3       ; check divisor for zero
0587 A292 1308  14     jeq !1          ;
0588 A294 28C1  18     xor r1,r3
0589 A296 0742  18     abs r2
0590 A298 0741  18     abs r1          ; might as well make them positive now that we have copies
0591 A29A 3C02 128     div r2,r0       ; do the divide => r0=quotient, r1=remainder
0592 A29C 0243  22     andi r3,>8000   ; mask out sign bit
     A29E 8000     
0593 A2A0 1301  14     jeq !1          ; skip ahead to positive version
0594               
0595 A2A2 0500  14     neg r0          ; negate the result
0596               !1
0597 A2A4 045B  20     b *r11
0598               
0599               ; Random number generator - return in R0, (complex one uses R3,R4, simpler one only R0)
0600               ; Original output into YYAA
0601               random
0628               ; simpler one from dreamcast days...
0629 A2A6 C020  30     mov @lfsr,r0        ; get seed
     A2A8 834C     
0630 A2AA 0910  18     srl r0,1            ; shift
0631 A2AC 1702  14     jnc .rand1          ; jump if no 1
0632 A2AE 2820  34     xor @rmask,r0       ; xor new bits
     A2B0 A2B8     
0633               .rand1
0634 A2B2 C800  30     mov r0,@lfsr        ; save the output
     A2B4 834C     
0635 A2B6 045B  20     b *r11
0636               rmask
0637 A2B8 B400         data >b400          ; mask for 16 bit
0639               
0640               ; Set SN Frequency: R0=frequency code, R2=channel command (MSB)
0641               ; Original: A=least significant byte  X=channel command  Y=most significant byte
0642               sn76489_freq
0643 A2BA C0C0  18     mov r0,r3
0644 A2BC 0243  22     andi r3,>000f
     A2BE 000F     
0645 A2C0 06C3  14     swpb r3
0646 A2C2 F083  18     socb r3,r2
0647 A2C4 D802  30     movb r2,@SOUND  ; cmd and least significant nibble
     A2C6 8400     
0648 A2C8 0940  24     srl r0,4
0649 A2CA 0240  22     andi r0,>003f
     A2CC 003F     
0650 A2CE 06C0  14     swpb r0
0651 A2D0 D800  30     movb r0,@SOUND  ; most significant byte
     A2D2 8400     
0652 A2D4 045B  20     b *r11
0653               
0654               ; Set SN volume: R0=volume (MSB, inverse of attenuation), R2=channel command (MSB)
0655               ; Original: A=volume (inverse of attenuation), X=channel command
0656               sn76489_vol
0657 A2D6 0540  14     inv r0
0658 A2D8 0240  22     andi r0,>0f00
     A2DA 0F00     
0659 A2DC F002  18     socb r2,r0
0660 A2DE D800  30     movb r0,@SOUND
     A2E0 8400     
0661 A2E2 045B  20     b *r11
0662               
0663               ; Set noise type: R0=Noise type (MSB)
0664               ; original: A=noise command
0665               sn76489_control
0666 A2E4 0240  22     andi r0,>0f00
     A2E6 0F00     
0667 A2E8 0260  22     ori r0,>e000
     A2EA E000     
0668 A2EC D800  30     movb r0,@SOUND
     A2EE 8400     
0669 A2F0 045B  20     b *r11
0670               
0671               ; Set up vdp generic settings - R0 should be preloaded with a register in MSB, data in LSB
0672               ; R2 should contain the color table entry (in MSB), R3 the bitmap table (in MSB). Rest is
0673               ; hard coded. WARNING: Disables interrupts but does not re-enable them.
0674               vdp_generic_mode
0675 A2F2 C10B  18     mov r11,r4      ; save return
0676 A2F4 0300  22     limi 0          ; ints off
     A2F6 0000     
0677               
0678 A2F8 06A0  32     bl @WRTVDP      ; caller must set up this one
     A2FA A000     
0679 A2FC 0200  20     li r0,>01a2     ; VDP mode, screen off
     A2FE 01A2     
0680 A300 06A0  32     bl @WRTVDP
     A302 A000     
0681 A304 0200  20     li r0,>0206     ; >1800 pattern table
     A306 0206     
0682 A308 06A0  32     bl @WRTVDP
     A30A A000     
0683 A30C 0200  20     li r0,>0003     ; for color table
     A30E 0003     
0684 A310 F002  18     socb r2,r0
0685 A312 06C0  14     swpb r0
0686 A314 06A0  32     bl @WRTVDP
     A316 A000     
0687 A318 0200  20     li r0,>0004     ; for pattern table
     A31A 0004     
0688 A31C F003  18     socb r3,r0
0689 A31E 06C0  14     swpb r0
0690 A320 06A0  32     bl @WRTVDP
     A322 A000     
0691 A324 0200  20     li r0,>0536     ; >1b00 for sprite attribute table
     A326 0536     
0692 A328 06A0  32     bl @WRTVDP
     A32A A000     
0693 A32C 0200  20     li r0,>0607     ; >3800 for sprite pattern table
     A32E 0607     
0694 A330 06A0  32     bl @WRTVDP
     A332 A000     
0695 A334 0200  20     li r0,>0701     ; default screen color
     A336 0701     
0696 A338 06A0  32     bl @WRTVDP
     A33A A000     
0697 A33C 0454  20     b *r4
0698               
0699               ; set up VDP mode 0
0700               mode_0
0701 A33E C20B  18     mov r11,r8      ; careful - we call vdp_generic_mode and LDIRVM3
0702 A340 0200  20     li r0,>0800     ; bit we want to clear
     A342 0800     
0703 A344 5800  30     szcb r0,@mode
     A346 834E     
0704               
0705 A348 0202  20     li r2,>ff00	    ; $2000 for color table.
     A34A FF00     
0706 A34C 0203  20     li r3,>0300	    ; $0000 for bitmaps
     A34E 0300     
0707 A350 0200  20     li r0,>0002     ; r0 setting
     A352 0002     
0708 A354 06A0  32     bl @vdp_generic_mode    ; interrupts are now off
     A356 A2F2     
0709               
0710 A358 0200  20     li r0,>0100     ; target in VDP memory
     A35A 0100     
0711 A35C 0202  20     li r2,font_bitmaps  ; CPU memory source
     A35E A674     
0712 A360 0203  20     li r3,>0300     ; number of bytes
     A362 0300     
0713 A364 06A0  32     bl @LDIRVM3
     A366 A090     
0714               
0715 A368 0300  22     limi 2
     A36A 0002     
0716 A36C 0300  22     limi 0
     A36E 0000     
0717               
0718 A370 0200  20     li r0,>2000
     A372 2000     
0719 A374 0202  20     li r2,>f000
     A376 F000     
0720 A378 0203  20     li r3,>1800     ; fill color table with white on transparent
     A37A 1800     
0721 A37C 06A0  32     bl @FILVRM
     A37E A042     
0722               
0723 A380 0300  22     limi 2
     A382 0002     
0724 A384 06A0  32     bl @cls
     A386 A0FC     
0725 A388 C2C8  18     mov r8,r11      ; restore return address, and fall through to vdp_generic_sprites
0726               
0727               ; Initialize sprite table
0728               vdp_generic_sprites
0729 A38A C20B  18     mov r11,r8      ; save return address
0730 A38C 0200  20     li r0,>1b00     ; sprite attribute table in VDP
     A38E 1B00     
0731 A390 0202  20     li r2,>d100     ; off screen, and otherwise unimportant
     A392 D100     
0732 A394 0203  20     li r3,128       ; number of bytes
     A396 0080     
0733               
0734 A398 0300  22     limi 0
     A39A 0000     
0735 A39C 06A0  32     bl @FILVRM
     A39E A042     
0736               
0737 A3A0 0200  20     li r0,sprites
     A3A2 2000     
0738 A3A4 0202  20     li r2,>d1d1     ; write 2 bytes at a time
     A3A6 D1D1     
0739 A3A8 0203  20     li r3,128
     A3AA 0080     
0740               !1
0741 A3AC CC02  34     mov r2,*r0+     ; initialize CPU mirror
0742 A3AE 0643  14     dect r3
0743 A3B0 16FD  14     jne -!1
0744               
0745 A3B2 0200  20     li r0,>01e2     ; screen on
     A3B4 01E2     
0746 A3B6 06A0  32     bl @WRTVDP
     A3B8 A000     
0747               
0748 A3BA 0300  22     limi 2
     A3BC 0002     
0749 A3BE 0458  20     b *r8
0750               
0751               ; set up VDP mode 1
0752               mode_1
0753 A3C0 C20B  18     mov r11,r8      ; careful - we call vdp_generic_mode and LDIRVM3
0754 A3C2 0200  20     li r0,>0800     ; bit we want to clear
     A3C4 0800     
0755 A3C6 5800  30     szcb r0,@mode
     A3C8 834E     
0756               
0757 A3CA 0202  20     li r2,>ff00	    ; $2000 for color table.
     A3CC FF00     
0758 A3CE 0203  20     li r3,>0300	    ; $0000 for bitmaps
     A3D0 0300     
0759 A3D2 0200  20     li r0,>0002     ; r0 setting
     A3D4 0002     
0760 A3D6 06A0  32     bl @vdp_generic_mode    ; interrupts are now off
     A3D8 A2F2     
0761               
0762 A3DA 0200  20     li r0,>0000
     A3DC 0000     
0763 A3DE 0202  20     li r2,>0000
     A3E0 0000     
0764 A3E2 0203  20     li r3,>1800
     A3E4 1800     
0765 A3E6 06A0  32     bl @FILVRM      ; clear pattern table
     A3E8 A042     
0766               
0767 A3EA 0300  22     limi 2
     A3EC 0002     
0768               
0769 A3EE 0200  20     li r0,>2000
     A3F0 2000     
0770 A3F2 0202  20     li r2,>f000
     A3F4 F000     
0771 A3F6 0203  20     li r3,>1800
     A3F8 1800     
0772               
0773 A3FA 0300  22     limi 0
     A3FC 0000     
0774 A3FE 06A0  32     bl @FILVRM      ; init color table
     A400 A042     
0775 A402 0300  22     limi 2
     A404 0002     
0776               
0777 A406 0200  20     li r0,>5800     ; >1800 with the write bit set
     A408 5800     
0778 A40A 04C3  14     clr r3          ; value to write
0779               
0780               !1
0781 A40C 0300  22     limi 0          ; write the screen image table, but pause every 32 bytes for interrupts
     A40E 0000     
0782               
0783 A410 06C0  14     swpb r0
0784 A412 D800  30     movb r0,@VDPWADR
     A414 8C02     
0785 A416 06C0  14     swpb r0
0786 A418 D800  30     movb r0,@VDPWADR
     A41A 8C02     
0787               
0788 A41C 0202  20     li r2,32
     A41E 0020     
0789               
0790               !2
0791 A420 D803  30     movb r3,@VDPWDATA
     A422 8C00     
0792 A424 0223  22     ai r3,>0100
     A426 0100     
0793 A428 0602  14     dec r2
0794 A42A 16FA  14     jne -!2
0795               
0796 A42C 0300  22     limi 2
     A42E 0002     
0797 A430 0220  22     ai r0,32
     A432 0020     
0798 A434 0280  22     ci r0,>5b00
     A436 5B00     
0799 A438 1AE9  14     jl -!1
0800               
0801 A43A C2C8  18     mov r8,r11      ; restore return address
0802 A43C 10A6  14     jmp vdp_generic_sprites     ; using tail recursion
0803               
0804               ; Set up VDP mode 2
0805               mode_2
0806 A43E C20B  18     mov r11,r8      ; careful - we call vdp_generic_mode and LDIRVM3
0807 A440 0200  20     li r0,>0800     ; bit we want to set
     A442 0800     
0808 A444 F800  30     socb r0,@mode
     A446 834E     
0809               
0810 A448 0202  20     li r2,>8000	    ; $2000 for color table.
     A44A 8000     
0811 A44C 0203  20     li r3,>0000	    ; $0000 for bitmaps
     A44E 0000     
0812 A450 0200  20     li r0,>0000     ; r0 setting
     A452 0000     
0813 A454 06A0  32     bl @vdp_generic_mode    ; interrupts are now off
     A456 A2F2     
0814               
0815 A458 0200  20     li r0,>0100
     A45A 0100     
0816 A45C 0202  20     li r2,font_bitmaps
     A45E A674     
0817 A460 0203  20     li r3,>0300
     A462 0300     
0818 A464 06A0  32     bl @LDIRVM      ; load character set
     A466 A076     
0819               
0820 A468 0300  22     limi 2
     A46A 0002     
0821 A46C 0300  22     limi 0
     A46E 0000     
0822               
0823 A470 0200  20     li r0,>2000
     A472 2000     
0824 A474 0202  20     li r2,>f000
     A476 F000     
0825 A478 0203  20     li r3,>0020
     A47A 0020     
0826 A47C 06A0  32     bl @FILVRM      ; init color table
     A47E A042     
0827               
0828 A480 0300  22     limi 2
     A482 0002     
0829 A484 06A0  32     bl @cls         ; clear screen
     A486 A0FC     
0830 A488 C2C8  18     mov r8,r11      ; restore return
0831 A48A 0460  28     b @vdp_generic_sprites
     A48C A38A     
0832               
0833               ; this is where interrupts happen every frame
0834               ; Unlike a normal TI application, this one runs with interrupts ON,
0835               ; so all operations need to be sure to protect VDP address with LIMI 0,
0836               ; as well as any operations that might need to manipulate data managed
0837               ; by this interrupt. We enter via the normal user hook, so WP is on
0838               ; GPLWS, interrupts are off, and the VDP is already reset and status
0839               ; stashed on vdp_status (>837b). Our return address to the ROM is in
0840               ; r11, but we are NOT going to use it so that we don't need to reserve
0841               ; r8 for whatever nonsense it does. That means we need to load intws
0842               ; and RTWP ourselves at the end. We are on our own workspace so we
0843               ; don't have to worry about the main app's workspace.
0844               int_handler
0845               ; first copy the sprite table
0846 A48E 02E0  18     lwpi myintwp        ; separate safe workspace
     A490 8320     
0847               
0851               
0852 A492 020B  20     li r11,>005b        ; >1b00 with the write bit added, and byte flipped
     A494 005B     
0853 A496 D80B  30     movb r11,@VDPWADR   ; SAL address
     A498 8C02     
0854 A49A 06CB  14     swpb r11
0855 A49C D80B  30     movb r11,@VDPWADR   ; going to copy the sprite table to VDP
     A49E 8C02     
0856               
0857 A4A0 D2E0  30     movb @mode,r11
     A4A2 834E     
0858 A4A4 024B  22     andi r11,>0400      ; if bit >04 (inhibit flicker) is cleared, jump ahead to rotate
     A4A6 0400     
0859 A4A8 130A  14     jeq !4
0860               
0861 A4AA 04CB  14     clr r11             ; else we're going to just write it straight across
0862 A4AC 020C  20     li r12,128
     A4AE 0080     
0863 A4B0 020D  20     li r13,sprites
     A4B2 2000     
0864               !7
0865 A4B4 D83D  40     movb *r13+,@VDPWDATA
     A4B6 8C00     
0866 A4B8 060C  14     dec r12
0867 A4BA 16FC  14     jne -!7
0868 A4BC 101B  14     jmp !5
0869               
0870               !4
0871 A4BE D2E0  30     movb @flicker,r11   ; here we write it rotated every frame
     A4C0 834F     
0872 A4C2 022B  22     ai r11,>0400
     A4C4 0400     
0873 A4C6 024B  22     andi r11,>7f00
     A4C8 7F00     
0874 A4CA D80B  30     movb r11,@flicker
     A4CC 834F     
0875 A4CE 06CB  14     swpb r11            ; make count
0876 A4D0 020C  20     li r12,32           ; count
     A4D2 0020     
0877               
0878               !6
0879 A4D4 022B  22     ai r11,sprites        ; this is still faster than separate incs
     A4D6 2000     
0880 A4D8 D83B  40     movb *r11+,@VDPWDATA  ; copy one sprite
     A4DA 8C00     
0881 A4DC D83B  40     movb *r11+,@VDPWDATA  ; no delay needed
     A4DE 8C00     
0882 A4E0 D83B  40     movb *r11+,@VDPWDATA
     A4E2 8C00     
0883 A4E4 D81B  38     movb *r11,@VDPWDATA   ; small optimization, since we have an add coming anyway
     A4E6 8C00     
0884 A4E8 022B  22     ai r11,-(sprites-1)   ; remove address and add the rest of the increment
     A4EA E001     
0885 A4EC 024B  22     andi r11,>007F        ; clamp it in range
     A4EE 007F     
0886 A4F0 060C  14     dec r12
0887 A4F2 16F0  14     jne -!6
0888               !5
0889               
0890               ; next read the joysticks - output needs to be 21xxLDRU - 1 and 2 are button and button2 respectively
0891               ; We don't have a button 2. We also need to read the keyboard and fill in key1_data. key2_data we
0892               ; will leave unused. Note key1_data expects Coleco-style 0-9,10-*,11-#,15=not pressed, but we can throw
0893               ; everything else as ASCII. We could do a split keyboard for 2 players, but I guess we'll leave it for now.
0894               ; joy1
0895 A4F4 020C  20     li r12,>0024    ; CRU base of select output
     A4F6 0024     
0896 A4F8 020D  20     li r13,>0600    ; joystick 1 column
     A4FA 0600     
0897 A4FC 30CD  30     ldcr r13,3      ; select it
0898 A4FE 0B7C  30     src r12,7       ; delay
0899 A500 020C  20     li r12,>0006    ; CRU base of return read
     A502 0006     
0900 A504 360D  48     stcr r13,8      ; read 8 bits (we could get away with fewer, but be consistent)
0901 A506 06A0  32     bl @convert_joystick
     A508 A5C8     
0902 A50A D80C  30     movb r12,@joy1_data
     A50C 8346     
0903               
0904               ; joy2
0905 A50E 020C  20     li r12,>0024    ; CRU base of select output
     A510 0024     
0906 A512 020D  20     li r13,>0700    ; joystick 2 column
     A514 0700     
0907 A516 30CD  30     ldcr r13,3      ; select it
0908 A518 0B7C  30     src r12,7       ; delay
0909 A51A 020C  20     li r12,>0006    ; CRU base of return read
     A51C 0006     
0910 A51E 360D  48     stcr r13,8      ; read 8 bits (we could get away with fewer, but be consistent)
0911 A520 06A0  32     bl @convert_joystick
     A522 A5C8     
0912 A524 D80C  30     movb r12,@joy2_data
     A526 8347     
0913               
0914               ; do a quick modifier read for button 2 (control and fctn for joy 1 and 2 respectively)
0915 A528 020C  20     li r12,>0024    ; CRU base of select output
     A52A 0024     
0916 A52C 04CD  14     clr r13         ; modifiers
0917 A52E 30CD  30     ldcr r13,3      ; select it
0918 A530 0B7C  30     src r12,7       ; delay
0919 A532 020C  20     li r12,>0006    ; CRU base of return read
     A534 0006     
0920 A536 360D  48     stcr r13,8      ; read 8 bits (we could get away with fewer, but be consistent)
0921 A538 020C  20     li r12,>4000    ; control
     A53A 4000     
0922 A53C 020B  20     li r11,>8000    ; button 2 bit
     A53E 8000     
0923 A540 274C  18     czc r12,r13
0924 A542 1602  14     jne .noc1b2
0925 A544 F80B  30     socb r11,@joy1_data
     A546 8346     
0926               .noc1b2
0927 A548 020C  20     li r12,>1000    ; fctn
     A54A 1000     
0928 A54C 274C  18     czc r12,r13
0929 A54E 1602  14     jne .noc2b2
0930 A550 F80B  30     socb r11,@joy2_data
     A552 8347     
0931               .noc2b2
0932               
0933               ; key1 - this is a very simple read with no modifiers, it just gives access to the letters and numbers
0934 A554 04CB  14     clr r11         ; column
0935               !key1
0936 A556 020C  20     li r12,>0024    ; CRU base of select output
     A558 0024     
0937 A55A 30CB  30     ldcr r11,3      ; select column
0938 A55C 0B7C  30     src r12,7       ; delay
0939 A55E 020C  20     li r12,>0006    ; CRU base of return read
     A560 0006     
0940 A562 360D  48     stcr r13,8      ; get the bits
0941 A564 020C  20     li r12,7        ; bit search
     A566 0007     
0942               !key2
0943 A568 0A1C  18     sla r12,1
0944 A56A 276C  34     czc @masktable(r12),r13    ; bit set?
     A56C A638     
0945 A56E 1607  14     jne !key3       ; continue
0946 A570 091C  18     srl r12,1
0947 A572 095B  26     srl r11,5
0948 A574 A2CC  18     a r12,r11       ; calculate table offset
0949 A576 D82B  46     movb @keyboard_table(r11),@key1_data    ; might be a dead key, but that's okay
     A578 A608     
     A57A 8348     
0950 A57C 100D  14     jmp !key4
0951               
0952               !key3
0953 A57E 091C  18     srl r12,1
0954 A580 060C  14     dec r12
0955 A582 15F2  14     jgt -!key2
0956 A584 13F1  14     jeq -!key2      ; we don't have a jump if not negative
0957               
0958 A586 022B  22     ai r11,>0100
     A588 0100     
0959 A58A 028B  22     ci r11,>0600
     A58C 0600     
0960 A58E 16E3  14     jne -!key1
0961               
0962 A590 020B  20     li r11,>0f00
     A592 0F00     
0963 A594 D80B  30     movb r11,@key1_data     ; no key was pressed
     A596 8348     
0964               !key4
0965               
0966               ; check for quit - attempts to work it into the above were not working
0967               ; borrowed from console ROM
0968 A598 020C  20     li r12,>0024
     A59A 0024     
0969 A59C 30CC  30     ldcr r12,3
0970 A59E 0B7C  30     src r12,7
0971 A5A0 020C  20     li r12,>0006
     A5A2 0006     
0972 A5A4 360B  48     stcr r11,8
0973 A5A6 020C  20     li r12,>1100
     A5A8 1100     
0974 A5AA 26CC  18     czc r12,r11
0975 A5AC 1604  14     jne .noquit
0976 A5AE 04E0  26     clr @intwsr2
     A5B0 83C4     
0977 A5B2 0420  42     blwp @>0000
     A5B4 0000     
0978               .noquit
0979               
0986               
0987 A5B6 05A0  26     inc @frame
     A5B8 834A     
0988 A5BA 0200  20     li r0,3
     A5BC 0003     
0989 A5BE A800  30     a r0,@lfsr  ; Make LFSR more random
     A5C0 834C     
0990               
1006               
1007               
1008               ; restore the saved bank
1013               
1014               ; get back the interrupt workspace and return
1015 A5C2 02E0  18     lwpi INTWS
     A5C4 83C0     
1016 A5C6 0380  18     RTWP
1017               
1018               ; given a joystick read in r13, return bits in r12
1019               ; The final output is 8 bits:
1020               ; 21xxLDRU - 1 and 2 are button and button2 respectively
1021               ; NOTE: if called by the compiler, this won't act as expected
1022               convert_joystick
1023 A5C8 04CC  14     clr r12
1024 A5CA 2760  34     czc @joystick_table,r13
     A5CC A5FE     
1025 A5CE 1602  14     jne !j1
1026 A5D0 026C  22     ori r12,>0800
     A5D2 0800     
1027               !j1
1028 A5D4 2760  34     czc @joystick_table+2,r13
     A5D6 A600     
1029 A5D8 1602  14     jne !j2
1030 A5DA 026C  22     ori r12,>0400
     A5DC 0400     
1031               !j2
1032 A5DE 2760  34     czc @joystick_table+4,r13
     A5E0 A602     
1033 A5E2 1602  14     jne !j3
1034 A5E4 026C  22     ori r12,>0200
     A5E6 0200     
1035               !j3
1036 A5E8 2760  34     czc @joystick_table+6,r13
     A5EA A604     
1037 A5EC 1602  14     jne !j4
1038 A5EE 026C  22     ori r12,>0100
     A5F0 0100     
1039               !j4
1040 A5F2 2760  34     czc @joystick_table+8,r13
     A5F4 A606     
1041 A5F6 1602  14     jne !j5
1042 A5F8 026C  22     ori r12,>4000
     A5FA 4000     
1043               !j5
1044 A5FC 045B  20     b *r11
1045               
1046               joystick_table
1047 A5FE 0200         data >0200,>0800,>0400,>1000,>0100    ; LDRU1
     A600 0800     
     A602 0400     
     A604 1000     
     A606 0100     
1048               
1049               ; By columns, then rows. 8 Rows per column. No shift states - converted to the Coleco returns
1050               ; for numbers, , and . become ; and #. Control is control1 button2, and Fctn is control2 button2
1051               keyboard_table
1052 A608 3D20         byte 61,32,11,15,254,15,255,15  ; '=',' ',enter,n/a,fctn,shift,ctrl,n/a
     A60A 0B0F     
     A60C FE0F     
     A60E FF0F     
1053 A610 2E4C         byte 46,76,79,9,2,83,87,88      ; '.','L','O','9','2','S','W','X'
     A612 4F09     
     A614 0253     
     A616 5758     
1054 A618 2C4B         byte 44,75,73,8,3,68,69,67      ; ',','K','I','8','3','D','E','C'
     A61A 4908     
     A61C 0344     
     A61E 4543     
1055 A620 4D4A         byte 77,74,85,7,4,70,82,86      ; 'M','J','U','7','4','F','R','V'
     A622 5507     
     A624 0446     
     A626 5256     
1056 A628 4E48         byte 78,72,89,6,5,71,84,66      ; 'N','H','Y','6','5','G','T','B'
     A62A 5906     
     A62C 0547     
     A62E 5442     
1057 A630 0A3B         byte 10,59,80,0,1,65,81,90      ; '/',';','P','0','1','A','Q','Z'
     A632 5000     
     A634 0141     
     A636 515A     
1058               
1059               masktable
1060 A638 0100         data >0100,>0200,>0400,>0800,>1000,>2000,>4000,>8000
     A63A 0200     
     A63C 0400     
     A63E 0800     
     A640 1000     
     A642 2000     
     A644 4000     
     A646 8000     
1061 A648 0F00         data >0f00
1062               
1063               ; wait for frame to increment
1064               wait
1065 A64A C020  30     mov @frame,r0
     A64C 834A     
1066               !1
1067 A64E 8800  30     c r0,@frame
     A650 834A     
1068 A652 13FD  14     jeq -!1
1069 A654 045B  20     b *r11
1070               
1071               ; initialize music system
1072               music_init
1073               ; mute sound chip
1074 A656 0200  20     li r0,>9fbf
     A658 9FBF     
1075 A65A D800  30     movb r0,@SOUND
     A65C 8400     
1076 A65E 06C0  14     swpb r0
1077 A660 D800  30     movb r0,@SOUND
     A662 8400     
1078 A664 0200  20     li r0,>dfff
     A666 DFFF     
1079 A668 D800  30     movb r0,@SOUND
     A66A 8400     
1080 A66C 06C0  14     swpb r0
1081 A66E D800  30     movb r0,@SOUND
     A670 8400     
1082               
1084               ; return if we don't have the player compiled in
1085 A672 045B  20     b *r11
1087               
1088               ; all the rest of the player is under this if
1525               
1526               
1819               
1820               ; Required for Creativision because it doesn't provide an ASCII charset.
1821               ; Kept for TI to reduce dependence on the console and because it looks
1822               ; better than the caps.
1823               ;
1824               ; My personal font for TMS9928.
1825               ;
1826               ; Patterned after the TMS9928 programming manual 6x8 letters
1827               ; with better lowercase letters, also I made a proper
1828               ; AT sign.
1829               ;
1830               font_bitmaps
1831 A674 0000         byte >00,>00,>00,>00,>00,>00,>00,>00      ; >20 space
     A676 0000     
     A678 0000     
     A67A 0000     
1832 A67C 2020         byte >20,>20,>20,>20,>20,>00,>20,>00      ; >21 !
     A67E 2020     
     A680 2000     
     A682 2000     
1833 A684 5050         byte >50,>50,>50,>00,>00,>00,>00,>00      ; >22 "
     A686 5000     
     A688 0000     
     A68A 0000     
1834 A68C 5050         byte >50,>50,>f8,>50,>f8,>50,>50,>00      ; >23 #
     A68E F850     
     A690 F850     
     A692 5000     
1835 A694 2078         byte >20,>78,>a0,>70,>28,>f0,>20,>00      ; >24 >
     A696 A070     
     A698 28F0     
     A69A 2000     
1836 A69C C0C8         byte >c0,>c8,>10,>20,>40,>98,>18,>00      ; >25 %
     A69E 1020     
     A6A0 4098     
     A6A2 1800     
1837 A6A4 40A0         byte >40,>a0,>40,>a0,>a8,>90,>68,>00      ; >26 &
     A6A6 40A0     
     A6A8 A890     
     A6AA 6800     
1838 A6AC 6020         byte >60,>20,>40,>00,>00,>00,>00,>00      ; >27 '
     A6AE 4000     
     A6B0 0000     
     A6B2 0000     
1839 A6B4 1020         byte >10,>20,>40,>40,>40,>20,>10,>00      ; >28 (
     A6B6 4040     
     A6B8 4020     
     A6BA 1000     
1840 A6BC 4020         byte >40,>20,>10,>10,>10,>20,>40,>00      ; >29 )
     A6BE 1010     
     A6C0 1020     
     A6C2 4000     
1841 A6C4 00A8         byte >00,>a8,>70,>20,>70,>a8,>00,>00      ; >2a *
     A6C6 7020     
     A6C8 70A8     
     A6CA 0000     
1842 A6CC 0020         byte >00,>20,>20,>f8,>20,>20,>00,>00      ; >2b +
     A6CE 20F8     
     A6D0 2020     
     A6D2 0000     
1843 A6D4 0000         byte >00,>00,>00,>00,>00,>60,>20,>40      ; >2c ,
     A6D6 0000     
     A6D8 0060     
     A6DA 2040     
1844 A6DC 0000         byte >00,>00,>00,>fc,>00,>00,>00,>00      ; >2d -
     A6DE 00FC     
     A6E0 0000     
     A6E2 0000     
1845 A6E4 0000         byte >00,>00,>00,>00,>00,>00,>60,>00      ; >2e .
     A6E6 0000     
     A6E8 0000     
     A6EA 6000     
1846 A6EC 0008         byte >00,>08,>10,>20,>40,>80,>00,>00      ; >2f /
     A6EE 1020     
     A6F0 4080     
     A6F2 0000     
1847 A6F4 7088         byte >70,>88,>98,>a8,>c8,>88,>70,>00      ; >30 0
     A6F6 98A8     
     A6F8 C888     
     A6FA 7000     
1848 A6FC 2060         byte >20,>60,>20,>20,>20,>20,>f8,>00      ; >31 1
     A6FE 2020     
     A700 2020     
     A702 F800     
1849 A704 7088         byte >70,>88,>08,>10,>60,>80,>f8,>00      ; >32 2
     A706 0810     
     A708 6080     
     A70A F800     
1850 A70C 7088         byte >70,>88,>08,>30,>08,>88,>70,>00      ; >33 3
     A70E 0830     
     A710 0888     
     A712 7000     
1851 A714 3050         byte >30,>50,>90,>90,>f8,>10,>10,>00      ; >34 4
     A716 9090     
     A718 F810     
     A71A 1000     
1852 A71C F880         byte >f8,>80,>f0,>08,>08,>08,>f0,>00      ; >35 5
     A71E F008     
     A720 0808     
     A722 F000     
1853 A724 3040         byte >30,>40,>80,>f0,>88,>88,>70,>00      ; >36 6
     A726 80F0     
     A728 8888     
     A72A 7000     
1854 A72C F808         byte >f8,>08,>10,>20,>20,>20,>20,>00      ; >37 7
     A72E 1020     
     A730 2020     
     A732 2000     
1855 A734 7088         byte >70,>88,>88,>70,>88,>88,>70,>00      ; >38 8
     A736 8870     
     A738 8888     
     A73A 7000     
1856 A73C 7088         byte >70,>88,>88,>78,>08,>10,>60,>00      ; >39 9
     A73E 8878     
     A740 0810     
     A742 6000     
1857 A744 0000         byte >00,>00,>00,>60,>00,>60,>00,>00      ; >3a
     A746 0060     
     A748 0060     
     A74A 0000     
1858 A74C 0000         byte >00,>00,>00,>60,>00,>60,>20,>40      ; >3b *
     A74E 0060     
     A750 0060     
     A752 2040     
1859 A754 1020         byte >10,>20,>40,>80,>40,>20,>10,>00      ; >3c <
     A756 4080     
     A758 4020     
     A75A 1000     
1860 A75C 0000         byte >00,>00,>f8,>00,>f8,>00,>00,>00      ; >3d =
     A75E F800     
     A760 F800     
     A762 0000     
1861 A764 0804         byte >08,>04,>02,>01,>02,>04,>08,>00      ; >3e >
     A766 0201     
     A768 0204     
     A76A 0800     
1862 A76C 7088         byte >70,>88,>08,>10,>20,>00,>20,>00      ; >3f ?
     A76E 0810     
     A770 2000     
     A772 2000     
1863 A774 7088         byte >70,>88,>98,>a8,>98,>80,>70,>00      ; >40 @
     A776 98A8     
     A778 9880     
     A77A 7000     
1864 A77C 2050         byte >20,>50,>88,>88,>f8,>88,>88,>00      ; >41 A
     A77E 8888     
     A780 F888     
     A782 8800     
1865 A784 F088         byte >f0,>88,>88,>f0,>88,>88,>f0,>00      ; >42 B
     A786 88F0     
     A788 8888     
     A78A F000     
1866 A78C 7088         byte >70,>88,>80,>80,>80,>88,>70,>00      ; >43 C
     A78E 8080     
     A790 8088     
     A792 7000     
1867 A794 F088         byte >f0,>88,>88,>88,>88,>88,>f0,>00      ; >44 D
     A796 8888     
     A798 8888     
     A79A F000     
1868 A79C F880         byte >f8,>80,>80,>f0,>80,>80,>f8,>00      ; >45 E
     A79E 80F0     
     A7A0 8080     
     A7A2 F800     
1869 A7A4 F880         byte >f8,>80,>80,>f0,>80,>80,>80,>00      ; >46 F
     A7A6 80F0     
     A7A8 8080     
     A7AA 8000     
1870 A7AC 7088         byte >70,>88,>80,>b8,>88,>88,>70,>00      ; >47 G
     A7AE 80B8     
     A7B0 8888     
     A7B2 7000     
1871 A7B4 8888         byte >88,>88,>88,>f8,>88,>88,>88,>00      ; >48 H
     A7B6 88F8     
     A7B8 8888     
     A7BA 8800     
1872 A7BC 7020         byte >70,>20,>20,>20,>20,>20,>70,>00      ; >49 I
     A7BE 2020     
     A7C0 2020     
     A7C2 7000     
1873 A7C4 0808         byte >08,>08,>08,>08,>88,>88,>70,>00      ; >4A J
     A7C6 0808     
     A7C8 8888     
     A7CA 7000     
1874 A7CC 8890         byte >88,>90,>a0,>c0,>a0,>90,>88,>00      ; >4B K
     A7CE A0C0     
     A7D0 A090     
     A7D2 8800     
1875 A7D4 8080         byte >80,>80,>80,>80,>80,>80,>f8,>00      ; >4C L
     A7D6 8080     
     A7D8 8080     
     A7DA F800     
1876 A7DC 88D8         byte >88,>d8,>a8,>a8,>88,>88,>88,>00      ; >4D M
     A7DE A8A8     
     A7E0 8888     
     A7E2 8800     
1877 A7E4 88C8         byte >88,>c8,>c8,>a8,>98,>98,>88,>00      ; >4E N
     A7E6 C8A8     
     A7E8 9898     
     A7EA 8800     
1878 A7EC 7088         byte >70,>88,>88,>88,>88,>88,>70,>00      ; >4F O
     A7EE 8888     
     A7F0 8888     
     A7F2 7000     
1879 A7F4 F088         byte >f0,>88,>88,>f0,>80,>80,>80,>00      ; >50 P
     A7F6 88F0     
     A7F8 8080     
     A7FA 8000     
1880 A7FC 7088         byte >70,>88,>88,>88,>88,>a8,>90,>68      ; >51 Q
     A7FE 8888     
     A800 88A8     
     A802 9068     
1881 A804 F088         byte >f0,>88,>88,>f0,>a0,>90,>88,>00      ; >52 R
     A806 88F0     
     A808 A090     
     A80A 8800     
1882 A80C 7088         byte >70,>88,>80,>70,>08,>88,>70,>00      ; >53 S
     A80E 8070     
     A810 0888     
     A812 7000     
1883 A814 F820         byte >f8,>20,>20,>20,>20,>20,>20,>00      ; >54 T
     A816 2020     
     A818 2020     
     A81A 2000     
1884 A81C 8888         byte >88,>88,>88,>88,>88,>88,>70,>00      ; >55 U
     A81E 8888     
     A820 8888     
     A822 7000     
1885 A824 8888         byte >88,>88,>88,>88,>50,>50,>20,>00      ; >56 V
     A826 8888     
     A828 5050     
     A82A 2000     
1886 A82C 8888         byte >88,>88,>88,>a8,>a8,>d8,>88,>00      ; >57 W
     A82E 88A8     
     A830 A8D8     
     A832 8800     
1887 A834 8888         byte >88,>88,>50,>20,>50,>88,>88,>00      ; >58 X
     A836 5020     
     A838 5088     
     A83A 8800     
1888 A83C 8888         byte >88,>88,>88,>70,>20,>20,>20,>00      ; >59 Y
     A83E 8870     
     A840 2020     
     A842 2000     
1889 A844 F808         byte >f8,>08,>10,>20,>40,>80,>f8,>00      ; >5A Z
     A846 1020     
     A848 4080     
     A84A F800     
1890 A84C 7860         byte >78,>60,>60,>60,>60,>60,>78,>00      ; >5B [
     A84E 6060     
     A850 6060     
     A852 7800     
1891 A854 0080         byte >00,>80,>40,>20,>10,>08,>00,>00      ; >5C \
     A856 4020     
     A858 1008     
     A85A 0000     
1892 A85C F030         byte >F0,>30,>30,>30,>30,>30,>F0,>00      ; >5D ]
     A85E 3030     
     A860 3030     
     A862 F000     
1893 A864 2050         byte >20,>50,>88,>00,>00,>00,>00,>00      ; >5E
     A866 8800     
     A868 0000     
     A86A 0000     
1894 A86C 0000         byte >00,>00,>00,>00,>00,>00,>f8,>00      ; >5F _
     A86E 0000     
     A870 0000     
     A872 F800     
1895 A874 4020         byte >40,>20,>10,>00,>00,>00,>00,>00      ; >60
     A876 1000     
     A878 0000     
     A87A 0000     
1896 A87C 0000         byte >00,>00,>68,>98,>88,>98,>68,>00      ; >61 a
     A87E 6898     
     A880 8898     
     A882 6800     
1897 A884 8080         byte >80,>80,>f0,>88,>88,>88,>f0,>00      ; >62 b
     A886 F088     
     A888 8888     
     A88A F000     
1898 A88C 0000         byte >00,>00,>78,>80,>80,>80,>78,>00      ; >63 c
     A88E 7880     
     A890 8080     
     A892 7800     
1899 A894 0808         byte >08,>08,>68,>98,>88,>98,>68,>00      ; >64 d
     A896 6898     
     A898 8898     
     A89A 6800     
1900 A89C 0000         byte >00,>00,>70,>88,>f8,>80,>70,>00      ; >65 e
     A89E 7088     
     A8A0 F880     
     A8A2 7000     
1901 A8A4 3048         byte >30,>48,>40,>e0,>40,>40,>40,>00      ; >66 f
     A8A6 40E0     
     A8A8 4040     
     A8AA 4000     
1902 A8AC 0000         byte >00,>00,>78,>88,>88,>78,>08,>70      ; >67 g
     A8AE 7888     
     A8B0 8878     
     A8B2 0870     
1903 A8B4 8080         byte >80,>80,>f0,>88,>88,>88,>88,>00      ; >68 h
     A8B6 F088     
     A8B8 8888     
     A8BA 8800     
1904 A8BC 2000         byte >20,>00,>60,>20,>20,>20,>70,>00      ; >69 i
     A8BE 6020     
     A8C0 2020     
     A8C2 7000     
1905 A8C4 0800         byte >08,>00,>18,>08,>88,>88,>70,>00      ; >6a j
     A8C6 1808     
     A8C8 8888     
     A8CA 7000     
1906 A8CC 8080         byte >80,>80,>88,>90,>e0,>90,>88,>00      ; >6b k
     A8CE 8890     
     A8D0 E090     
     A8D2 8800     
1907 A8D4 6020         byte >60,>20,>20,>20,>20,>20,>70,>00      ; >6c l
     A8D6 2020     
     A8D8 2020     
     A8DA 7000     
1908 A8DC 0000         byte >00,>00,>d0,>a8,>a8,>a8,>a8,>00      ; >6d m
     A8DE D0A8     
     A8E0 A8A8     
     A8E2 A800     
1909 A8E4 0000         byte >00,>00,>b0,>c8,>88,>88,>88,>00      ; >6e n
     A8E6 B0C8     
     A8E8 8888     
     A8EA 8800     
1910 A8EC 0000         byte >00,>00,>70,>88,>88,>88,>70,>00      ; >6f o
     A8EE 7088     
     A8F0 8888     
     A8F2 7000     
1911 A8F4 0000         byte >00,>00,>f0,>88,>88,>88,>f0,>80      ; >70 p
     A8F6 F088     
     A8F8 8888     
     A8FA F080     
1912 A8FC 0000         byte >00,>00,>78,>88,>88,>88,>78,>08      ; >71 q
     A8FE 7888     
     A900 8888     
     A902 7808     
1913 A904 0000         byte >00,>00,>b8,>c0,>80,>80,>80,>00      ; >72 r
     A906 B8C0     
     A908 8080     
     A90A 8000     
1914 A90C 0000         byte >00,>00,>78,>80,>70,>08,>f0,>00      ; >73 s
     A90E 7880     
     A910 7008     
     A912 F000     
1915 A914 2020         byte >20,>20,>f8,>20,>20,>20,>20,>00      ; >74 t
     A916 F820     
     A918 2020     
     A91A 2000     
1916 A91C 0000         byte >00,>00,>88,>88,>88,>98,>68,>00      ; >75 u
     A91E 8888     
     A920 8898     
     A922 6800     
1917 A924 0000         byte >00,>00,>88,>88,>88,>50,>20,>00      ; >76 v
     A926 8888     
     A928 8850     
     A92A 2000     
1918 A92C 0000         byte >00,>00,>88,>a8,>a8,>a8,>50,>00      ; >77 w
     A92E 88A8     
     A930 A8A8     
     A932 5000     
1919 A934 0000         byte >00,>00,>88,>50,>20,>50,>88,>00      ; >78 x
     A936 8850     
     A938 2050     
     A93A 8800     
1920 A93C 0000         byte >00,>00,>88,>88,>98,>68,>08,>70      ; >79 y
     A93E 8888     
     A940 9868     
     A942 0870     
1921 A944 0000         byte >00,>00,>f8,>10,>20,>40,>f8,>00      ; >7a z
     A946 F810     
     A948 2040     
     A94A F800     
1922 A94C 1820         byte >18,>20,>20,>40,>20,>20,>18,>00      ; >7b {
     A94E 2040     
     A950 2020     
     A952 1800     
1923 A954 2020         byte >20,>20,>20,>20,>20,>20,>20,>00      ; >7c |
     A956 2020     
     A958 2020     
     A95A 2000     
1924 A95C C020         byte >c0,>20,>20,>10,>20,>20,>c0,>00      ; >7d }
     A95E 2010     
     A960 2020     
     A962 C000     
1925 A964 0000         byte >00,>00,>40,>a8,>10,>00,>00,>00      ; >7e
     A966 40A8     
     A968 1000     
     A96A 0000     
1926 A96C 7070         byte >70,>70,>20,>f8,>20,>70,>50,>00      ; >7f
     A96E 20F8     
     A970 2070     
     A972 5000     
1927               
1928               
1929               ; The stack is simulated using R10. It's not used in
1930               ; these functions but the compiled code will need it.
1931               ; To push: dect r10, mov r0,*r10
1932               ; To pop:  mov *r10+,r0
1933               ; However, for JSR a function is helpful - call this like:
1934               ; bl @jsr
1935               ; data <function_address>
1936               jsr
1937 A974 C3BB  30     mov *r11+,r14       ; get the jump address
1938 A976 064A  14     dect r10            ; make room on stack
1939 A978 C68B  30     mov r11,*r10        ; save return address
1940 A97A 069E  24     bl *r14             ; new subroutine call, we can come back here
1941 A97C C2FA  30     mov *r10+,r11       ; get real return off stack - warning, all basic functions do this inline rather than return
1942 A97E 045B  20     b *r11              ; back to caller
1943               
1944               ; entry code - we should enter with ints off anyway
1945               START
1946 A980 0300  22     limi 0
     A982 0000     
1947 A984 02E0  18     lwpi mywp           ; get our private workspace
     A986 8300     
1948 A988 020A  20     li R10,>4000        ; pseudo stack pointer
     A98A 4000     
1949 A98C D820  42     movb @>8802,@vdp_status  ; clear any pending VDP interrupt and initialize vdp_status if needed
     A98E 8802     
     A990 837B     
1950               
1951 A992 0200  20     li r0,>0182         ; select 16k, magnified, blank, no ints
     A994 0182     
1952 A996 06A0  32     bl @wrtvdp          ; other ports write this twice... maybe to be 100% sure no NMI happens? We don't have that problem.
     A998 A000     
1953               
1954 A99A 0200  20     li r0,firstsp       ; clear variables in scratchpad
     A99C 8340     
1955               stlp1
1956 A99E 04F0  30     clr *r0+
1957 A9A0 0280  22     ci r0,lastsp
     A9A2 8352     
1958 A9A4 1AFC  14     jl stlp1
1959               
1960 A9A6 0200  20     li r0,>2000         ; clear lower 8k RAM
     A9A8 2000     
1961               stlp2
1962 A9AA 04F0  30     clr *r0+
1963 A9AC 0280  22     ci r0,>4000
     A9AE 4000     
1964 A9B0 16FC  14     jne stlp2
1965               
1966 A9B2 0200  20     li r0,>0f0f
     A9B4 0F0F     
1967 A9B6 C800  30     mov r0,@key1_data   ; gets both - no key is >0f return
     A9B8 8348     
1968               
1969 A9BA 06A0  32     bl @music_init
     A9BC A656     
1970 A9BE 06A0  32     bl @mode_0
     A9C0 A33E     
1971               
1972 A9C2 0200  20     li r0,int_handler
     A9C4 A48E     
1973 A9C6 C800  30     mov r0,@intwsr2     ; set interrupt function
     A9C8 83C4     
1974 A9CA 0200  20     li r0,>8000
     A9CC 8000     
1975 A9CE C800  30     mov r0,@intwsr1     ; disable most console ROM interrupt handling
     A9D0 83C2     
1976 A9D2 0201  20     li r1,1
     A9D4 0001     
1977 A9D6 C801  30     mov r1,@intwsr11    ; make sure screen timeout is odd so it never triggers
     A9D8 83D6     
1978 A9DA 0201  20     li r1,>0108
     A9DC 0108     
1979 A9DE C801  30     mov r1,@gplwsr14    ; GPL status flags, should already be this, but be sure
     A9E0 83FC     
1980 A9E2 D801  30     movb r1,@ntsc       ; init ntsc flag to true - we actually do not have a good way to detect
     A9E4 8350     
1981 A9E6 0201  20     li r1,>8c02
     A9E8 8C02     
1982 A9EA C801  30     mov r1,@gplwsr15    ; Address of VDP for GPL - should already be this, but be sure
     A9EC 83FE     
1983               
1984               ;;; CVBasic code starts here
1985               	; 	' ============================================================
1986               	; 	' ADVENTIRE - an Atari-2600-Adventure-style action-adventure.
1987               	; 	' Original code, art and map (mechanics homage; nothing copied).
1988               	; 	'
1989               	; 	' Quest: open the GOLD castle, take the SWORD, win the WHITE
1990               	; 	' key from the red dragon's maze, fetch the BRIDGE from the
1991               	; 	' white castle, bridge into the sealed cave chamber for the
1992               	; 	' BLACK key, brave the black castle, and carry the CHALICE
1993               	; 	' home inside the gold castle - alive.
1994               	; 	'
1995               	; 	'  - 13 rooms, each a 16x12 grid of 16x16-pixel blocks (one
1996               	; 	'    DATA byte pair per row); collision is a pure RAM bit test,
1997               	; 	'    zero per-frame VRAM reads.
1998               	; 	'  - THREE castles (gold/black/white) with key-matched gates;
1999               	; 	'    THREE dragons (yellow/green/red - red is faster).
2000               	; 	'  - You carry ONE object at a time (touch = pick up / swap,
2001               	; 	'    FIRE = drop). A picked-up object stays at the offset where
2002               	; 	'    you grabbed it (grab the sword on your left, it fights on
2003               	; 	'    your left).
2004               	; 	'  - The BRIDGE (32x32): drop it across a wall and walk through
2005               	; 	'    its channel. It is the only way into the sealed chamber.
2006               	; 	'    You grab it by its RAILS only (walking the channel must
2007               	; 	'    not re-pick it), its Y snaps to the block grid on drop so
2008               	; 	'    it always spans whole wall rows, and a second BLACK sprite
2009               	; 	'    fills the channel so the passage reads as an opening.
2010               	; 	'  - The BAT roams the whole map (through walls), stealing and
2011               	; 	'    swapping objects - even out of your hands. Snatch back!
2012               	; 	'  - Touched by a dragon without the sword = swallowed; FIRE
2013               	; 	'    then starts a FRESH game (full reset).
2014               	; 	'  - Sprites use 2x magnification (VDP R1 = $E3): 16x16 art
2015               	; 	'    renders 32x32 (4x4 characters) - towering dragons and a
2016               	; 	'    player-spanning bridge. The player square stays 8x8 so it
2017               	; 	'    can thread the 16px maze corridors.
2018               	; 	'
2019               	; 	' Build (ONE source, dual target):
2020               	; 	'   TI-99/4A:     cvbasic --ti994a adventire.bas -> xas99 -> linkticart
2021               	; 	'   ColecoVision: cvbasic adventire.bas -> gasm80 -> adventire.rom
2022               	; 	' Loop is paced to 30Hz (two WAITs) on both machines.
2023               	; 	' ============================================================
2024               	;
2025               	; 	DIM rm(24), msk(8)
2026               	; 	DIM lnn(13), lne(13), lns(13), lnw(13), rcol(13)
2027               	; 	DIM orm(6), obx(6), oby(6), ocl(6)
2028               	; 	DIM drm(3), ddx(3), ddy(3), dst(3), dcl(3), dsp(3), gop(3)
2029               	;
2030               	; 	BORDER 1
2031 A9EE 0200  20 	li r0,256   ; 1*256
     A9F0 0100     
2032 A9F2 0980  32 	srl r0,8
2033 A9F4 0260  22 	ori r0,>8700
     A9F6 8700     
2034 A9F8 06C0  14 	swpb r0
2035 A9FA 0300  22 	limi 0
     A9FC 0000     
2036 A9FE D800  30 	movb r0,@VDPWADR
     AA00 8C02     
2037 AA02 06C0  14 	swpb r0
2038 AA04 D800  30 	movb r0,@VDPWADR
     AA06 8C02     
2039 AA08 0300  22 	limi 2
     AA0A 0002     
2040               	; 	' 2x sprite magnification: SI=1 (16x16 patterns) + MAG=1 -> sprites
2041               	; 	' render 32x32. VDP()= is CVBasic's portable register write (TI+CV).
2042               	; 	VDP(1) = $E3
2043 AA0C 0200  20 	li r0,58112   ; 227*256
     AA0E E300     
2044 AA10 0201  20 	li r1,33024   ; 1*256+0x8000
     AA12 8100     
2045 AA14 D800  30 	movb r0,@VDPWADR
     AA16 8C02     
2046 AA18 D801  30 	movb r1,@VDPWADR
     AA1A 8C02     
2047               	; 	DEFINE CHAR 128, 2, wallchar
2048 AA1C 0204  20 	li r4,128
     AA1E 0080     
2049 AA20 0205  20 	li r5,512
     AA22 0200     
2050 AA24 0200  20 	li r0,cvb_WALLCHAR
     AA26 D446     
2051 AA28 06A0  32 	bl @jsr
     AA2A A974     
2052 AA2C A1FA     	data define_char
2053               	; 	DEFINE COLOR 128, 2, wallcol
2054 AA2E 0204  20 	li r4,128
     AA30 0080     
2055 AA32 0205  20 	li r5,512
     AA34 0200     
2056 AA36 0200  20 	li r0,cvb_WALLCOL
     AA38 D456     
2057 AA3A 06A0  32 	bl @jsr
     AA3C A974     
2058 AA3E A22E     	data define_color
2059               	; 	DEFINE SPRITE 0, 10, gsprites
2060 AA40 04C4  14 	clr r4
2061 AA42 0205  20 	li r5,2560
     AA44 0A00     
2062 AA46 0200  20 	li r0,cvb_GSPRITES
     AA48 D466     
2063 AA4A 06A0  32 	bl @jsr
     AA4C A974     
2064 AA4E A1DA     	data define_sprite
2065               	;
2066               	; 	RESTORE mskdat
2067 AA50 0200  20 	li r0,cvb_MSKDAT
     AA52 D2A4     
2068 AA54 C800  30 	mov r0,@read_pointer
     AA56 8340     
2069               	; 	FOR i = 0 TO 7 : READ BYTE msk(i) : NEXT i
2070 AA58 04C0  14 	clr r0
2071 AA5A D800  38 	movb r0,@cvb_I
     AA5C 2086     
2072               cv1
2073 AA5E C060  30 	mov @read_pointer,r1
     AA60 8340     
2074 AA62 D011  26 	movb *r1,r0
2075 AA64 05A0  26 	inc @read_pointer
     AA66 8340     
2076 AA68 C040  18 	mov r0,r1
2077 AA6A D020  34 	movb @cvb_I,r0
     AA6C 2086     
2078 AA6E 0980  32 	srl r0,8
2079 AA70 0220  22 	ai r0,array_MSK
     AA72 210E     
2080 AA74 D401  30 	movb r1,*r0
2081 AA76 D020  34 	movb @cvb_I,r0
     AA78 2086     
2082 AA7A 0220  22 	ai r0,256	; 1
     AA7C 0100     
2083 AA7E D800  38 	movb r0,@cvb_I
     AA80 2086     
2084 AA82 0201  20 	li r1,2048   ; 8*256
     AA84 0800     
2085 AA86 9040  18 	cb r0,r1
2086 AA88 1402  14 	jhe cv2
2087 AA8A 0460  28 	b @cv1
     AA8C AA5E     
2088               cv2
2089               	; 	RESTORE lnkdat
2090 AA8E 0200  20 	li r0,cvb_LNKDAT
     AA90 D2AC     
2091 AA92 C800  30 	mov r0,@read_pointer
     AA94 8340     
2092               	; 	FOR i = 0 TO 12
2093 AA96 04C0  14 	clr r0
2094 AA98 D800  38 	movb r0,@cvb_I
     AA9A 2086     
2095               cv3
2096               	; 	READ BYTE lnn(i) : READ BYTE lne(i) : READ BYTE lns(i) : READ BYTE lnw(i)
2097 AA9C C060  30 	mov @read_pointer,r1
     AA9E 8340     
2098 AAA0 D011  26 	movb *r1,r0
2099 AAA2 05A0  26 	inc @read_pointer
     AAA4 8340     
2100 AAA6 C040  18 	mov r0,r1
2101 AAA8 D020  34 	movb @cvb_I,r0
     AAAA 2086     
2102 AAAC 0980  32 	srl r0,8
2103 AAAE 0220  22 	ai r0,array_LNN
     AAB0 20D8     
2104 AAB2 D401  30 	movb r1,*r0
2105 AAB4 C060  30 	mov @read_pointer,r1
     AAB6 8340     
2106 AAB8 D011  26 	movb *r1,r0
2107 AABA 05A0  26 	inc @read_pointer
     AABC 8340     
2108 AABE C040  18 	mov r0,r1
2109 AAC0 D020  34 	movb @cvb_I,r0
     AAC2 2086     
2110 AAC4 0980  32 	srl r0,8
2111 AAC6 0220  22 	ai r0,array_LNE
     AAC8 20CA     
2112 AACA D401  30 	movb r1,*r0
2113 AACC C060  30 	mov @read_pointer,r1
     AACE 8340     
2114 AAD0 D011  26 	movb *r1,r0
2115 AAD2 05A0  26 	inc @read_pointer
     AAD4 8340     
2116 AAD6 C040  18 	mov r0,r1
2117 AAD8 D020  34 	movb @cvb_I,r0
     AADA 2086     
2118 AADC 0980  32 	srl r0,8
2119 AADE 0220  22 	ai r0,array_LNS
     AAE0 20E6     
2120 AAE2 D401  30 	movb r1,*r0
2121 AAE4 C060  30 	mov @read_pointer,r1
     AAE6 8340     
2122 AAE8 D011  26 	movb *r1,r0
2123 AAEA 05A0  26 	inc @read_pointer
     AAEC 8340     
2124 AAEE C040  18 	mov r0,r1
2125 AAF0 D020  34 	movb @cvb_I,r0
     AAF2 2086     
2126 AAF4 0980  32 	srl r0,8
2127 AAF6 0220  22 	ai r0,array_LNW
     AAF8 20F4     
2128 AAFA D401  30 	movb r1,*r0
2129               	; 	NEXT i
2130 AAFC D020  34 	movb @cvb_I,r0
     AAFE 2086     
2131 AB00 0220  22 	ai r0,256	; 1
     AB02 0100     
2132 AB04 D800  38 	movb r0,@cvb_I
     AB06 2086     
2133 AB08 0201  20 	li r1,3328   ; 13*256
     AB0A 0D00     
2134 AB0C 9040  18 	cb r0,r1
2135 AB0E 1402  14 	jhe cv4
2136 AB10 0460  28 	b @cv3
     AB12 AA9C     
2137               cv4
2138               	; 	RESTORE coldat
2139 AB14 0200  20 	li r0,cvb_COLDAT
     AB16 D2E0     
2140 AB18 C800  30 	mov r0,@read_pointer
     AB1A 8340     
2141               	; 	FOR i = 0 TO 12 : READ BYTE rcol(i) : NEXT i
2142 AB1C 04C0  14 	clr r0
2143 AB1E D800  38 	movb r0,@cvb_I
     AB20 2086     
2144               cv5
2145 AB22 C060  30 	mov @read_pointer,r1
     AB24 8340     
2146 AB26 D011  26 	movb *r1,r0
2147 AB28 05A0  26 	inc @read_pointer
     AB2A 8340     
2148 AB2C C040  18 	mov r0,r1
2149 AB2E D020  34 	movb @cvb_I,r0
     AB30 2086     
2150 AB32 0980  32 	srl r0,8
2151 AB34 0220  22 	ai r0,array_RCOL
     AB36 20BC     
2152 AB38 D401  30 	movb r1,*r0
2153 AB3A D020  34 	movb @cvb_I,r0
     AB3C 2086     
2154 AB3E 0220  22 	ai r0,256	; 1
     AB40 0100     
2155 AB42 D800  38 	movb r0,@cvb_I
     AB44 2086     
2156 AB46 0201  20 	li r1,3328   ; 13*256
     AB48 0D00     
2157 AB4A 9040  18 	cb r0,r1
2158 AB4C 1402  14 	jhe cv6
2159 AB4E 0460  28 	b @cv5
     AB50 AB22     
2160               cv6
2161               	; 	ocl(0) = 11 : ocl(1) = 14 : ocl(2) = 15 : ocl(3) = 7 : ocl(4) = 13 : ocl(5) = 15
2162 AB52 0200  20 	li r0,2816   ; 11*256
     AB54 0B00     
2163 AB56 D800  38 	movb r0,@array_OCL
     AB58 2122     
2164 AB5A 0200  20 	li r0,3584   ; 14*256
     AB5C 0E00     
2165 AB5E D800  38 	movb r0,@array_OCL+1
     AB60 2123     
2166 AB62 0200  20 	li r0,3840   ; 15*256
     AB64 0F00     
2167 AB66 D800  38 	movb r0,@array_OCL+2
     AB68 2124     
2168 AB6A 0200  20 	li r0,1792   ; 7*256
     AB6C 0700     
2169 AB6E D800  38 	movb r0,@array_OCL+3
     AB70 2125     
2170 AB72 0200  20 	li r0,3328   ; 13*256
     AB74 0D00     
2171 AB76 D800  38 	movb r0,@array_OCL+4
     AB78 2126     
2172 AB7A 0200  20 	li r0,3840   ; 15*256
     AB7C 0F00     
2173 AB7E D800  38 	movb r0,@array_OCL+5
     AB80 2127     
2174               	;
2175               	; 	GOSUB title
2176 AB82 06A0  32 	bl @jsr
     AB84 A974     
2177 AB86 D022     	data cvb_TITLE
2178               	;
2179               	; newgame:
2180               cvb_NEWGAME
2181               	; 	RESTORE objdat
2182 AB88 0200  20 	li r0,cvb_OBJDAT
     AB8A D2ED     
2183 AB8C C800  30 	mov r0,@read_pointer
     AB8E 8340     
2184               	; 	FOR i = 0 TO 5
2185 AB90 04C0  14 	clr r0
2186 AB92 D800  38 	movb r0,@cvb_I
     AB94 2086     
2187               cv7
2188               	; 	READ BYTE orm(i) : READ BYTE obx(i) : READ BYTE oby(i)
2189 AB96 C060  30 	mov @read_pointer,r1
     AB98 8340     
2190 AB9A D011  26 	movb *r1,r0
2191 AB9C 05A0  26 	inc @read_pointer
     AB9E 8340     
2192 ABA0 C040  18 	mov r0,r1
2193 ABA2 D020  34 	movb @cvb_I,r0
     ABA4 2086     
2194 ABA6 0980  32 	srl r0,8
2195 ABA8 0220  22 	ai r0,array_ORM
     ABAA 2134     
2196 ABAC D401  30 	movb r1,*r0
2197 ABAE C060  30 	mov @read_pointer,r1
     ABB0 8340     
2198 ABB2 D011  26 	movb *r1,r0
2199 ABB4 05A0  26 	inc @read_pointer
     ABB6 8340     
2200 ABB8 C040  18 	mov r0,r1
2201 ABBA D020  34 	movb @cvb_I,r0
     ABBC 2086     
2202 ABBE 0980  32 	srl r0,8
2203 ABC0 0220  22 	ai r0,array_OBX
     ABC2 2128     
2204 ABC4 D401  30 	movb r1,*r0
2205 ABC6 C060  30 	mov @read_pointer,r1
     ABC8 8340     
2206 ABCA D011  26 	movb *r1,r0
2207 ABCC 05A0  26 	inc @read_pointer
     ABCE 8340     
2208 ABD0 C040  18 	mov r0,r1
2209 ABD2 D020  34 	movb @cvb_I,r0
     ABD4 2086     
2210 ABD6 0980  32 	srl r0,8
2211 ABD8 0220  22 	ai r0,array_OBY
     ABDA 212E     
2212 ABDC D401  30 	movb r1,*r0
2213               	; 	NEXT i
2214 ABDE D020  34 	movb @cvb_I,r0
     ABE0 2086     
2215 ABE2 0220  22 	ai r0,256	; 1
     ABE4 0100     
2216 ABE6 D800  38 	movb r0,@cvb_I
     ABE8 2086     
2217 ABEA 0201  20 	li r1,1536   ; 6*256
     ABEC 0600     
2218 ABEE 9040  18 	cb r0,r1
2219 ABF0 1402  14 	jhe cv8
2220 ABF2 0460  28 	b @cv7
     ABF4 AB96     
2221               cv8
2222               	; 	RESTORE drgdat
2223 ABF6 0200  20 	li r0,cvb_DRGDAT
     ABF8 D2FF     
2224 ABFA C800  30 	mov r0,@read_pointer
     ABFC 8340     
2225               	; 	FOR i = 0 TO 2
2226 ABFE 04C0  14 	clr r0
2227 AC00 D800  38 	movb r0,@cvb_I
     AC02 2086     
2228               cv9
2229               	; 	READ BYTE drm(i) : READ BYTE ddx(i) : READ BYTE ddy(i) : READ BYTE dcl(i) : READ BYTE dsp(i)
2230 AC04 C060  30 	mov @read_pointer,r1
     AC06 8340     
2231 AC08 D011  26 	movb *r1,r0
2232 AC0A 05A0  26 	inc @read_pointer
     AC0C 8340     
2233 AC0E C040  18 	mov r0,r1
2234 AC10 D020  34 	movb @cvb_I,r0
     AC12 2086     
2235 AC14 0980  32 	srl r0,8
2236 AC16 0220  22 	ai r0,array_DRM
     AC18 2116     
2237 AC1A D401  30 	movb r1,*r0
2238 AC1C C060  30 	mov @read_pointer,r1
     AC1E 8340     
2239 AC20 D011  26 	movb *r1,r0
2240 AC22 05A0  26 	inc @read_pointer
     AC24 8340     
2241 AC26 C040  18 	mov r0,r1
2242 AC28 D020  34 	movb @cvb_I,r0
     AC2A 2086     
2243 AC2C 0980  32 	srl r0,8
2244 AC2E 0220  22 	ai r0,array_DDX
     AC30 2106     
2245 AC32 D401  30 	movb r1,*r0
2246 AC34 C060  30 	mov @read_pointer,r1
     AC36 8340     
2247 AC38 D011  26 	movb *r1,r0
2248 AC3A 05A0  26 	inc @read_pointer
     AC3C 8340     
2249 AC3E C040  18 	mov r0,r1
2250 AC40 D020  34 	movb @cvb_I,r0
     AC42 2086     
2251 AC44 0980  32 	srl r0,8
2252 AC46 0220  22 	ai r0,array_DDY
     AC48 210A     
2253 AC4A D401  30 	movb r1,*r0
2254 AC4C C060  30 	mov @read_pointer,r1
     AC4E 8340     
2255 AC50 D011  26 	movb *r1,r0
2256 AC52 05A0  26 	inc @read_pointer
     AC54 8340     
2257 AC56 C040  18 	mov r0,r1
2258 AC58 D020  34 	movb @cvb_I,r0
     AC5A 2086     
2259 AC5C 0980  32 	srl r0,8
2260 AC5E 0220  22 	ai r0,array_DCL
     AC60 2102     
2261 AC62 D401  30 	movb r1,*r0
2262 AC64 C060  30 	mov @read_pointer,r1
     AC66 8340     
2263 AC68 D011  26 	movb *r1,r0
2264 AC6A 05A0  26 	inc @read_pointer
     AC6C 8340     
2265 AC6E C040  18 	mov r0,r1
2266 AC70 D020  34 	movb @cvb_I,r0
     AC72 2086     
2267 AC74 0980  32 	srl r0,8
2268 AC76 0220  22 	ai r0,array_DSP
     AC78 211A     
2269 AC7A D401  30 	movb r1,*r0
2270               	; 	dst(i) = 0
2271 AC7C 04C1  14 	clr r1
2272 AC7E D020  34 	movb @cvb_I,r0
     AC80 2086     
2273 AC82 0980  32 	srl r0,8
2274 AC84 0220  22 	ai r0,array_DST
     AC86 211E     
2275 AC88 D401  30 	movb r1,*r0
2276               	; 	NEXT i
2277 AC8A D020  34 	movb @cvb_I,r0
     AC8C 2086     
2278 AC8E 0220  22 	ai r0,256	; 1
     AC90 0100     
2279 AC92 D800  38 	movb r0,@cvb_I
     AC94 2086     
2280 AC96 0201  20 	li r1,768   ; 3*256
     AC98 0300     
2281 AC9A 9040  18 	cb r0,r1
2282 AC9C 1402  14 	jhe cv10
2283 AC9E 0460  28 	b @cv9
     ACA0 AC04     
2284               cv10
2285               	; 	gop(0) = 0 : gop(1) = 0 : gop(2) = 0
2286 ACA2 04C0  14 	clr r0
2287 ACA4 D800  38 	movb r0,@array_GOP
     ACA6 213A     
2288 ACA8 04C0  14 	clr r0
2289 ACAA D800  38 	movb r0,@array_GOP+1
     ACAC 213B     
2290 ACAE 04C0  14 	clr r0
2291 ACB0 D800  38 	movb r0,@array_GOP+2
     ACB2 213C     
2292               	; 	btr = 5 : btx = 120 : bty = 60 : btc = 255 : btcd = 90 : bfx = 0 : bfy = 1
2293 ACB4 0200  20 	li r0,1280   ; 5*256
     ACB6 0500     
2294 ACB8 D800  38 	movb r0,@cvb_BTR
     ACBA 2091     
2295 ACBC 0200  20 	li r0,30720   ; 120*256
     ACBE 7800     
2296 ACC0 D800  38 	movb r0,@cvb_BTX
     ACC2 2092     
2297 ACC4 0200  20 	li r0,15360   ; 60*256
     ACC6 3C00     
2298 ACC8 D800  38 	movb r0,@cvb_BTY
     ACCA 2093     
2299 ACCC 0200  20 	li r0,65280   ; 255*256
     ACCE FF00     
2300 ACD0 D800  38 	movb r0,@cvb_BTC
     ACD2 2090     
2301 ACD4 0200  20 	li r0,23040   ; 90*256
     ACD6 5A00     
2302 ACD8 D800  38 	movb r0,@cvb_BTCD
     ACDA 20A4     
2303 ACDC 04C0  14 	clr r0
2304 ACDE D800  38 	movb r0,@cvb_BFX
     ACE0 2080     
2305 ACE2 0200  20 	li r0,256   ; 1*256
     ACE4 0100     
2306 ACE6 D800  38 	movb r0,@cvb_BFY
     ACE8 2081     
2307               	; 	cr = 255 : pkcd = 0 : btnp = 1 : rmch = 0 : eflag = 0 : tk = 0
2308 ACEA 0200  20 	li r0,65280   ; 255*256
     ACEC FF00     
2309 ACEE D800  38 	movb r0,@cvb_CR
     ACF0 20AE     
2310 ACF2 04C0  14 	clr r0
2311 ACF4 D800  38 	movb r0,@cvb_PKCD
     ACF6 209A     
2312 ACF8 0200  20 	li r0,256   ; 1*256
     ACFA 0100     
2313 ACFC D800  38 	movb r0,@cvb_BTNP
     ACFE 20A9     
2314 AD00 04C0  14 	clr r0
2315 AD02 D800  38 	movb r0,@cvb_RMCH
     AD04 208F     
2316 AD06 04C0  14 	clr r0
2317 AD08 D800  38 	movb r0,@cvb_EFLAG
     AD0A 2095     
2318 AD0C 04C0  14 	clr r0
2319 AD0E D800  38 	movb r0,@cvb_TK
     AD10 20B6     
2320               	; 	sfx = 0 : sfc = 0 : #crx = 64 : #cry = 64
2321 AD12 04C0  14 	clr r0
2322 AD14 D800  38 	movb r0,@cvb_SFX
     AD16 20B4     
2323 AD18 04C0  14 	clr r0
2324 AD1A D800  38 	movb r0,@cvb_SFC
     AD1C 20B1     
2325 AD1E 0200  20 	li r0,64
     AD20 0040     
2326 AD22 C800  38 	mov r0,@cvb__CRX
     AD24 2096     
2327 AD26 0200  20 	li r0,64
     AD28 0040     
2328 AD2A C800  38 	mov r0,@cvb__CRY
     AD2C 2098     
2329               	; 	SOUND 0, , 0 : SOUND 3, , 0
2330 AD2E 04C0  14 	clr r0
2331 AD30 0202  20 	li r2,>9000
     AD32 9000     
2332 AD34 06A0  32 	bl @jsr
     AD36 A974     
2333 AD38 A2D6     	data sn76489_vol
2334 AD3A 04C0  14 	clr r0
2335 AD3C 0202  20 	li r2,>f000
     AD3E F000     
2336 AD40 06A0  32 	bl @jsr
     AD42 A974     
2337 AD44 A2D6     	data sn76489_vol
2338               	; 	rn = 0 : px = 120 : py = 160
2339 AD46 04C0  14 	clr r0
2340 AD48 D800  38 	movb r0,@cvb_RN
     AD4A 20B5     
2341 AD4C 0200  20 	li r0,30720   ; 120*256
     AD4E 7800     
2342 AD50 D800  38 	movb r0,@cvb_PX
     AD52 20B2     
2343 AD54 0200  20 	li r0,40960   ; 160*256
     AD56 A000     
2344 AD58 D800  38 	movb r0,@cvb_PY
     AD5A 20B3     
2345               	; 	GOSUB enterroom
2346 AD5C 06A0  32 	bl @jsr
     AD5E A974     
2347 AD60 C76E     	data cvb_ENTERROOM
2348               	;
2349               	; mainloop:
2350               cvb_MAINLOOP
2351               	; 	WAIT
2352 AD62 06A0  32 	bl @jsr
     AD64 A974     
2353 AD66 A64A     	data wait
2354               	; 	WAIT
2355 AD68 06A0  32 	bl @jsr
     AD6A A974     
2356 AD6C A64A     	data wait
2357               	; 	tk = tk + 1
2358 AD6E D020  34 	movb @cvb_TK,r0
     AD70 20B6     
2359 AD72 0220  22 	ai r0,256	; 1
     AD74 0100     
2360 AD76 D800  38 	movb r0,@cvb_TK
     AD78 20B6     
2361               	; 	GOSUB dosfx
2362 AD7A 06A0  32 	bl @jsr
     AD7C A974     
2363 AD7E CC5A     	data cvb_DOSFX
2364               	; 	IF pkcd > 0 THEN pkcd = pkcd - 1
2365 AD80 D020  34 	movb @cvb_PKCD,r0
     AD82 209A     
2366 AD84 0201  20 	li r1,256   ; 1*256
     AD86 0100     
2367 AD88 9040  18 	cb r0,r1
2368 AD8A 1402  14 	jhe cv12
2369 AD8C 0460  28 	b @cv11
     AD8E AD9C     
2370               cv12
2371 AD90 D020  34 	movb @cvb_PKCD,r0
     AD92 209A     
2372 AD94 0220  22 	ai r0,65280	; -1
     AD96 FF00     
2373 AD98 D800  38 	movb r0,@cvb_PKCD
     AD9A 209A     
2374               cv11
2375               	;
2376               	; 	' --- player movement (X and Y independent => wall sliding) ---
2377               	; 	IF cont1.left THEN GOSUB mvleft
2378 AD9C D020  30 	movb @joy1_data,r0
     AD9E 8346     
2379 ADA0 0201  20 	li r1,2048   ; 8*256
     ADA2 0800     
2380 ADA4 0541  14 	inv r1
2381 ADA6 5001  18 	szcb r1,r0
2382 ADA8 1602  14 	jne cv14
2383 ADAA 0460  28 	b @cv13
     ADAC ADB4     
2384               cv14
2385 ADAE 06A0  32 	bl @jsr
     ADB0 A974     
2386 ADB2 B1CE     	data cvb_MVLEFT
2387               cv13
2388               	; 	IF cont1.right THEN GOSUB mvright
2389 ADB4 D020  30 	movb @joy1_data,r0
     ADB6 8346     
2390 ADB8 0201  20 	li r1,512   ; 2*256
     ADBA 0200     
2391 ADBC 0541  14 	inv r1
2392 ADBE 5001  18 	szcb r1,r0
2393 ADC0 1602  14 	jne cv16
2394 ADC2 0460  28 	b @cv15
     ADC4 ADCC     
2395               cv16
2396 ADC6 06A0  32 	bl @jsr
     ADC8 A974     
2397 ADCA B264     	data cvb_MVRIGHT
2398               cv15
2399               	; 	IF cont1.up THEN GOSUB mvup
2400 ADCC D020  30 	movb @joy1_data,r0
     ADCE 8346     
2401 ADD0 0201  20 	li r1,256   ; 1*256
     ADD2 0100     
2402 ADD4 0541  14 	inv r1
2403 ADD6 5001  18 	szcb r1,r0
2404 ADD8 1602  14 	jne cv18
2405 ADDA 0460  28 	b @cv17
     ADDC ADE4     
2406               cv18
2407 ADDE 06A0  32 	bl @jsr
     ADE0 A974     
2408 ADE2 B2FA     	data cvb_MVUP
2409               cv17
2410               	; 	IF cont1.down THEN GOSUB mvdown
2411 ADE4 D020  30 	movb @joy1_data,r0
     ADE6 8346     
2412 ADE8 0201  20 	li r1,1024   ; 4*256
     ADEA 0400     
2413 ADEC 0541  14 	inv r1
2414 ADEE 5001  18 	szcb r1,r0
2415 ADF0 1602  14 	jne cv20
2416 ADF2 0460  28 	b @cv19
     ADF4 ADFC     
2417               cv20
2418 ADF6 06A0  32 	bl @jsr
     ADF8 A974     
2419 ADFA B390     	data cvb_MVDOWN
2420               cv19
2421               	; 	IF rmch = 1 THEN rmch = 0 : GOTO drawframe
2422 ADFC D020  34 	movb @cvb_RMCH,r0
     ADFE 208F     
2423 AE00 0201  20 	li r1,256   ; 1*256
     AE02 0100     
2424 AE04 9001  18 	cb r1,r0
2425 AE06 1302  14 	jeq cv22
2426 AE08 0460  28 	b @cv21
     AE0A AE16     
2427               cv22
2428 AE0C 04C0  14 	clr r0
2429 AE0E D800  38 	movb r0,@cvb_RMCH
     AE10 208F     
2430 AE12 0460  28 	b @cvb_DRAWFRAME
     AE14 AF1C     
2431               cv21
2432               	;
2433               	; 	' --- castle gate: open with key / walk in when open ---
2434               	; 	IF gz > 0 THEN GOSUB gatelogic
2435 AE16 D020  34 	movb @cvb_GZ,r0
     AE18 20B0     
2436 AE1A 0201  20 	li r1,256   ; 1*256
     AE1C 0100     
2437 AE1E 9040  18 	cb r0,r1
2438 AE20 1402  14 	jhe cv24
2439 AE22 0460  28 	b @cv23
     AE24 AE2C     
2440               cv24
2441 AE26 06A0  32 	bl @jsr
     AE28 A974     
2442 AE2A B6B2     	data cvb_GATELOGIC
2443               cv23
2444               	; 	IF rmch = 1 THEN rmch = 0 : GOTO drawframe
2445 AE2C D020  34 	movb @cvb_RMCH,r0
     AE2E 208F     
2446 AE30 0201  20 	li r1,256   ; 1*256
     AE32 0100     
2447 AE34 9001  18 	cb r1,r0
2448 AE36 1302  14 	jeq cv26
2449 AE38 0460  28 	b @cv25
     AE3A AE46     
2450               cv26
2451 AE3C 04C0  14 	clr r0
2452 AE3E D800  38 	movb r0,@cvb_RMCH
     AE40 208F     
2453 AE42 0460  28 	b @cvb_DRAWFRAME
     AE44 AF1C     
2454               cv25
2455               	;
2456               	; 	' --- drop carried object with FIRE (edge-triggered) ---
2457               	; 	b = cont1.button
2458 AE46 D020  30 	movb @joy1_data,r0
     AE48 8346     
2459 AE4A 0201  20 	li r1,16384   ; 64*256
     AE4C 4000     
2460 AE4E 0541  14 	inv r1
2461 AE50 5001  18 	szcb r1,r0
2462 AE52 D800  38 	movb r0,@cvb_B
     AE54 2082     
2463               	; 	IF b > 0 THEN IF btnp = 0 THEN IF cr < 6 THEN GOSUB dodrop
2464 AE56 0201  20 	li r1,256   ; 1*256
     AE58 0100     
2465 AE5A 9040  18 	cb r0,r1
2466 AE5C 1402  14 	jhe cv28
2467 AE5E 0460  28 	b @cv27
     AE60 AE82     
2468               cv28
2469 AE62 D020  34 	movb @cvb_BTNP,r0
     AE64 20A9     
2470 AE66 1302  14 	jeq cv30
2471 AE68 0460  28 	b @cv29
     AE6A AE82     
2472               cv30
2473 AE6C D020  34 	movb @cvb_CR,r0
     AE6E 20AE     
2474 AE70 0201  20 	li r1,1536   ; 6*256
     AE72 0600     
2475 AE74 9040  18 	cb r0,r1
2476 AE76 1A02  14 	jl cv32
2477 AE78 0460  28 	b @cv31
     AE7A AE82     
2478               cv32
2479 AE7C 06A0  32 	bl @jsr
     AE7E A974     
2480 AE80 B0D8     	data cvb_DODROP
2481               cv31
2482               cv29
2483               cv27
2484               	; 	btnp = b
2485 AE82 D820  54 	movb @cvb_B,@cvb_BTNP
     AE84 2082     
     AE86 20A9     
2486               	;
2487               	; 	' --- carried object keeps the offset where it was grabbed ---
2488               	; 	IF cr < 6 THEN GOSUB carrypos
2489 AE88 D020  34 	movb @cvb_CR,r0
     AE8A 20AE     
2490 AE8C 0201  20 	li r1,1536   ; 6*256
     AE8E 0600     
2491 AE90 9040  18 	cb r0,r1
2492 AE92 1A02  14 	jl cv34
2493 AE94 0460  28 	b @cv33
     AE96 AE9E     
2494               cv34
2495 AE98 06A0  32 	bl @jsr
     AE9A A974     
2496 AE9C B862     	data cvb_CARRYPOS
2497               cv33
2498               	;
2499               	; 	' --- WIN: the chalice is inside the gold castle ---
2500               	; 	IF orm(5) = 2 THEN GOTO winseq
2501 AE9E D020  34 	movb @array_ORM+5,r0
     AEA0 2139     
2502 AEA2 0201  20 	li r1,512   ; 2*256
     AEA4 0200     
2503 AEA6 9001  18 	cb r1,r0
2504 AEA8 1302  14 	jeq cv36
2505 AEAA 0460  28 	b @cv35
     AEAC AEB2     
2506               cv36
2507 AEAE 0460  28 	b @cvb_WINSEQ
     AEB0 CDDC     
2508               cv35
2509               	;
2510               	; 	' --- pick up / swap on touch ---
2511               	; 	IF pkcd = 0 THEN GOSUB trypick
2512 AEB2 D020  34 	movb @cvb_PKCD,r0
     AEB4 209A     
2513 AEB6 1302  14 	jeq cv38
2514 AEB8 0460  28 	b @cv37
     AEBA AEC2     
2515               cv38
2516 AEBC 06A0  32 	bl @jsr
     AEBE A974     
2517 AEC0 B916     	data cvb_TRYPICK
2518               cv37
2519               	;
2520               	; 	' --- the bat flies always, everywhere ---
2521               	; 	GOSUB batdo
2522 AEC2 06A0  32 	bl @jsr
     AEC4 A974     
2523 AEC6 BC00     	data cvb_BATDO
2524               	;
2525               	; 	' --- dragons ---
2526               	; 	FOR d = 0 TO 2
2527 AEC8 04C0  14 	clr r0
2528 AECA D800  38 	movb r0,@cvb_D
     AECC 2083     
2529               cv39
2530               	; 	IF drm(d) = rn THEN GOSUB dragondo
2531 AECE D020  34 	movb @cvb_D,r0
     AED0 2083     
2532 AED2 0980  32 	srl r0,8
2533 AED4 0220  22 	ai r0,array_DRM
     AED6 2116     
2534 AED8 D010  26 	movb *r0,r0
2535 AEDA 9020  34 	cb @cvb_RN,r0
     AEDC 20B5     
2536 AEDE 1302  14 	jeq cv41
2537 AEE0 0460  28 	b @cv40
     AEE2 AEEA     
2538               cv41
2539 AEE4 06A0  32 	bl @jsr
     AEE6 A974     
2540 AEE8 C076     	data cvb_DRAGONDO
2541               cv40
2542               	; 	NEXT d
2543 AEEA D020  34 	movb @cvb_D,r0
     AEEC 2083     
2544 AEEE 0220  22 	ai r0,256	; 1
     AEF0 0100     
2545 AEF2 D800  38 	movb r0,@cvb_D
     AEF4 2083     
2546 AEF6 0201  20 	li r1,768   ; 3*256
     AEF8 0300     
2547 AEFA 9040  18 	cb r0,r1
2548 AEFC 1402  14 	jhe cv42
2549 AEFE 0460  28 	b @cv39
     AF00 AECE     
2550               cv42
2551               	; 	' swallowed: play the sequence, then a FRESH game (full reset)
2552               	; 	IF eflag > 0 THEN GOSUB eatenrt : GOTO newgame
2553 AF02 D020  34 	movb @cvb_EFLAG,r0
     AF04 2095     
2554 AF06 0201  20 	li r1,256   ; 1*256
     AF08 0100     
2555 AF0A 9040  18 	cb r0,r1
2556 AF0C 1402  14 	jhe cv44
2557 AF0E 0460  28 	b @cv43
     AF10 AF1C     
2558               cv44
2559 AF12 06A0  32 	bl @jsr
     AF14 A974     
2560 AF16 C4CA     	data cvb_EATENRT
2561 AF18 0460  28 	b @cvb_NEWGAME
     AF1A AB88     
2562               cv43
2563               	;
2564               	; drawframe:
2565               cvb_DRAWFRAME
2566               	; 	SPRITE 0, py - 1, px, 0, 15
2567 AF1C 04C4  14 	clr r4
2568 AF1E D020  34 	movb @cvb_PY,r0
     AF20 20B3     
2569 AF22 0220  22 	ai r0,65280	; -1
     AF24 FF00     
2570 AF26 D140  18 	movb r0,r5
2571 AF28 D1A0  34 	movb @cvb_PX,r6
     AF2A 20B2     
2572 AF2C 04C7  14 	clr r7
2573 AF2E 0200  20 	li r0,3840   ; 15*256
     AF30 0F00     
2574 AF32 06A0  32 	bl @jsr
     AF34 A974     
2575 AF36 A24E     	data update_sprite
2576               	; 	FOR d = 0 TO 2
2577 AF38 04C0  14 	clr r0
2578 AF3A D800  38 	movb r0,@cvb_D
     AF3C 2083     
2579               cv45
2580               	; 	IF drm(d) = rn THEN SPRITE 1 + d, ddy(d) - 1, ddx(d), 4 + dst(d) * 4, dcl(d) ELSE SPRITE 1 + d, $d1, 0, 0, 0
2581 AF3E D020  34 	movb @cvb_D,r0
     AF40 2083     
2582 AF42 0980  32 	srl r0,8
2583 AF44 0220  22 	ai r0,array_DRM
     AF46 2116     
2584 AF48 D010  26 	movb *r0,r0
2585 AF4A 9020  34 	cb @cvb_RN,r0
     AF4C 20B5     
2586 AF4E 1302  14 	jeq cv47
2587 AF50 0460  28 	b @cv46
     AF52 AFAA     
2588               cv47
2589 AF54 D020  34 	movb @cvb_D,r0
     AF56 2083     
2590 AF58 0220  22 	ai r0,256	; 1
     AF5A 0100     
2591 AF5C C100  18 	mov r0,r4
2592 AF5E D020  34 	movb @cvb_D,r0
     AF60 2083     
2593 AF62 0980  32 	srl r0,8
2594 AF64 0220  22 	ai r0,array_DDY
     AF66 210A     
2595 AF68 D010  26 	movb *r0,r0
2596 AF6A 0220  22 	ai r0,65280	; -1
     AF6C FF00     
2597 AF6E D140  18 	movb r0,r5
2598 AF70 D020  34 	movb @cvb_D,r0
     AF72 2083     
2599 AF74 0980  32 	srl r0,8
2600 AF76 0220  22 	ai r0,array_DDX
     AF78 2106     
2601 AF7A D190  26 	movb *r0,r6
2602 AF7C D020  34 	movb @cvb_D,r0
     AF7E 2083     
2603 AF80 0980  32 	srl r0,8
2604 AF82 0220  22 	ai r0,array_DST
     AF84 211E     
2605 AF86 D010  26 	movb *r0,r0
2606 AF88 0240  22 	andi r0,>ff00
     AF8A FF00     
2607 AF8C 0A20  20 	sla r0,2
2608 AF8E 0220  22 	ai r0,1024	; 4
     AF90 0400     
2609 AF92 D1C0  18 	movb r0,r7
2610 AF94 D020  34 	movb @cvb_D,r0
     AF96 2083     
2611 AF98 0980  32 	srl r0,8
2612 AF9A 0220  22 	ai r0,array_DCL
     AF9C 2102     
2613 AF9E D010  26 	movb *r0,r0
2614 AFA0 06A0  32 	bl @jsr
     AFA2 A974     
2615 AFA4 A24E     	data update_sprite
2616 AFA6 0460  28 	b @cv48
     AFA8 AFC4     
2617               cv46
2618 AFAA D020  34 	movb @cvb_D,r0
     AFAC 2083     
2619 AFAE 0220  22 	ai r0,256	; 1
     AFB0 0100     
2620 AFB2 C100  18 	mov r0,r4
2621 AFB4 0205  20 	li r5,53504
     AFB6 D100     
2622 AFB8 04C6  14 	clr r6
2623 AFBA 04C7  14 	clr r7
2624 AFBC 04C0  14 	clr r0
2625 AFBE 06A0  32 	bl @jsr
     AFC0 A974     
2626 AFC2 A24E     	data update_sprite
2627               cv48
2628               	; 	NEXT d
2629 AFC4 D020  34 	movb @cvb_D,r0
     AFC6 2083     
2630 AFC8 0220  22 	ai r0,256	; 1
     AFCA 0100     
2631 AFCC D800  38 	movb r0,@cvb_D
     AFCE 2083     
2632 AFD0 0201  20 	li r1,768   ; 3*256
     AFD2 0300     
2633 AFD4 9040  18 	cb r0,r1
2634 AFD6 1402  14 	jhe cv49
2635 AFD8 0460  28 	b @cv45
     AFDA AF3E     
2636               cv49
2637               	; 	FOR i = 0 TO 5
2638 AFDC 04C0  14 	clr r0
2639 AFDE D800  38 	movb r0,@cvb_I
     AFE0 2086     
2640               cv50
2641               	; 	IF orm(i) = rn THEN GOSUB drawobj ELSE SPRITE 4 + i, $d1, 0, 0, 0
2642 AFE2 D020  34 	movb @cvb_I,r0
     AFE4 2086     
2643 AFE6 0980  32 	srl r0,8
2644 AFE8 0220  22 	ai r0,array_ORM
     AFEA 2134     
2645 AFEC D010  26 	movb *r0,r0
2646 AFEE 9020  34 	cb @cvb_RN,r0
     AFF0 20B5     
2647 AFF2 1302  14 	jeq cv52
2648 AFF4 0460  28 	b @cv51
     AFF6 B002     
2649               cv52
2650 AFF8 06A0  32 	bl @jsr
     AFFA A974     
2651 AFFC B120     	data cvb_DRAWOBJ
2652 AFFE 0460  28 	b @cv53
     B000 B01C     
2653               cv51
2654 B002 D020  34 	movb @cvb_I,r0
     B004 2086     
2655 B006 0220  22 	ai r0,1024	; 4
     B008 0400     
2656 B00A C100  18 	mov r0,r4
2657 B00C 0205  20 	li r5,53504
     B00E D100     
2658 B010 04C6  14 	clr r6
2659 B012 04C7  14 	clr r7
2660 B014 04C0  14 	clr r0
2661 B016 06A0  32 	bl @jsr
     B018 A974     
2662 B01A A24E     	data update_sprite
2663               cv53
2664               	; 	NEXT i
2665 B01C D020  34 	movb @cvb_I,r0
     B01E 2086     
2666 B020 0220  22 	ai r0,256	; 1
     B022 0100     
2667 B024 D800  38 	movb r0,@cvb_I
     B026 2086     
2668 B028 0201  20 	li r1,1536   ; 6*256
     B02A 0600     
2669 B02C 9040  18 	cb r0,r1
2670 B02E 1402  14 	jhe cv54
2671 B030 0460  28 	b @cv50
     B032 AFE2     
2672               cv54
2673               	; 	IF btr = rn THEN SPRITE 10, bty - 1, btx, 28 + ((tk AND 2) * 2), 14 ELSE SPRITE 10, $d1, 0, 0, 0
2674 B034 D020  34 	movb @cvb_BTR,r0
     B036 2091     
2675 B038 9020  34 	cb @cvb_RN,r0
     B03A 20B5     
2676 B03C 1302  14 	jeq cv56
2677 B03E 0460  28 	b @cv55
     B040 B07A     
2678               cv56
2679 B042 0204  20 	li r4,2560
     B044 0A00     
2680 B046 D020  34 	movb @cvb_BTY,r0
     B048 2093     
2681 B04A 0220  22 	ai r0,65280	; -1
     B04C FF00     
2682 B04E D140  18 	movb r0,r5
2683 B050 D1A0  34 	movb @cvb_BTX,r6
     B052 2092     
2684 B054 D020  34 	movb @cvb_TK,r0
     B056 20B6     
2685 B058 0201  20 	li r1,512   ; 2*256
     B05A 0200     
2686 B05C 0541  14 	inv r1
2687 B05E 5001  18 	szcb r1,r0
2688 B060 0240  22 	andi r0,>ff00
     B062 FF00     
2689 B064 0A10  18 	sla r0,1
2690 B066 0220  22 	ai r0,7168	; 28
     B068 1C00     
2691 B06A D1C0  18 	movb r0,r7
2692 B06C 0200  20 	li r0,3584   ; 14*256
     B06E 0E00     
2693 B070 06A0  32 	bl @jsr
     B072 A974     
2694 B074 A24E     	data update_sprite
2695 B076 0460  28 	b @cv57
     B078 B08E     
2696               cv55
2697 B07A 0204  20 	li r4,2560
     B07C 0A00     
2698 B07E 0205  20 	li r5,53504
     B080 D100     
2699 B082 04C6  14 	clr r6
2700 B084 04C7  14 	clr r7
2701 B086 04C0  14 	clr r0
2702 B088 06A0  32 	bl @jsr
     B08A A974     
2703 B08C A24E     	data update_sprite
2704               cv57
2705               	; 	' the bridge channel gets a black fill sprite so it reads as
2706               	; 	' an opening in the wall it spans (rails sprite lies on top)
2707               	; 	IF orm(4) = rn THEN SPRITE 11, oby(4) - 1, obx(4), 36, 1 ELSE SPRITE 11, $d1, 0, 0, 0
2708 B08E D020  34 	movb @array_ORM+4,r0
     B090 2138     
2709 B092 9020  34 	cb @cvb_RN,r0
     B094 20B5     
2710 B096 1302  14 	jeq cv59
2711 B098 0460  28 	b @cv58
     B09A B0C0     
2712               cv59
2713 B09C 0204  20 	li r4,2816
     B09E 0B00     
2714 B0A0 D020  34 	movb @array_OBY+4,r0
     B0A2 2132     
2715 B0A4 0220  22 	ai r0,65280	; -1
     B0A6 FF00     
2716 B0A8 D140  18 	movb r0,r5
2717 B0AA D1A0  34 	movb @array_OBX+4,r6
     B0AC 212C     
2718 B0AE 0207  20 	li r7,9216
     B0B0 2400     
2719 B0B2 0200  20 	li r0,256   ; 1*256
     B0B4 0100     
2720 B0B6 06A0  32 	bl @jsr
     B0B8 A974     
2721 B0BA A24E     	data update_sprite
2722 B0BC 0460  28 	b @cv60
     B0BE B0D4     
2723               cv58
2724 B0C0 0204  20 	li r4,2816
     B0C2 0B00     
2725 B0C4 0205  20 	li r5,53504
     B0C6 D100     
2726 B0C8 04C6  14 	clr r6
2727 B0CA 04C7  14 	clr r7
2728 B0CC 04C0  14 	clr r0
2729 B0CE 06A0  32 	bl @jsr
     B0D0 A974     
2730 B0D2 A24E     	data update_sprite
2731               cv60
2732               	; 	GOTO mainloop
2733 B0D4 0460  28 	b @cvb_MAINLOOP
     B0D6 AD62     
2734               	;
2735               	; 	' ------------------------------------------------------------
2736               	; 	' drop: the bridge snaps to the 16px block grid vertically so
2737               	; 	' its channel always covers whole wall rows
2738               	; 	' ------------------------------------------------------------
2739               	; dodrop: PROCEDURE
2740               	even
2741               cvb_DODROP
2742               	; 	IF cr = 4 THEN oby(4) = (oby(4) + 8) AND 240
2743 B0D8 D020  34 	movb @cvb_CR,r0
     B0DA 20AE     
2744 B0DC 0201  20 	li r1,1024   ; 4*256
     B0DE 0400     
2745 B0E0 9001  18 	cb r1,r0
2746 B0E2 1302  14 	jeq cv62
2747 B0E4 0460  28 	b @cv61
     B0E6 B0FC     
2748               cv62
2749 B0E8 D020  34 	movb @array_OBY+4,r0
     B0EA 2132     
2750 B0EC 0220  22 	ai r0,2048	; 8
     B0EE 0800     
2751 B0F0 0201  20 	li r1,61440   ; 240*256
     B0F2 F000     
2752 B0F4 0541  14 	inv r1
2753 B0F6 5001  18 	szcb r1,r0
2754 B0F8 D800  38 	movb r0,@array_OBY+4
     B0FA 2132     
2755               cv61
2756               	; 	cr = 255 : pkcd = 10 : sfx = 2 : sfc = 4
2757 B0FC 0200  20 	li r0,65280   ; 255*256
     B0FE FF00     
2758 B100 D800  38 	movb r0,@cvb_CR
     B102 20AE     
2759 B104 0200  20 	li r0,2560   ; 10*256
     B106 0A00     
2760 B108 D800  38 	movb r0,@cvb_PKCD
     B10A 209A     
2761 B10C 0200  20 	li r0,512   ; 2*256
     B10E 0200     
2762 B110 D800  38 	movb r0,@cvb_SFX
     B112 20B4     
2763 B114 0200  20 	li r0,1024   ; 4*256
     B116 0400     
2764 B118 D800  38 	movb r0,@cvb_SFC
     B11A 20B1     
2765               	; 	END
2766 B11C C03A  30 	mov *r10+,r0
2767 B11E 0450  20 	b *r0
2768               	;
2769               	; 	' ------------------------------------------------------------
2770               	; 	' object sprite: defs 3=key 4=sword 5=chalice 6=bridge
2771               	; 	' ------------------------------------------------------------
2772               	; drawobj: PROCEDURE
2773               	even
2774               cvb_DRAWOBJ
2775               	; 	t = ocl(i)
2776 B120 D020  34 	movb @cvb_I,r0
     B122 2086     
2777 B124 0980  32 	srl r0,8
2778 B126 0220  22 	ai r0,array_OCL
     B128 2122     
2779 B12A D810  46 	movb *r0,@cvb_T
     B12C 2089     
2780               	; 	f = 12
2781 B12E 0200  20 	li r0,3072   ; 12*256
     B130 0C00     
2782 B132 D800  38 	movb r0,@cvb_F
     B134 2085     
2783               	; 	IF i = 3 THEN f = 16
2784 B136 D020  34 	movb @cvb_I,r0
     B138 2086     
2785 B13A 0201  20 	li r1,768   ; 3*256
     B13C 0300     
2786 B13E 9001  18 	cb r1,r0
2787 B140 1302  14 	jeq cv64
2788 B142 0460  28 	b @cv63
     B144 B14E     
2789               cv64
2790 B146 0200  20 	li r0,4096   ; 16*256
     B148 1000     
2791 B14A D800  38 	movb r0,@cvb_F
     B14C 2085     
2792               cv63
2793               	; 	IF i = 4 THEN f = 24
2794 B14E D020  34 	movb @cvb_I,r0
     B150 2086     
2795 B152 0201  20 	li r1,1024   ; 4*256
     B154 0400     
2796 B156 9001  18 	cb r1,r0
2797 B158 1302  14 	jeq cv66
2798 B15A 0460  28 	b @cv65
     B15C B166     
2799               cv66
2800 B15E 0200  20 	li r0,6144   ; 24*256
     B160 1800     
2801 B162 D800  38 	movb r0,@cvb_F
     B164 2085     
2802               cv65
2803               	; 	IF i = 5 THEN f = 20 : t = (FRAME AND 7) + 8
2804 B166 D020  34 	movb @cvb_I,r0
     B168 2086     
2805 B16A 0201  20 	li r1,1280   ; 5*256
     B16C 0500     
2806 B16E 9001  18 	cb r1,r0
2807 B170 1302  14 	jeq cv68
2808 B172 0460  28 	b @cv67
     B174 B194     
2809               cv68
2810 B176 0200  20 	li r0,5120   ; 20*256
     B178 1400     
2811 B17A D800  38 	movb r0,@cvb_F
     B17C 2085     
2812 B17E C020  30 	mov @frame,r0
     B180 834A     
2813 B182 0A80  32 	sla r0,8
2814 B184 0201  20 	li r1,1792   ; 7*256
     B186 0700     
2815 B188 0541  14 	inv r1
2816 B18A 5001  18 	szcb r1,r0
2817 B18C 0220  22 	ai r0,2048	; 8
     B18E 0800     
2818 B190 D800  38 	movb r0,@cvb_T
     B192 2089     
2819               cv67
2820               	; 	SPRITE 4 + i, oby(i) - 1, obx(i), f, t
2821 B194 D020  34 	movb @cvb_I,r0
     B196 2086     
2822 B198 0220  22 	ai r0,1024	; 4
     B19A 0400     
2823 B19C C100  18 	mov r0,r4
2824 B19E D020  34 	movb @cvb_I,r0
     B1A0 2086     
2825 B1A2 0980  32 	srl r0,8
2826 B1A4 0220  22 	ai r0,array_OBY
     B1A6 212E     
2827 B1A8 D010  26 	movb *r0,r0
2828 B1AA 0220  22 	ai r0,65280	; -1
     B1AC FF00     
2829 B1AE D140  18 	movb r0,r5
2830 B1B0 D020  34 	movb @cvb_I,r0
     B1B2 2086     
2831 B1B4 0980  32 	srl r0,8
2832 B1B6 0220  22 	ai r0,array_OBX
     B1B8 2128     
2833 B1BA D190  26 	movb *r0,r6
2834 B1BC D1E0  34 	movb @cvb_F,r7
     B1BE 2085     
2835 B1C0 D020  34 	movb @cvb_T,r0
     B1C2 2089     
2836 B1C4 06A0  32 	bl @jsr
     B1C6 A974     
2837 B1C8 A24E     	data update_sprite
2838               	; 	END
2839 B1CA C03A  30 	mov *r10+,r0
2840 B1CC 0450  20 	b *r0
2841               	;
2842               	; 	' ------------------------------------------------------------
2843               	; 	' movement: 3px steps, screen-edge exits, box-vs-wall test,
2844               	; 	' bridge channel exemption
2845               	; 	' ------------------------------------------------------------
2846               	; mvleft: PROCEDURE
2847               	even
2848               cvb_MVLEFT
2849               	; 	IF rmch = 1 THEN RETURN
2850 B1CE D020  34 	movb @cvb_RMCH,r0
     B1D0 208F     
2851 B1D2 0201  20 	li r1,256   ; 1*256
     B1D4 0100     
2852 B1D6 9001  18 	cb r1,r0
2853 B1D8 1302  14 	jeq cv70
2854 B1DA 0460  28 	b @cv69
     B1DC B1E2     
2855               cv70
2856 B1DE C03A  30 	mov *r10+,r0
2857 B1E0 0450  20 	b *r0
2858               cv69
2859               	; 	IF px < 3 THEN GOSUB gowest : RETURN
2860 B1E2 D020  34 	movb @cvb_PX,r0
     B1E4 20B2     
2861 B1E6 0201  20 	li r1,768   ; 3*256
     B1E8 0300     
2862 B1EA 9040  18 	cb r0,r1
2863 B1EC 1A02  14 	jl cv72
2864 B1EE 0460  28 	b @cv71
     B1F0 B1FC     
2865               cv72
2866 B1F2 06A0  32 	bl @jsr
     B1F4 A974     
2867 B1F6 B4FE     	data cvb_GOWEST
2868 B1F8 C03A  30 	mov *r10+,r0
2869 B1FA 0450  20 	b *r0
2870               cv71
2871               	; 	x0 = px - 3 : y0 = py : bw = 7 : bh = 7
2872 B1FC D020  34 	movb @cvb_PX,r0
     B1FE 20B2     
2873 B200 0220  22 	ai r0,64768	; -3
     B202 FD00     
2874 B204 D800  38 	movb r0,@cvb_X0
     B206 20B9     
2875 B208 D820  54 	movb @cvb_PY,@cvb_Y0
     B20A 20B3     
     B20C 20BB     
2876 B20E 0200  20 	li r0,1792   ; 7*256
     B210 0700     
2877 B212 D800  38 	movb r0,@cvb_BW
     B214 20AD     
2878 B216 0200  20 	li r0,1792   ; 7*256
     B218 0700     
2879 B21A D800  38 	movb r0,@cvb_BH
     B21C 20AC     
2880               	; 	GOSUB chkbox
2881 B21E 06A0  32 	bl @jsr
     B220 A974     
2882 B222 C6CA     	data cvb_CHKBOX
2883               	; 	IF bf = 1 THEN GOSUB brchk : IF brf = 1 THEN bf = 0
2884 B224 D020  34 	movb @cvb_BF,r0
     B226 20AB     
2885 B228 0201  20 	li r1,256   ; 1*256
     B22A 0100     
2886 B22C 9001  18 	cb r1,r0
2887 B22E 1302  14 	jeq cv74
2888 B230 0460  28 	b @cv73
     B232 B250     
2889               cv74
2890 B234 06A0  32 	bl @jsr
     B236 A974     
2891 B238 B426     	data cvb_BRCHK
2892 B23A D020  34 	movb @cvb_BRF,r0
     B23C 208E     
2893 B23E 0201  20 	li r1,256   ; 1*256
     B240 0100     
2894 B242 9001  18 	cb r1,r0
2895 B244 1302  14 	jeq cv76
2896 B246 0460  28 	b @cv75
     B248 B250     
2897               cv76
2898 B24A 04C0  14 	clr r0
2899 B24C D800  38 	movb r0,@cvb_BF
     B24E 20AB     
2900               cv75
2901               cv73
2902               	; 	IF bf = 0 THEN px = x0
2903 B250 D020  34 	movb @cvb_BF,r0
     B252 20AB     
2904 B254 1302  14 	jeq cv78
2905 B256 0460  28 	b @cv77
     B258 B260     
2906               cv78
2907 B25A D820  54 	movb @cvb_X0,@cvb_PX
     B25C 20B9     
     B25E 20B2     
2908               cv77
2909               	; 	END
2910 B260 C03A  30 	mov *r10+,r0
2911 B262 0450  20 	b *r0
2912               	;
2913               	; mvright: PROCEDURE
2914               	even
2915               cvb_MVRIGHT
2916               	; 	IF rmch = 1 THEN RETURN
2917 B264 D020  34 	movb @cvb_RMCH,r0
     B266 208F     
2918 B268 0201  20 	li r1,256   ; 1*256
     B26A 0100     
2919 B26C 9001  18 	cb r1,r0
2920 B26E 1302  14 	jeq cv80
2921 B270 0460  28 	b @cv79
     B272 B278     
2922               cv80
2923 B274 C03A  30 	mov *r10+,r0
2924 B276 0450  20 	b *r0
2925               cv79
2926               	; 	IF px > 244 THEN GOSUB goeast : RETURN
2927 B278 D020  34 	movb @cvb_PX,r0
     B27A 20B2     
2928 B27C 0201  20 	li r1,62720   ; 245*256
     B27E F500     
2929 B280 9040  18 	cb r0,r1
2930 B282 1402  14 	jhe cv82
2931 B284 0460  28 	b @cv81
     B286 B292     
2932               cv82
2933 B288 06A0  32 	bl @jsr
     B28A A974     
2934 B28C B540     	data cvb_GOEAST
2935 B28E C03A  30 	mov *r10+,r0
2936 B290 0450  20 	b *r0
2937               cv81
2938               	; 	x0 = px + 3 : y0 = py : bw = 7 : bh = 7
2939 B292 D020  34 	movb @cvb_PX,r0
     B294 20B2     
2940 B296 0220  22 	ai r0,768	; 3
     B298 0300     
2941 B29A D800  38 	movb r0,@cvb_X0
     B29C 20B9     
2942 B29E D820  54 	movb @cvb_PY,@cvb_Y0
     B2A0 20B3     
     B2A2 20BB     
2943 B2A4 0200  20 	li r0,1792   ; 7*256
     B2A6 0700     
2944 B2A8 D800  38 	movb r0,@cvb_BW
     B2AA 20AD     
2945 B2AC 0200  20 	li r0,1792   ; 7*256
     B2AE 0700     
2946 B2B0 D800  38 	movb r0,@cvb_BH
     B2B2 20AC     
2947               	; 	GOSUB chkbox
2948 B2B4 06A0  32 	bl @jsr
     B2B6 A974     
2949 B2B8 C6CA     	data cvb_CHKBOX
2950               	; 	IF bf = 1 THEN GOSUB brchk : IF brf = 1 THEN bf = 0
2951 B2BA D020  34 	movb @cvb_BF,r0
     B2BC 20AB     
2952 B2BE 0201  20 	li r1,256   ; 1*256
     B2C0 0100     
2953 B2C2 9001  18 	cb r1,r0
2954 B2C4 1302  14 	jeq cv84
2955 B2C6 0460  28 	b @cv83
     B2C8 B2E6     
2956               cv84
2957 B2CA 06A0  32 	bl @jsr
     B2CC A974     
2958 B2CE B426     	data cvb_BRCHK
2959 B2D0 D020  34 	movb @cvb_BRF,r0
     B2D2 208E     
2960 B2D4 0201  20 	li r1,256   ; 1*256
     B2D6 0100     
2961 B2D8 9001  18 	cb r1,r0
2962 B2DA 1302  14 	jeq cv86
2963 B2DC 0460  28 	b @cv85
     B2DE B2E6     
2964               cv86
2965 B2E0 04C0  14 	clr r0
2966 B2E2 D800  38 	movb r0,@cvb_BF
     B2E4 20AB     
2967               cv85
2968               cv83
2969               	; 	IF bf = 0 THEN px = x0
2970 B2E6 D020  34 	movb @cvb_BF,r0
     B2E8 20AB     
2971 B2EA 1302  14 	jeq cv88
2972 B2EC 0460  28 	b @cv87
     B2EE B2F6     
2973               cv88
2974 B2F0 D820  54 	movb @cvb_X0,@cvb_PX
     B2F2 20B9     
     B2F4 20B2     
2975               cv87
2976               	; 	END
2977 B2F6 C03A  30 	mov *r10+,r0
2978 B2F8 0450  20 	b *r0
2979               	;
2980               	; mvup: PROCEDURE
2981               	even
2982               cvb_MVUP
2983               	; 	IF rmch = 1 THEN RETURN
2984 B2FA D020  34 	movb @cvb_RMCH,r0
     B2FC 208F     
2985 B2FE 0201  20 	li r1,256   ; 1*256
     B300 0100     
2986 B302 9001  18 	cb r1,r0
2987 B304 1302  14 	jeq cv90
2988 B306 0460  28 	b @cv89
     B308 B30E     
2989               cv90
2990 B30A C03A  30 	mov *r10+,r0
2991 B30C 0450  20 	b *r0
2992               cv89
2993               	; 	IF py < 3 THEN GOSUB gonorth : RETURN
2994 B30E D020  34 	movb @cvb_PY,r0
     B310 20B3     
2995 B312 0201  20 	li r1,768   ; 3*256
     B314 0300     
2996 B316 9040  18 	cb r0,r1
2997 B318 1A02  14 	jl cv92
2998 B31A 0460  28 	b @cv91
     B31C B328     
2999               cv92
3000 B31E 06A0  32 	bl @jsr
     B320 A974     
3001 B322 B582     	data cvb_GONORTH
3002 B324 C03A  30 	mov *r10+,r0
3003 B326 0450  20 	b *r0
3004               cv91
3005               	; 	x0 = px : y0 = py - 3 : bw = 7 : bh = 7
3006 B328 D820  54 	movb @cvb_PX,@cvb_X0
     B32A 20B2     
     B32C 20B9     
3007 B32E D020  34 	movb @cvb_PY,r0
     B330 20B3     
3008 B332 0220  22 	ai r0,64768	; -3
     B334 FD00     
3009 B336 D800  38 	movb r0,@cvb_Y0
     B338 20BB     
3010 B33A 0200  20 	li r0,1792   ; 7*256
     B33C 0700     
3011 B33E D800  38 	movb r0,@cvb_BW
     B340 20AD     
3012 B342 0200  20 	li r0,1792   ; 7*256
     B344 0700     
3013 B346 D800  38 	movb r0,@cvb_BH
     B348 20AC     
3014               	; 	GOSUB chkbox
3015 B34A 06A0  32 	bl @jsr
     B34C A974     
3016 B34E C6CA     	data cvb_CHKBOX
3017               	; 	IF bf = 1 THEN GOSUB brchk : IF brf = 1 THEN bf = 0
3018 B350 D020  34 	movb @cvb_BF,r0
     B352 20AB     
3019 B354 0201  20 	li r1,256   ; 1*256
     B356 0100     
3020 B358 9001  18 	cb r1,r0
3021 B35A 1302  14 	jeq cv94
3022 B35C 0460  28 	b @cv93
     B35E B37C     
3023               cv94
3024 B360 06A0  32 	bl @jsr
     B362 A974     
3025 B364 B426     	data cvb_BRCHK
3026 B366 D020  34 	movb @cvb_BRF,r0
     B368 208E     
3027 B36A 0201  20 	li r1,256   ; 1*256
     B36C 0100     
3028 B36E 9001  18 	cb r1,r0
3029 B370 1302  14 	jeq cv96
3030 B372 0460  28 	b @cv95
     B374 B37C     
3031               cv96
3032 B376 04C0  14 	clr r0
3033 B378 D800  38 	movb r0,@cvb_BF
     B37A 20AB     
3034               cv95
3035               cv93
3036               	; 	IF bf = 0 THEN py = y0
3037 B37C D020  34 	movb @cvb_BF,r0
     B37E 20AB     
3038 B380 1302  14 	jeq cv98
3039 B382 0460  28 	b @cv97
     B384 B38C     
3040               cv98
3041 B386 D820  54 	movb @cvb_Y0,@cvb_PY
     B388 20BB     
     B38A 20B3     
3042               cv97
3043               	; 	END
3044 B38C C03A  30 	mov *r10+,r0
3045 B38E 0450  20 	b *r0
3046               	;
3047               	; mvdown: PROCEDURE
3048               	even
3049               cvb_MVDOWN
3050               	; 	IF rmch = 1 THEN RETURN
3051 B390 D020  34 	movb @cvb_RMCH,r0
     B392 208F     
3052 B394 0201  20 	li r1,256   ; 1*256
     B396 0100     
3053 B398 9001  18 	cb r1,r0
3054 B39A 1302  14 	jeq cv100
3055 B39C 0460  28 	b @cv99
     B39E B3A4     
3056               cv100
3057 B3A0 C03A  30 	mov *r10+,r0
3058 B3A2 0450  20 	b *r0
3059               cv99
3060               	; 	IF py > 181 THEN GOSUB gosouth : RETURN
3061 B3A4 D020  34 	movb @cvb_PY,r0
     B3A6 20B3     
3062 B3A8 0201  20 	li r1,46592   ; 182*256
     B3AA B600     
3063 B3AC 9040  18 	cb r0,r1
3064 B3AE 1402  14 	jhe cv102
3065 B3B0 0460  28 	b @cv101
     B3B2 B3BE     
3066               cv102
3067 B3B4 06A0  32 	bl @jsr
     B3B6 A974     
3068 B3B8 B5C4     	data cvb_GOSOUTH
3069 B3BA C03A  30 	mov *r10+,r0
3070 B3BC 0450  20 	b *r0
3071               cv101
3072               	; 	x0 = px : y0 = py + 3 : bw = 7 : bh = 7
3073 B3BE D820  54 	movb @cvb_PX,@cvb_X0
     B3C0 20B2     
     B3C2 20B9     
3074 B3C4 D020  34 	movb @cvb_PY,r0
     B3C6 20B3     
3075 B3C8 0220  22 	ai r0,768	; 3
     B3CA 0300     
3076 B3CC D800  38 	movb r0,@cvb_Y0
     B3CE 20BB     
3077 B3D0 0200  20 	li r0,1792   ; 7*256
     B3D2 0700     
3078 B3D4 D800  38 	movb r0,@cvb_BW
     B3D6 20AD     
3079 B3D8 0200  20 	li r0,1792   ; 7*256
     B3DA 0700     
3080 B3DC D800  38 	movb r0,@cvb_BH
     B3DE 20AC     
3081               	; 	GOSUB chkbox
3082 B3E0 06A0  32 	bl @jsr
     B3E2 A974     
3083 B3E4 C6CA     	data cvb_CHKBOX
3084               	; 	IF bf = 1 THEN GOSUB brchk : IF brf = 1 THEN bf = 0
3085 B3E6 D020  34 	movb @cvb_BF,r0
     B3E8 20AB     
3086 B3EA 0201  20 	li r1,256   ; 1*256
     B3EC 0100     
3087 B3EE 9001  18 	cb r1,r0
3088 B3F0 1302  14 	jeq cv104
3089 B3F2 0460  28 	b @cv103
     B3F4 B412     
3090               cv104
3091 B3F6 06A0  32 	bl @jsr
     B3F8 A974     
3092 B3FA B426     	data cvb_BRCHK
3093 B3FC D020  34 	movb @cvb_BRF,r0
     B3FE 208E     
3094 B400 0201  20 	li r1,256   ; 1*256
     B402 0100     
3095 B404 9001  18 	cb r1,r0
3096 B406 1302  14 	jeq cv106
3097 B408 0460  28 	b @cv105
     B40A B412     
3098               cv106
3099 B40C 04C0  14 	clr r0
3100 B40E D800  38 	movb r0,@cvb_BF
     B410 20AB     
3101               cv105
3102               cv103
3103               	; 	IF bf = 0 THEN py = y0
3104 B412 D020  34 	movb @cvb_BF,r0
     B414 20AB     
3105 B416 1302  14 	jeq cv108
3106 B418 0460  28 	b @cv107
     B41A B422     
3107               cv108
3108 B41C D820  54 	movb @cvb_Y0,@cvb_PY
     B41E 20BB     
     B420 20B3     
3109               cv107
3110               	; 	END
3111 B422 C03A  30 	mov *r10+,r0
3112 B424 0450  20 	b *r0
3113               	;
3114               	; brchk: PROCEDURE
3115               	even
3116               cvb_BRCHK
3117               	; 	' bridge passage: the target box lies inside the channel of the
3118               	; 	' bridge (lying in this room, not carried, never over a gate)
3119               	; 	brf = 0
3120 B426 04C0  14 	clr r0
3121 B428 D800  38 	movb r0,@cvb_BRF
     B42A 208E     
3122               	; 	IF orm(4) <> rn THEN RETURN
3123 B42C D020  34 	movb @array_ORM+4,r0
     B42E 2138     
3124 B430 9020  34 	cb @cvb_RN,r0
     B432 20B5     
3125 B434 1602  14 	jne cv110
3126 B436 0460  28 	b @cv109
     B438 B43E     
3127               cv110
3128 B43A C03A  30 	mov *r10+,r0
3129 B43C 0450  20 	b *r0
3130               cv109
3131               	; 	IF cr = 4 THEN RETURN
3132 B43E D020  34 	movb @cvb_CR,r0
     B440 20AE     
3133 B442 0201  20 	li r1,1024   ; 4*256
     B444 0400     
3134 B446 9001  18 	cb r1,r0
3135 B448 1302  14 	jeq cv112
3136 B44A 0460  28 	b @cv111
     B44C B452     
3137               cv112
3138 B44E C03A  30 	mov *r10+,r0
3139 B450 0450  20 	b *r0
3140               cv111
3141               	; 	IF gz > 0 THEN RETURN
3142 B452 D020  34 	movb @cvb_GZ,r0
     B454 20B0     
3143 B456 0201  20 	li r1,256   ; 1*256
     B458 0100     
3144 B45A 9040  18 	cb r0,r1
3145 B45C 1402  14 	jhe cv114
3146 B45E 0460  28 	b @cv113
     B460 B466     
3147               cv114
3148 B462 C03A  30 	mov *r10+,r0
3149 B464 0450  20 	b *r0
3150               cv113
3151               	; 	' passage keeps a 2px margin off the rails so walking through
3152               	; 	' never counts as touching (= grabbing) them
3153               	; 	IF x0 < obx(4) + 6 THEN RETURN
3154 B466 D020  34 	movb @array_OBX+4,r0
     B468 212C     
3155 B46A 0980  32 	srl r0,8
3156 B46C 0220  22 	ai r0,6
     B46E 0006     
3157 B470 C040  18 	mov r0,r1
3158 B472 D020  34 	movb @cvb_X0,r0
     B474 20B9     
3159 B476 0980  32 	srl r0,8
3160 B478 8040  18 	c r0,r1
3161 B47A 1A02  14 	jl cv116
3162 B47C 0460  28 	b @cv115
     B47E B484     
3163               cv116
3164 B480 C03A  30 	mov *r10+,r0
3165 B482 0450  20 	b *r0
3166               cv115
3167               	; 	#ax = obx(4) + 25
3168 B484 D020  34 	movb @array_OBX+4,r0
     B486 212C     
3169 B488 0980  32 	srl r0,8
3170 B48A 0220  22 	ai r0,25
     B48C 0019     
3171 B48E C800  38 	mov r0,@cvb__AX
     B490 209E     
3172               	; 	IF x0 + 7 > #ax THEN RETURN
3173 B492 D020  34 	movb @cvb_X0,r0
     B494 20B9     
3174 B496 0980  32 	srl r0,8
3175 B498 0220  22 	ai r0,7
     B49A 0007     
3176 B49C C040  18 	mov r0,r1
3177 B49E C020  34 	mov @cvb__AX,r0
     B4A0 209E     
3178 B4A2 8040  18 	c r0,r1
3179 B4A4 1A02  14 	jl cv118
3180 B4A6 0460  28 	b @cv117
     B4A8 B4AE     
3181               cv118
3182 B4AA C03A  30 	mov *r10+,r0
3183 B4AC 0450  20 	b *r0
3184               cv117
3185               	; 	IF y0 + 7 < oby(4) THEN RETURN
3186 B4AE D020  34 	movb @array_OBY+4,r0
     B4B0 2132     
3187 B4B2 0980  32 	srl r0,8
3188 B4B4 C040  18 	mov r0,r1
3189 B4B6 D020  34 	movb @cvb_Y0,r0
     B4B8 20BB     
3190 B4BA 0980  32 	srl r0,8
3191 B4BC 0220  22 	ai r0,7
     B4BE 0007     
3192 B4C0 8040  18 	c r0,r1
3193 B4C2 1A02  14 	jl cv120
3194 B4C4 0460  28 	b @cv119
     B4C6 B4CC     
3195               cv120
3196 B4C8 C03A  30 	mov *r10+,r0
3197 B4CA 0450  20 	b *r0
3198               cv119
3199               	; 	#ax = oby(4) + 31
3200 B4CC D020  34 	movb @array_OBY+4,r0
     B4CE 2132     
3201 B4D0 0980  32 	srl r0,8
3202 B4D2 0220  22 	ai r0,31
     B4D4 001F     
3203 B4D6 C800  38 	mov r0,@cvb__AX
     B4D8 209E     
3204               	; 	IF y0 > #ax THEN RETURN
3205 B4DA D020  34 	movb @cvb_Y0,r0
     B4DC 20BB     
3206 B4DE 0980  32 	srl r0,8
3207 B4E0 C040  18 	mov r0,r1
3208 B4E2 C020  34 	mov @cvb__AX,r0
     B4E4 209E     
3209 B4E6 8040  18 	c r0,r1
3210 B4E8 1A02  14 	jl cv122
3211 B4EA 0460  28 	b @cv121
     B4EC B4F2     
3212               cv122
3213 B4EE C03A  30 	mov *r10+,r0
3214 B4F0 0450  20 	b *r0
3215               cv121
3216               	; 	brf = 1
3217 B4F2 0200  20 	li r0,256   ; 1*256
     B4F4 0100     
3218 B4F6 D800  38 	movb r0,@cvb_BRF
     B4F8 208E     
3219               	; 	END
3220 B4FA C03A  30 	mov *r10+,r0
3221 B4FC 0450  20 	b *r0
3222               	;
3223               	; gowest: PROCEDURE
3224               	even
3225               cvb_GOWEST
3226               	; 	t = lnw(rn) : IF t = 255 THEN RETURN
3227 B4FE D020  34 	movb @cvb_RN,r0
     B500 20B5     
3228 B502 0980  32 	srl r0,8
3229 B504 0220  22 	ai r0,array_LNW
     B506 20F4     
3230 B508 D810  46 	movb *r0,@cvb_T
     B50A 2089     
3231 B50C D020  34 	movb @cvb_T,r0
     B50E 2089     
3232 B510 0201  20 	li r1,65280   ; 255*256
     B512 FF00     
3233 B514 9001  18 	cb r1,r0
3234 B516 1302  14 	jeq cv124
3235 B518 0460  28 	b @cv123
     B51A B520     
3236               cv124
3237 B51C C03A  30 	mov *r10+,r0
3238 B51E 0450  20 	b *r0
3239               cv123
3240               	; 	rn = t : px = 244 : rmch = 1
3241 B520 D820  54 	movb @cvb_T,@cvb_RN
     B522 2089     
     B524 20B5     
3242 B526 0200  20 	li r0,62464   ; 244*256
     B528 F400     
3243 B52A D800  38 	movb r0,@cvb_PX
     B52C 20B2     
3244 B52E 0200  20 	li r0,256   ; 1*256
     B530 0100     
3245 B532 D800  38 	movb r0,@cvb_RMCH
     B534 208F     
3246               	; 	GOSUB enterroom
3247 B536 06A0  32 	bl @jsr
     B538 A974     
3248 B53A C76E     	data cvb_ENTERROOM
3249               	; 	END
3250 B53C C03A  30 	mov *r10+,r0
3251 B53E 0450  20 	b *r0
3252               	;
3253               	; goeast: PROCEDURE
3254               	even
3255               cvb_GOEAST
3256               	; 	t = lne(rn) : IF t = 255 THEN RETURN
3257 B540 D020  34 	movb @cvb_RN,r0
     B542 20B5     
3258 B544 0980  32 	srl r0,8
3259 B546 0220  22 	ai r0,array_LNE
     B548 20CA     
3260 B54A D810  46 	movb *r0,@cvb_T
     B54C 2089     
3261 B54E D020  34 	movb @cvb_T,r0
     B550 2089     
3262 B552 0201  20 	li r1,65280   ; 255*256
     B554 FF00     
3263 B556 9001  18 	cb r1,r0
3264 B558 1302  14 	jeq cv126
3265 B55A 0460  28 	b @cv125
     B55C B562     
3266               cv126
3267 B55E C03A  30 	mov *r10+,r0
3268 B560 0450  20 	b *r0
3269               cv125
3270               	; 	rn = t : px = 4 : rmch = 1
3271 B562 D820  54 	movb @cvb_T,@cvb_RN
     B564 2089     
     B566 20B5     
3272 B568 0200  20 	li r0,1024   ; 4*256
     B56A 0400     
3273 B56C D800  38 	movb r0,@cvb_PX
     B56E 20B2     
3274 B570 0200  20 	li r0,256   ; 1*256
     B572 0100     
3275 B574 D800  38 	movb r0,@cvb_RMCH
     B576 208F     
3276               	; 	GOSUB enterroom
3277 B578 06A0  32 	bl @jsr
     B57A A974     
3278 B57C C76E     	data cvb_ENTERROOM
3279               	; 	END
3280 B57E C03A  30 	mov *r10+,r0
3281 B580 0450  20 	b *r0
3282               	;
3283               	; gonorth: PROCEDURE
3284               	even
3285               cvb_GONORTH
3286               	; 	t = lnn(rn) : IF t = 255 THEN RETURN
3287 B582 D020  34 	movb @cvb_RN,r0
     B584 20B5     
3288 B586 0980  32 	srl r0,8
3289 B588 0220  22 	ai r0,array_LNN
     B58A 20D8     
3290 B58C D810  46 	movb *r0,@cvb_T
     B58E 2089     
3291 B590 D020  34 	movb @cvb_T,r0
     B592 2089     
3292 B594 0201  20 	li r1,65280   ; 255*256
     B596 FF00     
3293 B598 9001  18 	cb r1,r0
3294 B59A 1302  14 	jeq cv128
3295 B59C 0460  28 	b @cv127
     B59E B5A4     
3296               cv128
3297 B5A0 C03A  30 	mov *r10+,r0
3298 B5A2 0450  20 	b *r0
3299               cv127
3300               	; 	rn = t : py = 180 : rmch = 1
3301 B5A4 D820  54 	movb @cvb_T,@cvb_RN
     B5A6 2089     
     B5A8 20B5     
3302 B5AA 0200  20 	li r0,46080   ; 180*256
     B5AC B400     
3303 B5AE D800  38 	movb r0,@cvb_PY
     B5B0 20B3     
3304 B5B2 0200  20 	li r0,256   ; 1*256
     B5B4 0100     
3305 B5B6 D800  38 	movb r0,@cvb_RMCH
     B5B8 208F     
3306               	; 	GOSUB enterroom
3307 B5BA 06A0  32 	bl @jsr
     B5BC A974     
3308 B5BE C76E     	data cvb_ENTERROOM
3309               	; 	END
3310 B5C0 C03A  30 	mov *r10+,r0
3311 B5C2 0450  20 	b *r0
3312               	;
3313               	; gosouth: PROCEDURE
3314               	even
3315               cvb_GOSOUTH
3316               	; 	' leaving a castle hall puts you just below its (open) gate
3317               	; 	IF rn = 2 THEN rn = 0 : px = 120 : py = 66 : rmch = 1 : GOSUB enterroom : RETURN
3318 B5C4 D020  34 	movb @cvb_RN,r0
     B5C6 20B5     
3319 B5C8 0201  20 	li r1,512   ; 2*256
     B5CA 0200     
3320 B5CC 9001  18 	cb r1,r0
3321 B5CE 1302  14 	jeq cv130
3322 B5D0 0460  28 	b @cv129
     B5D2 B5FC     
3323               cv130
3324 B5D4 04C0  14 	clr r0
3325 B5D6 D800  38 	movb r0,@cvb_RN
     B5D8 20B5     
3326 B5DA 0200  20 	li r0,30720   ; 120*256
     B5DC 7800     
3327 B5DE D800  38 	movb r0,@cvb_PX
     B5E0 20B2     
3328 B5E2 0200  20 	li r0,16896   ; 66*256
     B5E4 4200     
3329 B5E6 D800  38 	movb r0,@cvb_PY
     B5E8 20B3     
3330 B5EA 0200  20 	li r0,256   ; 1*256
     B5EC 0100     
3331 B5EE D800  38 	movb r0,@cvb_RMCH
     B5F0 208F     
3332 B5F2 06A0  32 	bl @jsr
     B5F4 A974     
3333 B5F6 C76E     	data cvb_ENTERROOM
3334 B5F8 C03A  30 	mov *r10+,r0
3335 B5FA 0450  20 	b *r0
3336               cv129
3337               	; 	IF rn = 9 THEN rn = 8 : px = 120 : py = 66 : rmch = 1 : GOSUB enterroom : RETURN
3338 B5FC D020  34 	movb @cvb_RN,r0
     B5FE 20B5     
3339 B600 0201  20 	li r1,2304   ; 9*256
     B602 0900     
3340 B604 9001  18 	cb r1,r0
3341 B606 1302  14 	jeq cv132
3342 B608 0460  28 	b @cv131
     B60A B636     
3343               cv132
3344 B60C 0200  20 	li r0,2048   ; 8*256
     B60E 0800     
3345 B610 D800  38 	movb r0,@cvb_RN
     B612 20B5     
3346 B614 0200  20 	li r0,30720   ; 120*256
     B616 7800     
3347 B618 D800  38 	movb r0,@cvb_PX
     B61A 20B2     
3348 B61C 0200  20 	li r0,16896   ; 66*256
     B61E 4200     
3349 B620 D800  38 	movb r0,@cvb_PY
     B622 20B3     
3350 B624 0200  20 	li r0,256   ; 1*256
     B626 0100     
3351 B628 D800  38 	movb r0,@cvb_RMCH
     B62A 208F     
3352 B62C 06A0  32 	bl @jsr
     B62E A974     
3353 B630 C76E     	data cvb_ENTERROOM
3354 B632 C03A  30 	mov *r10+,r0
3355 B634 0450  20 	b *r0
3356               cv131
3357               	; 	IF rn = 12 THEN rn = 11 : px = 120 : py = 66 : rmch = 1 : GOSUB enterroom : RETURN
3358 B636 D020  34 	movb @cvb_RN,r0
     B638 20B5     
3359 B63A 0201  20 	li r1,3072   ; 12*256
     B63C 0C00     
3360 B63E 9001  18 	cb r1,r0
3361 B640 1302  14 	jeq cv134
3362 B642 0460  28 	b @cv133
     B644 B670     
3363               cv134
3364 B646 0200  20 	li r0,2816   ; 11*256
     B648 0B00     
3365 B64A D800  38 	movb r0,@cvb_RN
     B64C 20B5     
3366 B64E 0200  20 	li r0,30720   ; 120*256
     B650 7800     
3367 B652 D800  38 	movb r0,@cvb_PX
     B654 20B2     
3368 B656 0200  20 	li r0,16896   ; 66*256
     B658 4200     
3369 B65A D800  38 	movb r0,@cvb_PY
     B65C 20B3     
3370 B65E 0200  20 	li r0,256   ; 1*256
     B660 0100     
3371 B662 D800  38 	movb r0,@cvb_RMCH
     B664 208F     
3372 B666 06A0  32 	bl @jsr
     B668 A974     
3373 B66A C76E     	data cvb_ENTERROOM
3374 B66C C03A  30 	mov *r10+,r0
3375 B66E 0450  20 	b *r0
3376               cv133
3377               	; 	t = lns(rn) : IF t = 255 THEN RETURN
3378 B670 D020  34 	movb @cvb_RN,r0
     B672 20B5     
3379 B674 0980  32 	srl r0,8
3380 B676 0220  22 	ai r0,array_LNS
     B678 20E6     
3381 B67A D810  46 	movb *r0,@cvb_T
     B67C 2089     
3382 B67E D020  34 	movb @cvb_T,r0
     B680 2089     
3383 B682 0201  20 	li r1,65280   ; 255*256
     B684 FF00     
3384 B686 9001  18 	cb r1,r0
3385 B688 1302  14 	jeq cv136
3386 B68A 0460  28 	b @cv135
     B68C B692     
3387               cv136
3388 B68E C03A  30 	mov *r10+,r0
3389 B690 0450  20 	b *r0
3390               cv135
3391               	; 	rn = t : py = 4 : rmch = 1
3392 B692 D820  54 	movb @cvb_T,@cvb_RN
     B694 2089     
     B696 20B5     
3393 B698 0200  20 	li r0,1024   ; 4*256
     B69A 0400     
3394 B69C D800  38 	movb r0,@cvb_PY
     B69E 20B3     
3395 B6A0 0200  20 	li r0,256   ; 1*256
     B6A2 0100     
3396 B6A4 D800  38 	movb r0,@cvb_RMCH
     B6A6 208F     
3397               	; 	GOSUB enterroom
3398 B6A8 06A0  32 	bl @jsr
     B6AA A974     
3399 B6AC C76E     	data cvb_ENTERROOM
3400               	; 	END
3401 B6AE C03A  30 	mov *r10+,r0
3402 B6B0 0450  20 	b *r0
3403               	;
3404               	; 	' ------------------------------------------------------------
3405               	; 	' gate: closed = touch it while carrying the matching key
3406               	; 	' (generous window: 3px steps can leave you at py=66-70);
3407               	; 	' open = walking deep into the archway warps inside the castle
3408               	; 	' ------------------------------------------------------------
3409               	; gatelogic: PROCEDURE
3410               	even
3411               cvb_GATELOGIC
3412               	; 	IF gopn = 1 THEN GOTO gwarp
3413 B6B2 D020  34 	movb @cvb_GOPN,r0
     B6B4 2094     
3414 B6B6 0201  20 	li r1,256   ; 1*256
     B6B8 0100     
3415 B6BA 9001  18 	cb r1,r0
3416 B6BC 1302  14 	jeq cv138
3417 B6BE 0460  28 	b @cv137
     B6C0 B6C6     
3418               cv138
3419 B6C2 0460  28 	b @cvb_GWARP
     B6C4 B7C2     
3420               cv137
3421               	; 	IF cr <> gz - 1 THEN RETURN
3422 B6C6 D020  34 	movb @cvb_GZ,r0
     B6C8 20B0     
3423 B6CA 0980  32 	srl r0,8
3424 B6CC 0600  14 	dec r0
3425 B6CE C040  18 	mov r0,r1
3426 B6D0 D020  34 	movb @cvb_CR,r0
     B6D2 20AE     
3427 B6D4 0980  32 	srl r0,8
3428 B6D6 8040  18 	c r0,r1
3429 B6D8 1602  14 	jne cv140
3430 B6DA 0460  28 	b @cv139
     B6DC B6E2     
3431               cv140
3432 B6DE C03A  30 	mov *r10+,r0
3433 B6E0 0450  20 	b *r0
3434               cv139
3435               	; 	IF px < 100 THEN RETURN
3436 B6E2 D020  34 	movb @cvb_PX,r0
     B6E4 20B2     
3437 B6E6 0201  20 	li r1,25600   ; 100*256
     B6E8 6400     
3438 B6EA 9040  18 	cb r0,r1
3439 B6EC 1A02  14 	jl cv142
3440 B6EE 0460  28 	b @cv141
     B6F0 B6F6     
3441               cv142
3442 B6F2 C03A  30 	mov *r10+,r0
3443 B6F4 0450  20 	b *r0
3444               cv141
3445               	; 	IF px > 148 THEN RETURN
3446 B6F6 D020  34 	movb @cvb_PX,r0
     B6F8 20B2     
3447 B6FA 0201  20 	li r1,38144   ; 149*256
     B6FC 9500     
3448 B6FE 9040  18 	cb r0,r1
3449 B700 1402  14 	jhe cv144
3450 B702 0460  28 	b @cv143
     B704 B70A     
3451               cv144
3452 B706 C03A  30 	mov *r10+,r0
3453 B708 0450  20 	b *r0
3454               cv143
3455               	; 	IF py > 70 THEN RETURN
3456 B70A D020  34 	movb @cvb_PY,r0
     B70C 20B3     
3457 B70E 0201  20 	li r1,18176   ; 71*256
     B710 4700     
3458 B712 9040  18 	cb r0,r1
3459 B714 1402  14 	jhe cv146
3460 B716 0460  28 	b @cv145
     B718 B71E     
3461               cv146
3462 B71A C03A  30 	mov *r10+,r0
3463 B71C 0450  20 	b *r0
3464               cv145
3465               	; 	gop(gz - 1) = 1 : gopn = 1
3466 B71E 0201  20 	li r1,256
     B720 0100     
3467 B722 D020  34 	movb @cvb_GZ,r0
     B724 20B0     
3468 B726 0980  32 	srl r0,8
3469 B728 0600  14 	dec r0
3470 B72A 0220  22 	ai r0,array_GOP
     B72C 213A     
3471 B72E D401  30 	movb r1,*r0
3472 B730 0200  20 	li r0,256   ; 1*256
     B732 0100     
3473 B734 D800  38 	movb r0,@cvb_GOPN
     B736 2094     
3474               	; 	FOR r = 4 TO 7
3475 B738 0200  20 	li r0,1024   ; 4*256
     B73A 0400     
3476 B73C D800  38 	movb r0,@cvb_R
     B73E 2088     
3477               cv147
3478               	; 	FOR c2 = 14 TO 17 : VPOKE $1800 + r * 32 + c2, 32 : NEXT c2
3479 B740 0200  20 	li r0,3584   ; 14*256
     B742 0E00     
3480 B744 D800  38 	movb r0,@cvb_C2
     B746 20AA     
3481               cv148
3482 B748 0200  20 	li r0,8192   ; 32*256
     B74A 2000     
3483 B74C 064A  14 	dect r10
3484 B74E C680  30 	mov r0,*r10
3485 B750 D020  34 	movb @cvb_C2,r0
     B752 20AA     
3486 B754 0980  32 	srl r0,8
3487 B756 C040  18 	mov r0,r1
3488 B758 D020  34 	movb @cvb_R,r0
     B75A 2088     
3489 B75C 0980  32 	srl r0,8
3490 B75E 0A50  26 	sla r0,5
3491 B760 0220  22 	ai r0,6144
     B762 1800     
3492 B764 A001  18 	a r1,r0
3493 B766 C0BA  30 	mov *r10+,r2
3494 B768 0300  22 	limi 0
     B76A 0000     
3495 B76C 06A0  32 	bl @JSR
     B76E A974     
3496 B770 A018     	data WRTVRM
3497 B772 0300  22 	limi 2
     B774 0002     
3498 B776 D020  34 	movb @cvb_C2,r0
     B778 20AA     
3499 B77A 0220  22 	ai r0,256	; 1
     B77C 0100     
3500 B77E D800  38 	movb r0,@cvb_C2
     B780 20AA     
3501 B782 0201  20 	li r1,4608   ; 18*256
     B784 1200     
3502 B786 9040  18 	cb r0,r1
3503 B788 1402  14 	jhe cv149
3504 B78A 0460  28 	b @cv148
     B78C B748     
3505               cv149
3506               	; 	NEXT r
3507 B78E D020  34 	movb @cvb_R,r0
     B790 2088     
3508 B792 0220  22 	ai r0,256	; 1
     B794 0100     
3509 B796 D800  38 	movb r0,@cvb_R
     B798 2088     
3510 B79A 0201  20 	li r1,2048   ; 8*256
     B79C 0800     
3511 B79E 9040  18 	cb r0,r1
3512 B7A0 1402  14 	jhe cv150
3513 B7A2 0460  28 	b @cv147
     B7A4 B740     
3514               cv150
3515               	; 	sfx = 3 : sfc = 24 : #sfq = 700
3516 B7A6 0200  20 	li r0,768   ; 3*256
     B7A8 0300     
3517 B7AA D800  38 	movb r0,@cvb_SFX
     B7AC 20B4     
3518 B7AE 0200  20 	li r0,6144   ; 24*256
     B7B0 1800     
3519 B7B2 D800  38 	movb r0,@cvb_SFC
     B7B4 20B1     
3520 B7B6 0200  20 	li r0,700
     B7B8 02BC     
3521 B7BA C800  38 	mov r0,@cvb__SFQ
     B7BC 208C     
3522               	; 	RETURN
3523 B7BE C03A  30 	mov *r10+,r0
3524 B7C0 0450  20 	b *r0
3525               	; gwarp:
3526               cvb_GWARP
3527               	; 	IF py > 34 THEN RETURN
3528 B7C2 D020  34 	movb @cvb_PY,r0
     B7C4 20B3     
3529 B7C6 0201  20 	li r1,8960   ; 35*256
     B7C8 2300     
3530 B7CA 9040  18 	cb r0,r1
3531 B7CC 1402  14 	jhe cv152
3532 B7CE 0460  28 	b @cv151
     B7D0 B7D6     
3533               cv152
3534 B7D2 C03A  30 	mov *r10+,r0
3535 B7D4 0450  20 	b *r0
3536               cv151
3537               	; 	IF px < 106 THEN RETURN
3538 B7D6 D020  34 	movb @cvb_PX,r0
     B7D8 20B2     
3539 B7DA 0201  20 	li r1,27136   ; 106*256
     B7DC 6A00     
3540 B7DE 9040  18 	cb r0,r1
3541 B7E0 1A02  14 	jl cv154
3542 B7E2 0460  28 	b @cv153
     B7E4 B7EA     
3543               cv154
3544 B7E6 C03A  30 	mov *r10+,r0
3545 B7E8 0450  20 	b *r0
3546               cv153
3547               	; 	IF px > 138 THEN RETURN
3548 B7EA D020  34 	movb @cvb_PX,r0
     B7EC 20B2     
3549 B7EE 0201  20 	li r1,35584   ; 139*256
     B7F0 8B00     
3550 B7F2 9040  18 	cb r0,r1
3551 B7F4 1402  14 	jhe cv156
3552 B7F6 0460  28 	b @cv155
     B7F8 B7FE     
3553               cv156
3554 B7FA C03A  30 	mov *r10+,r0
3555 B7FC 0450  20 	b *r0
3556               cv155
3557               	; 	IF rn = 0 THEN rn = 2
3558 B7FE D020  34 	movb @cvb_RN,r0
     B800 20B5     
3559 B802 1302  14 	jeq cv158
3560 B804 0460  28 	b @cv157
     B806 B810     
3561               cv158
3562 B808 0200  20 	li r0,512   ; 2*256
     B80A 0200     
3563 B80C D800  38 	movb r0,@cvb_RN
     B80E 20B5     
3564               cv157
3565               	; 	IF rn = 8 THEN rn = 9
3566 B810 D020  34 	movb @cvb_RN,r0
     B812 20B5     
3567 B814 0201  20 	li r1,2048   ; 8*256
     B816 0800     
3568 B818 9001  18 	cb r1,r0
3569 B81A 1302  14 	jeq cv160
3570 B81C 0460  28 	b @cv159
     B81E B828     
3571               cv160
3572 B820 0200  20 	li r0,2304   ; 9*256
     B822 0900     
3573 B824 D800  38 	movb r0,@cvb_RN
     B826 20B5     
3574               cv159
3575               	; 	IF rn = 11 THEN rn = 12
3576 B828 D020  34 	movb @cvb_RN,r0
     B82A 20B5     
3577 B82C 0201  20 	li r1,2816   ; 11*256
     B82E 0B00     
3578 B830 9001  18 	cb r1,r0
3579 B832 1302  14 	jeq cv162
3580 B834 0460  28 	b @cv161
     B836 B840     
3581               cv162
3582 B838 0200  20 	li r0,3072   ; 12*256
     B83A 0C00     
3583 B83C D800  38 	movb r0,@cvb_RN
     B83E 20B5     
3584               cv161
3585               	; 	px = 120 : py = 156 : rmch = 1
3586 B840 0200  20 	li r0,30720   ; 120*256
     B842 7800     
3587 B844 D800  38 	movb r0,@cvb_PX
     B846 20B2     
3588 B848 0200  20 	li r0,39936   ; 156*256
     B84A 9C00     
3589 B84C D800  38 	movb r0,@cvb_PY
     B84E 20B3     
3590 B850 0200  20 	li r0,256   ; 1*256
     B852 0100     
3591 B854 D800  38 	movb r0,@cvb_RMCH
     B856 208F     
3592               	; 	GOSUB enterroom
3593 B858 06A0  32 	bl @jsr
     B85A A974     
3594 B85C C76E     	data cvb_ENTERROOM
3595               	; 	END
3596 B85E C03A  30 	mov *r10+,r0
3597 B860 0450  20 	b *r0
3598               	;
3599               	; 	' ------------------------------------------------------------
3600               	; 	' carried object rides at its grab offset (#crx/#cry are the
3601               	; 	' object-minus-player offset, biased +64 to stay unsigned)
3602               	; 	' ------------------------------------------------------------
3603               	; carrypos: PROCEDURE
3604               	even
3605               cvb_CARRYPOS
3606               	; 	orm(cr) = rn
3607 B862 D060  34 	movb @cvb_RN,r1
     B864 20B5     
3608 B866 D020  34 	movb @cvb_CR,r0
     B868 20AE     
3609 B86A 0980  32 	srl r0,8
3610 B86C 0220  22 	ai r0,array_ORM
     B86E 2134     
3611 B870 D401  30 	movb r1,*r0
3612               	; 	#ax = px + #crx
3613 B872 D020  34 	movb @cvb_PX,r0
     B874 20B2     
3614 B876 0980  32 	srl r0,8
3615 B878 A020  34 	a @cvb__CRX,r0
     B87A 2096     
3616 B87C C800  38 	mov r0,@cvb__AX
     B87E 209E     
3617               	; 	IF #ax < 64 THEN #ax = 64
3618 B880 0280  22 	ci r0,64
     B882 0040     
3619 B884 1A02  14 	jl cv164
3620 B886 0460  28 	b @cv163
     B888 B892     
3621               cv164
3622 B88A 0200  20 	li r0,64
     B88C 0040     
3623 B88E C800  38 	mov r0,@cvb__AX
     B890 209E     
3624               cv163
3625               	; 	IF #ax > 304 THEN #ax = 304
3626 B892 C020  34 	mov @cvb__AX,r0
     B894 209E     
3627 B896 0201  20 	li r1,305
     B898 0131     
3628 B89A 8040  18 	c r0,r1
3629 B89C 1402  14 	jhe cv166
3630 B89E 0460  28 	b @cv165
     B8A0 B8AA     
3631               cv166
3632 B8A2 0200  20 	li r0,304
     B8A4 0130     
3633 B8A6 C800  38 	mov r0,@cvb__AX
     B8A8 209E     
3634               cv165
3635               	; 	obx(cr) = #ax - 64
3636 B8AA C020  34 	mov @cvb__AX,r0
     B8AC 209E     
3637 B8AE 0A80  32 	sla r0,8
3638 B8B0 0220  22 	ai r0,49152	; -64
     B8B2 C000     
3639 B8B4 C040  18 	mov r0,r1
3640 B8B6 D020  34 	movb @cvb_CR,r0
     B8B8 20AE     
3641 B8BA 0980  32 	srl r0,8
3642 B8BC 0220  22 	ai r0,array_OBX
     B8BE 2128     
3643 B8C0 D401  30 	movb r1,*r0
3644               	; 	#ax = py + #cry
3645 B8C2 D020  34 	movb @cvb_PY,r0
     B8C4 20B3     
3646 B8C6 0980  32 	srl r0,8
3647 B8C8 A020  34 	a @cvb__CRY,r0
     B8CA 2098     
3648 B8CC C800  38 	mov r0,@cvb__AX
     B8CE 209E     
3649               	; 	IF #ax < 64 THEN #ax = 64
3650 B8D0 0280  22 	ci r0,64
     B8D2 0040     
3651 B8D4 1A02  14 	jl cv168
3652 B8D6 0460  28 	b @cv167
     B8D8 B8E2     
3653               cv168
3654 B8DA 0200  20 	li r0,64
     B8DC 0040     
3655 B8DE C800  38 	mov r0,@cvb__AX
     B8E0 209E     
3656               cv167
3657               	; 	IF #ax > 240 THEN #ax = 240
3658 B8E2 C020  34 	mov @cvb__AX,r0
     B8E4 209E     
3659 B8E6 0201  20 	li r1,241
     B8E8 00F1     
3660 B8EA 8040  18 	c r0,r1
3661 B8EC 1402  14 	jhe cv170
3662 B8EE 0460  28 	b @cv169
     B8F0 B8FA     
3663               cv170
3664 B8F2 0200  20 	li r0,240
     B8F4 00F0     
3665 B8F6 C800  38 	mov r0,@cvb__AX
     B8F8 209E     
3666               cv169
3667               	; 	oby(cr) = #ax - 64
3668 B8FA C020  34 	mov @cvb__AX,r0
     B8FC 209E     
3669 B8FE 0A80  32 	sla r0,8
3670 B900 0220  22 	ai r0,49152	; -64
     B902 C000     
3671 B904 C040  18 	mov r0,r1
3672 B906 D020  34 	movb @cvb_CR,r0
     B908 20AE     
3673 B90A 0980  32 	srl r0,8
3674 B90C 0220  22 	ai r0,array_OBY
     B90E 212E     
3675 B910 D401  30 	movb r1,*r0
3676               	; 	END
3677 B912 C03A  30 	mov *r10+,r0
3678 B914 0450  20 	b *r0
3679               	;
3680               	; 	' ------------------------------------------------------------
3681               	; 	' pick up on touch (swap drops the old object on the spot)
3682               	; 	' ------------------------------------------------------------
3683               	; trypick: PROCEDURE
3684               	even
3685               cvb_TRYPICK
3686               	; 	FOR i = 0 TO 5
3687 B916 04C0  14 	clr r0
3688 B918 D800  38 	movb r0,@cvb_I
     B91A 2086     
3689               cv171
3690               	; 	IF i <> cr THEN IF orm(i) = rn THEN GOSUB pchk
3691 B91C D020  34 	movb @cvb_I,r0
     B91E 2086     
3692 B920 9020  34 	cb @cvb_CR,r0
     B922 20AE     
3693 B924 1602  14 	jne cv173
3694 B926 0460  28 	b @cv172
     B928 B946     
3695               cv173
3696 B92A D020  34 	movb @cvb_I,r0
     B92C 2086     
3697 B92E 0980  32 	srl r0,8
3698 B930 0220  22 	ai r0,array_ORM
     B932 2134     
3699 B934 D010  26 	movb *r0,r0
3700 B936 9020  34 	cb @cvb_RN,r0
     B938 20B5     
3701 B93A 1302  14 	jeq cv175
3702 B93C 0460  28 	b @cv174
     B93E B946     
3703               cv175
3704 B940 06A0  32 	bl @jsr
     B942 A974     
3705 B944 B962     	data cvb_PCHK
3706               cv174
3707               cv172
3708               	; 	NEXT i
3709 B946 D020  34 	movb @cvb_I,r0
     B948 2086     
3710 B94A 0220  22 	ai r0,256	; 1
     B94C 0100     
3711 B94E D800  38 	movb r0,@cvb_I
     B950 2086     
3712 B952 0201  20 	li r1,1536   ; 6*256
     B954 0600     
3713 B956 9040  18 	cb r0,r1
3714 B958 1402  14 	jhe cv176
3715 B95A 0460  28 	b @cv171
     B95C B91C     
3716               cv176
3717               	; 	END
3718 B95E C03A  30 	mov *r10+,r0
3719 B960 0450  20 	b *r0
3720               	;
3721               	; pchk: PROCEDURE
3722               	even
3723               cvb_PCHK
3724               	; 	IF i = 4 THEN GOSUB pbrchk : RETURN
3725 B962 D020  34 	movb @cvb_I,r0
     B964 2086     
3726 B966 0201  20 	li r1,1024   ; 4*256
     B968 0400     
3727 B96A 9001  18 	cb r1,r0
3728 B96C 1302  14 	jeq cv178
3729 B96E 0460  28 	b @cv177
     B970 B97C     
3730               cv178
3731 B972 06A0  32 	bl @jsr
     B974 A974     
3732 B976 BA02     	data cvb_PBRCHK
3733 B978 C03A  30 	mov *r10+,r0
3734 B97A 0450  20 	b *r0
3735               cv177
3736               	; 	#ax = obx(i) + 8 : #bx = px + 4
3737 B97C D020  34 	movb @cvb_I,r0
     B97E 2086     
3738 B980 0980  32 	srl r0,8
3739 B982 0220  22 	ai r0,array_OBX
     B984 2128     
3740 B986 D010  26 	movb *r0,r0
3741 B988 0980  32 	srl r0,8
3742 B98A 0220  22 	ai r0,8
     B98C 0008     
3743 B98E C800  38 	mov r0,@cvb__AX
     B990 209E     
3744 B992 D020  34 	movb @cvb_PX,r0
     B994 20B2     
3745 B996 0980  32 	srl r0,8
3746 B998 0220  22 	ai r0,4
     B99A 0004     
3747 B99C C800  38 	mov r0,@cvb__BX
     B99E 20A0     
3748               	; 	GOSUB adiff
3749 B9A0 06A0  32 	bl @jsr
     B9A2 A974     
3750 B9A4 BBD2     	data cvb_ADIFF
3751               	; 	IF #cx > 11 THEN RETURN
3752 B9A6 C020  34 	mov @cvb__CX,r0
     B9A8 20A2     
3753 B9AA 0201  20 	li r1,12
     B9AC 000C     
3754 B9AE 8040  18 	c r0,r1
3755 B9B0 1402  14 	jhe cv180
3756 B9B2 0460  28 	b @cv179
     B9B4 B9BA     
3757               cv180
3758 B9B6 C03A  30 	mov *r10+,r0
3759 B9B8 0450  20 	b *r0
3760               cv179
3761               	; 	#ax = oby(i) + 6 : #bx = py + 4
3762 B9BA D020  34 	movb @cvb_I,r0
     B9BC 2086     
3763 B9BE 0980  32 	srl r0,8
3764 B9C0 0220  22 	ai r0,array_OBY
     B9C2 212E     
3765 B9C4 D010  26 	movb *r0,r0
3766 B9C6 0980  32 	srl r0,8
3767 B9C8 0220  22 	ai r0,6
     B9CA 0006     
3768 B9CC C800  38 	mov r0,@cvb__AX
     B9CE 209E     
3769 B9D0 D020  34 	movb @cvb_PY,r0
     B9D2 20B3     
3770 B9D4 0980  32 	srl r0,8
3771 B9D6 0220  22 	ai r0,4
     B9D8 0004     
3772 B9DA C800  38 	mov r0,@cvb__BX
     B9DC 20A0     
3773               	; 	GOSUB adiff
3774 B9DE 06A0  32 	bl @jsr
     B9E0 A974     
3775 B9E2 BBD2     	data cvb_ADIFF
3776               	; 	IF #cx > 10 THEN RETURN
3777 B9E4 C020  34 	mov @cvb__CX,r0
     B9E6 20A2     
3778 B9E8 0201  20 	li r1,11
     B9EA 000B     
3779 B9EC 8040  18 	c r0,r1
3780 B9EE 1402  14 	jhe cv182
3781 B9F0 0460  28 	b @cv181
     B9F2 B9F8     
3782               cv182
3783 B9F4 C03A  30 	mov *r10+,r0
3784 B9F6 0450  20 	b *r0
3785               cv181
3786               	; 	GOSUB dopick
3787 B9F8 06A0  32 	bl @jsr
     B9FA A974     
3788 B9FC BB52     	data cvb_DOPICK
3789               	; 	END
3790 B9FE C03A  30 	mov *r10+,r0
3791 BA00 0450  20 	b *r0
3792               	;
3793               	; pbrchk: PROCEDURE
3794               	even
3795               cvb_PBRCHK
3796               	; 	' bridge: grabbed by its RAILS only - walking the channel (or
3797               	; 	' standing where you just dropped it) must NOT re-pick it up.
3798               	; 	' Also never while standing inside a wall - that would seal
3799               	; 	' you in.
3800               	; 	IF py + 7 < oby(i) THEN RETURN
3801 BA02 D020  34 	movb @cvb_I,r0
     BA04 2086     
3802 BA06 0980  32 	srl r0,8
3803 BA08 0220  22 	ai r0,array_OBY
     BA0A 212E     
3804 BA0C D010  26 	movb *r0,r0
3805 BA0E 0980  32 	srl r0,8
3806 BA10 C040  18 	mov r0,r1
3807 BA12 D020  34 	movb @cvb_PY,r0
     BA14 20B3     
3808 BA16 0980  32 	srl r0,8
3809 BA18 0220  22 	ai r0,7
     BA1A 0007     
3810 BA1C 8040  18 	c r0,r1
3811 BA1E 1A02  14 	jl cv184
3812 BA20 0460  28 	b @cv183
     BA22 BA28     
3813               cv184
3814 BA24 C03A  30 	mov *r10+,r0
3815 BA26 0450  20 	b *r0
3816               cv183
3817               	; 	#ax = oby(i) + 31
3818 BA28 D020  34 	movb @cvb_I,r0
     BA2A 2086     
3819 BA2C 0980  32 	srl r0,8
3820 BA2E 0220  22 	ai r0,array_OBY
     BA30 212E     
3821 BA32 D010  26 	movb *r0,r0
3822 BA34 0980  32 	srl r0,8
3823 BA36 0220  22 	ai r0,31
     BA38 001F     
3824 BA3A C800  38 	mov r0,@cvb__AX
     BA3C 209E     
3825               	; 	IF py > #ax THEN RETURN
3826 BA3E D020  34 	movb @cvb_PY,r0
     BA40 20B3     
3827 BA42 0980  32 	srl r0,8
3828 BA44 C040  18 	mov r0,r1
3829 BA46 C020  34 	mov @cvb__AX,r0
     BA48 209E     
3830 BA4A 8040  18 	c r0,r1
3831 BA4C 1A02  14 	jl cv186
3832 BA4E 0460  28 	b @cv185
     BA50 BA56     
3833               cv186
3834 BA52 C03A  30 	mov *r10+,r0
3835 BA54 0450  20 	b *r0
3836               cv185
3837               	; 	hit = 0
3838 BA56 04C0  14 	clr r0
3839 BA58 D800  38 	movb r0,@cvb_HIT
     BA5A 20A8     
3840               	; 	#ax = obx(i) + 4
3841 BA5C D020  34 	movb @cvb_I,r0
     BA5E 2086     
3842 BA60 0980  32 	srl r0,8
3843 BA62 0220  22 	ai r0,array_OBX
     BA64 2128     
3844 BA66 D010  26 	movb *r0,r0
3845 BA68 0980  32 	srl r0,8
3846 BA6A 0220  22 	ai r0,4
     BA6C 0004     
3847 BA6E C800  38 	mov r0,@cvb__AX
     BA70 209E     
3848               	; 	IF px <= #ax THEN IF px + 7 >= obx(i) THEN hit = 1
3849 BA72 D020  34 	movb @cvb_PX,r0
     BA74 20B2     
3850 BA76 0980  32 	srl r0,8
3851 BA78 C040  18 	mov r0,r1
3852 BA7A C020  34 	mov @cvb__AX,r0
     BA7C 209E     
3853 BA7E 8040  18 	c r0,r1
3854 BA80 1402  14 	jhe cv188
3855 BA82 0460  28 	b @cv187
     BA84 BAB0     
3856               cv188
3857 BA86 D020  34 	movb @cvb_I,r0
     BA88 2086     
3858 BA8A 0980  32 	srl r0,8
3859 BA8C 0220  22 	ai r0,array_OBX
     BA8E 2128     
3860 BA90 D010  26 	movb *r0,r0
3861 BA92 0980  32 	srl r0,8
3862 BA94 C040  18 	mov r0,r1
3863 BA96 D020  34 	movb @cvb_PX,r0
     BA98 20B2     
3864 BA9A 0980  32 	srl r0,8
3865 BA9C 0220  22 	ai r0,7
     BA9E 0007     
3866 BAA0 8040  18 	c r0,r1
3867 BAA2 1402  14 	jhe cv190
3868 BAA4 0460  28 	b @cv189
     BAA6 BAB0     
3869               cv190
3870 BAA8 0200  20 	li r0,256   ; 1*256
     BAAA 0100     
3871 BAAC D800  38 	movb r0,@cvb_HIT
     BAAE 20A8     
3872               cv189
3873               cv187
3874               	; 	#ax = obx(i) + 27
3875 BAB0 D020  34 	movb @cvb_I,r0
     BAB2 2086     
3876 BAB4 0980  32 	srl r0,8
3877 BAB6 0220  22 	ai r0,array_OBX
     BAB8 2128     
3878 BABA D010  26 	movb *r0,r0
3879 BABC 0980  32 	srl r0,8
3880 BABE 0220  22 	ai r0,27
     BAC0 001B     
3881 BAC2 C800  38 	mov r0,@cvb__AX
     BAC4 209E     
3882               	; 	IF px + 7 >= #ax THEN IF px <= obx(i) + 31 THEN hit = 1
3883 BAC6 D020  34 	movb @cvb_PX,r0
     BAC8 20B2     
3884 BACA 0980  32 	srl r0,8
3885 BACC 0220  22 	ai r0,7
     BACE 0007     
3886 BAD0 8800  34 	c r0,@cvb__AX
     BAD2 209E     
3887 BAD4 1402  14 	jhe cv192
3888 BAD6 0460  28 	b @cv191
     BAD8 BB04     
3889               cv192
3890 BADA D020  34 	movb @cvb_PX,r0
     BADC 20B2     
3891 BADE 0980  32 	srl r0,8
3892 BAE0 C040  18 	mov r0,r1
3893 BAE2 D020  34 	movb @cvb_I,r0
     BAE4 2086     
3894 BAE6 0980  32 	srl r0,8
3895 BAE8 0220  22 	ai r0,array_OBX
     BAEA 2128     
3896 BAEC D010  26 	movb *r0,r0
3897 BAEE 0980  32 	srl r0,8
3898 BAF0 0220  22 	ai r0,31
     BAF2 001F     
3899 BAF4 8040  18 	c r0,r1
3900 BAF6 1402  14 	jhe cv194
3901 BAF8 0460  28 	b @cv193
     BAFA BB04     
3902               cv194
3903 BAFC 0200  20 	li r0,256   ; 1*256
     BAFE 0100     
3904 BB00 D800  38 	movb r0,@cvb_HIT
     BB02 20A8     
3905               cv193
3906               cv191
3907               	; 	IF hit = 0 THEN RETURN
3908 BB04 D020  34 	movb @cvb_HIT,r0
     BB06 20A8     
3909 BB08 1302  14 	jeq cv196
3910 BB0A 0460  28 	b @cv195
     BB0C BB12     
3911               cv196
3912 BB0E C03A  30 	mov *r10+,r0
3913 BB10 0450  20 	b *r0
3914               cv195
3915               	; 	x0 = px : y0 = py : bw = 7 : bh = 7
3916 BB12 D820  54 	movb @cvb_PX,@cvb_X0
     BB14 20B2     
     BB16 20B9     
3917 BB18 D820  54 	movb @cvb_PY,@cvb_Y0
     BB1A 20B3     
     BB1C 20BB     
3918 BB1E 0200  20 	li r0,1792   ; 7*256
     BB20 0700     
3919 BB22 D800  38 	movb r0,@cvb_BW
     BB24 20AD     
3920 BB26 0200  20 	li r0,1792   ; 7*256
     BB28 0700     
3921 BB2A D800  38 	movb r0,@cvb_BH
     BB2C 20AC     
3922               	; 	GOSUB chkbox
3923 BB2E 06A0  32 	bl @jsr
     BB30 A974     
3924 BB32 C6CA     	data cvb_CHKBOX
3925               	; 	IF bf = 1 THEN RETURN
3926 BB34 D020  34 	movb @cvb_BF,r0
     BB36 20AB     
3927 BB38 0201  20 	li r1,256   ; 1*256
     BB3A 0100     
3928 BB3C 9001  18 	cb r1,r0
3929 BB3E 1302  14 	jeq cv198
3930 BB40 0460  28 	b @cv197
     BB42 BB48     
3931               cv198
3932 BB44 C03A  30 	mov *r10+,r0
3933 BB46 0450  20 	b *r0
3934               cv197
3935               	; 	GOSUB dopick
3936 BB48 06A0  32 	bl @jsr
     BB4A A974     
3937 BB4C BB52     	data cvb_DOPICK
3938               	; 	END
3939 BB4E C03A  30 	mov *r10+,r0
3940 BB50 0450  20 	b *r0
3941               	;
3942               	; dopick: PROCEDURE
3943               	even
3944               cvb_DOPICK
3945               	; 	cr = i : pkcd = 10 : sfx = 1 : sfc = 4
3946 BB52 D820  54 	movb @cvb_I,@cvb_CR
     BB54 2086     
     BB56 20AE     
3947 BB58 0200  20 	li r0,2560   ; 10*256
     BB5A 0A00     
3948 BB5C D800  38 	movb r0,@cvb_PKCD
     BB5E 209A     
3949 BB60 0200  20 	li r0,256   ; 1*256
     BB62 0100     
3950 BB64 D800  38 	movb r0,@cvb_SFX
     BB66 20B4     
3951 BB68 0200  20 	li r0,1024   ; 4*256
     BB6A 0400     
3952 BB6C D800  38 	movb r0,@cvb_SFC
     BB6E 20B1     
3953               	; 	' remember which side it was grabbed on
3954               	; 	#crx = obx(i) + 64 - px : #cry = oby(i) + 64 - py
3955 BB70 D020  34 	movb @cvb_PX,r0
     BB72 20B2     
3956 BB74 0980  32 	srl r0,8
3957 BB76 C040  18 	mov r0,r1
3958 BB78 D020  34 	movb @cvb_I,r0
     BB7A 2086     
3959 BB7C 0980  32 	srl r0,8
3960 BB7E 0220  22 	ai r0,array_OBX
     BB80 2128     
3961 BB82 D010  26 	movb *r0,r0
3962 BB84 0980  32 	srl r0,8
3963 BB86 0220  22 	ai r0,64
     BB88 0040     
3964 BB8A 6001  18 	s r1,r0
3965 BB8C C800  38 	mov r0,@cvb__CRX
     BB8E 2096     
3966 BB90 D020  34 	movb @cvb_PY,r0
     BB92 20B3     
3967 BB94 0980  32 	srl r0,8
3968 BB96 C040  18 	mov r0,r1
3969 BB98 D020  34 	movb @cvb_I,r0
     BB9A 2086     
3970 BB9C 0980  32 	srl r0,8
3971 BB9E 0220  22 	ai r0,array_OBY
     BBA0 212E     
3972 BBA2 D010  26 	movb *r0,r0
3973 BBA4 0980  32 	srl r0,8
3974 BBA6 0220  22 	ai r0,64
     BBA8 0040     
3975 BBAA 6001  18 	s r1,r0
3976 BBAC C800  38 	mov r0,@cvb__CRY
     BBAE 2098     
3977               	; 	' snatched back from the bat
3978               	; 	IF i = btc THEN btc = 255 : btcd = 150
3979 BBB0 D020  34 	movb @cvb_I,r0
     BBB2 2086     
3980 BBB4 9020  34 	cb @cvb_BTC,r0
     BBB6 2090     
3981 BBB8 1302  14 	jeq cv200
3982 BBBA 0460  28 	b @cv199
     BBBC BBCE     
3983               cv200
3984 BBBE 0200  20 	li r0,65280   ; 255*256
     BBC0 FF00     
3985 BBC2 D800  38 	movb r0,@cvb_BTC
     BBC4 2090     
3986 BBC6 0200  20 	li r0,38400   ; 150*256
     BBC8 9600     
3987 BBCA D800  38 	movb r0,@cvb_BTCD
     BBCC 20A4     
3988               cv199
3989               	; 	END
3990 BBCE C03A  30 	mov *r10+,r0
3991 BBD0 0450  20 	b *r0
3992               	;
3993               	; adiff: PROCEDURE
3994               	even
3995               cvb_ADIFF
3996               	; 	IF #ax > #bx THEN #cx = #ax - #bx ELSE #cx = #bx - #ax
3997 BBD2 C020  34 	mov @cvb__BX,r0
     BBD4 20A0     
3998 BBD6 8800  34 	c r0,@cvb__AX
     BBD8 209E     
3999 BBDA 1A02  14 	jl cv202
4000 BBDC 0460  28 	b @cv201
     BBDE BBF0     
4001               cv202
4002 BBE0 C020  34 	mov @cvb__AX,r0
     BBE2 209E     
4003 BBE4 6020  34 	s @cvb__BX,r0
     BBE6 20A0     
4004 BBE8 C800  38 	mov r0,@cvb__CX
     BBEA 20A2     
4005 BBEC 0460  28 	b @cv203
     BBEE BBFC     
4006               cv201
4007 BBF0 C020  34 	mov @cvb__BX,r0
     BBF2 20A0     
4008 BBF4 6020  34 	s @cvb__AX,r0
     BBF6 209E     
4009 BBF8 C800  38 	mov r0,@cvb__CX
     BBFA 20A2     
4010               cv203
4011               	; 	END
4012 BBFC C03A  30 	mov *r10+,r0
4013 BBFE 0450  20 	b *r0
4014               	;
4015               	; 	' ------------------------------------------------------------
4016               	; 	' bat: simulated every tick in whatever room it occupies.
4017               	; 	' Flies through walls; drifts between rooms via the exit links
4018               	; 	' (halls/dungeon have no inbound links, so it never enters a
4019               	; 	' castle). Steals/swaps objects on touch - even yours.
4020               	; 	' ------------------------------------------------------------
4021               	; batdo: PROCEDURE
4022               	even
4023               cvb_BATDO
4024               	; 	IF btcd > 0 THEN btcd = btcd - 1
4025 BC00 D020  34 	movb @cvb_BTCD,r0
     BC02 20A4     
4026 BC04 0201  20 	li r1,256   ; 1*256
     BC06 0100     
4027 BC08 9040  18 	cb r0,r1
4028 BC0A 1402  14 	jhe cv205
4029 BC0C 0460  28 	b @cv204
     BC0E BC1C     
4030               cv205
4031 BC10 D020  34 	movb @cvb_BTCD,r0
     BC12 20A4     
4032 BC14 0220  22 	ai r0,65280	; -1
     BC16 FF00     
4033 BC18 D800  38 	movb r0,@cvb_BTCD
     BC1A 20A4     
4034               cv204
4035               	; 	IF bfx = 1 THEN GOSUB batright ELSE GOSUB batleft
4036 BC1C D020  34 	movb @cvb_BFX,r0
     BC1E 2080     
4037 BC20 0201  20 	li r1,256   ; 1*256
     BC22 0100     
4038 BC24 9001  18 	cb r1,r0
4039 BC26 1302  14 	jeq cv207
4040 BC28 0460  28 	b @cv206
     BC2A BC36     
4041               cv207
4042 BC2C 06A0  32 	bl @jsr
     BC2E A974     
4043 BC30 BDB8     	data cvb_BATRIGHT
4044 BC32 0460  28 	b @cv208
     BC34 BC3C     
4045               cv206
4046 BC36 06A0  32 	bl @jsr
     BC38 A974     
4047 BC3A BD5C     	data cvb_BATLEFT
4048               cv208
4049               	; 	IF bfy = 1 THEN bty = bty + 1 ELSE bty = bty - 1
4050 BC3C D020  34 	movb @cvb_BFY,r0
     BC3E 2081     
4051 BC40 0201  20 	li r1,256   ; 1*256
     BC42 0100     
4052 BC44 9001  18 	cb r1,r0
4053 BC46 1302  14 	jeq cv210
4054 BC48 0460  28 	b @cv209
     BC4A BC5C     
4055               cv210
4056 BC4C D020  34 	movb @cvb_BTY,r0
     BC4E 2093     
4057 BC50 0220  22 	ai r0,256	; 1
     BC52 0100     
4058 BC54 D800  38 	movb r0,@cvb_BTY
     BC56 2093     
4059 BC58 0460  28 	b @cv211
     BC5A BC68     
4060               cv209
4061 BC5C D020  34 	movb @cvb_BTY,r0
     BC5E 2093     
4062 BC60 0220  22 	ai r0,65280	; -1
     BC62 FF00     
4063 BC64 D800  38 	movb r0,@cvb_BTY
     BC66 2093     
4064               cv211
4065               	; 	IF bty < 12 THEN GOSUB batnorth
4066 BC68 D020  34 	movb @cvb_BTY,r0
     BC6A 2093     
4067 BC6C 0201  20 	li r1,3072   ; 12*256
     BC6E 0C00     
4068 BC70 9040  18 	cb r0,r1
4069 BC72 1A02  14 	jl cv213
4070 BC74 0460  28 	b @cv212
     BC76 BC7E     
4071               cv213
4072 BC78 06A0  32 	bl @jsr
     BC7A A974     
4073 BC7C BE12     	data cvb_BATNORTH
4074               cv212
4075               	; 	IF bty > 150 THEN GOSUB batsouth
4076 BC7E D020  34 	movb @cvb_BTY,r0
     BC80 2093     
4077 BC82 0201  20 	li r1,38656   ; 151*256
     BC84 9700     
4078 BC86 9040  18 	cb r0,r1
4079 BC88 1402  14 	jhe cv215
4080 BC8A 0460  28 	b @cv214
     BC8C BC94     
4081               cv215
4082 BC8E 06A0  32 	bl @jsr
     BC90 A974     
4083 BC92 BE4E     	data cvb_BATSOUTH
4084               cv214
4085               	; 	IF (tk AND 31) = 0 THEN bfy = 1 - bfy
4086 BC94 D020  34 	movb @cvb_TK,r0
     BC96 20B6     
4087 BC98 0201  20 	li r1,7936   ; 31*256
     BC9A 1F00     
4088 BC9C 0541  14 	inv r1
4089 BC9E 5001  18 	szcb r1,r0
4090 BCA0 04C1  14 	clr r1
4091 BCA2 9001  18 	cb r1,r0
4092 BCA4 1302  14 	jeq cv217
4093 BCA6 0460  28 	b @cv216
     BCA8 BCBE     
4094               cv217
4095 BCAA D020  34 	movb @cvb_BFY,r0
     BCAC 2081     
4096 BCAE 0980  32 	srl r0,8
4097 BCB0 C040  18 	mov r0,r1
4098 BCB2 0200  20 	li r0,1
     BCB4 0001     
4099 BCB6 6001  18 	s r1,r0
4100 BCB8 0A80  32 	sla r0,8
4101 BCBA D800  38 	movb r0,@cvb_BFY
     BCBC 2081     
4102               cv216
4103               	; 	IF (tk AND 63) = 0 THEN IF RANDOM(2) = 1 THEN bfx = 1 - bfx
4104 BCBE D020  34 	movb @cvb_TK,r0
     BCC0 20B6     
4105 BCC2 0201  20 	li r1,16128   ; 63*256
     BCC4 3F00     
4106 BCC6 0541  14 	inv r1
4107 BCC8 5001  18 	szcb r1,r0
4108 BCCA 04C1  14 	clr r1
4109 BCCC 9001  18 	cb r1,r0
4110 BCCE 1302  14 	jeq cv219
4111 BCD0 0460  28 	b @cv218
     BCD2 BCFC     
4112               cv219
4113 BCD4 06A0  32 	bl @jsr
     BCD6 A974     
4114 BCD8 A2A6     	data random
4115 BCDA 0240  22 	andi r0,1
     BCDC 0001     
4116 BCDE 0280  22 	ci r0,1
     BCE0 0001     
4117 BCE2 1302  14 	jeq cv221
4118 BCE4 0460  28 	b @cv220
     BCE6 BCFC     
4119               cv221
4120 BCE8 D020  34 	movb @cvb_BFX,r0
     BCEA 2080     
4121 BCEC 0980  32 	srl r0,8
4122 BCEE C040  18 	mov r0,r1
4123 BCF0 0200  20 	li r0,1
     BCF2 0001     
4124 BCF4 6001  18 	s r1,r0
4125 BCF6 0A80  32 	sla r0,8
4126 BCF8 D800  38 	movb r0,@cvb_BFX
     BCFA 2080     
4127               cv220
4128               cv218
4129               	; 	' its loot dangles underneath
4130               	; 	IF btc < 6 THEN orm(btc) = btr : obx(btc) = btx + 8 : oby(btc) = bty + 10
4131 BCFC D020  34 	movb @cvb_BTC,r0
     BCFE 2090     
4132 BD00 0201  20 	li r1,1536   ; 6*256
     BD02 0600     
4133 BD04 9040  18 	cb r0,r1
4134 BD06 1A02  14 	jl cv223
4135 BD08 0460  28 	b @cv222
     BD0A BD48     
4136               cv223
4137 BD0C D060  34 	movb @cvb_BTR,r1
     BD0E 2091     
4138 BD10 D020  34 	movb @cvb_BTC,r0
     BD12 2090     
4139 BD14 0980  32 	srl r0,8
4140 BD16 0220  22 	ai r0,array_ORM
     BD18 2134     
4141 BD1A D401  30 	movb r1,*r0
4142 BD1C D020  34 	movb @cvb_BTX,r0
     BD1E 2092     
4143 BD20 0220  22 	ai r0,2048	; 8
     BD22 0800     
4144 BD24 C040  18 	mov r0,r1
4145 BD26 D020  34 	movb @cvb_BTC,r0
     BD28 2090     
4146 BD2A 0980  32 	srl r0,8
4147 BD2C 0220  22 	ai r0,array_OBX
     BD2E 2128     
4148 BD30 D401  30 	movb r1,*r0
4149 BD32 D020  34 	movb @cvb_BTY,r0
     BD34 2093     
4150 BD36 0220  22 	ai r0,2560	; 10
     BD38 0A00     
4151 BD3A C040  18 	mov r0,r1
4152 BD3C D020  34 	movb @cvb_BTC,r0
     BD3E 2090     
4153 BD40 0980  32 	srl r0,8
4154 BD42 0220  22 	ai r0,array_OBY
     BD44 212E     
4155 BD46 D401  30 	movb r1,*r0
4156               cv222
4157               	; 	IF btcd = 0 THEN GOSUB batgrab
4158 BD48 D020  34 	movb @cvb_BTCD,r0
     BD4A 20A4     
4159 BD4C 1302  14 	jeq cv225
4160 BD4E 0460  28 	b @cv224
     BD50 BD58     
4161               cv225
4162 BD52 06A0  32 	bl @jsr
     BD54 A974     
4163 BD56 BE88     	data cvb_BATGRAB
4164               cv224
4165               	; 	END
4166 BD58 C03A  30 	mov *r10+,r0
4167 BD5A 0450  20 	b *r0
4168               	;
4169               	; batleft: PROCEDURE
4170               	even
4171               cvb_BATLEFT
4172               	; 	IF btx >= 10 THEN btx = btx - 2 : RETURN
4173 BD5C D020  34 	movb @cvb_BTX,r0
     BD5E 2092     
4174 BD60 0201  20 	li r1,2560   ; 10*256
     BD62 0A00     
4175 BD64 9040  18 	cb r0,r1
4176 BD66 1402  14 	jhe cv227
4177 BD68 0460  28 	b @cv226
     BD6A BD7C     
4178               cv227
4179 BD6C D020  34 	movb @cvb_BTX,r0
     BD6E 2092     
4180 BD70 0220  22 	ai r0,65024	; -2
     BD72 FE00     
4181 BD74 D800  38 	movb r0,@cvb_BTX
     BD76 2092     
4182 BD78 C03A  30 	mov *r10+,r0
4183 BD7A 0450  20 	b *r0
4184               cv226
4185               	; 	t = lnw(btr)
4186 BD7C D020  34 	movb @cvb_BTR,r0
     BD7E 2091     
4187 BD80 0980  32 	srl r0,8
4188 BD82 0220  22 	ai r0,array_LNW
     BD84 20F4     
4189 BD86 D810  46 	movb *r0,@cvb_T
     BD88 2089     
4190               	; 	IF t = 255 THEN bfx = 1 : RETURN
4191 BD8A D020  34 	movb @cvb_T,r0
     BD8C 2089     
4192 BD8E 0201  20 	li r1,65280   ; 255*256
     BD90 FF00     
4193 BD92 9001  18 	cb r1,r0
4194 BD94 1302  14 	jeq cv229
4195 BD96 0460  28 	b @cv228
     BD98 BDA6     
4196               cv229
4197 BD9A 0200  20 	li r0,256   ; 1*256
     BD9C 0100     
4198 BD9E D800  38 	movb r0,@cvb_BFX
     BDA0 2080     
4199 BDA2 C03A  30 	mov *r10+,r0
4200 BDA4 0450  20 	b *r0
4201               cv228
4202               	; 	btr = t : btx = 224
4203 BDA6 D820  54 	movb @cvb_T,@cvb_BTR
     BDA8 2089     
     BDAA 2091     
4204 BDAC 0200  20 	li r0,57344   ; 224*256
     BDAE E000     
4205 BDB0 D800  38 	movb r0,@cvb_BTX
     BDB2 2092     
4206               	; 	END
4207 BDB4 C03A  30 	mov *r10+,r0
4208 BDB6 0450  20 	b *r0
4209               	;
4210               	; batright: PROCEDURE
4211               	even
4212               cvb_BATRIGHT
4213               	; 	IF btx <= 222 THEN btx = btx + 2 : RETURN
4214 BDB8 D020  34 	movb @cvb_BTX,r0
     BDBA 2092     
4215 BDBC 0201  20 	li r1,57088   ; 223*256
     BDBE DF00     
4216 BDC0 9040  18 	cb r0,r1
4217 BDC2 1A02  14 	jl cv231
4218 BDC4 0460  28 	b @cv230
     BDC6 BDD8     
4219               cv231
4220 BDC8 D020  34 	movb @cvb_BTX,r0
     BDCA 2092     
4221 BDCC 0220  22 	ai r0,512	; 2
     BDCE 0200     
4222 BDD0 D800  38 	movb r0,@cvb_BTX
     BDD2 2092     
4223 BDD4 C03A  30 	mov *r10+,r0
4224 BDD6 0450  20 	b *r0
4225               cv230
4226               	; 	t = lne(btr)
4227 BDD8 D020  34 	movb @cvb_BTR,r0
     BDDA 2091     
4228 BDDC 0980  32 	srl r0,8
4229 BDDE 0220  22 	ai r0,array_LNE
     BDE0 20CA     
4230 BDE2 D810  46 	movb *r0,@cvb_T
     BDE4 2089     
4231               	; 	IF t = 255 THEN bfx = 0 : RETURN
4232 BDE6 D020  34 	movb @cvb_T,r0
     BDE8 2089     
4233 BDEA 0201  20 	li r1,65280   ; 255*256
     BDEC FF00     
4234 BDEE 9001  18 	cb r1,r0
4235 BDF0 1302  14 	jeq cv233
4236 BDF2 0460  28 	b @cv232
     BDF4 BE00     
4237               cv233
4238 BDF6 04C0  14 	clr r0
4239 BDF8 D800  38 	movb r0,@cvb_BFX
     BDFA 2080     
4240 BDFC C03A  30 	mov *r10+,r0
4241 BDFE 0450  20 	b *r0
4242               cv232
4243               	; 	btr = t : btx = 12
4244 BE00 D820  54 	movb @cvb_T,@cvb_BTR
     BE02 2089     
     BE04 2091     
4245 BE06 0200  20 	li r0,3072   ; 12*256
     BE08 0C00     
4246 BE0A D800  38 	movb r0,@cvb_BTX
     BE0C 2092     
4247               	; 	END
4248 BE0E C03A  30 	mov *r10+,r0
4249 BE10 0450  20 	b *r0
4250               	;
4251               	; batnorth: PROCEDURE
4252               	even
4253               cvb_BATNORTH
4254               	; 	t = lnn(btr)
4255 BE12 D020  34 	movb @cvb_BTR,r0
     BE14 2091     
4256 BE16 0980  32 	srl r0,8
4257 BE18 0220  22 	ai r0,array_LNN
     BE1A 20D8     
4258 BE1C D810  46 	movb *r0,@cvb_T
     BE1E 2089     
4259               	; 	IF t = 255 THEN bfy = 1 : RETURN
4260 BE20 D020  34 	movb @cvb_T,r0
     BE22 2089     
4261 BE24 0201  20 	li r1,65280   ; 255*256
     BE26 FF00     
4262 BE28 9001  18 	cb r1,r0
4263 BE2A 1302  14 	jeq cv235
4264 BE2C 0460  28 	b @cv234
     BE2E BE3C     
4265               cv235
4266 BE30 0200  20 	li r0,256   ; 1*256
     BE32 0100     
4267 BE34 D800  38 	movb r0,@cvb_BFY
     BE36 2081     
4268 BE38 C03A  30 	mov *r10+,r0
4269 BE3A 0450  20 	b *r0
4270               cv234
4271               	; 	btr = t : bty = 144
4272 BE3C D820  54 	movb @cvb_T,@cvb_BTR
     BE3E 2089     
     BE40 2091     
4273 BE42 0200  20 	li r0,36864   ; 144*256
     BE44 9000     
4274 BE46 D800  38 	movb r0,@cvb_BTY
     BE48 2093     
4275               	; 	END
4276 BE4A C03A  30 	mov *r10+,r0
4277 BE4C 0450  20 	b *r0
4278               	;
4279               	; batsouth: PROCEDURE
4280               	even
4281               cvb_BATSOUTH
4282               	; 	t = lns(btr)
4283 BE4E D020  34 	movb @cvb_BTR,r0
     BE50 2091     
4284 BE52 0980  32 	srl r0,8
4285 BE54 0220  22 	ai r0,array_LNS
     BE56 20E6     
4286 BE58 D810  46 	movb *r0,@cvb_T
     BE5A 2089     
4287               	; 	IF t = 255 THEN bfy = 0 : RETURN
4288 BE5C D020  34 	movb @cvb_T,r0
     BE5E 2089     
4289 BE60 0201  20 	li r1,65280   ; 255*256
     BE62 FF00     
4290 BE64 9001  18 	cb r1,r0
4291 BE66 1302  14 	jeq cv237
4292 BE68 0460  28 	b @cv236
     BE6A BE76     
4293               cv237
4294 BE6C 04C0  14 	clr r0
4295 BE6E D800  38 	movb r0,@cvb_BFY
     BE70 2081     
4296 BE72 C03A  30 	mov *r10+,r0
4297 BE74 0450  20 	b *r0
4298               cv236
4299               	; 	btr = t : bty = 14
4300 BE76 D820  54 	movb @cvb_T,@cvb_BTR
     BE78 2089     
     BE7A 2091     
4301 BE7C 0200  20 	li r0,3584   ; 14*256
     BE7E 0E00     
4302 BE80 D800  38 	movb r0,@cvb_BTY
     BE82 2093     
4303               	; 	END
4304 BE84 C03A  30 	mov *r10+,r0
4305 BE86 0450  20 	b *r0
4306               	;
4307               	; batgrab: PROCEDURE
4308               	even
4309               cvb_BATGRAB
4310               	; 	FOR i = 0 TO 5
4311 BE88 04C0  14 	clr r0
4312 BE8A D800  38 	movb r0,@cvb_I
     BE8C 2086     
4313               cv238
4314               	; 	IF i <> btc THEN IF orm(i) = btr THEN GOSUB bgchk
4315 BE8E D020  34 	movb @cvb_I,r0
     BE90 2086     
4316 BE92 9020  34 	cb @cvb_BTC,r0
     BE94 2090     
4317 BE96 1602  14 	jne cv240
4318 BE98 0460  28 	b @cv239
     BE9A BEB8     
4319               cv240
4320 BE9C D020  34 	movb @cvb_I,r0
     BE9E 2086     
4321 BEA0 0980  32 	srl r0,8
4322 BEA2 0220  22 	ai r0,array_ORM
     BEA4 2134     
4323 BEA6 D010  26 	movb *r0,r0
4324 BEA8 9020  34 	cb @cvb_BTR,r0
     BEAA 2091     
4325 BEAC 1302  14 	jeq cv242
4326 BEAE 0460  28 	b @cv241
     BEB0 BEB8     
4327               cv242
4328 BEB2 06A0  32 	bl @jsr
     BEB4 A974     
4329 BEB6 BED4     	data cvb_BGCHK
4330               cv241
4331               cv239
4332               	; 	NEXT i
4333 BEB8 D020  34 	movb @cvb_I,r0
     BEBA 2086     
4334 BEBC 0220  22 	ai r0,256	; 1
     BEBE 0100     
4335 BEC0 D800  38 	movb r0,@cvb_I
     BEC2 2086     
4336 BEC4 0201  20 	li r1,1536   ; 6*256
     BEC6 0600     
4337 BEC8 9040  18 	cb r0,r1
4338 BECA 1402  14 	jhe cv243
4339 BECC 0460  28 	b @cv238
     BECE BE8E     
4340               cv243
4341               	; 	END
4342 BED0 C03A  30 	mov *r10+,r0
4343 BED2 0450  20 	b *r0
4344               	;
4345               	; bgchk: PROCEDURE
4346               	even
4347               cvb_BGCHK
4348               	; 	#ax = obx(i) + 8 : #bx = btx + 16
4349 BED4 D020  34 	movb @cvb_I,r0
     BED6 2086     
4350 BED8 0980  32 	srl r0,8
4351 BEDA 0220  22 	ai r0,array_OBX
     BEDC 2128     
4352 BEDE D010  26 	movb *r0,r0
4353 BEE0 0980  32 	srl r0,8
4354 BEE2 0220  22 	ai r0,8
     BEE4 0008     
4355 BEE6 C800  38 	mov r0,@cvb__AX
     BEE8 209E     
4356 BEEA D020  34 	movb @cvb_BTX,r0
     BEEC 2092     
4357 BEEE 0980  32 	srl r0,8
4358 BEF0 0220  22 	ai r0,16
     BEF2 0010     
4359 BEF4 C800  38 	mov r0,@cvb__BX
     BEF6 20A0     
4360               	; 	GOSUB adiff
4361 BEF8 06A0  32 	bl @jsr
     BEFA A974     
4362 BEFC BBD2     	data cvb_ADIFF
4363               	; 	IF #cx > 12 THEN RETURN
4364 BEFE C020  34 	mov @cvb__CX,r0
     BF00 20A2     
4365 BF02 0201  20 	li r1,13
     BF04 000D     
4366 BF06 8040  18 	c r0,r1
4367 BF08 1402  14 	jhe cv245
4368 BF0A 0460  28 	b @cv244
     BF0C BF12     
4369               cv245
4370 BF0E C03A  30 	mov *r10+,r0
4371 BF10 0450  20 	b *r0
4372               cv244
4373               	; 	#ax = oby(i) + 6 : #bx = bty + 8
4374 BF12 D020  34 	movb @cvb_I,r0
     BF14 2086     
4375 BF16 0980  32 	srl r0,8
4376 BF18 0220  22 	ai r0,array_OBY
     BF1A 212E     
4377 BF1C D010  26 	movb *r0,r0
4378 BF1E 0980  32 	srl r0,8
4379 BF20 0220  22 	ai r0,6
     BF22 0006     
4380 BF24 C800  38 	mov r0,@cvb__AX
     BF26 209E     
4381 BF28 D020  34 	movb @cvb_BTY,r0
     BF2A 2093     
4382 BF2C 0980  32 	srl r0,8
4383 BF2E 0220  22 	ai r0,8
     BF30 0008     
4384 BF32 C800  38 	mov r0,@cvb__BX
     BF34 20A0     
4385               	; 	GOSUB adiff
4386 BF36 06A0  32 	bl @jsr
     BF38 A974     
4387 BF3A BBD2     	data cvb_ADIFF
4388               	; 	IF #cx > 10 THEN RETURN
4389 BF3C C020  34 	mov @cvb__CX,r0
     BF3E 20A2     
4390 BF40 0201  20 	li r1,11
     BF42 000B     
4391 BF44 8040  18 	c r0,r1
4392 BF46 1402  14 	jhe cv247
4393 BF48 0460  28 	b @cv246
     BF4A BF50     
4394               cv247
4395 BF4C C03A  30 	mov *r10+,r0
4396 BF4E 0450  20 	b *r0
4397               cv246
4398               	; 	' anti-softlock guards:
4399               	; 	' never take the bridge out of the chamber room, and never
4400               	; 	' swap-drop a carried object inside the sealed chamber
4401               	; 	IF i = 4 THEN IF btr = 6 THEN RETURN
4402 BF50 D020  34 	movb @cvb_I,r0
     BF52 2086     
4403 BF54 0201  20 	li r1,1024   ; 4*256
     BF56 0400     
4404 BF58 9001  18 	cb r1,r0
4405 BF5A 1302  14 	jeq cv249
4406 BF5C 0460  28 	b @cv248
     BF5E BF74     
4407               cv249
4408 BF60 D020  34 	movb @cvb_BTR,r0
     BF62 2091     
4409 BF64 0201  20 	li r1,1536   ; 6*256
     BF66 0600     
4410 BF68 9001  18 	cb r1,r0
4411 BF6A 1302  14 	jeq cv251
4412 BF6C 0460  28 	b @cv250
     BF6E BF74     
4413               cv251
4414 BF70 C03A  30 	mov *r10+,r0
4415 BF72 0450  20 	b *r0
4416               cv250
4417               cv248
4418               	; 	IF btc < 6 THEN IF btr = 6 THEN IF obx(i) > 160 THEN IF obx(i) < 216 THEN IF oby(i) < 64 THEN RETURN
4419 BF74 D020  34 	movb @cvb_BTC,r0
     BF76 2090     
4420 BF78 0201  20 	li r1,1536   ; 6*256
     BF7A 0600     
4421 BF7C 9040  18 	cb r0,r1
4422 BF7E 1A02  14 	jl cv253
4423 BF80 0460  28 	b @cv252
     BF82 BFE0     
4424               cv253
4425 BF84 D020  34 	movb @cvb_BTR,r0
     BF86 2091     
4426 BF88 0201  20 	li r1,1536   ; 6*256
     BF8A 0600     
4427 BF8C 9001  18 	cb r1,r0
4428 BF8E 1302  14 	jeq cv255
4429 BF90 0460  28 	b @cv254
     BF92 BFE0     
4430               cv255
4431 BF94 D020  34 	movb @cvb_I,r0
     BF96 2086     
4432 BF98 0980  32 	srl r0,8
4433 BF9A 0220  22 	ai r0,array_OBX
     BF9C 2128     
4434 BF9E D010  26 	movb *r0,r0
4435 BFA0 0201  20 	li r1,41216   ; 161*256
     BFA2 A100     
4436 BFA4 9040  18 	cb r0,r1
4437 BFA6 1402  14 	jhe cv257
4438 BFA8 0460  28 	b @cv256
     BFAA BFE0     
4439               cv257
4440 BFAC D020  34 	movb @cvb_I,r0
     BFAE 2086     
4441 BFB0 0980  32 	srl r0,8
4442 BFB2 0220  22 	ai r0,array_OBX
     BFB4 2128     
4443 BFB6 D010  26 	movb *r0,r0
4444 BFB8 0201  20 	li r1,55296   ; 216*256
     BFBA D800     
4445 BFBC 9040  18 	cb r0,r1
4446 BFBE 1A02  14 	jl cv259
4447 BFC0 0460  28 	b @cv258
     BFC2 BFE0     
4448               cv259
4449 BFC4 D020  34 	movb @cvb_I,r0
     BFC6 2086     
4450 BFC8 0980  32 	srl r0,8
4451 BFCA 0220  22 	ai r0,array_OBY
     BFCC 212E     
4452 BFCE D010  26 	movb *r0,r0
4453 BFD0 0201  20 	li r1,16384   ; 64*256
     BFD2 4000     
4454 BFD4 9040  18 	cb r0,r1
4455 BFD6 1A02  14 	jl cv261
4456 BFD8 0460  28 	b @cv260
     BFDA BFE0     
4457               cv261
4458 BFDC C03A  30 	mov *r10+,r0
4459 BFDE 0450  20 	b *r0
4460               cv260
4461               cv258
4462               cv256
4463               cv254
4464               cv252
4465               	; 	' steal it out of the player's hands if need be
4466               	; 	IF i = cr THEN cr = 255 : pkcd = 10
4467 BFE0 D020  34 	movb @cvb_I,r0
     BFE2 2086     
4468 BFE4 9020  34 	cb @cvb_CR,r0
     BFE6 20AE     
4469 BFE8 1302  14 	jeq cv263
4470 BFEA 0460  28 	b @cv262
     BFEC BFFE     
4471               cv263
4472 BFEE 0200  20 	li r0,65280   ; 255*256
     BFF0 FF00     
4473 BFF2 D800  38 	movb r0,@cvb_CR
     BFF4 20AE     
4474 BFF6 0200  20 	li r0,2560   ; 10*256
     BFF8 0A00     
4475 BFFA D800  38 	movb r0,@cvb_PKCD
     BFFC 209A     
4476               cv262
4477               	; 	t = btc : btc = i
4478 BFFE D820  54 	movb @cvb_BTC,@cvb_T
     C000 2090     
     C002 2089     
4479 C004 D820  54 	movb @cvb_I,@cvb_BTC
     C006 2086     
     C008 2090     
4480               	; 	IF t < 6 THEN orm(t) = btr : obx(t) = obx(i) : oby(t) = oby(i)
4481 C00A D020  34 	movb @cvb_T,r0
     C00C 2089     
4482 C00E 0201  20 	li r1,1536   ; 6*256
     C010 0600     
4483 C012 9040  18 	cb r0,r1
4484 C014 1A02  14 	jl cv265
4485 C016 0460  28 	b @cv264
     C018 C05A     
4486               cv265
4487 C01A D060  34 	movb @cvb_BTR,r1
     C01C 2091     
4488 C01E D020  34 	movb @cvb_T,r0
     C020 2089     
4489 C022 0980  32 	srl r0,8
4490 C024 0220  22 	ai r0,array_ORM
     C026 2134     
4491 C028 D401  30 	movb r1,*r0
4492 C02A D020  34 	movb @cvb_I,r0
     C02C 2086     
4493 C02E 0980  32 	srl r0,8
4494 C030 0220  22 	ai r0,array_OBX
     C032 2128     
4495 C034 D050  26 	movb *r0,r1
4496 C036 D020  34 	movb @cvb_T,r0
     C038 2089     
4497 C03A 0980  32 	srl r0,8
4498 C03C 0220  22 	ai r0,array_OBX
     C03E 2128     
4499 C040 D401  30 	movb r1,*r0
4500 C042 D020  34 	movb @cvb_I,r0
     C044 2086     
4501 C046 0980  32 	srl r0,8
4502 C048 0220  22 	ai r0,array_OBY
     C04A 212E     
4503 C04C D050  26 	movb *r0,r1
4504 C04E D020  34 	movb @cvb_T,r0
     C050 2089     
4505 C052 0980  32 	srl r0,8
4506 C054 0220  22 	ai r0,array_OBY
     C056 212E     
4507 C058 D401  30 	movb r1,*r0
4508               cv264
4509               	; 	btcd = 150 : sfx = 6 : sfc = 10
4510 C05A 0200  20 	li r0,38400   ; 150*256
     C05C 9600     
4511 C05E D800  38 	movb r0,@cvb_BTCD
     C060 20A4     
4512 C062 0200  20 	li r0,1536   ; 6*256
     C064 0600     
4513 C066 D800  38 	movb r0,@cvb_SFX
     C068 20B4     
4514 C06A 0200  20 	li r0,2560   ; 10*256
     C06C 0A00     
4515 C06E D800  38 	movb r0,@cvb_SFC
     C070 20B1     
4516               	; 	END
4517 C072 C03A  30 	mov *r10+,r0
4518 C074 0450  20 	b *r0
4519               	;
4520               	; 	' ------------------------------------------------------------
4521               	; 	' dragon: greedy chase (prefer the longer axis, slide on the
4522               	; 	' other), sword check, then bite check. The red dragon (dsp=1)
4523               	; 	' is faster. Shown 32x32; the wall box is its central 8x16.
4524               	; 	' ------------------------------------------------------------
4525               	; dragondo: PROCEDURE
4526               	even
4527               cvb_DRAGONDO
4528               	; 	IF dst(d) = 1 THEN RETURN
4529 C076 D020  34 	movb @cvb_D,r0
     C078 2083     
4530 C07A 0980  32 	srl r0,8
4531 C07C 0220  22 	ai r0,array_DST
     C07E 211E     
4532 C080 D010  26 	movb *r0,r0
4533 C082 0201  20 	li r1,256   ; 1*256
     C084 0100     
4534 C086 9001  18 	cb r1,r0
4535 C088 1302  14 	jeq cv267
4536 C08A 0460  28 	b @cv266
     C08C C092     
4537               cv267
4538 C08E C03A  30 	mov *r10+,r0
4539 C090 0450  20 	b *r0
4540               cv266
4541               	; 	tpx = px : IF tpx > 12 THEN tpx = tpx - 12
4542 C092 D820  54 	movb @cvb_PX,@cvb_TPX
     C094 20B2     
     C096 208A     
4543 C098 D020  34 	movb @cvb_TPX,r0
     C09A 208A     
4544 C09C 0201  20 	li r1,3328   ; 13*256
     C09E 0D00     
4545 C0A0 9040  18 	cb r0,r1
4546 C0A2 1402  14 	jhe cv269
4547 C0A4 0460  28 	b @cv268
     C0A6 C0B4     
4548               cv269
4549 C0A8 D020  34 	movb @cvb_TPX,r0
     C0AA 208A     
4550 C0AC 0220  22 	ai r0,62464	; -12
     C0AE F400     
4551 C0B0 D800  38 	movb r0,@cvb_TPX
     C0B2 208A     
4552               cv268
4553               	; 	tpy = py : IF tpy > 12 THEN tpy = tpy - 12
4554 C0B4 D820  54 	movb @cvb_PY,@cvb_TPY
     C0B6 20B3     
     C0B8 208B     
4555 C0BA D020  34 	movb @cvb_TPY,r0
     C0BC 208B     
4556 C0BE 0201  20 	li r1,3328   ; 13*256
     C0C0 0D00     
4557 C0C2 9040  18 	cb r0,r1
4558 C0C4 1402  14 	jhe cv271
4559 C0C6 0460  28 	b @cv270
     C0C8 C0D6     
4560               cv271
4561 C0CA D020  34 	movb @cvb_TPY,r0
     C0CC 208B     
4562 C0CE 0220  22 	ai r0,62464	; -12
     C0D0 F400     
4563 C0D2 D800  38 	movb r0,@cvb_TPY
     C0D4 208B     
4564               cv270
4565               	; 	ds = 2 + (tk AND 1)
4566 C0D6 D020  34 	movb @cvb_TK,r0
     C0D8 20B6     
4567 C0DA 0201  20 	li r1,256   ; 1*256
     C0DC 0100     
4568 C0DE 0541  14 	inv r1
4569 C0E0 5001  18 	szcb r1,r0
4570 C0E2 0220  22 	ai r0,512	; 2
     C0E4 0200     
4571 C0E6 D800  38 	movb r0,@cvb_DS
     C0E8 20AF     
4572               	; 	IF dsp(d) = 1 THEN ds = 3
4573 C0EA D020  34 	movb @cvb_D,r0
     C0EC 2083     
4574 C0EE 0980  32 	srl r0,8
4575 C0F0 0220  22 	ai r0,array_DSP
     C0F2 211A     
4576 C0F4 D010  26 	movb *r0,r0
4577 C0F6 0201  20 	li r1,256   ; 1*256
     C0F8 0100     
4578 C0FA 9001  18 	cb r1,r0
4579 C0FC 1302  14 	jeq cv273
4580 C0FE 0460  28 	b @cv272
     C100 C10A     
4581               cv273
4582 C102 0200  20 	li r0,768   ; 3*256
     C104 0300     
4583 C106 D800  38 	movb r0,@cvb_DS
     C108 20AF     
4584               cv272
4585               	; 	#ax = ddx(d) : #bx = tpx
4586 C10A D020  34 	movb @cvb_D,r0
     C10C 2083     
4587 C10E 0980  32 	srl r0,8
4588 C110 0220  22 	ai r0,array_DDX
     C112 2106     
4589 C114 D010  26 	movb *r0,r0
4590 C116 0980  32 	srl r0,8
4591 C118 C800  38 	mov r0,@cvb__AX
     C11A 209E     
4592 C11C D020  34 	movb @cvb_TPX,r0
     C11E 208A     
4593 C120 0980  32 	srl r0,8
4594 C122 C800  38 	mov r0,@cvb__BX
     C124 20A0     
4595               	; 	GOSUB adiff
4596 C126 06A0  32 	bl @jsr
     C128 A974     
4597 C12A BBD2     	data cvb_ADIFF
4598               	; 	#dx = #cx
4599 C12C C820  54 	mov @cvb__CX,@cvb__DX
     C12E 20A2     
     C130 20A6     
4600               	; 	#ax = ddy(d) : #bx = tpy
4601 C132 D020  34 	movb @cvb_D,r0
     C134 2083     
4602 C136 0980  32 	srl r0,8
4603 C138 0220  22 	ai r0,array_DDY
     C13A 210A     
4604 C13C D010  26 	movb *r0,r0
4605 C13E 0980  32 	srl r0,8
4606 C140 C800  38 	mov r0,@cvb__AX
     C142 209E     
4607 C144 D020  34 	movb @cvb_TPY,r0
     C146 208B     
4608 C148 0980  32 	srl r0,8
4609 C14A C800  38 	mov r0,@cvb__BX
     C14C 20A0     
4610               	; 	GOSUB adiff
4611 C14E 06A0  32 	bl @jsr
     C150 A974     
4612 C152 BBD2     	data cvb_ADIFF
4613               	; 	m = 0
4614 C154 04C0  14 	clr r0
4615 C156 D800  38 	movb r0,@cvb_M
     C158 2087     
4616               	; 	IF #dx >= #cx THEN GOSUB dmovx ELSE GOSUB dmovy
4617 C15A C020  34 	mov @cvb__DX,r0
     C15C 20A6     
4618 C15E 8800  34 	c r0,@cvb__CX
     C160 20A2     
4619 C162 1402  14 	jhe cv275
4620 C164 0460  28 	b @cv274
     C166 C172     
4621               cv275
4622 C168 06A0  32 	bl @jsr
     C16A A974     
4623 C16C C24E     	data cvb_DMOVX
4624 C16E 0460  28 	b @cv276
     C170 C178     
4625               cv274
4626 C172 06A0  32 	bl @jsr
     C174 A974     
4627 C176 C32E     	data cvb_DMOVY
4628               cv276
4629               	; 	IF m = 0 THEN IF #dx >= #cx THEN GOSUB dmovy ELSE GOSUB dmovx
4630 C178 D020  34 	movb @cvb_M,r0
     C17A 2087     
4631 C17C 1302  14 	jeq cv278
4632 C17E 0460  28 	b @cv277
     C180 C1A0     
4633               cv278
4634 C182 C020  34 	mov @cvb__DX,r0
     C184 20A6     
4635 C186 8800  34 	c r0,@cvb__CX
     C188 20A2     
4636 C18A 1402  14 	jhe cv280
4637 C18C 0460  28 	b @cv279
     C18E C19A     
4638               cv280
4639 C190 06A0  32 	bl @jsr
     C192 A974     
4640 C194 C32E     	data cvb_DMOVY
4641 C196 0460  28 	b @cv281
     C198 C1A0     
4642               cv279
4643 C19A 06A0  32 	bl @jsr
     C19C A974     
4644 C19E C24E     	data cvb_DMOVX
4645               cv281
4646               cv277
4647               	; 	GOSUB swordchk
4648 C1A0 06A0  32 	bl @jsr
     C1A2 A974     
4649 C1A4 C40E     	data cvb_SWORDCHK
4650               	; 	IF dst(d) = 1 THEN RETURN
4651 C1A6 D020  34 	movb @cvb_D,r0
     C1A8 2083     
4652 C1AA 0980  32 	srl r0,8
4653 C1AC 0220  22 	ai r0,array_DST
     C1AE 211E     
4654 C1B0 D010  26 	movb *r0,r0
4655 C1B2 0201  20 	li r1,256   ; 1*256
     C1B4 0100     
4656 C1B6 9001  18 	cb r1,r0
4657 C1B8 1302  14 	jeq cv283
4658 C1BA 0460  28 	b @cv282
     C1BC C1C2     
4659               cv283
4660 C1BE C03A  30 	mov *r10+,r0
4661 C1C0 0450  20 	b *r0
4662               cv282
4663               	; 	' bite: dragon centre (32x32 shown) vs player centre
4664               	; 	#ax = ddx(d) + 16 : #bx = px + 4
4665 C1C2 D020  34 	movb @cvb_D,r0
     C1C4 2083     
4666 C1C6 0980  32 	srl r0,8
4667 C1C8 0220  22 	ai r0,array_DDX
     C1CA 2106     
4668 C1CC D010  26 	movb *r0,r0
4669 C1CE 0980  32 	srl r0,8
4670 C1D0 0220  22 	ai r0,16
     C1D2 0010     
4671 C1D4 C800  38 	mov r0,@cvb__AX
     C1D6 209E     
4672 C1D8 D020  34 	movb @cvb_PX,r0
     C1DA 20B2     
4673 C1DC 0980  32 	srl r0,8
4674 C1DE 0220  22 	ai r0,4
     C1E0 0004     
4675 C1E2 C800  38 	mov r0,@cvb__BX
     C1E4 20A0     
4676               	; 	GOSUB adiff
4677 C1E6 06A0  32 	bl @jsr
     C1E8 A974     
4678 C1EA BBD2     	data cvb_ADIFF
4679               	; 	IF #cx > 14 THEN RETURN
4680 C1EC C020  34 	mov @cvb__CX,r0
     C1EE 20A2     
4681 C1F0 0201  20 	li r1,15
     C1F2 000F     
4682 C1F4 8040  18 	c r0,r1
4683 C1F6 1402  14 	jhe cv285
4684 C1F8 0460  28 	b @cv284
     C1FA C200     
4685               cv285
4686 C1FC C03A  30 	mov *r10+,r0
4687 C1FE 0450  20 	b *r0
4688               cv284
4689               	; 	#ax = ddy(d) + 16 : #bx = py + 4
4690 C200 D020  34 	movb @cvb_D,r0
     C202 2083     
4691 C204 0980  32 	srl r0,8
4692 C206 0220  22 	ai r0,array_DDY
     C208 210A     
4693 C20A D010  26 	movb *r0,r0
4694 C20C 0980  32 	srl r0,8
4695 C20E 0220  22 	ai r0,16
     C210 0010     
4696 C212 C800  38 	mov r0,@cvb__AX
     C214 209E     
4697 C216 D020  34 	movb @cvb_PY,r0
     C218 20B3     
4698 C21A 0980  32 	srl r0,8
4699 C21C 0220  22 	ai r0,4
     C21E 0004     
4700 C220 C800  38 	mov r0,@cvb__BX
     C222 20A0     
4701               	; 	GOSUB adiff
4702 C224 06A0  32 	bl @jsr
     C226 A974     
4703 C228 BBD2     	data cvb_ADIFF
4704               	; 	IF #cx > 16 THEN RETURN
4705 C22A C020  34 	mov @cvb__CX,r0
     C22C 20A2     
4706 C22E 0201  20 	li r1,17
     C230 0011     
4707 C232 8040  18 	c r0,r1
4708 C234 1402  14 	jhe cv287
4709 C236 0460  28 	b @cv286
     C238 C23E     
4710               cv287
4711 C23A C03A  30 	mov *r10+,r0
4712 C23C 0450  20 	b *r0
4713               cv286
4714               	; 	eflag = d + 1
4715 C23E D020  34 	movb @cvb_D,r0
     C240 2083     
4716 C242 0220  22 	ai r0,256	; 1
     C244 0100     
4717 C246 D800  38 	movb r0,@cvb_EFLAG
     C248 2095     
4718               	; 	END
4719 C24A C03A  30 	mov *r10+,r0
4720 C24C 0450  20 	b *r0
4721               	;
4722               	; dmovx: PROCEDURE
4723               	even
4724               cvb_DMOVX
4725               	; 	IF ddx(d) = tpx THEN RETURN
4726 C24E D020  34 	movb @cvb_D,r0
     C250 2083     
4727 C252 0980  32 	srl r0,8
4728 C254 0220  22 	ai r0,array_DDX
     C256 2106     
4729 C258 D010  26 	movb *r0,r0
4730 C25A 9020  34 	cb @cvb_TPX,r0
     C25C 208A     
4731 C25E 1302  14 	jeq cv289
4732 C260 0460  28 	b @cv288
     C262 C268     
4733               cv289
4734 C264 C03A  30 	mov *r10+,r0
4735 C266 0450  20 	b *r0
4736               cv288
4737               	; 	IF tpx > ddx(d) THEN t = ddx(d) + ds ELSE t = ddx(d) - ds
4738 C268 D020  34 	movb @cvb_D,r0
     C26A 2083     
4739 C26C 0980  32 	srl r0,8
4740 C26E 0220  22 	ai r0,array_DDX
     C270 2106     
4741 C272 D010  26 	movb *r0,r0
4742 C274 9800  34 	cb r0,@cvb_TPX
     C276 208A     
4743 C278 1A02  14 	jl cv291
4744 C27A 0460  28 	b @cv290
     C27C C296     
4745               cv291
4746 C27E D020  34 	movb @cvb_D,r0
     C280 2083     
4747 C282 0980  32 	srl r0,8
4748 C284 0220  22 	ai r0,array_DDX
     C286 2106     
4749 C288 D010  26 	movb *r0,r0
4750 C28A B020  34 	ab @cvb_DS,r0
     C28C 20AF     
4751 C28E D800  38 	movb r0,@cvb_T
     C290 2089     
4752 C292 0460  28 	b @cv292
     C294 C2AA     
4753               cv290
4754 C296 D020  34 	movb @cvb_D,r0
     C298 2083     
4755 C29A 0980  32 	srl r0,8
4756 C29C 0220  22 	ai r0,array_DDX
     C29E 2106     
4757 C2A0 D010  26 	movb *r0,r0
4758 C2A2 7020  34 	sb @cvb_DS,r0
     C2A4 20AF     
4759 C2A6 D800  38 	movb r0,@cvb_T
     C2A8 2089     
4760               cv292
4761               	; 	IF t < 4 THEN RETURN
4762 C2AA D020  34 	movb @cvb_T,r0
     C2AC 2089     
4763 C2AE 0201  20 	li r1,1024   ; 4*256
     C2B0 0400     
4764 C2B2 9040  18 	cb r0,r1
4765 C2B4 1A02  14 	jl cv294
4766 C2B6 0460  28 	b @cv293
     C2B8 C2BE     
4767               cv294
4768 C2BA C03A  30 	mov *r10+,r0
4769 C2BC 0450  20 	b *r0
4770               cv293
4771               	; 	IF t > 220 THEN RETURN
4772 C2BE D020  34 	movb @cvb_T,r0
     C2C0 2089     
4773 C2C2 0201  20 	li r1,56576   ; 221*256
     C2C4 DD00     
4774 C2C6 9040  18 	cb r0,r1
4775 C2C8 1402  14 	jhe cv296
4776 C2CA 0460  28 	b @cv295
     C2CC C2D2     
4777               cv296
4778 C2CE C03A  30 	mov *r10+,r0
4779 C2D0 0450  20 	b *r0
4780               cv295
4781               	; 	x0 = t + 12 : y0 = ddy(d) + 8 : bw = 7 : bh = 15
4782 C2D2 D020  34 	movb @cvb_T,r0
     C2D4 2089     
4783 C2D6 0220  22 	ai r0,3072	; 12
     C2D8 0C00     
4784 C2DA D800  38 	movb r0,@cvb_X0
     C2DC 20B9     
4785 C2DE D020  34 	movb @cvb_D,r0
     C2E0 2083     
4786 C2E2 0980  32 	srl r0,8
4787 C2E4 0220  22 	ai r0,array_DDY
     C2E6 210A     
4788 C2E8 D010  26 	movb *r0,r0
4789 C2EA 0220  22 	ai r0,2048	; 8
     C2EC 0800     
4790 C2EE D800  38 	movb r0,@cvb_Y0
     C2F0 20BB     
4791 C2F2 0200  20 	li r0,1792   ; 7*256
     C2F4 0700     
4792 C2F6 D800  38 	movb r0,@cvb_BW
     C2F8 20AD     
4793 C2FA 0200  20 	li r0,3840   ; 15*256
     C2FC 0F00     
4794 C2FE D800  38 	movb r0,@cvb_BH
     C300 20AC     
4795               	; 	GOSUB chkbox
4796 C302 06A0  32 	bl @jsr
     C304 A974     
4797 C306 C6CA     	data cvb_CHKBOX
4798               	; 	IF bf = 0 THEN ddx(d) = t : m = 1
4799 C308 D020  34 	movb @cvb_BF,r0
     C30A 20AB     
4800 C30C 1302  14 	jeq cv298
4801 C30E 0460  28 	b @cv297
     C310 C32A     
4802               cv298
4803 C312 D060  34 	movb @cvb_T,r1
     C314 2089     
4804 C316 D020  34 	movb @cvb_D,r0
     C318 2083     
4805 C31A 0980  32 	srl r0,8
4806 C31C 0220  22 	ai r0,array_DDX
     C31E 2106     
4807 C320 D401  30 	movb r1,*r0
4808 C322 0200  20 	li r0,256   ; 1*256
     C324 0100     
4809 C326 D800  38 	movb r0,@cvb_M
     C328 2087     
4810               cv297
4811               	; 	END
4812 C32A C03A  30 	mov *r10+,r0
4813 C32C 0450  20 	b *r0
4814               	;
4815               	; dmovy: PROCEDURE
4816               	even
4817               cvb_DMOVY
4818               	; 	IF ddy(d) = tpy THEN RETURN
4819 C32E D020  34 	movb @cvb_D,r0
     C330 2083     
4820 C332 0980  32 	srl r0,8
4821 C334 0220  22 	ai r0,array_DDY
     C336 210A     
4822 C338 D010  26 	movb *r0,r0
4823 C33A 9020  34 	cb @cvb_TPY,r0
     C33C 208B     
4824 C33E 1302  14 	jeq cv300
4825 C340 0460  28 	b @cv299
     C342 C348     
4826               cv300
4827 C344 C03A  30 	mov *r10+,r0
4828 C346 0450  20 	b *r0
4829               cv299
4830               	; 	IF tpy > ddy(d) THEN t = ddy(d) + ds ELSE t = ddy(d) - ds
4831 C348 D020  34 	movb @cvb_D,r0
     C34A 2083     
4832 C34C 0980  32 	srl r0,8
4833 C34E 0220  22 	ai r0,array_DDY
     C350 210A     
4834 C352 D010  26 	movb *r0,r0
4835 C354 9800  34 	cb r0,@cvb_TPY
     C356 208B     
4836 C358 1A02  14 	jl cv302
4837 C35A 0460  28 	b @cv301
     C35C C376     
4838               cv302
4839 C35E D020  34 	movb @cvb_D,r0
     C360 2083     
4840 C362 0980  32 	srl r0,8
4841 C364 0220  22 	ai r0,array_DDY
     C366 210A     
4842 C368 D010  26 	movb *r0,r0
4843 C36A B020  34 	ab @cvb_DS,r0
     C36C 20AF     
4844 C36E D800  38 	movb r0,@cvb_T
     C370 2089     
4845 C372 0460  28 	b @cv303
     C374 C38A     
4846               cv301
4847 C376 D020  34 	movb @cvb_D,r0
     C378 2083     
4848 C37A 0980  32 	srl r0,8
4849 C37C 0220  22 	ai r0,array_DDY
     C37E 210A     
4850 C380 D010  26 	movb *r0,r0
4851 C382 7020  34 	sb @cvb_DS,r0
     C384 20AF     
4852 C386 D800  38 	movb r0,@cvb_T
     C388 2089     
4853               cv303
4854               	; 	IF t < 4 THEN RETURN
4855 C38A D020  34 	movb @cvb_T,r0
     C38C 2089     
4856 C38E 0201  20 	li r1,1024   ; 4*256
     C390 0400     
4857 C392 9040  18 	cb r0,r1
4858 C394 1A02  14 	jl cv305
4859 C396 0460  28 	b @cv304
     C398 C39E     
4860               cv305
4861 C39A C03A  30 	mov *r10+,r0
4862 C39C 0450  20 	b *r0
4863               cv304
4864               	; 	IF t > 156 THEN RETURN
4865 C39E D020  34 	movb @cvb_T,r0
     C3A0 2089     
4866 C3A2 0201  20 	li r1,40192   ; 157*256
     C3A4 9D00     
4867 C3A6 9040  18 	cb r0,r1
4868 C3A8 1402  14 	jhe cv307
4869 C3AA 0460  28 	b @cv306
     C3AC C3B2     
4870               cv307
4871 C3AE C03A  30 	mov *r10+,r0
4872 C3B0 0450  20 	b *r0
4873               cv306
4874               	; 	x0 = ddx(d) + 12 : y0 = t + 8 : bw = 7 : bh = 15
4875 C3B2 D020  34 	movb @cvb_D,r0
     C3B4 2083     
4876 C3B6 0980  32 	srl r0,8
4877 C3B8 0220  22 	ai r0,array_DDX
     C3BA 2106     
4878 C3BC D010  26 	movb *r0,r0
4879 C3BE 0220  22 	ai r0,3072	; 12
     C3C0 0C00     
4880 C3C2 D800  38 	movb r0,@cvb_X0
     C3C4 20B9     
4881 C3C6 D020  34 	movb @cvb_T,r0
     C3C8 2089     
4882 C3CA 0220  22 	ai r0,2048	; 8
     C3CC 0800     
4883 C3CE D800  38 	movb r0,@cvb_Y0
     C3D0 20BB     
4884 C3D2 0200  20 	li r0,1792   ; 7*256
     C3D4 0700     
4885 C3D6 D800  38 	movb r0,@cvb_BW
     C3D8 20AD     
4886 C3DA 0200  20 	li r0,3840   ; 15*256
     C3DC 0F00     
4887 C3DE D800  38 	movb r0,@cvb_BH
     C3E0 20AC     
4888               	; 	GOSUB chkbox
4889 C3E2 06A0  32 	bl @jsr
     C3E4 A974     
4890 C3E6 C6CA     	data cvb_CHKBOX
4891               	; 	IF bf = 0 THEN ddy(d) = t : m = 1
4892 C3E8 D020  34 	movb @cvb_BF,r0
     C3EA 20AB     
4893 C3EC 1302  14 	jeq cv309
4894 C3EE 0460  28 	b @cv308
     C3F0 C40A     
4895               cv309
4896 C3F2 D060  34 	movb @cvb_T,r1
     C3F4 2089     
4897 C3F6 D020  34 	movb @cvb_D,r0
     C3F8 2083     
4898 C3FA 0980  32 	srl r0,8
4899 C3FC 0220  22 	ai r0,array_DDY
     C3FE 210A     
4900 C400 D401  30 	movb r1,*r0
4901 C402 0200  20 	li r0,256   ; 1*256
     C404 0100     
4902 C406 D800  38 	movb r0,@cvb_M
     C408 2087     
4903               cv308
4904               	; 	END
4905 C40A C03A  30 	mov *r10+,r0
4906 C40C 0450  20 	b *r0
4907               	;
4908               	; swordchk: PROCEDURE
4909               	even
4910               cvb_SWORDCHK
4911               	; 	' the sword (object 3) slays on contact, carried OR lying
4912               	; 	IF orm(3) <> drm(d) THEN RETURN
4913 C40E D020  34 	movb @cvb_D,r0
     C410 2083     
4914 C412 0980  32 	srl r0,8
4915 C414 0220  22 	ai r0,array_DRM
     C416 2116     
4916 C418 D050  26 	movb *r0,r1
4917 C41A D020  34 	movb @array_ORM+3,r0
     C41C 2137     
4918 C41E 9001  18 	cb r1,r0
4919 C420 1602  14 	jne cv311
4920 C422 0460  28 	b @cv310
     C424 C42A     
4921               cv311
4922 C426 C03A  30 	mov *r10+,r0
4923 C428 0450  20 	b *r0
4924               cv310
4925               	; 	#ax = obx(3) + 12 : #bx = ddx(d) + 16
4926 C42A D020  34 	movb @array_OBX+3,r0
     C42C 212B     
4927 C42E 0980  32 	srl r0,8
4928 C430 0220  22 	ai r0,12
     C432 000C     
4929 C434 C800  38 	mov r0,@cvb__AX
     C436 209E     
4930 C438 D020  34 	movb @cvb_D,r0
     C43A 2083     
4931 C43C 0980  32 	srl r0,8
4932 C43E 0220  22 	ai r0,array_DDX
     C440 2106     
4933 C442 D010  26 	movb *r0,r0
4934 C444 0980  32 	srl r0,8
4935 C446 0220  22 	ai r0,16
     C448 0010     
4936 C44A C800  38 	mov r0,@cvb__BX
     C44C 20A0     
4937               	; 	GOSUB adiff
4938 C44E 06A0  32 	bl @jsr
     C450 A974     
4939 C452 BBD2     	data cvb_ADIFF
4940               	; 	IF #cx > 17 THEN RETURN
4941 C454 C020  34 	mov @cvb__CX,r0
     C456 20A2     
4942 C458 0201  20 	li r1,18
     C45A 0012     
4943 C45C 8040  18 	c r0,r1
4944 C45E 1402  14 	jhe cv313
4945 C460 0460  28 	b @cv312
     C462 C468     
4946               cv313
4947 C464 C03A  30 	mov *r10+,r0
4948 C466 0450  20 	b *r0
4949               cv312
4950               	; 	#ax = oby(3) + 7 : #bx = ddy(d) + 16
4951 C468 D020  34 	movb @array_OBY+3,r0
     C46A 2131     
4952 C46C 0980  32 	srl r0,8
4953 C46E 0220  22 	ai r0,7
     C470 0007     
4954 C472 C800  38 	mov r0,@cvb__AX
     C474 209E     
4955 C476 D020  34 	movb @cvb_D,r0
     C478 2083     
4956 C47A 0980  32 	srl r0,8
4957 C47C 0220  22 	ai r0,array_DDY
     C47E 210A     
4958 C480 D010  26 	movb *r0,r0
4959 C482 0980  32 	srl r0,8
4960 C484 0220  22 	ai r0,16
     C486 0010     
4961 C488 C800  38 	mov r0,@cvb__BX
     C48A 20A0     
4962               	; 	GOSUB adiff
4963 C48C 06A0  32 	bl @jsr
     C48E A974     
4964 C490 BBD2     	data cvb_ADIFF
4965               	; 	IF #cx > 16 THEN RETURN
4966 C492 C020  34 	mov @cvb__CX,r0
     C494 20A2     
4967 C496 0201  20 	li r1,17
     C498 0011     
4968 C49A 8040  18 	c r0,r1
4969 C49C 1402  14 	jhe cv315
4970 C49E 0460  28 	b @cv314
     C4A0 C4A6     
4971               cv315
4972 C4A2 C03A  30 	mov *r10+,r0
4973 C4A4 0450  20 	b *r0
4974               cv314
4975               	; 	dst(d) = 1 : sfx = 4 : sfc = 14
4976 C4A6 0201  20 	li r1,256
     C4A8 0100     
4977 C4AA D020  34 	movb @cvb_D,r0
     C4AC 2083     
4978 C4AE 0980  32 	srl r0,8
4979 C4B0 0220  22 	ai r0,array_DST
     C4B2 211E     
4980 C4B4 D401  30 	movb r1,*r0
4981 C4B6 0200  20 	li r0,1024   ; 4*256
     C4B8 0400     
4982 C4BA D800  38 	movb r0,@cvb_SFX
     C4BC 20B4     
4983 C4BE 0200  20 	li r0,3584   ; 14*256
     C4C0 0E00     
4984 C4C2 D800  38 	movb r0,@cvb_SFC
     C4C4 20B1     
4985               	; 	END
4986 C4C6 C03A  30 	mov *r10+,r0
4987 C4C8 0450  20 	b *r0
4988               	;
4989               	; 	' ------------------------------------------------------------
4990               	; 	' swallowed: wail + player shown in the dragon's belly, then
4991               	; 	' FIRE returns to the caller, which restarts a FRESH game
4992               	; 	' ------------------------------------------------------------
4993               	; eatenrt: PROCEDURE
4994               	even
4995               cvb_EATENRT
4996               	; 	e = eflag - 1 : eflag = 0
4997 C4CA D020  34 	movb @cvb_EFLAG,r0
     C4CC 2095     
4998 C4CE 0220  22 	ai r0,65280	; -1
     C4D0 FF00     
4999 C4D2 D800  38 	movb r0,@cvb_E
     C4D4 2084     
5000 C4D6 04C0  14 	clr r0
5001 C4D8 D800  38 	movb r0,@cvb_EFLAG
     C4DA 2095     
5002               	; 	sfx = 0 : SOUND 3, , 0
5003 C4DC 04C0  14 	clr r0
5004 C4DE D800  38 	movb r0,@cvb_SFX
     C4E0 20B4     
5005 C4E2 04C0  14 	clr r0
5006 C4E4 0202  20 	li r2,>f000
     C4E6 F000     
5007 C4E8 06A0  32 	bl @jsr
     C4EA A974     
5008 C4EC A2D6     	data sn76489_vol
5009               	; 	FOR i = 1 TO 56
5010 C4EE 0200  20 	li r0,256   ; 1*256
     C4F0 0100     
5011 C4F2 D800  38 	movb r0,@cvb_I
     C4F4 2086     
5012               cv316
5013               	; 	WAIT
5014 C4F6 06A0  32 	bl @jsr
     C4F8 A974     
5015 C4FA A64A     	data wait
5016               	; 	SOUND 0, 200 + i * 14, 13
5017 C4FC D020  34 	movb @cvb_I,r0
     C4FE 2086     
5018 C500 0980  32 	srl r0,8
5019 C502 0201  20 	li r1,14
     C504 000E     
5020 C506 3801  58 	mpy r1,r0
5021 C508 C001  18 	mov r1,r0
5022 C50A 0220  22 	ai r0,200
     C50C 00C8     
5023 C50E 0202  20 	li r2,>8000
     C510 8000     
5024 C512 06A0  32 	bl @jsr
     C514 A974     
5025 C516 A2BA     	data sn76489_freq
5026 C518 0200  20 	li r0,3328   ; 13*256
     C51A 0D00     
5027 C51C 0202  20 	li r2,>9000
     C51E 9000     
5028 C520 06A0  32 	bl @jsr
     C522 A974     
5029 C524 A2D6     	data sn76489_vol
5030               	; 	SPRITE 0, ddy(e) + 15, ddx(e) + 11, 0, 15
5031 C526 04C4  14 	clr r4
5032 C528 D020  34 	movb @cvb_E,r0
     C52A 2084     
5033 C52C 0980  32 	srl r0,8
5034 C52E 0220  22 	ai r0,array_DDY
     C530 210A     
5035 C532 D010  26 	movb *r0,r0
5036 C534 0220  22 	ai r0,3840	; 15
     C536 0F00     
5037 C538 D140  18 	movb r0,r5
5038 C53A D020  34 	movb @cvb_E,r0
     C53C 2084     
5039 C53E 0980  32 	srl r0,8
5040 C540 0220  22 	ai r0,array_DDX
     C542 2106     
5041 C544 D010  26 	movb *r0,r0
5042 C546 0220  22 	ai r0,2816	; 11
     C548 0B00     
5043 C54A D180  18 	movb r0,r6
5044 C54C 04C7  14 	clr r7
5045 C54E 0200  20 	li r0,3840   ; 15*256
     C550 0F00     
5046 C552 06A0  32 	bl @jsr
     C554 A974     
5047 C556 A24E     	data update_sprite
5048               	; 	NEXT i
5049 C558 D020  34 	movb @cvb_I,r0
     C55A 2086     
5050 C55C 0220  22 	ai r0,256	; 1
     C55E 0100     
5051 C560 D800  38 	movb r0,@cvb_I
     C562 2086     
5052 C564 0201  20 	li r1,14592   ; 57*256
     C566 3900     
5053 C568 9040  18 	cb r0,r1
5054 C56A 1402  14 	jhe cv317
5055 C56C 0460  28 	b @cv316
     C56E C4F6     
5056               cv317
5057               	; 	SOUND 0, , 0
5058 C570 04C0  14 	clr r0
5059 C572 0202  20 	li r2,>9000
     C574 9000     
5060 C576 06A0  32 	bl @jsr
     C578 A974     
5061 C57A A2D6     	data sn76489_vol
5062               	; ewt1:	WAIT : IF cont1.button > 0 THEN GOTO ewt1
5063               cvb_EWT1
5064 C57C 06A0  32 	bl @jsr
     C57E A974     
5065 C580 A64A     	data wait
5066 C582 D020  30 	movb @joy1_data,r0
     C584 8346     
5067 C586 0201  20 	li r1,16384   ; 64*256
     C588 4000     
5068 C58A 0541  14 	inv r1
5069 C58C 5001  18 	szcb r1,r0
5070 C58E 0201  20 	li r1,256   ; 1*256
     C590 0100     
5071 C592 9040  18 	cb r0,r1
5072 C594 1402  14 	jhe cv319
5073 C596 0460  28 	b @cv318
     C598 C59E     
5074               cv319
5075 C59A 0460  28 	b @cvb_EWT1
     C59C C57C     
5076               cv318
5077               	; ewt2:	WAIT : IF cont1.button = 0 THEN GOTO ewt2
5078               cvb_EWT2
5079 C59E 06A0  32 	bl @jsr
     C5A0 A974     
5080 C5A2 A64A     	data wait
5081 C5A4 D020  30 	movb @joy1_data,r0
     C5A6 8346     
5082 C5A8 0201  20 	li r1,16384   ; 64*256
     C5AA 4000     
5083 C5AC 0541  14 	inv r1
5084 C5AE 5001  18 	szcb r1,r0
5085 C5B0 04C1  14 	clr r1
5086 C5B2 9001  18 	cb r1,r0
5087 C5B4 1302  14 	jeq cv321
5088 C5B6 0460  28 	b @cv320
     C5B8 C5BE     
5089               cv321
5090 C5BA 0460  28 	b @cvb_EWT2
     C5BC C59E     
5091               cv320
5092               	; 	END
5093 C5BE C03A  30 	mov *r10+,r0
5094 C5C0 0450  20 	b *r0
5095               	;
5096               	; 	' ------------------------------------------------------------
5097               	; 	' point-vs-wall: RAM bitmap test + closed-gate special case
5098               	; 	' ------------------------------------------------------------
5099               	; chkpt: PROCEDURE
5100               	even
5101               cvb_CHKPT
5102               	; 	r = ty / 16 : c2 = tx / 16
5103 C5C2 D020  34 	movb @cvb_TY,r0
     C5C4 20B8     
5104 C5C6 0940  24 	srl r0,4
5105 C5C8 D800  38 	movb r0,@cvb_R
     C5CA 2088     
5106 C5CC D020  34 	movb @cvb_TX,r0
     C5CE 20B7     
5107 C5D0 0940  24 	srl r0,4
5108 C5D2 D800  38 	movb r0,@cvb_C2
     C5D4 20AA     
5109               	; 	IF c2 > 7 THEN wf = rm(r + r + 1) AND msk(c2 AND 7) ELSE wf = rm(r + r) AND msk(c2)
5110 C5D6 0201  20 	li r1,2048   ; 8*256
     C5D8 0800     
5111 C5DA 9040  18 	cb r0,r1
5112 C5DC 1402  14 	jhe cv323
5113 C5DE 0460  28 	b @cv322
     C5E0 C614     
5114               cv323
5115 C5E2 D020  34 	movb @cvb_C2,r0
     C5E4 20AA     
5116 C5E6 0201  20 	li r1,1792   ; 7*256
     C5E8 0700     
5117 C5EA 0541  14 	inv r1
5118 C5EC 5001  18 	szcb r1,r0
5119 C5EE 0980  32 	srl r0,8
5120 C5F0 0220  22 	ai r0,array_MSK
     C5F2 210E     
5121 C5F4 D050  26 	movb *r0,r1
5122 C5F6 D020  34 	movb @cvb_R,r0
     C5F8 2088     
5123 C5FA B020  34 	ab @cvb_R,r0
     C5FC 2088     
5124 C5FE 0980  32 	srl r0,8
5125 C600 0580  14 	inc r0
5126 C602 0220  22 	ai r0,array_RM
     C604 213E     
5127 C606 D010  26 	movb *r0,r0
5128 C608 0541  14 	inv r1
5129 C60A 5001  18 	szcb r1,r0
5130 C60C D800  38 	movb r0,@cvb_WF
     C60E 20BA     
5131 C610 0460  28 	b @cv324
     C612 C638     
5132               cv322
5133 C614 D020  34 	movb @cvb_C2,r0
     C616 20AA     
5134 C618 0980  32 	srl r0,8
5135 C61A 0220  22 	ai r0,array_MSK
     C61C 210E     
5136 C61E D050  26 	movb *r0,r1
5137 C620 D020  34 	movb @cvb_R,r0
     C622 2088     
5138 C624 B020  34 	ab @cvb_R,r0
     C626 2088     
5139 C628 0980  32 	srl r0,8
5140 C62A 0220  22 	ai r0,array_RM
     C62C 213E     
5141 C62E D010  26 	movb *r0,r0
5142 C630 0541  14 	inv r1
5143 C632 5001  18 	szcb r1,r0
5144 C634 D800  38 	movb r0,@cvb_WF
     C636 20BA     
5145               cv324
5146               	; 	IF wf > 0 THEN RETURN
5147 C638 D020  34 	movb @cvb_WF,r0
     C63A 20BA     
5148 C63C 0201  20 	li r1,256   ; 1*256
     C63E 0100     
5149 C640 9040  18 	cb r0,r1
5150 C642 1402  14 	jhe cv326
5151 C644 0460  28 	b @cv325
     C646 C64C     
5152               cv326
5153 C648 C03A  30 	mov *r10+,r0
5154 C64A 0450  20 	b *r0
5155               cv325
5156               	; 	IF gz = 0 THEN RETURN
5157 C64C D020  34 	movb @cvb_GZ,r0
     C64E 20B0     
5158 C650 1302  14 	jeq cv328
5159 C652 0460  28 	b @cv327
     C654 C65A     
5160               cv328
5161 C656 C03A  30 	mov *r10+,r0
5162 C658 0450  20 	b *r0
5163               cv327
5164               	; 	IF gopn = 1 THEN RETURN
5165 C65A D020  34 	movb @cvb_GOPN,r0
     C65C 2094     
5166 C65E 0201  20 	li r1,256   ; 1*256
     C660 0100     
5167 C662 9001  18 	cb r1,r0
5168 C664 1302  14 	jeq cv330
5169 C666 0460  28 	b @cv329
     C668 C66E     
5170               cv330
5171 C66A C03A  30 	mov *r10+,r0
5172 C66C 0450  20 	b *r0
5173               cv329
5174               	; 	IF r < 2 THEN RETURN
5175 C66E D020  34 	movb @cvb_R,r0
     C670 2088     
5176 C672 0201  20 	li r1,512   ; 2*256
     C674 0200     
5177 C676 9040  18 	cb r0,r1
5178 C678 1A02  14 	jl cv332
5179 C67A 0460  28 	b @cv331
     C67C C682     
5180               cv332
5181 C67E C03A  30 	mov *r10+,r0
5182 C680 0450  20 	b *r0
5183               cv331
5184               	; 	IF r > 3 THEN RETURN
5185 C682 D020  34 	movb @cvb_R,r0
     C684 2088     
5186 C686 0201  20 	li r1,1024   ; 4*256
     C688 0400     
5187 C68A 9040  18 	cb r0,r1
5188 C68C 1402  14 	jhe cv334
5189 C68E 0460  28 	b @cv333
     C690 C696     
5190               cv334
5191 C692 C03A  30 	mov *r10+,r0
5192 C694 0450  20 	b *r0
5193               cv333
5194               	; 	IF c2 < 7 THEN RETURN
5195 C696 D020  34 	movb @cvb_C2,r0
     C698 20AA     
5196 C69A 0201  20 	li r1,1792   ; 7*256
     C69C 0700     
5197 C69E 9040  18 	cb r0,r1
5198 C6A0 1A02  14 	jl cv336
5199 C6A2 0460  28 	b @cv335
     C6A4 C6AA     
5200               cv336
5201 C6A6 C03A  30 	mov *r10+,r0
5202 C6A8 0450  20 	b *r0
5203               cv335
5204               	; 	IF c2 > 8 THEN RETURN
5205 C6AA D020  34 	movb @cvb_C2,r0
     C6AC 20AA     
5206 C6AE 0201  20 	li r1,2304   ; 9*256
     C6B0 0900     
5207 C6B2 9040  18 	cb r0,r1
5208 C6B4 1402  14 	jhe cv338
5209 C6B6 0460  28 	b @cv337
     C6B8 C6BE     
5210               cv338
5211 C6BA C03A  30 	mov *r10+,r0
5212 C6BC 0450  20 	b *r0
5213               cv337
5214               	; 	wf = 1
5215 C6BE 0200  20 	li r0,256   ; 1*256
     C6C0 0100     
5216 C6C2 D800  38 	movb r0,@cvb_WF
     C6C4 20BA     
5217               	; 	END
5218 C6C6 C03A  30 	mov *r10+,r0
5219 C6C8 0450  20 	b *r0
5220               	;
5221               	; chkbox: PROCEDURE
5222               	even
5223               cvb_CHKBOX
5224               	; 	' blocks are 16px and boxes are <=16px, so 4 corners suffice
5225               	; 	bf = 1
5226 C6CA 0200  20 	li r0,256   ; 1*256
     C6CC 0100     
5227 C6CE D800  38 	movb r0,@cvb_BF
     C6D0 20AB     
5228               	; 	tx = x0 : ty = y0
5229 C6D2 D820  54 	movb @cvb_X0,@cvb_TX
     C6D4 20B9     
     C6D6 20B7     
5230 C6D8 D820  54 	movb @cvb_Y0,@cvb_TY
     C6DA 20BB     
     C6DC 20B8     
5231               	; 	GOSUB chkpt
5232 C6DE 06A0  32 	bl @jsr
     C6E0 A974     
5233 C6E2 C5C2     	data cvb_CHKPT
5234               	; 	IF wf > 0 THEN RETURN
5235 C6E4 D020  34 	movb @cvb_WF,r0
     C6E6 20BA     
5236 C6E8 0201  20 	li r1,256   ; 1*256
     C6EA 0100     
5237 C6EC 9040  18 	cb r0,r1
5238 C6EE 1402  14 	jhe cv340
5239 C6F0 0460  28 	b @cv339
     C6F2 C6F8     
5240               cv340
5241 C6F4 C03A  30 	mov *r10+,r0
5242 C6F6 0450  20 	b *r0
5243               cv339
5244               	; 	tx = x0 + bw
5245 C6F8 D020  34 	movb @cvb_X0,r0
     C6FA 20B9     
5246 C6FC B020  34 	ab @cvb_BW,r0
     C6FE 20AD     
5247 C700 D800  38 	movb r0,@cvb_TX
     C702 20B7     
5248               	; 	GOSUB chkpt
5249 C704 06A0  32 	bl @jsr
     C706 A974     
5250 C708 C5C2     	data cvb_CHKPT
5251               	; 	IF wf > 0 THEN RETURN
5252 C70A D020  34 	movb @cvb_WF,r0
     C70C 20BA     
5253 C70E 0201  20 	li r1,256   ; 1*256
     C710 0100     
5254 C712 9040  18 	cb r0,r1
5255 C714 1402  14 	jhe cv342
5256 C716 0460  28 	b @cv341
     C718 C71E     
5257               cv342
5258 C71A C03A  30 	mov *r10+,r0
5259 C71C 0450  20 	b *r0
5260               cv341
5261               	; 	ty = y0 + bh
5262 C71E D020  34 	movb @cvb_Y0,r0
     C720 20BB     
5263 C722 B020  34 	ab @cvb_BH,r0
     C724 20AC     
5264 C726 D800  38 	movb r0,@cvb_TY
     C728 20B8     
5265               	; 	GOSUB chkpt
5266 C72A 06A0  32 	bl @jsr
     C72C A974     
5267 C72E C5C2     	data cvb_CHKPT
5268               	; 	IF wf > 0 THEN RETURN
5269 C730 D020  34 	movb @cvb_WF,r0
     C732 20BA     
5270 C734 0201  20 	li r1,256   ; 1*256
     C736 0100     
5271 C738 9040  18 	cb r0,r1
5272 C73A 1402  14 	jhe cv344
5273 C73C 0460  28 	b @cv343
     C73E C744     
5274               cv344
5275 C740 C03A  30 	mov *r10+,r0
5276 C742 0450  20 	b *r0
5277               cv343
5278               	; 	tx = x0
5279 C744 D820  54 	movb @cvb_X0,@cvb_TX
     C746 20B9     
     C748 20B7     
5280               	; 	GOSUB chkpt
5281 C74A 06A0  32 	bl @jsr
     C74C A974     
5282 C74E C5C2     	data cvb_CHKPT
5283               	; 	IF wf > 0 THEN RETURN
5284 C750 D020  34 	movb @cvb_WF,r0
     C752 20BA     
5285 C754 0201  20 	li r1,256   ; 1*256
     C756 0100     
5286 C758 9040  18 	cb r0,r1
5287 C75A 1402  14 	jhe cv346
5288 C75C 0460  28 	b @cv345
     C75E C764     
5289               cv346
5290 C760 C03A  30 	mov *r10+,r0
5291 C762 0450  20 	b *r0
5292               cv345
5293               	; 	bf = 0
5294 C764 04C0  14 	clr r0
5295 C766 D800  38 	movb r0,@cvb_BF
     C768 20AB     
5296               	; 	END
5297 C76A C03A  30 	mov *r10+,r0
5298 C76C 0450  20 	b *r0
5299               	;
5300               	; 	' ------------------------------------------------------------
5301               	; 	' room entry: load bitmap, tint walls, redraw, gate, dragons
5302               	; 	' ------------------------------------------------------------
5303               	; enterroom: PROCEDURE
5304               	even
5305               cvb_ENTERROOM
5306               	; 	FOR i = 1 TO 11 : SPRITE i, $d1, 0, 0, 0 : NEXT i
5307 C76E 0200  20 	li r0,256   ; 1*256
     C770 0100     
5308 C772 D800  38 	movb r0,@cvb_I
     C774 2086     
5309               cv347
5310 C776 D120  34 	movb @cvb_I,r4
     C778 2086     
5311 C77A 0205  20 	li r5,53504
     C77C D100     
5312 C77E 04C6  14 	clr r6
5313 C780 04C7  14 	clr r7
5314 C782 04C0  14 	clr r0
5315 C784 06A0  32 	bl @jsr
     C786 A974     
5316 C788 A24E     	data update_sprite
5317 C78A D020  34 	movb @cvb_I,r0
     C78C 2086     
5318 C78E 0220  22 	ai r0,256	; 1
     C790 0100     
5319 C792 D800  38 	movb r0,@cvb_I
     C794 2086     
5320 C796 0201  20 	li r1,3072   ; 12*256
     C798 0C00     
5321 C79A 9040  18 	cb r0,r1
5322 C79C 1402  14 	jhe cv348
5323 C79E 0460  28 	b @cv347
     C7A0 C776     
5324               cv348
5325               	; 	ON rn GOTO er0, er1, er2, er3, er4, er5, er6, er7, er8, er9, er10, er11, er12
5326 C7A2 D020  34 	movb @cvb_RN,r0
     C7A4 20B5     
5327 C7A6 0280  22 	ci r0,3328   ; 13*256
     C7A8 0D00     
5328 C7AA 1A02  14 	jl cv351
5329 C7AC 0460  28 	b @cv350
     C7AE C7D6     
5330               cv351
5331 C7B0 0980  32 	srl r0,8
5332 C7B2 0A10  18 	sla r0,1
5333 C7B4 C040  18 	mov r0,r1
5334 C7B6 C021  34 	mov @cv349(r1),r0
     C7B8 C7BC     
5335 C7BA 0450  20 	b *r0
5336               cv349
5337 C7BC C7D6     	data cvb_ER0
5338 C7BE C7E2     	data cvb_ER1
5339 C7C0 C7EE     	data cvb_ER2
5340 C7C2 C7FA     	data cvb_ER3
5341 C7C4 C806     	data cvb_ER4
5342 C7C6 C812     	data cvb_ER5
5343 C7C8 C81E     	data cvb_ER6
5344 C7CA C82A     	data cvb_ER7
5345 C7CC C836     	data cvb_ER8
5346 C7CE C842     	data cvb_ER9
5347 C7D0 C84E     	data cvb_ER10
5348 C7D2 C85A     	data cvb_ER11
5349 C7D4 C866     	data cvb_ER12
5350               cv350
5351               	; er0:	RESTORE rd0
5352               cvb_ER0
5353 C7D6 0200  20 	li r0,cvb_RD0
     C7D8 D30E     
5354 C7DA C800  30 	mov r0,@read_pointer
     C7DC 8340     
5355               	; 	GOTO erld
5356 C7DE 0460  28 	b @cvb_ERLD
     C7E0 C86E     
5357               	; er1:	RESTORE rd1
5358               cvb_ER1
5359 C7E2 0200  20 	li r0,cvb_RD1
     C7E4 D326     
5360 C7E6 C800  30 	mov r0,@read_pointer
     C7E8 8340     
5361               	; 	GOTO erld
5362 C7EA 0460  28 	b @cvb_ERLD
     C7EC C86E     
5363               	; er2:	RESTORE rd2
5364               cvb_ER2
5365 C7EE 0200  20 	li r0,cvb_RD2
     C7F0 D33E     
5366 C7F2 C800  30 	mov r0,@read_pointer
     C7F4 8340     
5367               	; 	GOTO erld
5368 C7F6 0460  28 	b @cvb_ERLD
     C7F8 C86E     
5369               	; er3:	RESTORE rd3
5370               cvb_ER3
5371 C7FA 0200  20 	li r0,cvb_RD3
     C7FC D356     
5372 C7FE C800  30 	mov r0,@read_pointer
     C800 8340     
5373               	; 	GOTO erld
5374 C802 0460  28 	b @cvb_ERLD
     C804 C86E     
5375               	; er4:	RESTORE rd4
5376               cvb_ER4
5377 C806 0200  20 	li r0,cvb_RD4
     C808 D36E     
5378 C80A C800  30 	mov r0,@read_pointer
     C80C 8340     
5379               	; 	GOTO erld
5380 C80E 0460  28 	b @cvb_ERLD
     C810 C86E     
5381               	; er5:	RESTORE rd5
5382               cvb_ER5
5383 C812 0200  20 	li r0,cvb_RD5
     C814 D386     
5384 C816 C800  30 	mov r0,@read_pointer
     C818 8340     
5385               	; 	GOTO erld
5386 C81A 0460  28 	b @cvb_ERLD
     C81C C86E     
5387               	; er6:	RESTORE rd6
5388               cvb_ER6
5389 C81E 0200  20 	li r0,cvb_RD6
     C820 D39E     
5390 C822 C800  30 	mov r0,@read_pointer
     C824 8340     
5391               	; 	GOTO erld
5392 C826 0460  28 	b @cvb_ERLD
     C828 C86E     
5393               	; er7:	RESTORE rd7
5394               cvb_ER7
5395 C82A 0200  20 	li r0,cvb_RD7
     C82C D3B6     
5396 C82E C800  30 	mov r0,@read_pointer
     C830 8340     
5397               	; 	GOTO erld
5398 C832 0460  28 	b @cvb_ERLD
     C834 C86E     
5399               	; er8:	RESTORE rd8
5400               cvb_ER8
5401 C836 0200  20 	li r0,cvb_RD8
     C838 D3CE     
5402 C83A C800  30 	mov r0,@read_pointer
     C83C 8340     
5403               	; 	GOTO erld
5404 C83E 0460  28 	b @cvb_ERLD
     C840 C86E     
5405               	; er9:	RESTORE rd9
5406               cvb_ER9
5407 C842 0200  20 	li r0,cvb_RD9
     C844 D3E6     
5408 C846 C800  30 	mov r0,@read_pointer
     C848 8340     
5409               	; 	GOTO erld
5410 C84A 0460  28 	b @cvb_ERLD
     C84C C86E     
5411               	; er10:	RESTORE rd10
5412               cvb_ER10
5413 C84E 0200  20 	li r0,cvb_RD10
     C850 D3FE     
5414 C852 C800  30 	mov r0,@read_pointer
     C854 8340     
5415               	; 	GOTO erld
5416 C856 0460  28 	b @cvb_ERLD
     C858 C86E     
5417               	; er11:	RESTORE rd11
5418               cvb_ER11
5419 C85A 0200  20 	li r0,cvb_RD11
     C85C D416     
5420 C85E C800  30 	mov r0,@read_pointer
     C860 8340     
5421               	; 	GOTO erld
5422 C862 0460  28 	b @cvb_ERLD
     C864 C86E     
5423               	; er12:	RESTORE rd12
5424               cvb_ER12
5425 C866 0200  20 	li r0,cvb_RD12
     C868 D42E     
5426 C86A C800  30 	mov r0,@read_pointer
     C86C 8340     
5427               	; erld:
5428               cvb_ERLD
5429               	; 	FOR i = 0 TO 23 : READ BYTE rm(i) : NEXT i
5430 C86E 04C0  14 	clr r0
5431 C870 D800  38 	movb r0,@cvb_I
     C872 2086     
5432               cv352
5433 C874 C060  30 	mov @read_pointer,r1
     C876 8340     
5434 C878 D011  26 	movb *r1,r0
5435 C87A 05A0  26 	inc @read_pointer
     C87C 8340     
5436 C87E C040  18 	mov r0,r1
5437 C880 D020  34 	movb @cvb_I,r0
     C882 2086     
5438 C884 0980  32 	srl r0,8
5439 C886 0220  22 	ai r0,array_RM
     C888 213E     
5440 C88A D401  30 	movb r1,*r0
5441 C88C D020  34 	movb @cvb_I,r0
     C88E 2086     
5442 C890 0220  22 	ai r0,256	; 1
     C892 0100     
5443 C894 D800  38 	movb r0,@cvb_I
     C896 2086     
5444 C898 0201  20 	li r1,6144   ; 24*256
     C89A 1800     
5445 C89C 9040  18 	cb r0,r1
5446 C89E 1402  14 	jhe cv353
5447 C8A0 0460  28 	b @cv352
     C8A2 C874     
5448               cv353
5449               	; 	' wall colour, all three screen thirds (colour table $2000)
5450               	; 	t = rcol(rn) * 16 + 1
5451 C8A4 D020  34 	movb @cvb_RN,r0
     C8A6 20B5     
5452 C8A8 0980  32 	srl r0,8
5453 C8AA 0220  22 	ai r0,array_RCOL
     C8AC 20BC     
5454 C8AE D010  26 	movb *r0,r0
5455 C8B0 0240  22 	andi r0,>ff00
     C8B2 FF00     
5456 C8B4 0A40  24 	sla r0,4
5457 C8B6 0220  22 	ai r0,256	; 1
     C8B8 0100     
5458 C8BA D800  38 	movb r0,@cvb_T
     C8BC 2089     
5459               	; 	FOR i = 0 TO 7
5460 C8BE 04C0  14 	clr r0
5461 C8C0 D800  38 	movb r0,@cvb_I
     C8C2 2086     
5462               cv354
5463               	; 	VPOKE $2400 + i, t : VPOKE $2C00 + i, t : VPOKE $3400 + i, t
5464 C8C4 D020  34 	movb @cvb_T,r0
     C8C6 2089     
5465 C8C8 064A  14 	dect r10
5466 C8CA C680  30 	mov r0,*r10
5467 C8CC D020  34 	movb @cvb_I,r0
     C8CE 2086     
5468 C8D0 0980  32 	srl r0,8
5469 C8D2 0220  22 	ai r0,9216
     C8D4 2400     
5470 C8D6 C0BA  30 	mov *r10+,r2
5471 C8D8 0300  22 	limi 0
     C8DA 0000     
5472 C8DC 06A0  32 	bl @JSR
     C8DE A974     
5473 C8E0 A018     	data WRTVRM
5474 C8E2 0300  22 	limi 2
     C8E4 0002     
5475 C8E6 D020  34 	movb @cvb_T,r0
     C8E8 2089     
5476 C8EA 064A  14 	dect r10
5477 C8EC C680  30 	mov r0,*r10
5478 C8EE D020  34 	movb @cvb_I,r0
     C8F0 2086     
5479 C8F2 0980  32 	srl r0,8
5480 C8F4 0220  22 	ai r0,11264
     C8F6 2C00     
5481 C8F8 C0BA  30 	mov *r10+,r2
5482 C8FA 0300  22 	limi 0
     C8FC 0000     
5483 C8FE 06A0  32 	bl @JSR
     C900 A974     
5484 C902 A018     	data WRTVRM
5485 C904 0300  22 	limi 2
     C906 0002     
5486 C908 D020  34 	movb @cvb_T,r0
     C90A 2089     
5487 C90C 064A  14 	dect r10
5488 C90E C680  30 	mov r0,*r10
5489 C910 D020  34 	movb @cvb_I,r0
     C912 2086     
5490 C914 0980  32 	srl r0,8
5491 C916 0220  22 	ai r0,13312
     C918 3400     
5492 C91A C0BA  30 	mov *r10+,r2
5493 C91C 0300  22 	limi 0
     C91E 0000     
5494 C920 06A0  32 	bl @JSR
     C922 A974     
5495 C924 A018     	data WRTVRM
5496 C926 0300  22 	limi 2
     C928 0002     
5497               	; 	NEXT i
5498 C92A D020  34 	movb @cvb_I,r0
     C92C 2086     
5499 C92E 0220  22 	ai r0,256	; 1
     C930 0100     
5500 C932 D800  38 	movb r0,@cvb_I
     C934 2086     
5501 C936 0201  20 	li r1,2048   ; 8*256
     C938 0800     
5502 C93A 9040  18 	cb r0,r1
5503 C93C 1402  14 	jhe cv355
5504 C93E 0460  28 	b @cv354
     C940 C8C4     
5505               cv355
5506               	; 	CLS
5507 C942 06A0  32 	bl @jsr
     C944 A974     
5508 C946 A0FC     	data cls
5509               	; 	FOR r = 0 TO 11
5510 C948 04C0  14 	clr r0
5511 C94A D800  38 	movb r0,@cvb_R
     C94C 2088     
5512               cv356
5513               	; 	#ad = $1800 + r * 64
5514 C94E D020  34 	movb @cvb_R,r0
     C950 2088     
5515 C952 0980  32 	srl r0,8
5516 C954 0A60  28 	sla r0,6
5517 C956 0220  22 	ai r0,6144
     C958 1800     
5518 C95A C800  38 	mov r0,@cvb__AD
     C95C 209C     
5519               	; 	FOR c2 = 0 TO 15
5520 C95E 04C0  14 	clr r0
5521 C960 D800  38 	movb r0,@cvb_C2
     C962 20AA     
5522               cv357
5523               	; 	i = r + r : IF c2 > 7 THEN i = i + 1
5524 C964 D020  34 	movb @cvb_R,r0
     C966 2088     
5525 C968 B020  34 	ab @cvb_R,r0
     C96A 2088     
5526 C96C D800  38 	movb r0,@cvb_I
     C96E 2086     
5527 C970 D020  34 	movb @cvb_C2,r0
     C972 20AA     
5528 C974 0201  20 	li r1,2048   ; 8*256
     C976 0800     
5529 C978 9040  18 	cb r0,r1
5530 C97A 1402  14 	jhe cv359
5531 C97C 0460  28 	b @cv358
     C97E C98C     
5532               cv359
5533 C980 D020  34 	movb @cvb_I,r0
     C982 2086     
5534 C984 0220  22 	ai r0,256	; 1
     C986 0100     
5535 C988 D800  38 	movb r0,@cvb_I
     C98A 2086     
5536               cv358
5537               	; 	IF (rm(i) AND msk(c2 AND 7)) > 0 THEN VPOKE #ad, 128 : VPOKE #ad + 1, 128 : VPOKE #ad + 32, 128 : VPOKE #ad + 33, 128
5538 C98C D020  34 	movb @cvb_C2,r0
     C98E 20AA     
5539 C990 0201  20 	li r1,1792   ; 7*256
     C992 0700     
5540 C994 0541  14 	inv r1
5541 C996 5001  18 	szcb r1,r0
5542 C998 0980  32 	srl r0,8
5543 C99A 0220  22 	ai r0,array_MSK
     C99C 210E     
5544 C99E D050  26 	movb *r0,r1
5545 C9A0 D020  34 	movb @cvb_I,r0
     C9A2 2086     
5546 C9A4 0980  32 	srl r0,8
5547 C9A6 0220  22 	ai r0,array_RM
     C9A8 213E     
5548 C9AA D010  26 	movb *r0,r0
5549 C9AC 0541  14 	inv r1
5550 C9AE 5001  18 	szcb r1,r0
5551 C9B0 0201  20 	li r1,256   ; 1*256
     C9B2 0100     
5552 C9B4 9040  18 	cb r0,r1
5553 C9B6 1402  14 	jhe cv361
5554 C9B8 0460  28 	b @cv360
     C9BA CA36     
5555               cv361
5556 C9BC 0200  20 	li r0,32768   ; 128*256
     C9BE 8000     
5557 C9C0 064A  14 	dect r10
5558 C9C2 C680  30 	mov r0,*r10
5559 C9C4 C020  34 	mov @cvb__AD,r0
     C9C6 209C     
5560 C9C8 C0BA  30 	mov *r10+,r2
5561 C9CA 0300  22 	limi 0
     C9CC 0000     
5562 C9CE 06A0  32 	bl @JSR
     C9D0 A974     
5563 C9D2 A018     	data WRTVRM
5564 C9D4 0300  22 	limi 2
     C9D6 0002     
5565 C9D8 0200  20 	li r0,32768   ; 128*256
     C9DA 8000     
5566 C9DC 064A  14 	dect r10
5567 C9DE C680  30 	mov r0,*r10
5568 C9E0 C020  34 	mov @cvb__AD,r0
     C9E2 209C     
5569 C9E4 0580  14 	inc r0
5570 C9E6 C0BA  30 	mov *r10+,r2
5571 C9E8 0300  22 	limi 0
     C9EA 0000     
5572 C9EC 06A0  32 	bl @JSR
     C9EE A974     
5573 C9F0 A018     	data WRTVRM
5574 C9F2 0300  22 	limi 2
     C9F4 0002     
5575 C9F6 0200  20 	li r0,32768   ; 128*256
     C9F8 8000     
5576 C9FA 064A  14 	dect r10
5577 C9FC C680  30 	mov r0,*r10
5578 C9FE C020  34 	mov @cvb__AD,r0
     CA00 209C     
5579 CA02 0220  22 	ai r0,32
     CA04 0020     
5580 CA06 C0BA  30 	mov *r10+,r2
5581 CA08 0300  22 	limi 0
     CA0A 0000     
5582 CA0C 06A0  32 	bl @JSR
     CA0E A974     
5583 CA10 A018     	data WRTVRM
5584 CA12 0300  22 	limi 2
     CA14 0002     
5585 CA16 0200  20 	li r0,32768   ; 128*256
     CA18 8000     
5586 CA1A 064A  14 	dect r10
5587 CA1C C680  30 	mov r0,*r10
5588 CA1E C020  34 	mov @cvb__AD,r0
     CA20 209C     
5589 CA22 0220  22 	ai r0,33
     CA24 0021     
5590 CA26 C0BA  30 	mov *r10+,r2
5591 CA28 0300  22 	limi 0
     CA2A 0000     
5592 CA2C 06A0  32 	bl @JSR
     CA2E A974     
5593 CA30 A018     	data WRTVRM
5594 CA32 0300  22 	limi 2
     CA34 0002     
5595               cv360
5596               	; 	#ad = #ad + 2
5597 CA36 05E0  34 	inct @cvb__AD
     CA38 209C     
5598               	; 	NEXT c2
5599 CA3A D020  34 	movb @cvb_C2,r0
     CA3C 20AA     
5600 CA3E 0220  22 	ai r0,256	; 1
     CA40 0100     
5601 CA42 D800  38 	movb r0,@cvb_C2
     CA44 20AA     
5602 CA46 0201  20 	li r1,4096   ; 16*256
     CA48 1000     
5603 CA4A 9040  18 	cb r0,r1
5604 CA4C 1402  14 	jhe cv362
5605 CA4E 0460  28 	b @cv357
     CA50 C964     
5606               cv362
5607               	; 	NEXT r
5608 CA52 D020  34 	movb @cvb_R,r0
     CA54 2088     
5609 CA56 0220  22 	ai r0,256	; 1
     CA58 0100     
5610 CA5A D800  38 	movb r0,@cvb_R
     CA5C 2088     
5611 CA5E 0201  20 	li r1,3072   ; 12*256
     CA60 0C00     
5612 CA62 9040  18 	cb r0,r1
5613 CA64 1402  14 	jhe cv363
5614 CA66 0460  28 	b @cv356
     CA68 C94E     
5615               cv363
5616               	; 	gz = 0 : gopn = 0
5617 CA6A 04C0  14 	clr r0
5618 CA6C D800  38 	movb r0,@cvb_GZ
     CA6E 20B0     
5619 CA70 04C0  14 	clr r0
5620 CA72 D800  38 	movb r0,@cvb_GOPN
     CA74 2094     
5621               	; 	IF rn = 0 THEN gz = 1
5622 CA76 D020  34 	movb @cvb_RN,r0
     CA78 20B5     
5623 CA7A 1302  14 	jeq cv365
5624 CA7C 0460  28 	b @cv364
     CA7E CA88     
5625               cv365
5626 CA80 0200  20 	li r0,256   ; 1*256
     CA82 0100     
5627 CA84 D800  38 	movb r0,@cvb_GZ
     CA86 20B0     
5628               cv364
5629               	; 	IF rn = 8 THEN gz = 2
5630 CA88 D020  34 	movb @cvb_RN,r0
     CA8A 20B5     
5631 CA8C 0201  20 	li r1,2048   ; 8*256
     CA8E 0800     
5632 CA90 9001  18 	cb r1,r0
5633 CA92 1302  14 	jeq cv367
5634 CA94 0460  28 	b @cv366
     CA96 CAA0     
5635               cv367
5636 CA98 0200  20 	li r0,512   ; 2*256
     CA9A 0200     
5637 CA9C D800  38 	movb r0,@cvb_GZ
     CA9E 20B0     
5638               cv366
5639               	; 	IF rn = 11 THEN gz = 3
5640 CAA0 D020  34 	movb @cvb_RN,r0
     CAA2 20B5     
5641 CAA4 0201  20 	li r1,2816   ; 11*256
     CAA6 0B00     
5642 CAA8 9001  18 	cb r1,r0
5643 CAAA 1302  14 	jeq cv369
5644 CAAC 0460  28 	b @cv368
     CAAE CAB8     
5645               cv369
5646 CAB0 0200  20 	li r0,768   ; 3*256
     CAB2 0300     
5647 CAB4 D800  38 	movb r0,@cvb_GZ
     CAB6 20B0     
5648               cv368
5649               	; 	IF gz > 0 THEN gopn = gop(gz - 1)
5650 CAB8 D020  34 	movb @cvb_GZ,r0
     CABA 20B0     
5651 CABC 0201  20 	li r1,256   ; 1*256
     CABE 0100     
5652 CAC0 9040  18 	cb r0,r1
5653 CAC2 1402  14 	jhe cv371
5654 CAC4 0460  28 	b @cv370
     CAC6 CAD8     
5655               cv371
5656 CAC8 D020  34 	movb @cvb_GZ,r0
     CACA 20B0     
5657 CACC 0980  32 	srl r0,8
5658 CACE 0600  14 	dec r0
5659 CAD0 0220  22 	ai r0,array_GOP
     CAD2 213A     
5660 CAD4 D810  46 	movb *r0,@cvb_GOPN
     CAD6 2094     
5661               cv370
5662               	; 	IF gz > 0 THEN IF gopn = 0 THEN GOSUB drawgate
5663 CAD8 D020  34 	movb @cvb_GZ,r0
     CADA 20B0     
5664 CADC 0201  20 	li r1,256   ; 1*256
     CADE 0100     
5665 CAE0 9040  18 	cb r0,r1
5666 CAE2 1402  14 	jhe cv373
5667 CAE4 0460  28 	b @cv372
     CAE6 CAF8     
5668               cv373
5669 CAE8 D020  34 	movb @cvb_GOPN,r0
     CAEA 2094     
5670 CAEC 1302  14 	jeq cv375
5671 CAEE 0460  28 	b @cv374
     CAF0 CAF8     
5672               cv375
5673 CAF2 06A0  32 	bl @jsr
     CAF4 A974     
5674 CAF6 CB58     	data cvb_DRAWGATE
5675               cv374
5676               cv372
5677               	; 	FOR d = 0 TO 2
5678 CAF8 04C0  14 	clr r0
5679 CAFA D800  38 	movb r0,@cvb_D
     CAFC 2083     
5680               cv376
5681               	; 	IF drm(d) = rn THEN IF dst(d) = 0 THEN GOSUB dsafe : sfx = 5 : sfc = 20
5682 CAFE D020  34 	movb @cvb_D,r0
     CB00 2083     
5683 CB02 0980  32 	srl r0,8
5684 CB04 0220  22 	ai r0,array_DRM
     CB06 2116     
5685 CB08 D010  26 	movb *r0,r0
5686 CB0A 9020  34 	cb @cvb_RN,r0
     CB0C 20B5     
5687 CB0E 1302  14 	jeq cv378
5688 CB10 0460  28 	b @cv377
     CB12 CB3C     
5689               cv378
5690 CB14 D020  34 	movb @cvb_D,r0
     CB16 2083     
5691 CB18 0980  32 	srl r0,8
5692 CB1A 0220  22 	ai r0,array_DST
     CB1C 211E     
5693 CB1E D010  26 	movb *r0,r0
5694 CB20 1302  14 	jeq cv380
5695 CB22 0460  28 	b @cv379
     CB24 CB3C     
5696               cv380
5697 CB26 06A0  32 	bl @jsr
     CB28 A974     
5698 CB2A CBCA     	data cvb_DSAFE
5699 CB2C 0200  20 	li r0,1280   ; 5*256
     CB2E 0500     
5700 CB30 D800  38 	movb r0,@cvb_SFX
     CB32 20B4     
5701 CB34 0200  20 	li r0,5120   ; 20*256
     CB36 1400     
5702 CB38 D800  38 	movb r0,@cvb_SFC
     CB3A 20B1     
5703               cv379
5704               cv377
5705               	; 	NEXT d
5706 CB3C D020  34 	movb @cvb_D,r0
     CB3E 2083     
5707 CB40 0220  22 	ai r0,256	; 1
     CB42 0100     
5708 CB44 D800  38 	movb r0,@cvb_D
     CB46 2083     
5709 CB48 0201  20 	li r1,768   ; 3*256
     CB4A 0300     
5710 CB4C 9040  18 	cb r0,r1
5711 CB4E 1402  14 	jhe cv381
5712 CB50 0460  28 	b @cv376
     CB52 CAFE     
5713               cv381
5714               	; 	END
5715 CB54 C03A  30 	mov *r10+,r0
5716 CB56 0450  20 	b *r0
5717               	;
5718               	; drawgate: PROCEDURE
5719               	even
5720               cvb_DRAWGATE
5721               	; 	FOR r = 4 TO 7
5722 CB58 0200  20 	li r0,1024   ; 4*256
     CB5A 0400     
5723 CB5C D800  38 	movb r0,@cvb_R
     CB5E 2088     
5724               cv382
5725               	; 	FOR c2 = 14 TO 17 : VPOKE $1800 + r * 32 + c2, 129 : NEXT c2
5726 CB60 0200  20 	li r0,3584   ; 14*256
     CB62 0E00     
5727 CB64 D800  38 	movb r0,@cvb_C2
     CB66 20AA     
5728               cv383
5729 CB68 0200  20 	li r0,33024   ; 129*256
     CB6A 8100     
5730 CB6C 064A  14 	dect r10
5731 CB6E C680  30 	mov r0,*r10
5732 CB70 D020  34 	movb @cvb_C2,r0
     CB72 20AA     
5733 CB74 0980  32 	srl r0,8
5734 CB76 C040  18 	mov r0,r1
5735 CB78 D020  34 	movb @cvb_R,r0
     CB7A 2088     
5736 CB7C 0980  32 	srl r0,8
5737 CB7E 0A50  26 	sla r0,5
5738 CB80 0220  22 	ai r0,6144
     CB82 1800     
5739 CB84 A001  18 	a r1,r0
5740 CB86 C0BA  30 	mov *r10+,r2
5741 CB88 0300  22 	limi 0
     CB8A 0000     
5742 CB8C 06A0  32 	bl @JSR
     CB8E A974     
5743 CB90 A018     	data WRTVRM
5744 CB92 0300  22 	limi 2
     CB94 0002     
5745 CB96 D020  34 	movb @cvb_C2,r0
     CB98 20AA     
5746 CB9A 0220  22 	ai r0,256	; 1
     CB9C 0100     
5747 CB9E D800  38 	movb r0,@cvb_C2
     CBA0 20AA     
5748 CBA2 0201  20 	li r1,4608   ; 18*256
     CBA4 1200     
5749 CBA6 9040  18 	cb r0,r1
5750 CBA8 1402  14 	jhe cv384
5751 CBAA 0460  28 	b @cv383
     CBAC CB68     
5752               cv384
5753               	; 	NEXT r
5754 CBAE D020  34 	movb @cvb_R,r0
     CBB0 2088     
5755 CBB2 0220  22 	ai r0,256	; 1
     CBB4 0100     
5756 CBB6 D800  38 	movb r0,@cvb_R
     CBB8 2088     
5757 CBBA 0201  20 	li r1,2048   ; 8*256
     CBBC 0800     
5758 CBBE 9040  18 	cb r0,r1
5759 CBC0 1402  14 	jhe cv385
5760 CBC2 0460  28 	b @cv382
     CBC4 CB60     
5761               cv385
5762               	; 	END
5763 CBC6 C03A  30 	mov *r10+,r0
5764 CBC8 0450  20 	b *r0
5765               	;
5766               	; dsafe: PROCEDURE
5767               	even
5768               cvb_DSAFE
5769               	; 	' never let a dragon camp the doorway you enter through
5770               	; 	#ax = ddx(d) : #bx = px
5771 CBCA D020  34 	movb @cvb_D,r0
     CBCC 2083     
5772 CBCE 0980  32 	srl r0,8
5773 CBD0 0220  22 	ai r0,array_DDX
     CBD2 2106     
5774 CBD4 D010  26 	movb *r0,r0
5775 CBD6 0980  32 	srl r0,8
5776 CBD8 C800  38 	mov r0,@cvb__AX
     CBDA 209E     
5777 CBDC D020  34 	movb @cvb_PX,r0
     CBDE 20B2     
5778 CBE0 0980  32 	srl r0,8
5779 CBE2 C800  38 	mov r0,@cvb__BX
     CBE4 20A0     
5780               	; 	GOSUB adiff
5781 CBE6 06A0  32 	bl @jsr
     CBE8 A974     
5782 CBEA BBD2     	data cvb_ADIFF
5783               	; 	IF #cx > 40 THEN RETURN
5784 CBEC C020  34 	mov @cvb__CX,r0
     CBEE 20A2     
5785 CBF0 0201  20 	li r1,41
     CBF2 0029     
5786 CBF4 8040  18 	c r0,r1
5787 CBF6 1402  14 	jhe cv387
5788 CBF8 0460  28 	b @cv386
     CBFA CC00     
5789               cv387
5790 CBFC C03A  30 	mov *r10+,r0
5791 CBFE 0450  20 	b *r0
5792               cv386
5793               	; 	#ax = ddy(d) : #bx = py
5794 CC00 D020  34 	movb @cvb_D,r0
     CC02 2083     
5795 CC04 0980  32 	srl r0,8
5796 CC06 0220  22 	ai r0,array_DDY
     CC08 210A     
5797 CC0A D010  26 	movb *r0,r0
5798 CC0C 0980  32 	srl r0,8
5799 CC0E C800  38 	mov r0,@cvb__AX
     CC10 209E     
5800 CC12 D020  34 	movb @cvb_PY,r0
     CC14 20B3     
5801 CC16 0980  32 	srl r0,8
5802 CC18 C800  38 	mov r0,@cvb__BX
     CC1A 20A0     
5803               	; 	GOSUB adiff
5804 CC1C 06A0  32 	bl @jsr
     CC1E A974     
5805 CC20 BBD2     	data cvb_ADIFF
5806               	; 	IF #cx > 40 THEN RETURN
5807 CC22 C020  34 	mov @cvb__CX,r0
     CC24 20A2     
5808 CC26 0201  20 	li r1,41
     CC28 0029     
5809 CC2A 8040  18 	c r0,r1
5810 CC2C 1402  14 	jhe cv389
5811 CC2E 0460  28 	b @cv388
     CC30 CC36     
5812               cv389
5813 CC32 C03A  30 	mov *r10+,r0
5814 CC34 0450  20 	b *r0
5815               cv388
5816               	; 	ddx(d) = 108 : ddy(d) = 72
5817 CC36 0201  20 	li r1,27648
     CC38 6C00     
5818 CC3A D020  34 	movb @cvb_D,r0
     CC3C 2083     
5819 CC3E 0980  32 	srl r0,8
5820 CC40 0220  22 	ai r0,array_DDX
     CC42 2106     
5821 CC44 D401  30 	movb r1,*r0
5822 CC46 0201  20 	li r1,18432
     CC48 4800     
5823 CC4A D020  34 	movb @cvb_D,r0
     CC4C 2083     
5824 CC4E 0980  32 	srl r0,8
5825 CC50 0220  22 	ai r0,array_DDY
     CC52 210A     
5826 CC54 D401  30 	movb r1,*r0
5827               	; 	END
5828 CC56 C03A  30 	mov *r10+,r0
5829 CC58 0450  20 	b *r0
5830               	;
5831               	; 	' ------------------------------------------------------------
5832               	; 	' one-channel sound effect driver (1=pickup 2=drop 3=gate
5833               	; 	' 4=slay-noise 5=dragon roar 6=bat squeak); swallow/win inline
5834               	; 	' ------------------------------------------------------------
5835               	; dosfx: PROCEDURE
5836               	even
5837               cvb_DOSFX
5838               	; 	IF sfx = 0 THEN RETURN
5839 CC5A D020  34 	movb @cvb_SFX,r0
     CC5C 20B4     
5840 CC5E 1302  14 	jeq cv391
5841 CC60 0460  28 	b @cv390
     CC62 CC68     
5842               cv391
5843 CC64 C03A  30 	mov *r10+,r0
5844 CC66 0450  20 	b *r0
5845               cv390
5846               	; 	IF sfx = 1 THEN SOUND 0, 90, 12
5847 CC68 D020  34 	movb @cvb_SFX,r0
     CC6A 20B4     
5848 CC6C 0201  20 	li r1,256   ; 1*256
     CC6E 0100     
5849 CC70 9001  18 	cb r1,r0
5850 CC72 1302  14 	jeq cv393
5851 CC74 0460  28 	b @cv392
     CC76 CC94     
5852               cv393
5853 CC78 0200  20 	li r0,90
     CC7A 005A     
5854 CC7C 0202  20 	li r2,>8000
     CC7E 8000     
5855 CC80 06A0  32 	bl @jsr
     CC82 A974     
5856 CC84 A2BA     	data sn76489_freq
5857 CC86 0200  20 	li r0,3072   ; 12*256
     CC88 0C00     
5858 CC8A 0202  20 	li r2,>9000
     CC8C 9000     
5859 CC8E 06A0  32 	bl @jsr
     CC90 A974     
5860 CC92 A2D6     	data sn76489_vol
5861               cv392
5862               	; 	IF sfx = 2 THEN SOUND 0, 320, 10
5863 CC94 D020  34 	movb @cvb_SFX,r0
     CC96 20B4     
5864 CC98 0201  20 	li r1,512   ; 2*256
     CC9A 0200     
5865 CC9C 9001  18 	cb r1,r0
5866 CC9E 1302  14 	jeq cv395
5867 CCA0 0460  28 	b @cv394
     CCA2 CCC0     
5868               cv395
5869 CCA4 0200  20 	li r0,320
     CCA6 0140     
5870 CCA8 0202  20 	li r2,>8000
     CCAA 8000     
5871 CCAC 06A0  32 	bl @jsr
     CCAE A974     
5872 CCB0 A2BA     	data sn76489_freq
5873 CCB2 0200  20 	li r0,2560   ; 10*256
     CCB4 0A00     
5874 CCB6 0202  20 	li r2,>9000
     CCB8 9000     
5875 CCBA 06A0  32 	bl @jsr
     CCBC A974     
5876 CCBE A2D6     	data sn76489_vol
5877               cv394
5878               	; 	IF sfx = 3 THEN SOUND 0, #sfq, 11 : #sfq = #sfq - 25
5879 CCC0 D020  34 	movb @cvb_SFX,r0
     CCC2 20B4     
5880 CCC4 0201  20 	li r1,768   ; 3*256
     CCC6 0300     
5881 CCC8 9001  18 	cb r1,r0
5882 CCCA 1302  14 	jeq cv397
5883 CCCC 0460  28 	b @cv396
     CCCE CCF8     
5884               cv397
5885 CCD0 C020  34 	mov @cvb__SFQ,r0
     CCD2 208C     
5886 CCD4 0202  20 	li r2,>8000
     CCD6 8000     
5887 CCD8 06A0  32 	bl @jsr
     CCDA A974     
5888 CCDC A2BA     	data sn76489_freq
5889 CCDE 0200  20 	li r0,2816   ; 11*256
     CCE0 0B00     
5890 CCE2 0202  20 	li r2,>9000
     CCE4 9000     
5891 CCE6 06A0  32 	bl @jsr
     CCE8 A974     
5892 CCEA A2D6     	data sn76489_vol
5893 CCEC C020  34 	mov @cvb__SFQ,r0
     CCEE 208C     
5894 CCF0 0220  22 	ai r0,-25
     CCF2 FFE7     
5895 CCF4 C800  38 	mov r0,@cvb__SFQ
     CCF6 208C     
5896               cv396
5897               	; 	IF sfx = 4 THEN SOUND 3, 5, sfc
5898 CCF8 D020  34 	movb @cvb_SFX,r0
     CCFA 20B4     
5899 CCFC 0201  20 	li r1,1024   ; 4*256
     CCFE 0400     
5900 CD00 9001  18 	cb r1,r0
5901 CD02 1302  14 	jeq cv399
5902 CD04 0460  28 	b @cv398
     CD06 CD20     
5903               cv399
5904 CD08 0200  20 	li r0,1280   ; 5*256
     CD0A 0500     
5905 CD0C 06A0  32 	bl @jsr
     CD0E A974     
5906 CD10 A2E4     	data sn76489_control
5907 CD12 D020  34 	movb @cvb_SFC,r0
     CD14 20B1     
5908 CD16 0202  20 	li r2,>f000
     CD18 F000     
5909 CD1A 06A0  32 	bl @jsr
     CD1C A974     
5910 CD1E A2D6     	data sn76489_vol
5911               cv398
5912               	; 	IF sfx = 5 THEN SOUND 0, 880 + ((sfc AND 2) * 30), 10
5913 CD20 D020  34 	movb @cvb_SFX,r0
     CD22 20B4     
5914 CD24 0201  20 	li r1,1280   ; 5*256
     CD26 0500     
5915 CD28 9001  18 	cb r1,r0
5916 CD2A 1302  14 	jeq cv401
5917 CD2C 0460  28 	b @cv400
     CD2E CD62     
5918               cv401
5919 CD30 D020  34 	movb @cvb_SFC,r0
     CD32 20B1     
5920 CD34 0201  20 	li r1,512   ; 2*256
     CD36 0200     
5921 CD38 0541  14 	inv r1
5922 CD3A 5001  18 	szcb r1,r0
5923 CD3C 0980  32 	srl r0,8
5924 CD3E 0201  20 	li r1,30
     CD40 001E     
5925 CD42 3801  58 	mpy r1,r0
5926 CD44 C001  18 	mov r1,r0
5927 CD46 0220  22 	ai r0,880
     CD48 0370     
5928 CD4A 0202  20 	li r2,>8000
     CD4C 8000     
5929 CD4E 06A0  32 	bl @jsr
     CD50 A974     
5930 CD52 A2BA     	data sn76489_freq
5931 CD54 0200  20 	li r0,2560   ; 10*256
     CD56 0A00     
5932 CD58 0202  20 	li r2,>9000
     CD5A 9000     
5933 CD5C 06A0  32 	bl @jsr
     CD5E A974     
5934 CD60 A2D6     	data sn76489_vol
5935               cv400
5936               	; 	IF sfx = 6 THEN SOUND 0, 60 + ((sfc AND 2) * 6), 9
5937 CD62 D020  34 	movb @cvb_SFX,r0
     CD64 20B4     
5938 CD66 0201  20 	li r1,1536   ; 6*256
     CD68 0600     
5939 CD6A 9001  18 	cb r1,r0
5940 CD6C 1302  14 	jeq cv403
5941 CD6E 0460  28 	b @cv402
     CD70 CDA4     
5942               cv403
5943 CD72 D020  34 	movb @cvb_SFC,r0
     CD74 20B1     
5944 CD76 0201  20 	li r1,512   ; 2*256
     CD78 0200     
5945 CD7A 0541  14 	inv r1
5946 CD7C 5001  18 	szcb r1,r0
5947 CD7E 0980  32 	srl r0,8
5948 CD80 0201  20 	li r1,6
     CD82 0006     
5949 CD84 3801  58 	mpy r1,r0
5950 CD86 C001  18 	mov r1,r0
5951 CD88 0220  22 	ai r0,60
     CD8A 003C     
5952 CD8C 0202  20 	li r2,>8000
     CD8E 8000     
5953 CD90 06A0  32 	bl @jsr
     CD92 A974     
5954 CD94 A2BA     	data sn76489_freq
5955 CD96 0200  20 	li r0,2304   ; 9*256
     CD98 0900     
5956 CD9A 0202  20 	li r2,>9000
     CD9C 9000     
5957 CD9E 06A0  32 	bl @jsr
     CDA0 A974     
5958 CDA2 A2D6     	data sn76489_vol
5959               cv402
5960               	; 	sfc = sfc - 1
5961 CDA4 D020  34 	movb @cvb_SFC,r0
     CDA6 20B1     
5962 CDA8 0220  22 	ai r0,65280	; -1
     CDAA FF00     
5963 CDAC D800  38 	movb r0,@cvb_SFC
     CDAE 20B1     
5964               	; 	IF sfc = 0 THEN sfx = 0 : SOUND 0, , 0 : SOUND 3, , 0
5965 CDB0 04C1  14 	clr r1
5966 CDB2 9001  18 	cb r1,r0
5967 CDB4 1302  14 	jeq cv405
5968 CDB6 0460  28 	b @cv404
     CDB8 CDD8     
5969               cv405
5970 CDBA 04C0  14 	clr r0
5971 CDBC D800  38 	movb r0,@cvb_SFX
     CDBE 20B4     
5972 CDC0 04C0  14 	clr r0
5973 CDC2 0202  20 	li r2,>9000
     CDC4 9000     
5974 CDC6 06A0  32 	bl @jsr
     CDC8 A974     
5975 CDCA A2D6     	data sn76489_vol
5976 CDCC 04C0  14 	clr r0
5977 CDCE 0202  20 	li r2,>f000
     CDD0 F000     
5978 CDD2 06A0  32 	bl @jsr
     CDD4 A974     
5979 CDD6 A2D6     	data sn76489_vol
5980               cv404
5981               	; 	RETURN
5982 CDD8 C03A  30 	mov *r10+,r0
5983 CDDA 0450  20 	b *r0
5984               	; 	END
5985               	;
5986               	; 	' ------------------------------------------------------------
5987               	; 	' win: colour-cycling walls + fanfare, then play again
5988               	; 	' ------------------------------------------------------------
5989               	; winseq:
5990               cvb_WINSEQ
5991               	; 	FOR i = 0 TO 95
5992 CDDC 04C0  14 	clr r0
5993 CDDE D800  38 	movb r0,@cvb_I
     CDE0 2086     
5994               cv406
5995               	; 	WAIT
5996 CDE2 06A0  32 	bl @jsr
     CDE4 A974     
5997 CDE6 A64A     	data wait
5998               	; 	t = (i AND 15) * 16 + 1
5999 CDE8 D020  34 	movb @cvb_I,r0
     CDEA 2086     
6000 CDEC 0201  20 	li r1,3840   ; 15*256
     CDEE 0F00     
6001 CDF0 0541  14 	inv r1
6002 CDF2 5001  18 	szcb r1,r0
6003 CDF4 0240  22 	andi r0,>ff00
     CDF6 FF00     
6004 CDF8 0A40  24 	sla r0,4
6005 CDFA 0220  22 	ai r0,256	; 1
     CDFC 0100     
6006 CDFE D800  38 	movb r0,@cvb_T
     CE00 2089     
6007               	; 	FOR r = 0 TO 7
6008 CE02 04C0  14 	clr r0
6009 CE04 D800  38 	movb r0,@cvb_R
     CE06 2088     
6010               cv407
6011               	; 	VPOKE $2400 + r, t : VPOKE $2C00 + r, t : VPOKE $3400 + r, t
6012 CE08 D020  34 	movb @cvb_T,r0
     CE0A 2089     
6013 CE0C 064A  14 	dect r10
6014 CE0E C680  30 	mov r0,*r10
6015 CE10 D020  34 	movb @cvb_R,r0
     CE12 2088     
6016 CE14 0980  32 	srl r0,8
6017 CE16 0220  22 	ai r0,9216
     CE18 2400     
6018 CE1A C0BA  30 	mov *r10+,r2
6019 CE1C 0300  22 	limi 0
     CE1E 0000     
6020 CE20 06A0  32 	bl @JSR
     CE22 A974     
6021 CE24 A018     	data WRTVRM
6022 CE26 0300  22 	limi 2
     CE28 0002     
6023 CE2A D020  34 	movb @cvb_T,r0
     CE2C 2089     
6024 CE2E 064A  14 	dect r10
6025 CE30 C680  30 	mov r0,*r10
6026 CE32 D020  34 	movb @cvb_R,r0
     CE34 2088     
6027 CE36 0980  32 	srl r0,8
6028 CE38 0220  22 	ai r0,11264
     CE3A 2C00     
6029 CE3C C0BA  30 	mov *r10+,r2
6030 CE3E 0300  22 	limi 0
     CE40 0000     
6031 CE42 06A0  32 	bl @JSR
     CE44 A974     
6032 CE46 A018     	data WRTVRM
6033 CE48 0300  22 	limi 2
     CE4A 0002     
6034 CE4C D020  34 	movb @cvb_T,r0
     CE4E 2089     
6035 CE50 064A  14 	dect r10
6036 CE52 C680  30 	mov r0,*r10
6037 CE54 D020  34 	movb @cvb_R,r0
     CE56 2088     
6038 CE58 0980  32 	srl r0,8
6039 CE5A 0220  22 	ai r0,13312
     CE5C 3400     
6040 CE5E C0BA  30 	mov *r10+,r2
6041 CE60 0300  22 	limi 0
     CE62 0000     
6042 CE64 06A0  32 	bl @JSR
     CE66 A974     
6043 CE68 A018     	data WRTVRM
6044 CE6A 0300  22 	limi 2
     CE6C 0002     
6045               	; 	NEXT r
6046 CE6E D020  34 	movb @cvb_R,r0
     CE70 2088     
6047 CE72 0220  22 	ai r0,256	; 1
     CE74 0100     
6048 CE76 D800  38 	movb r0,@cvb_R
     CE78 2088     
6049 CE7A 0201  20 	li r1,2048   ; 8*256
     CE7C 0800     
6050 CE7E 9040  18 	cb r0,r1
6051 CE80 1402  14 	jhe cv408
6052 CE82 0460  28 	b @cv407
     CE84 CE08     
6053               cv408
6054               	; 	t = i AND 3
6055 CE86 D020  34 	movb @cvb_I,r0
     CE88 2086     
6056 CE8A 0201  20 	li r1,768   ; 3*256
     CE8C 0300     
6057 CE8E 0541  14 	inv r1
6058 CE90 5001  18 	szcb r1,r0
6059 CE92 D800  38 	movb r0,@cvb_T
     CE94 2089     
6060               	; 	IF t = 0 THEN SOUND 0, 214, 12
6061 CE96 04C1  14 	clr r1
6062 CE98 9001  18 	cb r1,r0
6063 CE9A 1302  14 	jeq cv410
6064 CE9C 0460  28 	b @cv409
     CE9E CEBC     
6065               cv410
6066 CEA0 0200  20 	li r0,214
     CEA2 00D6     
6067 CEA4 0202  20 	li r2,>8000
     CEA6 8000     
6068 CEA8 06A0  32 	bl @jsr
     CEAA A974     
6069 CEAC A2BA     	data sn76489_freq
6070 CEAE 0200  20 	li r0,3072   ; 12*256
     CEB0 0C00     
6071 CEB2 0202  20 	li r2,>9000
     CEB4 9000     
6072 CEB6 06A0  32 	bl @jsr
     CEB8 A974     
6073 CEBA A2D6     	data sn76489_vol
6074               cv409
6075               	; 	IF t = 1 THEN SOUND 0, 170, 12
6076 CEBC D020  34 	movb @cvb_T,r0
     CEBE 2089     
6077 CEC0 0201  20 	li r1,256   ; 1*256
     CEC2 0100     
6078 CEC4 9001  18 	cb r1,r0
6079 CEC6 1302  14 	jeq cv412
6080 CEC8 0460  28 	b @cv411
     CECA CEE8     
6081               cv412
6082 CECC 0200  20 	li r0,170
     CECE 00AA     
6083 CED0 0202  20 	li r2,>8000
     CED2 8000     
6084 CED4 06A0  32 	bl @jsr
     CED6 A974     
6085 CED8 A2BA     	data sn76489_freq
6086 CEDA 0200  20 	li r0,3072   ; 12*256
     CEDC 0C00     
6087 CEDE 0202  20 	li r2,>9000
     CEE0 9000     
6088 CEE2 06A0  32 	bl @jsr
     CEE4 A974     
6089 CEE6 A2D6     	data sn76489_vol
6090               cv411
6091               	; 	IF t = 2 THEN SOUND 0, 143, 12
6092 CEE8 D020  34 	movb @cvb_T,r0
     CEEA 2089     
6093 CEEC 0201  20 	li r1,512   ; 2*256
     CEEE 0200     
6094 CEF0 9001  18 	cb r1,r0
6095 CEF2 1302  14 	jeq cv414
6096 CEF4 0460  28 	b @cv413
     CEF6 CF14     
6097               cv414
6098 CEF8 0200  20 	li r0,143
     CEFA 008F     
6099 CEFC 0202  20 	li r2,>8000
     CEFE 8000     
6100 CF00 06A0  32 	bl @jsr
     CF02 A974     
6101 CF04 A2BA     	data sn76489_freq
6102 CF06 0200  20 	li r0,3072   ; 12*256
     CF08 0C00     
6103 CF0A 0202  20 	li r2,>9000
     CF0C 9000     
6104 CF0E 06A0  32 	bl @jsr
     CF10 A974     
6105 CF12 A2D6     	data sn76489_vol
6106               cv413
6107               	; 	IF t = 3 THEN SOUND 0, 107, 12
6108 CF14 D020  34 	movb @cvb_T,r0
     CF16 2089     
6109 CF18 0201  20 	li r1,768   ; 3*256
     CF1A 0300     
6110 CF1C 9001  18 	cb r1,r0
6111 CF1E 1302  14 	jeq cv416
6112 CF20 0460  28 	b @cv415
     CF22 CF40     
6113               cv416
6114 CF24 0200  20 	li r0,107
     CF26 006B     
6115 CF28 0202  20 	li r2,>8000
     CF2A 8000     
6116 CF2C 06A0  32 	bl @jsr
     CF2E A974     
6117 CF30 A2BA     	data sn76489_freq
6118 CF32 0200  20 	li r0,3072   ; 12*256
     CF34 0C00     
6119 CF36 0202  20 	li r2,>9000
     CF38 9000     
6120 CF3A 06A0  32 	bl @jsr
     CF3C A974     
6121 CF3E A2D6     	data sn76489_vol
6122               cv415
6123               	; 	NEXT i
6124 CF40 D020  34 	movb @cvb_I,r0
     CF42 2086     
6125 CF44 0220  22 	ai r0,256	; 1
     CF46 0100     
6126 CF48 D800  38 	movb r0,@cvb_I
     CF4A 2086     
6127 CF4C 0201  20 	li r1,24576   ; 96*256
     CF4E 6000     
6128 CF50 9040  18 	cb r0,r1
6129 CF52 1402  14 	jhe cv417
6130 CF54 0460  28 	b @cv406
     CF56 CDE2     
6131               cv417
6132               	; 	SOUND 0, , 0
6133 CF58 04C0  14 	clr r0
6134 CF5A 0202  20 	li r2,>9000
     CF5C 9000     
6135 CF5E 06A0  32 	bl @jsr
     CF60 A974     
6136 CF62 A2D6     	data sn76489_vol
6137               	; 	PRINT AT 32 * 13 + 10, "THE CHALICE"
6138 CF64 0200  20 	li r0,426
     CF66 01AA     
6139 CF68 C800  30 	mov r0,@cursor
     CF6A 8342     
6140 CF6C 0202  20 	li r2,cv418
     CF6E CF7E     
6141 CF70 0203  20 	li r3,11
     CF72 000B     
6142 CF74 06A0  32 	bl @jsr
     CF76 A974     
6143 CF78 A11C     	data print_string
6144 CF7A 0460  28 	b @cv419
     CF7C CF8A     
6145               cv418
6146 CF7E 5448     	byte >54,>48,>45,>20,>43,>48,>41,>4c
     CF80 4520     
     CF82 4348     
     CF84 414C     
6147 CF86 4943     	byte >49,>43,>45
     CF88 45       
6148               	even
6149               cv419
6150               	; 	PRINT AT 32 * 14 + 10, "  IS HOME! "
6151 CF8A 0200  20 	li r0,458
     CF8C 01CA     
6152 CF8E C800  30 	mov r0,@cursor
     CF90 8342     
6153 CF92 0202  20 	li r2,cv420
     CF94 CFA4     
6154 CF96 0203  20 	li r3,11
     CF98 000B     
6155 CF9A 06A0  32 	bl @jsr
     CF9C A974     
6156 CF9E A11C     	data print_string
6157 CFA0 0460  28 	b @cv421
     CFA2 CFB0     
6158               cv420
6159 CFA4 2020     	byte >20,>20,>49,>53,>20,>48,>4f,>4d
     CFA6 4953     
     CFA8 2048     
     CFAA 4F4D     
6160 CFAC 4521     	byte >45,>21,>20
     CFAE 20       
6161               	even
6162               cv421
6163               	; 	PRINT AT 32 * 16 + 7, "PRESS FIRE TO PLAY"
6164 CFB0 0200  20 	li r0,519
     CFB2 0207     
6165 CFB4 C800  30 	mov r0,@cursor
     CFB6 8342     
6166 CFB8 0202  20 	li r2,cv422
     CFBA CFCA     
6167 CFBC 0203  20 	li r3,18
     CFBE 0012     
6168 CFC0 06A0  32 	bl @jsr
     CFC2 A974     
6169 CFC4 A11C     	data print_string
6170 CFC6 0460  28 	b @cv423
     CFC8 CFDC     
6171               cv422
6172 CFCA 5052     	byte >50,>52,>45,>53,>53,>20,>46,>49
     CFCC 4553     
     CFCE 5320     
     CFD0 4649     
6173 CFD2 5245     	byte >52,>45,>20,>54,>4f,>20,>50,>4c
     CFD4 2054     
     CFD6 4F20     
     CFD8 504C     
6174 CFDA 4159     	byte >41,>59
6175               	even
6176               cv423
6177               	; ww1:	WAIT : IF cont1.button > 0 THEN GOTO ww1
6178               cvb_WW1
6179 CFDC 06A0  32 	bl @jsr
     CFDE A974     
6180 CFE0 A64A     	data wait
6181 CFE2 D020  30 	movb @joy1_data,r0
     CFE4 8346     
6182 CFE6 0201  20 	li r1,16384   ; 64*256
     CFE8 4000     
6183 CFEA 0541  14 	inv r1
6184 CFEC 5001  18 	szcb r1,r0
6185 CFEE 0201  20 	li r1,256   ; 1*256
     CFF0 0100     
6186 CFF2 9040  18 	cb r0,r1
6187 CFF4 1402  14 	jhe cv425
6188 CFF6 0460  28 	b @cv424
     CFF8 CFFE     
6189               cv425
6190 CFFA 0460  28 	b @cvb_WW1
     CFFC CFDC     
6191               cv424
6192               	; ww2:	WAIT : IF cont1.button = 0 THEN GOTO ww2
6193               cvb_WW2
6194 CFFE 06A0  32 	bl @jsr
     D000 A974     
6195 D002 A64A     	data wait
6196 D004 D020  30 	movb @joy1_data,r0
     D006 8346     
6197 D008 0201  20 	li r1,16384   ; 64*256
     D00A 4000     
6198 D00C 0541  14 	inv r1
6199 D00E 5001  18 	szcb r1,r0
6200 D010 04C1  14 	clr r1
6201 D012 9001  18 	cb r1,r0
6202 D014 1302  14 	jeq cv427
6203 D016 0460  28 	b @cv426
     D018 D01E     
6204               cv427
6205 D01A 0460  28 	b @cvb_WW2
     D01C CFFE     
6206               cv426
6207               	; 	GOTO newgame
6208 D01E 0460  28 	b @cvb_NEWGAME
     D020 AB88     
6209               	;
6210               	; 	' ------------------------------------------------------------
6211               	; 	' title
6212               	; 	' ------------------------------------------------------------
6213               	; title: PROCEDURE
6214               	even
6215               cvb_TITLE
6216               	; 	CLS
6217 D022 06A0  32 	bl @jsr
     D024 A974     
6218 D026 A0FC     	data cls
6219               	; 	t = 11 * 16 + 1
6220 D028 0200  20 	li r0,45312   ; 177*256
     D02A B100     
6221 D02C D800  38 	movb r0,@cvb_T
     D02E 2089     
6222               	; 	FOR i = 0 TO 7
6223 D030 04C0  14 	clr r0
6224 D032 D800  38 	movb r0,@cvb_I
     D034 2086     
6225               cv428
6226               	; 	VPOKE $2400 + i, t : VPOKE $2C00 + i, t : VPOKE $3400 + i, t
6227 D036 D020  34 	movb @cvb_T,r0
     D038 2089     
6228 D03A 064A  14 	dect r10
6229 D03C C680  30 	mov r0,*r10
6230 D03E D020  34 	movb @cvb_I,r0
     D040 2086     
6231 D042 0980  32 	srl r0,8
6232 D044 0220  22 	ai r0,9216
     D046 2400     
6233 D048 C0BA  30 	mov *r10+,r2
6234 D04A 0300  22 	limi 0
     D04C 0000     
6235 D04E 06A0  32 	bl @JSR
     D050 A974     
6236 D052 A018     	data WRTVRM
6237 D054 0300  22 	limi 2
     D056 0002     
6238 D058 D020  34 	movb @cvb_T,r0
     D05A 2089     
6239 D05C 064A  14 	dect r10
6240 D05E C680  30 	mov r0,*r10
6241 D060 D020  34 	movb @cvb_I,r0
     D062 2086     
6242 D064 0980  32 	srl r0,8
6243 D066 0220  22 	ai r0,11264
     D068 2C00     
6244 D06A C0BA  30 	mov *r10+,r2
6245 D06C 0300  22 	limi 0
     D06E 0000     
6246 D070 06A0  32 	bl @JSR
     D072 A974     
6247 D074 A018     	data WRTVRM
6248 D076 0300  22 	limi 2
     D078 0002     
6249 D07A D020  34 	movb @cvb_T,r0
     D07C 2089     
6250 D07E 064A  14 	dect r10
6251 D080 C680  30 	mov r0,*r10
6252 D082 D020  34 	movb @cvb_I,r0
     D084 2086     
6253 D086 0980  32 	srl r0,8
6254 D088 0220  22 	ai r0,13312
     D08A 3400     
6255 D08C C0BA  30 	mov *r10+,r2
6256 D08E 0300  22 	limi 0
     D090 0000     
6257 D092 06A0  32 	bl @JSR
     D094 A974     
6258 D096 A018     	data WRTVRM
6259 D098 0300  22 	limi 2
     D09A 0002     
6260               	; 	NEXT i
6261 D09C D020  34 	movb @cvb_I,r0
     D09E 2086     
6262 D0A0 0220  22 	ai r0,256	; 1
     D0A2 0100     
6263 D0A4 D800  38 	movb r0,@cvb_I
     D0A6 2086     
6264 D0A8 0201  20 	li r1,2048   ; 8*256
     D0AA 0800     
6265 D0AC 9040  18 	cb r0,r1
6266 D0AE 1402  14 	jhe cv429
6267 D0B0 0460  28 	b @cv428
     D0B2 D036     
6268               cv429
6269               	; 	PRINT AT 32 * 3 + 7, "A D V E N T I R E"
6270 D0B4 0200  20 	li r0,103
     D0B6 0067     
6271 D0B8 C800  30 	mov r0,@cursor
     D0BA 8342     
6272 D0BC 0202  20 	li r2,cv430
     D0BE D0CE     
6273 D0C0 0203  20 	li r3,17
     D0C2 0011     
6274 D0C4 06A0  32 	bl @jsr
     D0C6 A974     
6275 D0C8 A11C     	data print_string
6276 D0CA 0460  28 	b @cv431
     D0CC D0E0     
6277               cv430
6278 D0CE 4120     	byte >41,>20,>44,>20,>56,>20,>45,>20
     D0D0 4420     
     D0D2 5620     
     D0D4 4520     
6279 D0D6 4E20     	byte >4e,>20,>54,>20,>49,>20,>52,>20
     D0D8 5420     
     D0DA 4920     
     D0DC 5220     
6280 D0DE 45       	byte >45
6281               	even
6282               cv431
6283               	; 	PRINT AT 32 * 7 + 10, "\128\128 \128\128 \128\128 \128\128"
6284 D0E0 0200  20 	li r0,234
     D0E2 00EA     
6285 D0E4 C800  30 	mov r0,@cursor
     D0E6 8342     
6286 D0E8 0202  20 	li r2,cv432
     D0EA D0FA     
6287 D0EC 0203  20 	li r3,11
     D0EE 000B     
6288 D0F0 06A0  32 	bl @jsr
     D0F2 A974     
6289 D0F4 A11C     	data print_string
6290 D0F6 0460  28 	b @cv433
     D0F8 D106     
6291               cv432
6292 D0FA 8080     	byte >80,>80,>20,>80,>80,>20,>80,>80
     D0FC 2080     
     D0FE 8020     
     D100 8080     
6293 D102 2080     	byte >20,>80,>80
     D104 80       
6294               	even
6295               cv433
6296               	; 	PRINT AT 32 * 8 + 10, "\128\128\128\128\128\128\128\128\128\128\128"
6297 D106 0200  20 	li r0,266
     D108 010A     
6298 D10A C800  30 	mov r0,@cursor
     D10C 8342     
6299 D10E 0202  20 	li r2,cv434
     D110 D120     
6300 D112 0203  20 	li r3,11
     D114 000B     
6301 D116 06A0  32 	bl @jsr
     D118 A974     
6302 D11A A11C     	data print_string
6303 D11C 0460  28 	b @cv435
     D11E D12C     
6304               cv434
6305 D120 8080     	byte >80,>80,>80,>80,>80,>80,>80,>80
     D122 8080     
     D124 8080     
     D126 8080     
6306 D128 8080     	byte >80,>80,>80
     D12A 80       
6307               	even
6308               cv435
6309               	; 	PRINT AT 32 * 9 + 10, "\128\128\128\128\128\128\128\128\128\128\128"
6310 D12C 0200  20 	li r0,298
     D12E 012A     
6311 D130 C800  30 	mov r0,@cursor
     D132 8342     
6312 D134 0202  20 	li r2,cv436
     D136 D146     
6313 D138 0203  20 	li r3,11
     D13A 000B     
6314 D13C 06A0  32 	bl @jsr
     D13E A974     
6315 D140 A11C     	data print_string
6316 D142 0460  28 	b @cv437
     D144 D152     
6317               cv436
6318 D146 8080     	byte >80,>80,>80,>80,>80,>80,>80,>80
     D148 8080     
     D14A 8080     
     D14C 8080     
6319 D14E 8080     	byte >80,>80,>80
     D150 80       
6320               	even
6321               cv437
6322               	; 	PRINT AT 32 * 10 + 10, "\128\128\128\128\129\129\129\128\128\128\128"
6323 D152 0200  20 	li r0,330
     D154 014A     
6324 D156 C800  30 	mov r0,@cursor
     D158 8342     
6325 D15A 0202  20 	li r2,cv438
     D15C D16C     
6326 D15E 0203  20 	li r3,11
     D160 000B     
6327 D162 06A0  32 	bl @jsr
     D164 A974     
6328 D166 A11C     	data print_string
6329 D168 0460  28 	b @cv439
     D16A D178     
6330               cv438
6331 D16C 8080     	byte >80,>80,>80,>80,>81,>81,>81,>80
     D16E 8080     
     D170 8181     
     D172 8180     
6332 D174 8080     	byte >80,>80,>80
     D176 80       
6333               	even
6334               cv439
6335               	; 	PRINT AT 32 * 11 + 10, "\128\128\128\128\129\129\129\128\128\128\128"
6336 D178 0200  20 	li r0,362
     D17A 016A     
6337 D17C C800  30 	mov r0,@cursor
     D17E 8342     
6338 D180 0202  20 	li r2,cv440
     D182 D192     
6339 D184 0203  20 	li r3,11
     D186 000B     
6340 D188 06A0  32 	bl @jsr
     D18A A974     
6341 D18C A11C     	data print_string
6342 D18E 0460  28 	b @cv441
     D190 D19E     
6343               cv440
6344 D192 8080     	byte >80,>80,>80,>80,>81,>81,>81,>80
     D194 8080     
     D196 8181     
     D198 8180     
6345 D19A 8080     	byte >80,>80,>80
     D19C 80       
6346               	even
6347               cv441
6348               	; 	PRINT AT 32 * 14 + 5, "THREE CASTLES. THREE"
6349 D19E 0200  20 	li r0,453
     D1A0 01C5     
6350 D1A2 C800  30 	mov r0,@cursor
     D1A4 8342     
6351 D1A6 0202  20 	li r2,cv442
     D1A8 D1B8     
6352 D1AA 0203  20 	li r3,20
     D1AC 0014     
6353 D1AE 06A0  32 	bl @jsr
     D1B0 A974     
6354 D1B2 A11C     	data print_string
6355 D1B4 0460  28 	b @cv443
     D1B6 D1CC     
6356               cv442
6357 D1B8 5448     	byte >54,>48,>52,>45,>45,>20,>43,>41
     D1BA 5245     
     D1BC 4520     
     D1BE 4341     
6358 D1C0 5354     	byte >53,>54,>4c,>45,>53,>2e,>20,>54
     D1C2 4C45     
     D1C4 532E     
     D1C6 2054     
6359 D1C8 4852     	byte >48,>52,>45,>45
     D1CA 4545     
6360               	even
6361               cv443
6362               	; 	PRINT AT 32 * 15 + 5, "DRAGONS. ONE CHALICE."
6363 D1CC 0200  20 	li r0,485
     D1CE 01E5     
6364 D1D0 C800  30 	mov r0,@cursor
     D1D2 8342     
6365 D1D4 0202  20 	li r2,cv444
     D1D6 D1E6     
6366 D1D8 0203  20 	li r3,21
     D1DA 0015     
6367 D1DC 06A0  32 	bl @jsr
     D1DE A974     
6368 D1E0 A11C     	data print_string
6369 D1E2 0460  28 	b @cv445
     D1E4 D1FC     
6370               cv444
6371 D1E6 4452     	byte >44,>52,>41,>47,>4f,>4e,>53,>2e
     D1E8 4147     
     D1EA 4F4E     
     D1EC 532E     
6372 D1EE 204F     	byte >20,>4f,>4e,>45,>20,>43,>48,>41
     D1F0 4E45     
     D1F2 2043     
     D1F4 4841     
6373 D1F6 4C49     	byte >4c,>49,>43,>45,>2e
     D1F8 4345     
     D1FA 2E       
6374               	even
6375               cv445
6376               	; 	PRINT AT 32 * 17 + 5, "AND MIND THE BAT."
6377 D1FC 0200  20 	li r0,549
     D1FE 0225     
6378 D200 C800  30 	mov r0,@cursor
     D202 8342     
6379 D204 0202  20 	li r2,cv446
     D206 D216     
6380 D208 0203  20 	li r3,17
     D20A 0011     
6381 D20C 06A0  32 	bl @jsr
     D20E A974     
6382 D210 A11C     	data print_string
6383 D212 0460  28 	b @cv447
     D214 D228     
6384               cv446
6385 D216 414E     	byte >41,>4e,>44,>20,>4d,>49,>4e,>44
     D218 4420     
     D21A 4D49     
     D21C 4E44     
6386 D21E 2054     	byte >20,>54,>48,>45,>20,>42,>41,>54
     D220 4845     
     D222 2042     
     D224 4154     
6387 D226 2E       	byte >2e
6388               	even
6389               cv447
6390               	; 	PRINT AT 32 * 20 + 6, "PRESS FIRE TO START"
6391 D228 0200  20 	li r0,646
     D22A 0286     
6392 D22C C800  30 	mov r0,@cursor
     D22E 8342     
6393 D230 0202  20 	li r2,cv448
     D232 D242     
6394 D234 0203  20 	li r3,19
     D236 0013     
6395 D238 06A0  32 	bl @jsr
     D23A A974     
6396 D23C A11C     	data print_string
6397 D23E 0460  28 	b @cv449
     D240 D256     
6398               cv448
6399 D242 5052     	byte >50,>52,>45,>53,>53,>20,>46,>49
     D244 4553     
     D246 5320     
     D248 4649     
6400 D24A 5245     	byte >52,>45,>20,>54,>4f,>20,>53,>54
     D24C 2054     
     D24E 4F20     
     D250 5354     
6401 D252 4152     	byte >41,>52,>54
     D254 54       
6402               	even
6403               cv449
6404               	; tw1:	WAIT : IF cont1.button > 0 THEN GOTO tw1
6405               cvb_TW1
6406 D256 06A0  32 	bl @jsr
     D258 A974     
6407 D25A A64A     	data wait
6408 D25C D020  30 	movb @joy1_data,r0
     D25E 8346     
6409 D260 0201  20 	li r1,16384   ; 64*256
     D262 4000     
6410 D264 0541  14 	inv r1
6411 D266 5001  18 	szcb r1,r0
6412 D268 0201  20 	li r1,256   ; 1*256
     D26A 0100     
6413 D26C 9040  18 	cb r0,r1
6414 D26E 1402  14 	jhe cv451
6415 D270 0460  28 	b @cv450
     D272 D278     
6416               cv451
6417 D274 0460  28 	b @cvb_TW1
     D276 D256     
6418               cv450
6419               	; tw2:	WAIT : IF cont1.button = 0 THEN GOTO tw2
6420               cvb_TW2
6421 D278 06A0  32 	bl @jsr
     D27A A974     
6422 D27C A64A     	data wait
6423 D27E D020  30 	movb @joy1_data,r0
     D280 8346     
6424 D282 0201  20 	li r1,16384   ; 64*256
     D284 4000     
6425 D286 0541  14 	inv r1
6426 D288 5001  18 	szcb r1,r0
6427 D28A 04C1  14 	clr r1
6428 D28C 9001  18 	cb r1,r0
6429 D28E 1302  14 	jeq cv453
6430 D290 0460  28 	b @cv452
     D292 D298     
6431               cv453
6432 D294 0460  28 	b @cvb_TW2
     D296 D278     
6433               cv452
6434               	; 	btnp = 1
6435 D298 0200  20 	li r0,256   ; 1*256
     D29A 0100     
6436 D29C D800  38 	movb r0,@cvb_BTNP
     D29E 20A9     
6437               	; 	END
6438 D2A0 C03A  30 	mov *r10+,r0
6439 D2A2 0450  20 	b *r0
6440               	;
6441               	; 	' ============================================================
6442               	; 	' DATA
6443               	; 	' ============================================================
6444               	;
6445               	; mskdat:
6446               cvb_MSKDAT
6447               	; 	DATA BYTE $80, $40, $20, $10, $08, $04, $02, $01
6448 D2A4 8040     	byte >80,>40,>20,>10,>08,>04,>02,>01
     D2A6 2010     
     D2A8 0804     
     D2AA 0201     
6449               	;
6450               	; 	' room links: N,E,S,W per room (255 = no exit that way).
6451               	; 	' Halls (2,9,12) and the dungeon (10) have NO inbound links -
6452               	; 	' they are entered only via gate warps, which the bat never
6453               	; 	' uses, so the bat can never carry loot into a locked castle.
6454               	; lnkdat:
6455               cvb_LNKDAT
6456               	; 	DATA BYTE 255, 255, 1, 255	' R0 gold castle grounds
6457 D2AC FFFF     	byte >ff,>ff,>01,>ff
     D2AE 01FF     
6458               	; 	DATA BYTE 0, 3, 4, 11		' R1 north meadow
6459 D2B0 0003     	byte >00,>03,>04,>0b
     D2B2 040B     
6460               	; 	DATA BYTE 255, 255, 0, 255	' R2 gold castle hall (S special)
6461 D2B4 FFFF     	byte >ff,>ff,>00,>ff
     D2B6 00FF     
6462               	; 	DATA BYTE 255, 5, 255, 1	' R3 red corridor
6463 D2B8 FF05     	byte >ff,>05,>ff,>01
     D2BA FF01     
6464               	; 	DATA BYTE 1, 6, 255, 255	' R4 south meadow
6465 D2BC 0106     	byte >01,>06,>ff,>ff
     D2BE FFFF     
6466               	; 	DATA BYTE 255, 255, 7, 3	' R5 blue maze north
6467 D2C0 FFFF     	byte >ff,>ff,>07,>03
     D2C2 0703     
6468               	; 	DATA BYTE 255, 7, 255, 4	' R6 purple cave (sealed chamber)
6469 D2C4 FF07     	byte >ff,>07,>ff,>04
     D2C6 FF04     
6470               	; 	DATA BYTE 5, 8, 255, 6		' R7 blue maze south
6471 D2C8 0508     	byte >05,>08,>ff,>06
     D2CA FF06     
6472               	; 	DATA BYTE 255, 255, 255, 7	' R8 black castle grounds
6473 D2CC FFFF     	byte >ff,>ff,>ff,>07
     D2CE FF07     
6474               	; 	DATA BYTE 255, 10, 8, 255	' R9 black castle hall (S special)
6475 D2D0 FF0A     	byte >ff,>0a,>08,>ff
     D2D2 08FF     
6476               	; 	DATA BYTE 255, 255, 255, 9	' R10 dungeon
6477 D2D4 FFFF     	byte >ff,>ff,>ff,>09
     D2D6 FF09     
6478               	; 	DATA BYTE 255, 1, 255, 255	' R11 white castle grounds
6479 D2D8 FF01     	byte >ff,>01,>ff,>ff
     D2DA FFFF     
6480               	; 	DATA BYTE 255, 255, 11, 255	' R12 white castle hall (S special)
6481 D2DC FFFF     	byte >ff,>ff,>0b,>ff
     D2DE 0BFF     
6482               	;
6483               	; 	' wall colour per room (VDP colour 0-15)
6484               	; coldat:
6485               cvb_COLDAT
6486               	; 	DATA BYTE 11, 2, 10, 8, 3, 5, 13, 4, 14, 14, 6, 15, 15
6487 D2E0 0B02     	byte >0b,>02,>0a,>08,>03,>05,>0d,>04
     D2E2 0A08     
     D2E4 0305     
     D2E6 0D04     
6488 D2E8 0E0E     	byte >0e,>0e,>06,>0f,>0f
     D2EA 060F     
     D2EC 0F       
6489               	;
6490               	; 	' objects: room, x, y   (0 gold key, 1 black key, 2 white key,
6491               	; 	'                        3 sword, 4 bridge, 5 chalice)
6492               	; objdat:
6493               cvb_OBJDAT
6494               	; 	DATA BYTE 4, 180, 120
6495 D2ED   04     	byte >04,>b4,>78
     D2EE B478     
6496               	; 	DATA BYTE 6, 180, 20
6497 D2F0 06B4     	byte >06,>b4,>14
     D2F2 14       
6498               	; 	DATA BYTE 7, 120, 88
6499 D2F3   07     	byte >07,>78,>58
     D2F4 7858     
6500               	; 	DATA BYTE 3, 120, 24
6501 D2F6 0378     	byte >03,>78,>18
     D2F8 18       
6502               	; 	DATA BYTE 12, 96, 80
6503 D2F9   0C     	byte >0c,>60,>50
     D2FA 6050     
6504               	; 	DATA BYTE 10, 120, 88
6505 D2FC 0A78     	byte >0a,>78,>58
     D2FE 58       
6506               	;
6507               	; 	' dragons: room, x, y, colour, fast-flag
6508               	; 	' (0 yellow guards the black castle, 1 green guards the cave,
6509               	; 	'  2 red - the fast one - prowls the maze around the white key)
6510               	; drgdat:
6511               cvb_DRGDAT
6512               	; 	DATA BYTE 8, 36, 80, 11, 0
6513 D2FF   08     	byte >08,>24,>50,>0b,>00
     D300 2450     
     D302 0B00     
6514               	; 	DATA BYTE 6, 140, 72, 2, 0
6515 D304 068C     	byte >06,>8c,>48,>02,>00
     D306 4802     
     D308 00       
6516               	; 	DATA BYTE 7, 104, 40, 8, 1
6517 D309   07     	byte >07,>68,>28,>08,>01
     D30A 6828     
     D30C 0801     
6518               	;
6519               	; 	' ------------------------------------------------------------
6520               	; 	' rooms: 12 rows x 16 block columns, 2 bytes/row (MSB = col 0)
6521               	; 	' ------------------------------------------------------------
6522               	; rd0:	' gold castle grounds: towers, wall band, gate slot, S exit
6523               cvb_RD0
6524               	; 	DATA BYTE $FF, $FF
6525 D30E FFFF     	byte >ff,>ff
6526               	; 	DATA BYTE $B0, $0D
6527 D310 B00D     	byte >b0,>0d
6528               	; 	DATA BYTE $FE, $7F
6529 D312 FE7F     	byte >fe,>7f
6530               	; 	DATA BYTE $FE, $7F
6531 D314 FE7F     	byte >fe,>7f
6532               	; 	DATA BYTE $80, $01
6533 D316 8001     	byte >80,>01
6534               	; 	DATA BYTE $80, $01
6535 D318 8001     	byte >80,>01
6536               	; 	DATA BYTE $80, $01
6537 D31A 8001     	byte >80,>01
6538               	; 	DATA BYTE $80, $01
6539 D31C 8001     	byte >80,>01
6540               	; 	DATA BYTE $80, $01
6541 D31E 8001     	byte >80,>01
6542               	; 	DATA BYTE $80, $01
6543 D320 8001     	byte >80,>01
6544               	; 	DATA BYTE $80, $01
6545 D322 8001     	byte >80,>01
6546               	; 	DATA BYTE $FE, $7F
6547 D324 FE7F     	byte >fe,>7f
6548               	;
6549               	; rd1:	' north meadow: N, E, S, W exits (crossroads)
6550               cvb_RD1
6551               	; 	DATA BYTE $FE, $7F
6552 D326 FE7F     	byte >fe,>7f
6553               	; 	DATA BYTE $80, $01
6554 D328 8001     	byte >80,>01
6555               	; 	DATA BYTE $80, $01
6556 D32A 8001     	byte >80,>01
6557               	; 	DATA BYTE $80, $01
6558 D32C 8001     	byte >80,>01
6559               	; 	DATA BYTE $80, $01
6560 D32E 8001     	byte >80,>01
6561               	; 	DATA BYTE $00, $00
6562 D330 0000     	byte >00,>00
6563               	; 	DATA BYTE $00, $00
6564 D332 0000     	byte >00,>00
6565               	; 	DATA BYTE $80, $01
6566 D334 8001     	byte >80,>01
6567               	; 	DATA BYTE $80, $01
6568 D336 8001     	byte >80,>01
6569               	; 	DATA BYTE $80, $01
6570 D338 8001     	byte >80,>01
6571               	; 	DATA BYTE $80, $01
6572 D33A 8001     	byte >80,>01
6573               	; 	DATA BYTE $FE, $7F
6574 D33C FE7F     	byte >fe,>7f
6575               	;
6576               	; rd2:	' gold castle hall: pillars, S doorway (WIN room)
6577               cvb_RD2
6578               	; 	DATA BYTE $FF, $FF
6579 D33E FFFF     	byte >ff,>ff
6580               	; 	DATA BYTE $80, $01
6581 D340 8001     	byte >80,>01
6582               	; 	DATA BYTE $80, $01
6583 D342 8001     	byte >80,>01
6584               	; 	DATA BYTE $80, $01
6585 D344 8001     	byte >80,>01
6586               	; 	DATA BYTE $98, $19
6587 D346 9819     	byte >98,>19
6588               	; 	DATA BYTE $98, $19
6589 D348 9819     	byte >98,>19
6590               	; 	DATA BYTE $80, $01
6591 D34A 8001     	byte >80,>01
6592               	; 	DATA BYTE $80, $01
6593 D34C 8001     	byte >80,>01
6594               	; 	DATA BYTE $80, $01
6595 D34E 8001     	byte >80,>01
6596               	; 	DATA BYTE $80, $01
6597 D350 8001     	byte >80,>01
6598               	; 	DATA BYTE $80, $01
6599 D352 8001     	byte >80,>01
6600               	; 	DATA BYTE $FE, $7F
6601 D354 FE7F     	byte >fe,>7f
6602               	;
6603               	; rd3:	' red corridor: W and E exits, two bars (sword here)
6604               cvb_RD3
6605               	; 	DATA BYTE $FF, $FF
6606 D356 FFFF     	byte >ff,>ff
6607               	; 	DATA BYTE $80, $01
6608 D358 8001     	byte >80,>01
6609               	; 	DATA BYTE $80, $01
6610 D35A 8001     	byte >80,>01
6611               	; 	DATA BYTE $8F, $F1
6612 D35C 8FF1     	byte >8f,>f1
6613               	; 	DATA BYTE $80, $01
6614 D35E 8001     	byte >80,>01
6615               	; 	DATA BYTE $00, $00
6616 D360 0000     	byte >00,>00
6617               	; 	DATA BYTE $00, $00
6618 D362 0000     	byte >00,>00
6619               	; 	DATA BYTE $80, $01
6620 D364 8001     	byte >80,>01
6621               	; 	DATA BYTE $8F, $F1
6622 D366 8FF1     	byte >8f,>f1
6623               	; 	DATA BYTE $80, $01
6624 D368 8001     	byte >80,>01
6625               	; 	DATA BYTE $80, $01
6626 D36A 8001     	byte >80,>01
6627               	; 	DATA BYTE $FF, $FF
6628 D36C FFFF     	byte >ff,>ff
6629               	;
6630               	; rd4:	' south meadow: N and E exits, pond (gold key here)
6631               cvb_RD4
6632               	; 	DATA BYTE $FE, $7F
6633 D36E FE7F     	byte >fe,>7f
6634               	; 	DATA BYTE $80, $01
6635 D370 8001     	byte >80,>01
6636               	; 	DATA BYTE $80, $01
6637 D372 8001     	byte >80,>01
6638               	; 	DATA BYTE $80, $01
6639 D374 8001     	byte >80,>01
6640               	; 	DATA BYTE $80, $01
6641 D376 8001     	byte >80,>01
6642               	; 	DATA BYTE $80, $00
6643 D378 8000     	byte >80,>00
6644               	; 	DATA BYTE $80, $00
6645 D37A 8000     	byte >80,>00
6646               	; 	DATA BYTE $80, $01
6647 D37C 8001     	byte >80,>01
6648               	; 	DATA BYTE $87, $E1
6649 D37E 87E1     	byte >87,>e1
6650               	; 	DATA BYTE $80, $01
6651 D380 8001     	byte >80,>01
6652               	; 	DATA BYTE $80, $01
6653 D382 8001     	byte >80,>01
6654               	; 	DATA BYTE $FF, $FF
6655 D384 FFFF     	byte >ff,>ff
6656               	;
6657               	; rd5:	' blue maze north: W and S exits, ring walls
6658               cvb_RD5
6659               	; 	DATA BYTE $FF, $FF
6660 D386 FFFF     	byte >ff,>ff
6661               	; 	DATA BYTE $80, $01
6662 D388 8001     	byte >80,>01
6663               	; 	DATA BYTE $BE, $7D
6664 D38A BE7D     	byte >be,>7d
6665               	; 	DATA BYTE $82, $41
6666 D38C 8241     	byte >82,>41
6667               	; 	DATA BYTE $B2, $4D
6668 D38E B24D     	byte >b2,>4d
6669               	; 	DATA BYTE $02, $41
6670 D390 0241     	byte >02,>41
6671               	; 	DATA BYTE $02, $41
6672 D392 0241     	byte >02,>41
6673               	; 	DATA BYTE $B2, $4D
6674 D394 B24D     	byte >b2,>4d
6675               	; 	DATA BYTE $82, $41
6676 D396 8241     	byte >82,>41
6677               	; 	DATA BYTE $BE, $7D
6678 D398 BE7D     	byte >be,>7d
6679               	; 	DATA BYTE $80, $01
6680 D39A 8001     	byte >80,>01
6681               	; 	DATA BYTE $FE, $7F
6682 D39C FE7F     	byte >fe,>7f
6683               	;
6684               	; rd6:	' purple cave: W and E exits; SEALED chamber top-right
6685               cvb_RD6
6686               	; 	' (interior block cols 11-12, rows 1-2; bottom wall row 3 -
6687               	; 	' only the bridge crosses it; the black key waits inside)
6688               	; 	DATA BYTE $FF, $FF
6689 D39E FFFF     	byte >ff,>ff
6690               	; 	DATA BYTE $80, $25
6691 D3A0 8025     	byte >80,>25
6692               	; 	DATA BYTE $80, $25
6693 D3A2 8025     	byte >80,>25
6694               	; 	DATA BYTE $80, $3D
6695 D3A4 803D     	byte >80,>3d
6696               	; 	DATA BYTE $80, $01
6697 D3A6 8001     	byte >80,>01
6698               	; 	DATA BYTE $00, $00
6699 D3A8 0000     	byte >00,>00
6700               	; 	DATA BYTE $00, $00
6701 D3AA 0000     	byte >00,>00
6702               	; 	DATA BYTE $80, $01
6703 D3AC 8001     	byte >80,>01
6704               	; 	DATA BYTE $87, $E1
6705 D3AE 87E1     	byte >87,>e1
6706               	; 	DATA BYTE $80, $01
6707 D3B0 8001     	byte >80,>01
6708               	; 	DATA BYTE $80, $01
6709 D3B2 8001     	byte >80,>01
6710               	; 	DATA BYTE $FF, $FF
6711 D3B4 FFFF     	byte >ff,>ff
6712               	;
6713               	; rd7:	' blue maze south: N, W, E exits, post field (white key)
6714               cvb_RD7
6715               	; 	DATA BYTE $FE, $7F
6716 D3B6 FE7F     	byte >fe,>7f
6717               	; 	DATA BYTE $80, $01
6718 D3B8 8001     	byte >80,>01
6719               	; 	DATA BYTE $9E, $79
6720 D3BA 9E79     	byte >9e,>79
6721               	; 	DATA BYTE $92, $49
6722 D3BC 9249     	byte >92,>49
6723               	; 	DATA BYTE $92, $49
6724 D3BE 9249     	byte >92,>49
6725               	; 	DATA BYTE $12, $48
6726 D3C0 1248     	byte >12,>48
6727               	; 	DATA BYTE $12, $48
6728 D3C2 1248     	byte >12,>48
6729               	; 	DATA BYTE $92, $49
6730 D3C4 9249     	byte >92,>49
6731               	; 	DATA BYTE $92, $49
6732 D3C6 9249     	byte >92,>49
6733               	; 	DATA BYTE $9E, $79
6734 D3C8 9E79     	byte >9e,>79
6735               	; 	DATA BYTE $80, $01
6736 D3CA 8001     	byte >80,>01
6737               	; 	DATA BYTE $FF, $FF
6738 D3CC FFFF     	byte >ff,>ff
6739               	;
6740               	; rd8:	' black castle grounds: towers, wall band, gate slot, W exit
6741               cvb_RD8
6742               	; 	DATA BYTE $FF, $FF
6743 D3CE FFFF     	byte >ff,>ff
6744               	; 	DATA BYTE $B0, $0D
6745 D3D0 B00D     	byte >b0,>0d
6746               	; 	DATA BYTE $FE, $7F
6747 D3D2 FE7F     	byte >fe,>7f
6748               	; 	DATA BYTE $FE, $7F
6749 D3D4 FE7F     	byte >fe,>7f
6750               	; 	DATA BYTE $80, $01
6751 D3D6 8001     	byte >80,>01
6752               	; 	DATA BYTE $00, $01
6753 D3D8 0001     	byte >00,>01
6754               	; 	DATA BYTE $00, $01
6755 D3DA 0001     	byte >00,>01
6756               	; 	DATA BYTE $80, $01
6757 D3DC 8001     	byte >80,>01
6758               	; 	DATA BYTE $80, $01
6759 D3DE 8001     	byte >80,>01
6760               	; 	DATA BYTE $80, $01
6761 D3E0 8001     	byte >80,>01
6762               	; 	DATA BYTE $80, $01
6763 D3E2 8001     	byte >80,>01
6764               	; 	DATA BYTE $FF, $FF
6765 D3E4 FFFF     	byte >ff,>ff
6766               	;
6767               	; rd9:	' black castle hall: pillars, E exit, S doorway
6768               cvb_RD9
6769               	; 	DATA BYTE $FF, $FF
6770 D3E6 FFFF     	byte >ff,>ff
6771               	; 	DATA BYTE $80, $01
6772 D3E8 8001     	byte >80,>01
6773               	; 	DATA BYTE $80, $01
6774 D3EA 8001     	byte >80,>01
6775               	; 	DATA BYTE $98, $19
6776 D3EC 9819     	byte >98,>19
6777               	; 	DATA BYTE $98, $19
6778 D3EE 9819     	byte >98,>19
6779               	; 	DATA BYTE $80, $00
6780 D3F0 8000     	byte >80,>00
6781               	; 	DATA BYTE $80, $00
6782 D3F2 8000     	byte >80,>00
6783               	; 	DATA BYTE $80, $01
6784 D3F4 8001     	byte >80,>01
6785               	; 	DATA BYTE $80, $01
6786 D3F6 8001     	byte >80,>01
6787               	; 	DATA BYTE $80, $01
6788 D3F8 8001     	byte >80,>01
6789               	; 	DATA BYTE $80, $01
6790 D3FA 8001     	byte >80,>01
6791               	; 	DATA BYTE $FE, $7F
6792 D3FC FE7F     	byte >fe,>7f
6793               	;
6794               	; rd10:	' dungeon: W exit, corner brackets (chalice here)
6795               cvb_RD10
6796               	; 	DATA BYTE $FF, $FF
6797 D3FE FFFF     	byte >ff,>ff
6798               	; 	DATA BYTE $80, $01
6799 D400 8001     	byte >80,>01
6800               	; 	DATA BYTE $B8, $1D
6801 D402 B81D     	byte >b8,>1d
6802               	; 	DATA BYTE $88, $11
6803 D404 8811     	byte >88,>11
6804               	; 	DATA BYTE $80, $01
6805 D406 8001     	byte >80,>01
6806               	; 	DATA BYTE $00, $01
6807 D408 0001     	byte >00,>01
6808               	; 	DATA BYTE $00, $01
6809 D40A 0001     	byte >00,>01
6810               	; 	DATA BYTE $80, $01
6811 D40C 8001     	byte >80,>01
6812               	; 	DATA BYTE $88, $11
6813 D40E 8811     	byte >88,>11
6814               	; 	DATA BYTE $B8, $1D
6815 D410 B81D     	byte >b8,>1d
6816               	; 	DATA BYTE $80, $01
6817 D412 8001     	byte >80,>01
6818               	; 	DATA BYTE $FF, $FF
6819 D414 FFFF     	byte >ff,>ff
6820               	;
6821               	; rd11:	' white castle grounds: towers, wall band, gate slot, E exit
6822               cvb_RD11
6823               	; 	DATA BYTE $FF, $FF
6824 D416 FFFF     	byte >ff,>ff
6825               	; 	DATA BYTE $B0, $0D
6826 D418 B00D     	byte >b0,>0d
6827               	; 	DATA BYTE $FE, $7F
6828 D41A FE7F     	byte >fe,>7f
6829               	; 	DATA BYTE $FE, $7F
6830 D41C FE7F     	byte >fe,>7f
6831               	; 	DATA BYTE $80, $01
6832 D41E 8001     	byte >80,>01
6833               	; 	DATA BYTE $80, $00
6834 D420 8000     	byte >80,>00
6835               	; 	DATA BYTE $80, $00
6836 D422 8000     	byte >80,>00
6837               	; 	DATA BYTE $80, $01
6838 D424 8001     	byte >80,>01
6839               	; 	DATA BYTE $80, $01
6840 D426 8001     	byte >80,>01
6841               	; 	DATA BYTE $80, $01
6842 D428 8001     	byte >80,>01
6843               	; 	DATA BYTE $80, $01
6844 D42A 8001     	byte >80,>01
6845               	; 	DATA BYTE $FF, $FF
6846 D42C FFFF     	byte >ff,>ff
6847               	;
6848               	; rd12:	' white castle hall: pillars, S doorway (bridge here)
6849               cvb_RD12
6850               	; 	DATA BYTE $FF, $FF
6851 D42E FFFF     	byte >ff,>ff
6852               	; 	DATA BYTE $80, $01
6853 D430 8001     	byte >80,>01
6854               	; 	DATA BYTE $80, $01
6855 D432 8001     	byte >80,>01
6856               	; 	DATA BYTE $98, $19
6857 D434 9819     	byte >98,>19
6858               	; 	DATA BYTE $98, $19
6859 D436 9819     	byte >98,>19
6860               	; 	DATA BYTE $80, $01
6861 D438 8001     	byte >80,>01
6862               	; 	DATA BYTE $80, $01
6863 D43A 8001     	byte >80,>01
6864               	; 	DATA BYTE $80, $01
6865 D43C 8001     	byte >80,>01
6866               	; 	DATA BYTE $80, $01
6867 D43E 8001     	byte >80,>01
6868               	; 	DATA BYTE $80, $01
6869 D440 8001     	byte >80,>01
6870               	; 	DATA BYTE $80, $01
6871 D442 8001     	byte >80,>01
6872               	; 	DATA BYTE $FE, $7F
6873 D444 FE7F     	byte >fe,>7f
6874               	;
6875               	; 	' ------------------------------------------------------------
6876               	; 	' characters 128 (solid wall) and 129 (portcullis)
6877               	; 	' ------------------------------------------------------------
6878               	; wallchar:
6879               cvb_WALLCHAR
6880               	; 	BITMAP "XXXXXXXX"
6881               	; 	BITMAP "XXXXXXXX"
6882               	; 	BITMAP "XXXXXXXX"
6883               	; 	BITMAP "XXXXXXXX"
6884               	; 	BITMAP "XXXXXXXX"
6885               	; 	BITMAP "XXXXXXXX"
6886               	; 	BITMAP "XXXXXXXX"
6887               	; 	BITMAP "XXXXXXXX"
6888 D446 FFFF     	byte >ff,>ff,>ff,>ff,>ff,>ff,>ff,>ff
     D448 FFFF     
     D44A FFFF     
     D44C FFFF     
6889               	; 	BITMAP "XXXXXXXX"
6890               	; 	BITMAP "X_X_X_X_"
6891               	; 	BITMAP "X_X_X_X_"
6892               	; 	BITMAP "XXXXXXXX"
6893               	; 	BITMAP "X_X_X_X_"
6894               	; 	BITMAP "X_X_X_X_"
6895               	; 	BITMAP "XXXXXXXX"
6896               	; 	BITMAP "X_X_X_X_"
6897 D44E FFAA     	byte >ff,>aa,>aa,>ff,>aa,>aa,>ff,>aa
     D450 AAFF     
     D452 AAAA     
     D454 FFAA     
6898               	;
6899               	; wallcol:
6900               cvb_WALLCOL
6901               	; 	DATA BYTE $B1, $B1, $B1, $B1, $B1, $B1, $B1, $B1
6902 D456 B1B1     	byte >b1,>b1,>b1,>b1,>b1,>b1,>b1,>b1
     D458 B1B1     
     D45A B1B1     
     D45C B1B1     
6903               	; 	DATA BYTE $E1, $E1, $E1, $E1, $E1, $E1, $E1, $E1
6904 D45E E1E1     	byte >e1,>e1,>e1,>e1,>e1,>e1,>e1,>e1
     D460 E1E1     
     D462 E1E1     
     D464 E1E1     
6905               	;
6906               	; 	' ------------------------------------------------------------
6907               	; 	' sprites (16x16 art, shown 32x32 = 4x4 characters):
6908               	; 	' 0 player (kept 8x8 on screen), 1 dragon, 2 slain dragon,
6909               	; 	' 3 key, 4 sword, 5 chalice, 6 bridge, 7 bat A, 8 bat B
6910               	; 	' ------------------------------------------------------------
6911               	; gsprites:
6912               cvb_GSPRITES
6913               	; 	BITMAP "XXXX____________"
6914               	; 	BITMAP "XXXX____________"
6915               	; 	BITMAP "XXXX____________"
6916               	; 	BITMAP "XXXX____________"
6917               	; 	BITMAP "________________"
6918               	; 	BITMAP "________________"
6919               	; 	BITMAP "________________"
6920               	; 	BITMAP "________________"
6921               	; 	BITMAP "________________"
6922               	; 	BITMAP "________________"
6923               	; 	BITMAP "________________"
6924               	; 	BITMAP "________________"
6925               	; 	BITMAP "________________"
6926               	; 	BITMAP "________________"
6927               	; 	BITMAP "________________"
6928               	; 	BITMAP "________________"
6929 D466 F0F0     	byte >f0,>f0,>f0,>f0,>00,>00,>00,>00
     D468 F0F0     
     D46A 0000     
     D46C 0000     
6930 D46E 0000     	byte >00,>00,>00,>00,>00,>00,>00,>00
     D470 0000     
     D472 0000     
     D474 0000     
6931 D476 0000     	byte >00,>00,>00,>00,>00,>00,>00,>00
     D478 0000     
     D47A 0000     
     D47C 0000     
6932 D47E 0000     	byte >00,>00,>00,>00,>00,>00,>00,>00
     D480 0000     
     D482 0000     
     D484 0000     
6933               	;
6934               	; 	BITMAP "____XX__________"
6935               	; 	BITMAP "___XXXX_________"
6936               	; 	BITMAP "___XX_X_________"
6937               	; 	BITMAP "___XXXX_________"
6938               	; 	BITMAP "____XX_____X____"
6939               	; 	BITMAP "____XX____XX____"
6940               	; 	BITMAP "___XXXXX__XX____"
6941               	; 	BITMAP "__XXXXXXXXXX____"
6942               	; 	BITMAP "_XXXXXXXXXXX____"
6943               	; 	BITMAP "XX_XXXXXXXXX____"
6944               	; 	BITMAP "X__XXXXXXXX_____"
6945               	; 	BITMAP "___XXXXXXXX_____"
6946               	; 	BITMAP "__XXX__XXXX_____"
6947               	; 	BITMAP "__XX____XX______"
6948               	; 	BITMAP "__XX____XX______"
6949               	; 	BITMAP "_XXX____XXX_____"
6950 D486 0C1E     	byte >0c,>1e,>1a,>1e,>0c,>0c,>1f,>3f
     D488 1A1E     
     D48A 0C0C     
     D48C 1F3F     
6951 D48E 7FDF     	byte >7f,>df,>9f,>1f,>39,>30,>30,>70
     D490 9F1F     
     D492 3930     
     D494 3070     
6952 D496 0000     	byte >00,>00,>00,>00,>10,>30,>30,>f0
     D498 0000     
     D49A 1030     
     D49C 30F0     
6953 D49E F0F0     	byte >f0,>f0,>e0,>e0,>e0,>c0,>c0,>e0
     D4A0 E0E0     
     D4A2 E0C0     
     D4A4 C0E0     
6954               	;
6955               	; 	BITMAP "________________"
6956               	; 	BITMAP "________________"
6957               	; 	BITMAP "________________"
6958               	; 	BITMAP "________________"
6959               	; 	BITMAP "________________"
6960               	; 	BITMAP "________________"
6961               	; 	BITMAP "________________"
6962               	; 	BITMAP "________________"
6963               	; 	BITMAP "________________"
6964               	; 	BITMAP "________________"
6965               	; 	BITMAP "__XX___XX___XX__"
6966               	; 	BITMAP "__XX___XX___XX__"
6967               	; 	BITMAP "__X____X_____X__"
6968               	; 	BITMAP "_XXXXXXXXXXXXXX_"
6969               	; 	BITMAP "XXXXXXXXXXXXXXXX"
6970               	; 	BITMAP "XX_XXXXXXXXXX_XX"
6971 D4A6 0000     	byte >00,>00,>00,>00,>00,>00,>00,>00
     D4A8 0000     
     D4AA 0000     
     D4AC 0000     
6972 D4AE 0000     	byte >00,>00,>31,>31,>21,>7f,>ff,>df
     D4B0 3131     
     D4B2 217F     
     D4B4 FFDF     
6973 D4B6 0000     	byte >00,>00,>00,>00,>00,>00,>00,>00
     D4B8 0000     
     D4BA 0000     
     D4BC 0000     
6974 D4BE 0000     	byte >00,>00,>8c,>8c,>04,>fe,>ff,>fb
     D4C0 8C8C     
     D4C2 04FE     
     D4C4 FFFB     
6975               	;
6976               	; 	BITMAP "________________"
6977               	; 	BITMAP "________________"
6978               	; 	BITMAP "_XX_____________"
6979               	; 	BITMAP "X_XXXXXX________"
6980               	; 	BITMAP "_XX__X_X________"
6981               	; 	BITMAP "________________"
6982               	; 	BITMAP "________________"
6983               	; 	BITMAP "________________"
6984               	; 	BITMAP "________________"
6985               	; 	BITMAP "________________"
6986               	; 	BITMAP "________________"
6987               	; 	BITMAP "________________"
6988               	; 	BITMAP "________________"
6989               	; 	BITMAP "________________"
6990               	; 	BITMAP "________________"
6991               	; 	BITMAP "________________"
6992 D4C6 0000     	byte >00,>00,>60,>bf,>65,>00,>00,>00
     D4C8 60BF     
     D4CA 6500     
     D4CC 0000     
6993 D4CE 0000     	byte >00,>00,>00,>00,>00,>00,>00,>00
     D4D0 0000     
     D4D2 0000     
     D4D4 0000     
6994 D4D6 0000     	byte >00,>00,>00,>00,>00,>00,>00,>00
     D4D8 0000     
     D4DA 0000     
     D4DC 0000     
6995 D4DE 0000     	byte >00,>00,>00,>00,>00,>00,>00,>00
     D4E0 0000     
     D4E2 0000     
     D4E4 0000     
6996               	;
6997               	; 	BITMAP "________________"
6998               	; 	BITMAP "________________"
6999               	; 	BITMAP "__X_____________"
7000               	; 	BITMAP "XXXXXXXXXXXX____"
7001               	; 	BITMAP "__X_____________"
7002               	; 	BITMAP "________________"
7003               	; 	BITMAP "________________"
7004               	; 	BITMAP "________________"
7005               	; 	BITMAP "________________"
7006               	; 	BITMAP "________________"
7007               	; 	BITMAP "________________"
7008               	; 	BITMAP "________________"
7009               	; 	BITMAP "________________"
7010               	; 	BITMAP "________________"
7011               	; 	BITMAP "________________"
7012               	; 	BITMAP "________________"
7013 D4E6 0000     	byte >00,>00,>20,>ff,>20,>00,>00,>00
     D4E8 20FF     
     D4EA 2000     
     D4EC 0000     
7014 D4EE 0000     	byte >00,>00,>00,>00,>00,>00,>00,>00
     D4F0 0000     
     D4F2 0000     
     D4F4 0000     
7015 D4F6 0000     	byte >00,>00,>00,>f0,>00,>00,>00,>00
     D4F8 00F0     
     D4FA 0000     
     D4FC 0000     
7016 D4FE 0000     	byte >00,>00,>00,>00,>00,>00,>00,>00
     D500 0000     
     D502 0000     
     D504 0000     
7017               	;
7018               	; 	BITMAP "______XXXX______"
7019               	; 	BITMAP "_____XXXXXX_____"
7020               	; 	BITMAP "____XXXXXXXX____"
7021               	; 	BITMAP "____X______X____"
7022               	; 	BITMAP "____X______X____"
7023               	; 	BITMAP "_____X____X_____"
7024               	; 	BITMAP "______XXXX______"
7025               	; 	BITMAP "_______XX_______"
7026               	; 	BITMAP "_______XX_______"
7027               	; 	BITMAP "_______XX_______"
7028               	; 	BITMAP "______XXXX______"
7029               	; 	BITMAP "_____XXXXXX_____"
7030               	; 	BITMAP "____XXXXXXXX____"
7031               	; 	BITMAP "___XXXXXXXXXX___"
7032               	; 	BITMAP "________________"
7033               	; 	BITMAP "________________"
7034 D506 0307     	byte >03,>07,>0f,>08,>08,>04,>03,>01
     D508 0F08     
     D50A 0804     
     D50C 0301     
7035 D50E 0101     	byte >01,>01,>03,>07,>0f,>1f,>00,>00
     D510 0307     
     D512 0F1F     
     D514 0000     
7036 D516 C0E0     	byte >c0,>e0,>f0,>10,>10,>20,>c0,>80
     D518 F010     
     D51A 1020     
     D51C C080     
7037 D51E 8080     	byte >80,>80,>c0,>e0,>f0,>f8,>00,>00
     D520 C0E0     
     D522 F0F8     
     D524 0000     
7038               	;
7039               	; 	BITMAP "XXX__________XXX"
7040               	; 	BITMAP "XX____________XX"
7041               	; 	BITMAP "XX____________XX"
7042               	; 	BITMAP "XX____________XX"
7043               	; 	BITMAP "XX____________XX"
7044               	; 	BITMAP "XX____________XX"
7045               	; 	BITMAP "XX____________XX"
7046               	; 	BITMAP "XX____________XX"
7047               	; 	BITMAP "XX____________XX"
7048               	; 	BITMAP "XX____________XX"
7049               	; 	BITMAP "XX____________XX"
7050               	; 	BITMAP "XX____________XX"
7051               	; 	BITMAP "XX____________XX"
7052               	; 	BITMAP "XX____________XX"
7053               	; 	BITMAP "XX____________XX"
7054               	; 	BITMAP "XXX__________XXX"
7055 D526 E0C0     	byte >e0,>c0,>c0,>c0,>c0,>c0,>c0,>c0
     D528 C0C0     
     D52A C0C0     
     D52C C0C0     
7056 D52E C0C0     	byte >c0,>c0,>c0,>c0,>c0,>c0,>c0,>e0
     D530 C0C0     
     D532 C0C0     
     D534 C0E0     
7057 D536 0703     	byte >07,>03,>03,>03,>03,>03,>03,>03
     D538 0303     
     D53A 0303     
     D53C 0303     
7058 D53E 0303     	byte >03,>03,>03,>03,>03,>03,>03,>07
     D540 0303     
     D542 0303     
     D544 0307     
7059               	;
7060               	; 	BITMAP "________________"
7061               	; 	BITMAP "________________"
7062               	; 	BITMAP "X______XX______X"
7063               	; 	BITMAP "XX_____XX_____XX"
7064               	; 	BITMAP "_XXX__XXXX__XXX_"
7065               	; 	BITMAP "__XXXXXXXXXXXX__"
7066               	; 	BITMAP "____XX_XX_XX____"
7067               	; 	BITMAP "________________"
7068               	; 	BITMAP "________________"
7069               	; 	BITMAP "________________"
7070               	; 	BITMAP "________________"
7071               	; 	BITMAP "________________"
7072               	; 	BITMAP "________________"
7073               	; 	BITMAP "________________"
7074               	; 	BITMAP "________________"
7075               	; 	BITMAP "________________"
7076 D546 0000     	byte >00,>00,>81,>c1,>73,>3f,>0d,>00
     D548 81C1     
     D54A 733F     
     D54C 0D00     
7077 D54E 0000     	byte >00,>00,>00,>00,>00,>00,>00,>00
     D550 0000     
     D552 0000     
     D554 0000     
7078 D556 0000     	byte >00,>00,>81,>83,>ce,>fc,>b0,>00
     D558 8183     
     D55A CEFC     
     D55C B000     
7079 D55E 0000     	byte >00,>00,>00,>00,>00,>00,>00,>00
     D560 0000     
     D562 0000     
     D564 0000     
7080               	;
7081               	; 	BITMAP "________________"
7082               	; 	BITMAP "________________"
7083               	; 	BITMAP "________________"
7084               	; 	BITMAP "____X_XXXX_X____"
7085               	; 	BITMAP "__XXXXXXXXXXXX__"
7086               	; 	BITMAP "_XXX__XXXX__XXX_"
7087               	; 	BITMAP "X______XX______X"
7088               	; 	BITMAP "________________"
7089               	; 	BITMAP "________________"
7090               	; 	BITMAP "________________"
7091               	; 	BITMAP "________________"
7092               	; 	BITMAP "________________"
7093               	; 	BITMAP "________________"
7094               	; 	BITMAP "________________"
7095               	; 	BITMAP "________________"
7096               	; 	BITMAP "________________"
7097 D566 0000     	byte >00,>00,>00,>0b,>3f,>73,>81,>00
     D568 000B     
     D56A 3F73     
     D56C 8100     
7098 D56E 0000     	byte >00,>00,>00,>00,>00,>00,>00,>00
     D570 0000     
     D572 0000     
     D574 0000     
7099 D576 0000     	byte >00,>00,>00,>d0,>fc,>ce,>81,>00
     D578 00D0     
     D57A FCCE     
     D57C 8100     
7100 D57E 0000     	byte >00,>00,>00,>00,>00,>00,>00,>00
     D580 0000     
     D582 0000     
     D584 0000     
7101               	;
7102               	; 	BITMAP "__XXXXXXXXXXXX__"
7103               	; 	BITMAP "__XXXXXXXXXXXX__"
7104               	; 	BITMAP "__XXXXXXXXXXXX__"
7105               	; 	BITMAP "__XXXXXXXXXXXX__"
7106               	; 	BITMAP "__XXXXXXXXXXXX__"
7107               	; 	BITMAP "__XXXXXXXXXXXX__"
7108               	; 	BITMAP "__XXXXXXXXXXXX__"
7109               	; 	BITMAP "__XXXXXXXXXXXX__"
7110               	; 	BITMAP "__XXXXXXXXXXXX__"
7111               	; 	BITMAP "__XXXXXXXXXXXX__"
7112               	; 	BITMAP "__XXXXXXXXXXXX__"
7113               	; 	BITMAP "__XXXXXXXXXXXX__"
7114               	; 	BITMAP "__XXXXXXXXXXXX__"
7115               	; 	BITMAP "__XXXXXXXXXXXX__"
7116               	; 	BITMAP "__XXXXXXXXXXXX__"
7117               	; 	BITMAP "__XXXXXXXXXXXX__"
7118 D586 3F3F     	byte >3f,>3f,>3f,>3f,>3f,>3f,>3f,>3f
     D588 3F3F     
     D58A 3F3F     
     D58C 3F3F     
7119 D58E 3F3F     	byte >3f,>3f,>3f,>3f,>3f,>3f,>3f,>3f
     D590 3F3F     
     D592 3F3F     
     D594 3F3F     
7120 D596 FCFC     	byte >fc,>fc,>fc,>fc,>fc,>fc,>fc,>fc
     D598 FCFC     
     D59A FCFC     
     D59C FCFC     
7121 D59E FCFC     	byte >fc,>fc,>fc,>fc,>fc,>fc,>fc,>fc
     D5A0 FCFC     
     D5A2 FCFC     
     D5A4 FCFC     
7122               SLAST
7123               
7124               ;;; CV BASIC Epilogue
7125               
7126               ; data in low RAM
7127                   dorg >2000
7128               
7129               ; must be even aligned
7130               ; mirror for sprite table
7131 2000          sprites	    bss 128
7132               
7133               ; Vars can start at >2080
7134                   dorg >2080
7135               
7136               cvb_BFX:
7137 2080          	bss 1
7138               cvb_BFY:
7139 2081          	bss 1
7140               cvb_B:
7141 2082          	bss 1
7142               cvb_D:
7143 2083          	bss 1
7144               cvb_E:
7145 2084          	bss 1
7146               cvb_F:
7147 2085          	bss 1
7148               cvb_I:
7149 2086          	bss 1
7150               cvb_M:
7151 2087          	bss 1
7152               cvb_R:
7153 2088          	bss 1
7154               cvb_T:
7155 2089          	bss 1
7156               cvb_TPX:
7157 208A          	bss 1
7158               cvb_TPY:
7159 208B          	bss 1
7160               cvb__SFQ:
7161 208C          	bss 2
7162               cvb_BRF:
7163 208E          	bss 1
7164               cvb_RMCH:
7165 208F          	bss 1
7166               cvb_BTC:
7167 2090          	bss 1
7168               cvb_BTR:
7169 2091          	bss 1
7170               cvb_BTX:
7171 2092          	bss 1
7172               cvb_BTY:
7173 2093          	bss 1
7174               cvb_GOPN:
7175 2094          	bss 1
7176               cvb_EFLAG:
7177 2095          	bss 1
7178               cvb__CRX:
7179 2096          	bss 2
7180               cvb__CRY:
7181 2098          	bss 2
7182               cvb_PKCD:
7183 209A          	bss 1
7184               	even
7185               cvb__AD:
7186 209C          	bss 2
7187               cvb__AX:
7188 209E          	bss 2
7189               cvb__BX:
7190 20A0          	bss 2
7191               cvb__CX:
7192 20A2          	bss 2
7193               cvb_BTCD:
7194 20A4          	bss 1
7195               	even
7196               cvb__DX:
7197 20A6          	bss 2
7198               cvb_HIT:
7199 20A8          	bss 1
7200               cvb_BTNP:
7201 20A9          	bss 1
7202               cvb_C2:
7203 20AA          	bss 1
7204               cvb_BF:
7205 20AB          	bss 1
7206               cvb_BH:
7207 20AC          	bss 1
7208               cvb_BW:
7209 20AD          	bss 1
7210               cvb_CR:
7211 20AE          	bss 1
7212               cvb_DS:
7213 20AF          	bss 1
7214               cvb_GZ:
7215 20B0          	bss 1
7216               cvb_SFC:
7217 20B1          	bss 1
7218               cvb_PX:
7219 20B2          	bss 1
7220               cvb_PY:
7221 20B3          	bss 1
7222               cvb_SFX:
7223 20B4          	bss 1
7224               cvb_RN:
7225 20B5          	bss 1
7226               cvb_TK:
7227 20B6          	bss 1
7228               cvb_TX:
7229 20B7          	bss 1
7230               cvb_TY:
7231 20B8          	bss 1
7232               cvb_X0:
7233 20B9          	bss 1
7234               cvb_WF:
7235 20BA          	bss 1
7236               cvb_Y0:
7237 20BB          	bss 1
7238               array_RCOL:
7239 20BC          	bss 13
7240               	even
7241               array_LNE:
7242 20CA          	bss 13
7243               	even
7244               array_LNN:
7245 20D8          	bss 13
7246               	even
7247               array_LNS:
7248 20E6          	bss 13
7249               	even
7250               array_LNW:
7251 20F4          	bss 13
7252               	even
7253               array_DCL:
7254 2102          	bss 3
7255               	even
7256               array_DDX:
7257 2106          	bss 3
7258               	even
7259               array_DDY:
7260 210A          	bss 3
7261               	even
7262               array_MSK:
7263 210E          	bss 8
7264               array_DRM:
7265 2116          	bss 3
7266               	even
7267               array_DSP:
7268 211A          	bss 3
7269               	even
7270               array_DST:
7271 211E          	bss 3
7272               	even
7273               array_OCL:
7274 2122          	bss 6
7275               array_OBX:
7276 2128          	bss 6
7277               array_OBY:
7278 212E          	bss 6
7279               array_ORM:
7280 2134          	bss 6
7281               array_GOP:
7282 213A          	bss 3
7283               	even
7284               array_RM:
7285 213E          	bss 24
7286               ram_end:
