XAS99 CROSS-ASSEMBLER   VERSION 3.6.5
     **** ****     > adventire.a99
0001               	; CVBasic compiler v0.9.2 Mar/12/2026
0002               	; Command: /cygdrive/c/Users/Howie/github.git/nanochess/CVBasic/cvbasic --ti994a adventire.bas adventire.a99 C:\Users\Howie\github.git\nanochess\CVBasic\
0003               	; Created: Sat Jul 11 20:15:19 2026
0004               
0005      0000     COLECO:	equ 0
0006      0000     SG1000:	equ 0
0007      0000     MSX:	equ 0
0008      0000     FM_SUPPORT:	equ 0
0009      0000     SGM:	equ 0
0010      0000     SVI:	equ 0
0011      0000     SORD:	equ 0
0012      0000     MEMOTECH:	equ 0
0013      0000     EINSTEIN:	equ 0
0014      0000     CPM:	equ 0
0015      0000     PENCIL:	equ 0
0016      0000     PV2000:	equ 0
0017      0001     TI99:	equ 1
0018      0000     NABU:	equ 0
0019      0000     SMS:	equ 0
0020               
0021      0000     CVBASIC_MUSIC_PLAYER:	equ 0
0022      0000     CVBASIC_COMPRESSION:	equ 0
0023      0000     CVBASIC_BANK_SWITCHING:	equ 0
0024      0000     CVBASIC_BANK_ROM_SIZE:	equ 0
0025      0000     COLECO_SPINNER:	equ 0
0026               
0027      2080     BASE_RAM:	equ >2080	; Base of RAM
0028      1F80     RAM_SIZE:	equ >1f80	; Base of RAM
0029      4000     STACK:	equ >4000	; Base stack pointer
0030      8800     VDP:	equ >8800	; VDP port (write)
0031      8C00     VDPR:	equ >8c00	; VDP port (read)
0032               
0033               ;
0034               ; CVBasic prologue (BASIC compiler, 9900 target)
0035               ;
0036               ; by Tursi
0037               ; https//harmlesslion.com
0038               ;
0039               ; based on code by
0040               ;
0041               ; by Oscar Toledo G.
0042               ; https//nanochess.org/
0043               ;
0044               ; Creation date Aug/05/2024.
0045               ; Revision date Aug/06/2024. Ported music player from Z80 CVBasic.
0046               ; Revision date Aug/07/2024. Ported Pletter decompressor from Z80 CVBasic.
0047               ;                            Added VDP delays.
0048               ; Revision date Aug/12/2024. Rewrite started for TMS9900 cpu
0049               ; Revision date Aug/16/2024. Corrected bug in define_char_unpack.
0050               ; Revision date Aug/18/2024. Ported bugfixes to TMS9900 version
0051               ; Revision date Aug/30/2024. All samples except pletter and banking working on TMS9900 version
0052               ; Revision date Oct/15/2024. Added LDIRMV.
0053               ; Revision date May/03/2025. Fix for unpack3 which was using the stack pointer as a temp register
0054               
0055               ;
0056               ; Platforms supported:
0057               ; o TI-99/4A with 32k Memory Expansion
0058               
0059               ; this is intended to be assembled by xdt99, no console ROM dependencies
0060               ;   cvbasic --ti994a test1.bas test1.a99
0061               ;   xas99.py -R test1.a99
0062               
0063               ; When looking at this - remember that JUMP and BRANCH have the /opposite/
0064               ; meanings to the 6502 - JUMP is the short relative one, and BRANCH is absolute.
0065               
0066               ;
0067               ; CVBasic variables in scratchpad.
0068               ;
0069               
0070               ; don't warn on branch/jump optimizations or unused variables
0071               ;: warn-opts = off
0072               ;: warn-symbols = off
0073               
0074               ; use original (possibly incorrectly ported) random
0075      0000     OLD_RND equ 0
0076               
0077               ; We have to use our own workspace, not GPLWS, because the interrupt routine makes it unsafe to
0078               ; use r11, which we kind of need! So that eats 32 bytes of RAM but means most of the register
0079               ; restrictions I wrote this code on (avoid R1, avoid R6, avoid R13-R15) are lifted.
0080      8300     mywp      equ >8300
0081      8320     myintwp   equ >8320
0082               
0083               ; data storage in scratchpad
0084                   dorg >8340
0085               
0086               ; used to track scratchpad variables
0087      8340     firstsp         equ $
0088               
0089 8340          read_pointer    bss 2       ; for data/read statements
0090 8342          cursor		    bss 2       ; screen position
0091 8344          pletter_off	    bss 2       ; Used by Pletter
0092               
0093               ; joystick bytes
0094 8346          joy1_data	    bss 1       ; keep these bytes together and even aligned
0095 8347          joy2_data	    bss 1
0096               
0097 8348          key1_data	    bss 1       ; byte - keyboard - keep these bytes together and even aligned
0098 8349          key2_data	    bss 1       ; byte - keyboard (not used)
0099               
0100 834A          frame	        bss 2       ; word
0101 834C          lfsr		    bss 2       ; word MUST BE EVEN ALIGNED
0102               
0103 834E          mode            bss 1
0104 834F          flicker         bss 1
0105               
0106 8350          ntsc            bss 1
0107               
0148               
0154               
0155               ; used to track scratchpad variables
0156                   even
0157      8352     lastsp              equ $
0158               
0159               ; While we don't mean to USE the console ROM, for interrupts we
0160               ; are forced to interface with some of it. We need these addresses
0161               ; to minimize what it does so we can maximize our use of scratchpad.
0162               ; While I'd like to use the cassette hook - requires only 10 instructions
0163               ; and only uses 6 words of scratchpad, we can't here because it
0164               ; loses the return address, meaning you can only use it if you
0165               ; know where your LIMI 2 is and interrupts are otherwise disabled. So
0166               ; we have to use the longer but more standard interrupt hook, which also
0167               ; reads VDP status for us (no choice).
0168               
0169      8379     intcnt              equ >8379   ; interrupt counter byte, adds 1 (from GPLWS r14) every frame
0170      837B     vdp_status          equ >837B   ; VDP status byte mirror
0171      83C2     intwsr1             equ >83c2   ; INT WS R1  - interrupt control flags - must be >8000
0172      83C4     intwsr2             equ >83c4   ; INT WS R2  - address of user interrupt routine (point to int_handler)
0173      83D6     intwsr11            equ >83d6   ; screen timeout counter - must be odd (init to 1, is inct every frame)
0174      83DA     intwsr13            equ >83da   ; INT WS R13 - used for interrupt call (word)
0175      83DC     intwsr14            equ >83dc   ; INT WS R14 - used for interrupt call (word)
0176      83DE     intwsr15            equ >83de   ; INT WS R15 - used for interrupt call (word)
0177      83F6     gplwsr11            equ >83f6   ; GPL WS R11 - return address to interrupt ROM (not used, but overwritten each int)
0178      83F8     gplwsr12            equ >83f8   ; GPL WS R12 - used for cassette test and interrupt hook test (zeroed each int)
0179      83FA     gplwsr13            equ >83fa   ; GPL WS R13 - used in my interrupt handler
0180      83FC     gplwsr14            equ >83fc   ; GPL WS R14 - flags used to detect cassette - must be >0108 (or at least >0020 clear)
0181      83FE     gplwsr15            equ >83fe   ; GPL WS R15 - base address of VDP for status read - must be >8C02
0182               
0183               ; Some hardware equates
0184      83C0     INTWS     equ >83C0     ; interrupt calling Workspace
0185      83E0     GPLWP     equ >83E0     ; we use this one
0186      8400     SOUND     equ >8400
0187      8800     VDPDATA   equ >8800
0188      8802     VDPSTATUS equ >8802
0189      8C00     VDPWDATA  equ >8c00
0190      8C02     VDPWADR   equ >8c02
0191               
0192               ; cartridge header for all ROM pages
0193               ; this might do weird things to bank 0 but we have to chop it up anyway...
0194                   bank all,>6000
0195               
0196 6000 AA01         data >aa01,>0100,>0000,proglist,>0000,>0000
     6002 0100     
     6004 0000     
     6006 600C     
     6008 0000     
     600A 0000     
0197               proglist
0198 600C 0000         data >0000,SFIRST
     600E 6026     
0199 6010 14           byte 20
0200 6011   43         text 'CVBASIC GAME        *'    ; 20 characters to allow name to be hex edited
     6012 5642     
     6014 4153     
     6016 4943     
     6018 2047     
     601A 414D     
     601C 4520     
     601E 2020     
     6020 2020     
     6022 2020     
     6024 202A     
0201               
0202               ; startup code copies the first three banks to 24k RAM (always) and jumps there
0203               SFIRST
0204 6026 04E0  34     clr @>6000      ; set bank 0 - last shared instruction
     6028 6000     
0205               
0206                   bank 0
0207               
0208 602A 0203  20     li r3,3         ; how many banks
     602C 0003     
0209 602E 0204  20     li r4,>6000     ; from bank
     6030 6000     
0210 6032 0200  20     li r0,>a000     ; target in RAM
     6034 A000     
0211               SFLP
0212 6036 04F4  30     clr *r4+        ; set the bank
0213 6038 0201  20     li r1,>6050     ; from address
     603A 6050     
0214 603C 0202  20     li r2,>1FB0     ; count
     603E 1FB0     
0215               SFLP2
0216 6040 CC31  46     mov *r1+,*r0+   ; move words
0217 6042 0642  14     dect r2         ; count down
0218 6044 16FD  14     jne SFLP2
0219 6046 0603  14     dec r3          ; count down pages
0220 6048 16F6  14     jne SFLP
0221               CODEST
0222 604A 0460  28     b @START        ; jump to startup code in RAM
     604C A980     
0223               
0224               ; fixed program in high RAM - magic bank number higher than normally legal
0225               ; this will be chopped up and inserted into the first three banks
0226               ; we're still in bank 0 - this will result in a gap in the output binary
0227               ; that we can use to put the pieces together more easily.
0228                   aorg >a000
0229               
0230               ; Utility functions
0231               
0232               ; Write register to VDP - R0 = reg in MSB, data in LSB
0233               WRTVDP
0234 A000 0260  22     ori r0,>8000
     A002 8000     
0235 A004 1002  14     jmp SETRD
0236               
0237               ; Set VDP for write address - address in R0
0238               SETWRT
0239 A006 0260  22     ori r0,>4000
     A008 4000     
0240               ; fall through
0241               
0242               ; Set VDP for read address - address in R0
0243               SETRD
0244 A00A 06C0  14     swpb r0
0245 A00C D800  30     movb r0,@VDPWADR
     A00E 8C02     
0246 A010 06C0  14     swpb r0
0247 A012 D800  30     movb r0,@VDPWADR
     A014 8C02     
0248 A016 045B  20     b *r11
0249               
0250               ; Write byte to VDP - address in R0, data in MSB R2
0251               ; Inline address set to avoid needing to cache r11
0252               WRTVRM
0253 A018 0260  22     ori r0,>4000
     A01A 4000     
0254 A01C 06C0  14     swpb r0
0255 A01E D800  30     movb r0,@VDPWADR
     A020 8C02     
0256 A022 06C0  14     swpb r0
0257 A024 D800  30     movb r0,@VDPWADR
     A026 8C02     
0258               ; No need to delay after setting a write address - there's no VRAM access
0259 A028 D802  30     movb r2,@VDPWDATA
     A02A 8C00     
0260 A02C 045B  20     b *r11
0261               
0262               ; Read byte from VDP - address in R0, data returned in MSB R0
0263               ; Inline address set to avoid needing to cache r11
0264               RDVRM
0265 A02E 06C0  14     swpb r0
0266 A030 D800  30     movb r0,@VDPWADR
     A032 8C02     
0267 A034 06C0  14     swpb r0
0268 A036 D800  30     movb r0,@VDPWADR
     A038 8C02     
0269 A03A 1000  14     nop
0270 A03C D020  30     movb @VDPDATA,r0
     A03E 8800     
0271 A040 045B  20     b *r11
0272               
0273               ; Fill VRAM - address in R0, byte in R2, count in R3
0274               ; Original: address in pointer, byte in temp, count in temp2 (ZP)
0275               ; Inline address set to avoid needing to cache r11
0276               FILVRM
0277 A042 0260  22     ori r0,>4000
     A044 4000     
0278 A046 06C0  14     swpb r0
0279 A048 D800  30     movb r0,@VDPWADR
     A04A 8C02     
0280 A04C 06C0  14     swpb r0
0281 A04E D800  30     movb r0,@VDPWADR
     A050 8C02     
0282               ; No need to delay after setting a write address - there's no VRAM access
0283               !1
0284 A052 D802  30     movb r2,@VDPWDATA
     A054 8C00     
0285 A056 0603  14     dec r3
0286 A058 16FC  14     jne -!1
0287 A05A 045B  20     b *r11
0288               
0289               ; Read VRAM - address in R0, CPU data at R2, count in R3
0290               ; Inline address set to avoid needing to cache r11
0291               LDIRMV
0292 A05C 06C0  14     swpb r0
0293 A05E D800  30     movb r0,@VDPWADR
     A060 8C02     
0294 A062 06C0  14     swpb r0
0295 A064 D800  30     movb r0,@VDPWADR
     A066 8C02     
0296 A068 06C0  14     swpb r0
0297 A06A 06C0  14     swpb r0
0298               !1
0299 A06C DCA0  44     movb @VDPDATA,*r2+
     A06E 8800     
0300 A070 0603  14     dec r3
0301 A072 16FC  14     jne -!1
0302 A074 045B  20     b *r11
0303               
0304               ; Load VRAM - address in R0, CPU data at R2, count in R3
0305               ; Original: address in pointer, CPU address at temp, count in temp2
0306               ; Inline address set to avoid needing to cache r11
0307               LDIRVM
0308 A076 0260  22     ori r0,>4000
     A078 4000     
0309 A07A 06C0  14     swpb r0
0310 A07C D800  30     movb r0,@VDPWADR
     A07E 8C02     
0311 A080 06C0  14     swpb r0
0312 A082 D800  30     movb r0,@VDPWADR
     A084 8C02     
0313               ; No need to delay after setting a write address - there's no VRAM access
0314               !1
0315 A086 D832  40     movb *r2+,@VDPWDATA
     A088 8C00     
0316 A08A 0603  14     dec r3
0317 A08C 16FC  14     jne -!1
0318 A08E 045B  20     b *r11
0319               
0320               ; Define a pattern three times with 2k offsets - used for bitmap color and pattern tables
0321               ; Load VRAM 3 times with offset - address in R0, CPU data at R2, count in R3
0322               ; Original: address in pointer, CPU address at temp, count in temp2
0323               LDIRVM3
0324 A090 C10B  18     mov r11,r4      ; save return address
0325 A092 C142  18     mov r2,r5       ; save CPU address
0326 A094 C1C3  18     mov r3,r7       ; save count
0327 A096 06A0  32     bl @LDIRVM
     A098 A076     
0328 A09A 0220  22     ai r0,>0800     ; the OR'd mask doesn't matter
     A09C 0800     
0329 A09E C085  18     mov r5,r2       ; restore CPU
0330 A0A0 C0C7  18     mov r7,r3       ; restore count
0331 A0A2 06A0  32     bl @LDIRVM
     A0A4 A076     
0332 A0A6 0220  22     ai r0,>0800     ; the OR'd mask doesn't matter
     A0A8 0800     
0333 A0AA C085  18     mov r5,r2
0334 A0AC C0C7  18     mov r7,r3
0335 A0AE C2C4  18     mov r4,r11      ; for tail recursion
0336 A0B0 10E2  14     jmp LDIRVM
0337               
0338               ; Disable screen by setting VDP register 1 to >a2
0339               DISSCR
0340 A0B2 0300  22     limi 0
     A0B4 0000     
0341 A0B6 0200  20     li r0,>81a2
     A0B8 81A2     
0342               DISSCR2
0343 A0BA 06C0  14     swpb r0
0344 A0BC D800  30     movb r0,@VDPWADR
     A0BE 8C02     
0345 A0C0 06C0  14     swpb r0
0346 A0C2 D800  30     movb r0,@VDPWADR
     A0C4 8C02     
0347 A0C6 0300  22     limi 2
     A0C8 0002     
0348 A0CA 045B  20     b *r11
0349               
0350               ; enable screen by setting VDP register 1 to >E2
0351               ENASCR
0352 A0CC 0300  22     limi 0
     A0CE 0000     
0353 A0D0 0200  20     li r0,>81e2
     A0D2 81E2     
0354 A0D4 10F2  14     jmp DISSCR2
0355               
0356               ; copy a set of blocks of data to VDP, offset by 32 bytes each
0357               ; address in R8, CPU data at R9, count per row in R6 (MSB), number rows in R4 (MSB), CPU stride in R5 (MSB) (VDP stride fixed at 32)
0358               ; original: address in pointer, CPU address at temp, count per row in temp2, num rows in temp2+1, stride in YYXX
0359               CPYBLK
0360 A0D6 C1CB  18     mov r11,r7      ; save return
0361 A0D8 0986  32     srl r6,8
0362 A0DA 0984  32     srl r4,8
0363 A0DC 0985  32     srl r5,8        ; bytes to words
0364 A0DE 0300  22     limi 0
     A0E0 0000     
0365               !1
0366 A0E2 C008  18     mov r8,r0       ; get vdp address
0367 A0E4 C089  18     mov r9,r2       ; get cpu address
0368 A0E6 C0C6  18     mov r6,r3       ; get count
0369 A0E8 06A0  32     bl @LDIRVM      ; copy one row
     A0EA A076     
0370 A0EC A245  18     a r5,r9         ; add stride to CPU address
0371 A0EE 0228  22     ai r8,32        ; add 32 to VDP
     A0F0 0020     
0372 A0F2 0604  14     dec r4          ; count down rows
0373 A0F4 16F6  14     jne -!1         ; loop till done
0374 A0F6 0300  22     limi 2
     A0F8 0002     
0375 A0FA 0457  20     b *r7           ; back to caller
0376               
0377               ; clear screen and reset cursor to >1800
0378               cls
0379 A0FC C10B  18     mov r11,r4      ; save return
0380 A0FE 0200  20     li r0,>1800     ; SIT address
     A100 1800     
0381 A102 C800  30     mov r0,@cursor  ; save cursor
     A104 8342     
0382 A106 0202  20     li r2,>2000     ; byte to write
     A108 2000     
0383 A10A 0203  20     li r3,768       ; number of bytes
     A10C 0300     
0384 A10E 0300  22     limi 0          ; ints off
     A110 0000     
0385 A112 06A0  32     bl @FILVRM      ; write them
     A114 A042     
0386 A116 0300  22     limi 2          ; ints back on
     A118 0002     
0387 A11A 0454  20     b *r4           ; back to caller
0388               
0389               ; copy a string to screen at cursor - address enforced
0390               ; CPU address in R2, length in R3
0391               print_string
0392 A11C C10B  18     mov r11,r4      ; save return
0393 A11E C020  30     mov @cursor,r0  ; get cursor pos
     A120 8342     
0394 A122 0240  22     andi r0,>07ff   ; enforce position - pretty large range though? 80 column support maybe?
     A124 07FF     
0395 A126 0220  22     ai r0,>1800     ; add is safer than OR, and we have that option
     A128 1800     
0396 A12A A803  30     a r3,@cursor    ; add the count to cursor (might as well do it now!)
     A12C 8342     
0397 A12E 0300  22     limi 0
     A130 0000     
0398 A132 06A0  32     bl @LDIRVM      ; do the write
     A134 A076     
0399 A136 0300  22     limi 2
     A138 0002     
0400 A13A 0454  20     b *r4           ; back to caller
0401               
0402               ; emit a 16-bit number as decimal with leading zero masking at cursor
0403               ; R0 - number to print
0404               ; original number in YYAA?
0405               print_number
0406 A13C 0300  22     limi 0              ; interrupts off so we can hold the VDP address
     A13E 0000     
0407 A140 04C5  14     clr r5              ; leading zero flag
0408               print_number5
0409 A142 0201  20     li r1,10000         ; divisor
     A144 2710     
0410 A146 C10B  18     mov r11,r4
0411 A148 06A0  32     bl @print_digit
     A14A A18A     
0412 A14C C2C4  18     mov r4,r11
0413               print_number4
0414 A14E 0201  20     li r1,1000          ; divisor
     A150 03E8     
0415 A152 C10B  18     mov r11,r4
0416 A154 06A0  32     bl @print_digit
     A156 A18A     
0417 A158 C2C4  18     mov r4,r11
0418               print_number3
0419 A15A 0201  20     li r1,100           ; divisor
     A15C 0064     
0420 A15E C10B  18     mov r11,r4
0421 A160 06A0  32     bl @print_digit
     A162 A18A     
0422 A164 C2C4  18     mov r4,r11
0423               print_number2
0424 A166 0201  20     li r1,10
     A168 000A     
0425 A16A C10B  18     mov r11,r4
0426 A16C 06A0  32     bl @print_digit
     A16E A18A     
0427 A170 C2C4  18     mov r4,r11
0428               print_number1
0429 A172 0201  20     li r1,1
     A174 0001     
0430 A176 0245  22     andi r5,>00ff
     A178 00FF     
0431 A17A 0265  22     ori r5,>0100
     A17C 0100     
0432 A17E C10B  18     mov r11,r4
0433 A180 06A0  32     bl @print_digit
     A182 A18A     
0434 A184 0300  22     limi 2              ; ints on
     A186 0002     
0435 A188 0454  20     b *r4               ; back to caller
0436               
0437               print_digit
0438 A18A C18B  18     mov r11,r6
0439 A18C 04C2  14     clr r2
0440 A18E 3C81 128     div r1,r2
0441 A190 0222  22     ai r2,>30
     A192 0030     
0442 A194 0282  22     ci r2,>30
     A196 0030     
0443 A198 160B  14     jne !3
0444 A19A 0285  22     ci r5,>0100
     A19C 0100     
0445 A19E 1401  14     jhe !4
0446 A1A0 0456  20     b *r6
0447               !4
0448 A1A2 0285  22     ci r5,>0200
     A1A4 0200     
0449 A1A6 1A02  14     jl !6
0450 A1A8 C085  18     mov r5,r2
0451 A1AA 1606  14     jne print_char2
0452               !6
0453 A1AC 0202  20     li r2,>30
     A1AE 0030     
0454               !3
0455 A1B0 0245  22     andi r5,>00ff
     A1B2 00FF     
0456 A1B4 0265  22     ori r5,>0100
     A1B6 0100     
0457               print_char2
0458 A1B8 C020  30     mov @cursor,r0      ; get cursor
     A1BA 8342     
0459 A1BC 0240  22     andi r0,>07ff       ; enforce position - large range for two screen pages
     A1BE 07FF     
0460 A1C0 0220  22     ai r0,>1800         ; add is safer than OR, and we have that option
     A1C2 1800     
0461 A1C4 06A0  32     bl @SETWRT          ; set write address
     A1C6 A006     
0462 A1C8 06C2  14     swpb r2
0463 A1CA D802  30     movb r2,@VDPWDATA
     A1CC 8C00     
0464 A1CE 05A0  26     inc @cursor         ; track it
     A1D0 8342     
0465 A1D2 0456  20     b *r6
0466               print_char
0467 A1D4 C18B  18     mov r11,r6
0468 A1D6 0460  28     b @print_char2
     A1D8 A1B8     
0469               
0470               ; Load sprite definitions: Sprite number in R4, CPU data in R0, count of sprites in R5 (MSB)
0471               ; Original: pointer = sprite number, temp = CPU address, a = number sprites
0472               ; Note: sprites are all expected to be double-size 16x16, 32 bytes each, so sprite char 1 is character 4
0473               ; Sprite pattern table at >3800
0474               define_sprite
0475 A1DA C20B  18     mov r11,r8          ; save return
0476 A1DC C080  18     mov r0,r2           ; Source data.
0477 A1DE C004  18     mov r4,r0           ; VRAM target.
0478 A1E0 0A50  26     sla r0,5            ; sprite number times 32 for bytes
0479 A1E2 0220  22     ai r0,>3800         ; add VDP base
     A1E4 3800     
0480 A1E6 C0C5  18     mov r5,r3		; Length.
0481 A1E8 0983  32     srl r3,8            ; make int
0482 A1EA 0A53  26     sla r3,5            ; count times 32
0483 A1EC 0300  22     limi 0              ; ints off
     A1EE 0000     
0484 A1F0 06A0  32     bl @LDIRVM          ; do the copy
     A1F2 A076     
0485 A1F4 0300  22     limi 2              ; ints on
     A1F6 0002     
0486 A1F8 0458  20     b *r8               ; back to caller
0487               
0488               ; Load character definitions: Char number in R1, CPU data in R2, count in R3 (MSB)
0489               ; Original: pointer = char number, temp = CPU address, a = number chars
0490               ; Note this loads the pattern three times if in bitmap mode (MODE&0x04)
0491               ; Pattern table at >0000
0492               define_char
0493 A1FA C20B  18     mov r11,r8          ; save return
0494 A1FC C080  18     mov r0,r2           ; source data
0495 A1FE C004  18     mov r4,r0           ; move input to scratch
0496 A200 0A30  22     sla r0,3            ; char number times 8 (VDP base is 0, so already there)
0497 A202 C0C5  18     mov r5,r3
0498 A204 0983  32     srl r3,8            ; make word
0499 A206 0A33  22     sla r3,3            ; count times 8
0500 A208 D160  30     movb @mode,r5       ; get mode flags
     A20A 834E     
0501 A20C 0245  22     andi r5,>0800
     A20E 0800     
0502 A210 1607  14     jne !1              ; not in bitmap mode, do a single copy
0503               
0504 A212 0300  22     limi 0              ; ints off
     A214 0000     
0505 A216 06A0  32     bl @LDIRVM3         ; do the triple copy
     A218 A090     
0506 A21A 0300  22     limi 2              ; ints on
     A21C 0002     
0507 A21E 0458  20     b *r8               ; back to caller
0508               
0509               !1
0510 A220 0300  22     limi 0              ; ints off
     A222 0000     
0511 A224 06A0  32     bl @LDIRVM          ; do the single copy
     A226 A076     
0512 A228 0300  22     limi 2              ; ints on
     A22A 0002     
0513 A22C 0458  20     b *r8               ; back to caller
0514               
0515               ; Load bitmap color definitions: Char number in R1, CPU data in R2, count in R3 (MSB)
0516               ; Original: pointer = char number, temp = CPU address, a = number chars
0517               ; Note: always does the triple copy. Color table at >2000
0518               define_color
0519 A22E C20B  18     mov r11,r8          ; save return
0520 A230 C080  18     mov r0,r2           ; source data
0521 A232 C004  18     mov r4,r0           ; move input to scratch
0522 A234 0A30  22     sla r0,3            ; char number times 8
0523 A236 0220  22     ai r0,>2000         ; add base address
     A238 2000     
0524 A23A C0C5  18     mov r5,r3
0525 A23C 0983  32     srl r3,8            ; make word
0526 A23E 0A33  22     sla r3,3            ; count times 8
0527 A240 0300  22     limi 0              ; ints off
     A242 0000     
0528 A244 06A0  32     bl @LDIRVM3         ; do the triple copy
     A246 A090     
0529 A248 0300  22     limi 2              ; ints on
     A24A 0002     
0530 A24C 0458  20     b *r8               ; back to caller
0531               
0532               ; Update sprite entry - copy data (4 bytes) to sprite table mirror at sprites
0533               ; R4 = sprite number, R5 = byte 1, r6 = byte 2, r7 = byte 3, r0 = byte 4 (all MSB)
0534               ; Original: A = sprite number, source data at sprite_data
0535               update_sprite
0536 A24E 0984  32     srl r4,8            ; make word
0537 A250 0A24  20     sla r4,2            ; x4 for address
0538 A252 0224  22     ai r4,sprites       ; sprite mirror address
     A254 2000     
0539 A256 DD05  32     movb r5,*r4+        ; move bytes
0540 A258 DD06  32     movb r6,*r4+        ; move bytes
0541 A25A DD07  32     movb r7,*r4+        ; move bytes
0542 A25C DD00  32     movb r0,*r4+        ; move bytes
0543 A25E 045B  20     b *r11
0544               
0545               ; SGN R0 - return 1, -1 or 0 as 16 bit
0546               _sgn16
0547 A260 C000  18     mov r0,r0       ; check for zero
0548 A262 1306  14     jeq !1          ; if yes, we're done
0549 A264 0240  22     andi r0,>8000   ; check for negative
     A266 8000     
0550 A268 1302  14     jeq !2          ; was not
0551 A26A 0700  14     seto r0         ; was negative, make it -1
0552 A26C 045B  20     b *r11          ; back to caller
0553               !2
0554 A26E 0580  14     inc r0          ; we know it was zero, and we want 1
0555               !1
0556 A270 045B  20     b *r11          ; back to caller
0557               
0558               ; 16-bit signed modulo. R1 % R2 = R0 - 9900 doesn't do signed divide
0559               ; original was stack%stack=YYAA
0560               ; Remainder is negative if the dividend was negative
0561               _mod16s
0562 A272 04C0  14     clr r0          ; make dividend 32-bit
0563 A274 C082  18     mov r2,r2       ; check divisor for zero
0564 A276 130A  14     jeq !1
0565 A278 0742  18     abs r2          ; make sure divisor is positive
0566 A27A C041  18     mov r1,r1       ; check sign of dividend
0567 A27C 1505  14     jgt !2          ; go do the faster positive version
0568               
0569 A27E 0741  18     abs r1          ; was negative, make it positive
0570 A280 3C02 128     div r2,r0       ; do the division => r2=quotient, r3=remainder
0571 A282 0501  14     neg r1          ; make remainder negative
0572 A284 C001  18     mov r1,r0       ; into r0
0573 A286 045B  20     b *r11
0574               
0575               !2
0576 A288 3C02 128     div r2,r0       ; do the division => r2=quotient, r3=remainder
0577 A28A C001  18     mov r1,r0       ; into r0
0578               !1
0579 A28C 045B  20     b *r11
0580               
0581               ; 16-bit signed divide. R1 / R2 = R0 - 9900 doesn't do signed divide
0582               ; original was stack/stack=YYAA
0583               ; Remainder is negative if the signs differ
0584               _div16s
0585 A28E 04C0  14     clr r0          ; make dividend 32-bit
0586 A290 C0C2  18     mov r2,r3       ; check divisor for zero
0587 A292 1308  14     jeq !1          ;
0588 A294 28C1  18     xor r1,r3
0589 A296 0742  18     abs r2
0590 A298 0741  18     abs r1          ; might as well make them positive now that we have copies
0591 A29A 3C02 128     div r2,r0       ; do the divide => r0=quotient, r1=remainder
0592 A29C 0243  22     andi r3,>8000   ; mask out sign bit
     A29E 8000     
0593 A2A0 1301  14     jeq !1          ; skip ahead to positive version
0594               
0595 A2A2 0500  14     neg r0          ; negate the result
0596               !1
0597 A2A4 045B  20     b *r11
0598               
0599               ; Random number generator - return in R0, (complex one uses R3,R4, simpler one only R0)
0600               ; Original output into YYAA
0601               random
0628               ; simpler one from dreamcast days...
0629 A2A6 C020  30     mov @lfsr,r0        ; get seed
     A2A8 834C     
0630 A2AA 0910  18     srl r0,1            ; shift
0631 A2AC 1702  14     jnc .rand1          ; jump if no 1
0632 A2AE 2820  34     xor @rmask,r0       ; xor new bits
     A2B0 A2B8     
0633               .rand1
0634 A2B2 C800  30     mov r0,@lfsr        ; save the output
     A2B4 834C     
0635 A2B6 045B  20     b *r11
0636               rmask
0637 A2B8 B400         data >b400          ; mask for 16 bit
0639               
0640               ; Set SN Frequency: R0=frequency code, R2=channel command (MSB)
0641               ; Original: A=least significant byte  X=channel command  Y=most significant byte
0642               sn76489_freq
0643 A2BA C0C0  18     mov r0,r3
0644 A2BC 0243  22     andi r3,>000f
     A2BE 000F     
0645 A2C0 06C3  14     swpb r3
0646 A2C2 F083  18     socb r3,r2
0647 A2C4 D802  30     movb r2,@SOUND  ; cmd and least significant nibble
     A2C6 8400     
0648 A2C8 0940  24     srl r0,4
0649 A2CA 0240  22     andi r0,>003f
     A2CC 003F     
0650 A2CE 06C0  14     swpb r0
0651 A2D0 D800  30     movb r0,@SOUND  ; most significant byte
     A2D2 8400     
0652 A2D4 045B  20     b *r11
0653               
0654               ; Set SN volume: R0=volume (MSB, inverse of attenuation), R2=channel command (MSB)
0655               ; Original: A=volume (inverse of attenuation), X=channel command
0656               sn76489_vol
0657 A2D6 0540  14     inv r0
0658 A2D8 0240  22     andi r0,>0f00
     A2DA 0F00     
0659 A2DC F002  18     socb r2,r0
0660 A2DE D800  30     movb r0,@SOUND
     A2E0 8400     
0661 A2E2 045B  20     b *r11
0662               
0663               ; Set noise type: R0=Noise type (MSB)
0664               ; original: A=noise command
0665               sn76489_control
0666 A2E4 0240  22     andi r0,>0f00
     A2E6 0F00     
0667 A2E8 0260  22     ori r0,>e000
     A2EA E000     
0668 A2EC D800  30     movb r0,@SOUND
     A2EE 8400     
0669 A2F0 045B  20     b *r11
0670               
0671               ; Set up vdp generic settings - R0 should be preloaded with a register in MSB, data in LSB
0672               ; R2 should contain the color table entry (in MSB), R3 the bitmap table (in MSB). Rest is
0673               ; hard coded. WARNING: Disables interrupts but does not re-enable them.
0674               vdp_generic_mode
0675 A2F2 C10B  18     mov r11,r4      ; save return
0676 A2F4 0300  22     limi 0          ; ints off
     A2F6 0000     
0677               
0678 A2F8 06A0  32     bl @WRTVDP      ; caller must set up this one
     A2FA A000     
0679 A2FC 0200  20     li r0,>01a2     ; VDP mode, screen off
     A2FE 01A2     
0680 A300 06A0  32     bl @WRTVDP
     A302 A000     
0681 A304 0200  20     li r0,>0206     ; >1800 pattern table
     A306 0206     
0682 A308 06A0  32     bl @WRTVDP
     A30A A000     
0683 A30C 0200  20     li r0,>0003     ; for color table
     A30E 0003     
0684 A310 F002  18     socb r2,r0
0685 A312 06C0  14     swpb r0
0686 A314 06A0  32     bl @WRTVDP
     A316 A000     
0687 A318 0200  20     li r0,>0004     ; for pattern table
     A31A 0004     
0688 A31C F003  18     socb r3,r0
0689 A31E 06C0  14     swpb r0
0690 A320 06A0  32     bl @WRTVDP
     A322 A000     
0691 A324 0200  20     li r0,>0536     ; >1b00 for sprite attribute table
     A326 0536     
0692 A328 06A0  32     bl @WRTVDP
     A32A A000     
0693 A32C 0200  20     li r0,>0607     ; >3800 for sprite pattern table
     A32E 0607     
0694 A330 06A0  32     bl @WRTVDP
     A332 A000     
0695 A334 0200  20     li r0,>0701     ; default screen color
     A336 0701     
0696 A338 06A0  32     bl @WRTVDP
     A33A A000     
0697 A33C 0454  20     b *r4
0698               
0699               ; set up VDP mode 0
0700               mode_0
0701 A33E C20B  18     mov r11,r8      ; careful - we call vdp_generic_mode and LDIRVM3
0702 A340 0200  20     li r0,>0800     ; bit we want to clear
     A342 0800     
0703 A344 5800  30     szcb r0,@mode
     A346 834E     
0704               
0705 A348 0202  20     li r2,>ff00	    ; $2000 for color table.
     A34A FF00     
0706 A34C 0203  20     li r3,>0300	    ; $0000 for bitmaps
     A34E 0300     
0707 A350 0200  20     li r0,>0002     ; r0 setting
     A352 0002     
0708 A354 06A0  32     bl @vdp_generic_mode    ; interrupts are now off
     A356 A2F2     
0709               
0710 A358 0200  20     li r0,>0100     ; target in VDP memory
     A35A 0100     
0711 A35C 0202  20     li r2,font_bitmaps  ; CPU memory source
     A35E A674     
0712 A360 0203  20     li r3,>0300     ; number of bytes
     A362 0300     
0713 A364 06A0  32     bl @LDIRVM3
     A366 A090     
0714               
0715 A368 0300  22     limi 2
     A36A 0002     
0716 A36C 0300  22     limi 0
     A36E 0000     
0717               
0718 A370 0200  20     li r0,>2000
     A372 2000     
0719 A374 0202  20     li r2,>f000
     A376 F000     
0720 A378 0203  20     li r3,>1800     ; fill color table with white on transparent
     A37A 1800     
0721 A37C 06A0  32     bl @FILVRM
     A37E A042     
0722               
0723 A380 0300  22     limi 2
     A382 0002     
0724 A384 06A0  32     bl @cls
     A386 A0FC     
0725 A388 C2C8  18     mov r8,r11      ; restore return address, and fall through to vdp_generic_sprites
0726               
0727               ; Initialize sprite table
0728               vdp_generic_sprites
0729 A38A C20B  18     mov r11,r8      ; save return address
0730 A38C 0200  20     li r0,>1b00     ; sprite attribute table in VDP
     A38E 1B00     
0731 A390 0202  20     li r2,>d100     ; off screen, and otherwise unimportant
     A392 D100     
0732 A394 0203  20     li r3,128       ; number of bytes
     A396 0080     
0733               
0734 A398 0300  22     limi 0
     A39A 0000     
0735 A39C 06A0  32     bl @FILVRM
     A39E A042     
0736               
0737 A3A0 0200  20     li r0,sprites
     A3A2 2000     
0738 A3A4 0202  20     li r2,>d1d1     ; write 2 bytes at a time
     A3A6 D1D1     
0739 A3A8 0203  20     li r3,128
     A3AA 0080     
0740               !1
0741 A3AC CC02  34     mov r2,*r0+     ; initialize CPU mirror
0742 A3AE 0643  14     dect r3
0743 A3B0 16FD  14     jne -!1
0744               
0745 A3B2 0200  20     li r0,>01e2     ; screen on
     A3B4 01E2     
0746 A3B6 06A0  32     bl @WRTVDP
     A3B8 A000     
0747               
0748 A3BA 0300  22     limi 2
     A3BC 0002     
0749 A3BE 0458  20     b *r8
0750               
0751               ; set up VDP mode 1
0752               mode_1
0753 A3C0 C20B  18     mov r11,r8      ; careful - we call vdp_generic_mode and LDIRVM3
0754 A3C2 0200  20     li r0,>0800     ; bit we want to clear
     A3C4 0800     
0755 A3C6 5800  30     szcb r0,@mode
     A3C8 834E     
0756               
0757 A3CA 0202  20     li r2,>ff00	    ; $2000 for color table.
     A3CC FF00     
0758 A3CE 0203  20     li r3,>0300	    ; $0000 for bitmaps
     A3D0 0300     
0759 A3D2 0200  20     li r0,>0002     ; r0 setting
     A3D4 0002     
0760 A3D6 06A0  32     bl @vdp_generic_mode    ; interrupts are now off
     A3D8 A2F2     
0761               
0762 A3DA 0200  20     li r0,>0000
     A3DC 0000     
0763 A3DE 0202  20     li r2,>0000
     A3E0 0000     
0764 A3E2 0203  20     li r3,>1800
     A3E4 1800     
0765 A3E6 06A0  32     bl @FILVRM      ; clear pattern table
     A3E8 A042     
0766               
0767 A3EA 0300  22     limi 2
     A3EC 0002     
0768               
0769 A3EE 0200  20     li r0,>2000
     A3F0 2000     
0770 A3F2 0202  20     li r2,>f000
     A3F4 F000     
0771 A3F6 0203  20     li r3,>1800
     A3F8 1800     
0772               
0773 A3FA 0300  22     limi 0
     A3FC 0000     
0774 A3FE 06A0  32     bl @FILVRM      ; init color table
     A400 A042     
0775 A402 0300  22     limi 2
     A404 0002     
0776               
0777 A406 0200  20     li r0,>5800     ; >1800 with the write bit set
     A408 5800     
0778 A40A 04C3  14     clr r3          ; value to write
0779               
0780               !1
0781 A40C 0300  22     limi 0          ; write the screen image table, but pause every 32 bytes for interrupts
     A40E 0000     
0782               
0783 A410 06C0  14     swpb r0
0784 A412 D800  30     movb r0,@VDPWADR
     A414 8C02     
0785 A416 06C0  14     swpb r0
0786 A418 D800  30     movb r0,@VDPWADR
     A41A 8C02     
0787               
0788 A41C 0202  20     li r2,32
     A41E 0020     
0789               
0790               !2
0791 A420 D803  30     movb r3,@VDPWDATA
     A422 8C00     
0792 A424 0223  22     ai r3,>0100
     A426 0100     
0793 A428 0602  14     dec r2
0794 A42A 16FA  14     jne -!2
0795               
0796 A42C 0300  22     limi 2
     A42E 0002     
0797 A430 0220  22     ai r0,32
     A432 0020     
0798 A434 0280  22     ci r0,>5b00
     A436 5B00     
0799 A438 1AE9  14     jl -!1
0800               
0801 A43A C2C8  18     mov r8,r11      ; restore return address
0802 A43C 10A6  14     jmp vdp_generic_sprites     ; using tail recursion
0803               
0804               ; Set up VDP mode 2
0805               mode_2
0806 A43E C20B  18     mov r11,r8      ; careful - we call vdp_generic_mode and LDIRVM3
0807 A440 0200  20     li r0,>0800     ; bit we want to set
     A442 0800     
0808 A444 F800  30     socb r0,@mode
     A446 834E     
0809               
0810 A448 0202  20     li r2,>8000	    ; $2000 for color table.
     A44A 8000     
0811 A44C 0203  20     li r3,>0000	    ; $0000 for bitmaps
     A44E 0000     
0812 A450 0200  20     li r0,>0000     ; r0 setting
     A452 0000     
0813 A454 06A0  32     bl @vdp_generic_mode    ; interrupts are now off
     A456 A2F2     
0814               
0815 A458 0200  20     li r0,>0100
     A45A 0100     
0816 A45C 0202  20     li r2,font_bitmaps
     A45E A674     
0817 A460 0203  20     li r3,>0300
     A462 0300     
0818 A464 06A0  32     bl @LDIRVM      ; load character set
     A466 A076     
0819               
0820 A468 0300  22     limi 2
     A46A 0002     
0821 A46C 0300  22     limi 0
     A46E 0000     
0822               
0823 A470 0200  20     li r0,>2000
     A472 2000     
0824 A474 0202  20     li r2,>f000
     A476 F000     
0825 A478 0203  20     li r3,>0020
     A47A 0020     
0826 A47C 06A0  32     bl @FILVRM      ; init color table
     A47E A042     
0827               
0828 A480 0300  22     limi 2
     A482 0002     
0829 A484 06A0  32     bl @cls         ; clear screen
     A486 A0FC     
0830 A488 C2C8  18     mov r8,r11      ; restore return
0831 A48A 0460  28     b @vdp_generic_sprites
     A48C A38A     
0832               
0833               ; this is where interrupts happen every frame
0834               ; Unlike a normal TI application, this one runs with interrupts ON,
0835               ; so all operations need to be sure to protect VDP address with LIMI 0,
0836               ; as well as any operations that might need to manipulate data managed
0837               ; by this interrupt. We enter via the normal user hook, so WP is on
0838               ; GPLWS, interrupts are off, and the VDP is already reset and status
0839               ; stashed on vdp_status (>837b). Our return address to the ROM is in
0840               ; r11, but we are NOT going to use it so that we don't need to reserve
0841               ; r8 for whatever nonsense it does. That means we need to load intws
0842               ; and RTWP ourselves at the end. We are on our own workspace so we
0843               ; don't have to worry about the main app's workspace.
0844               int_handler
0845               ; first copy the sprite table
0846 A48E 02E0  18     lwpi myintwp        ; separate safe workspace
     A490 8320     
0847               
0851               
0852 A492 020B  20     li r11,>005b        ; >1b00 with the write bit added, and byte flipped
     A494 005B     
0853 A496 D80B  30     movb r11,@VDPWADR   ; SAL address
     A498 8C02     
0854 A49A 06CB  14     swpb r11
0855 A49C D80B  30     movb r11,@VDPWADR   ; going to copy the sprite table to VDP
     A49E 8C02     
0856               
0857 A4A0 D2E0  30     movb @mode,r11
     A4A2 834E     
0858 A4A4 024B  22     andi r11,>0400      ; if bit >04 (inhibit flicker) is cleared, jump ahead to rotate
     A4A6 0400     
0859 A4A8 130A  14     jeq !4
0860               
0861 A4AA 04CB  14     clr r11             ; else we're going to just write it straight across
0862 A4AC 020C  20     li r12,128
     A4AE 0080     
0863 A4B0 020D  20     li r13,sprites
     A4B2 2000     
0864               !7
0865 A4B4 D83D  40     movb *r13+,@VDPWDATA
     A4B6 8C00     
0866 A4B8 060C  14     dec r12
0867 A4BA 16FC  14     jne -!7
0868 A4BC 101B  14     jmp !5
0869               
0870               !4
0871 A4BE D2E0  30     movb @flicker,r11   ; here we write it rotated every frame
     A4C0 834F     
0872 A4C2 022B  22     ai r11,>0400
     A4C4 0400     
0873 A4C6 024B  22     andi r11,>7f00
     A4C8 7F00     
0874 A4CA D80B  30     movb r11,@flicker
     A4CC 834F     
0875 A4CE 06CB  14     swpb r11            ; make count
0876 A4D0 020C  20     li r12,32           ; count
     A4D2 0020     
0877               
0878               !6
0879 A4D4 022B  22     ai r11,sprites        ; this is still faster than separate incs
     A4D6 2000     
0880 A4D8 D83B  40     movb *r11+,@VDPWDATA  ; copy one sprite
     A4DA 8C00     
0881 A4DC D83B  40     movb *r11+,@VDPWDATA  ; no delay needed
     A4DE 8C00     
0882 A4E0 D83B  40     movb *r11+,@VDPWDATA
     A4E2 8C00     
0883 A4E4 D81B  38     movb *r11,@VDPWDATA   ; small optimization, since we have an add coming anyway
     A4E6 8C00     
0884 A4E8 022B  22     ai r11,-(sprites-1)   ; remove address and add the rest of the increment
     A4EA E001     
0885 A4EC 024B  22     andi r11,>007F        ; clamp it in range
     A4EE 007F     
0886 A4F0 060C  14     dec r12
0887 A4F2 16F0  14     jne -!6
0888               !5
0889               
0890               ; next read the joysticks - output needs to be 21xxLDRU - 1 and 2 are button and button2 respectively
0891               ; We don't have a button 2. We also need to read the keyboard and fill in key1_data. key2_data we
0892               ; will leave unused. Note key1_data expects Coleco-style 0-9,10-*,11-#,15=not pressed, but we can throw
0893               ; everything else as ASCII. We could do a split keyboard for 2 players, but I guess we'll leave it for now.
0894               ; joy1
0895 A4F4 020C  20     li r12,>0024    ; CRU base of select output
     A4F6 0024     
0896 A4F8 020D  20     li r13,>0600    ; joystick 1 column
     A4FA 0600     
0897 A4FC 30CD  30     ldcr r13,3      ; select it
0898 A4FE 0B7C  30     src r12,7       ; delay
0899 A500 020C  20     li r12,>0006    ; CRU base of return read
     A502 0006     
0900 A504 360D  48     stcr r13,8      ; read 8 bits (we could get away with fewer, but be consistent)
0901 A506 06A0  32     bl @convert_joystick
     A508 A5C8     
0902 A50A D80C  30     movb r12,@joy1_data
     A50C 8346     
0903               
0904               ; joy2
0905 A50E 020C  20     li r12,>0024    ; CRU base of select output
     A510 0024     
0906 A512 020D  20     li r13,>0700    ; joystick 2 column
     A514 0700     
0907 A516 30CD  30     ldcr r13,3      ; select it
0908 A518 0B7C  30     src r12,7       ; delay
0909 A51A 020C  20     li r12,>0006    ; CRU base of return read
     A51C 0006     
0910 A51E 360D  48     stcr r13,8      ; read 8 bits (we could get away with fewer, but be consistent)
0911 A520 06A0  32     bl @convert_joystick
     A522 A5C8     
0912 A524 D80C  30     movb r12,@joy2_data
     A526 8347     
0913               
0914               ; do a quick modifier read for button 2 (control and fctn for joy 1 and 2 respectively)
0915 A528 020C  20     li r12,>0024    ; CRU base of select output
     A52A 0024     
0916 A52C 04CD  14     clr r13         ; modifiers
0917 A52E 30CD  30     ldcr r13,3      ; select it
0918 A530 0B7C  30     src r12,7       ; delay
0919 A532 020C  20     li r12,>0006    ; CRU base of return read
     A534 0006     
0920 A536 360D  48     stcr r13,8      ; read 8 bits (we could get away with fewer, but be consistent)
0921 A538 020C  20     li r12,>4000    ; control
     A53A 4000     
0922 A53C 020B  20     li r11,>8000    ; button 2 bit
     A53E 8000     
0923 A540 274C  18     czc r12,r13
0924 A542 1602  14     jne .noc1b2
0925 A544 F80B  30     socb r11,@joy1_data
     A546 8346     
0926               .noc1b2
0927 A548 020C  20     li r12,>1000    ; fctn
     A54A 1000     
0928 A54C 274C  18     czc r12,r13
0929 A54E 1602  14     jne .noc2b2
0930 A550 F80B  30     socb r11,@joy2_data
     A552 8347     
0931               .noc2b2
0932               
0933               ; key1 - this is a very simple read with no modifiers, it just gives access to the letters and numbers
0934 A554 04CB  14     clr r11         ; column
0935               !key1
0936 A556 020C  20     li r12,>0024    ; CRU base of select output
     A558 0024     
0937 A55A 30CB  30     ldcr r11,3      ; select column
0938 A55C 0B7C  30     src r12,7       ; delay
0939 A55E 020C  20     li r12,>0006    ; CRU base of return read
     A560 0006     
0940 A562 360D  48     stcr r13,8      ; get the bits
0941 A564 020C  20     li r12,7        ; bit search
     A566 0007     
0942               !key2
0943 A568 0A1C  18     sla r12,1
0944 A56A 276C  34     czc @masktable(r12),r13    ; bit set?
     A56C A638     
0945 A56E 1607  14     jne !key3       ; continue
0946 A570 091C  18     srl r12,1
0947 A572 095B  26     srl r11,5
0948 A574 A2CC  18     a r12,r11       ; calculate table offset
0949 A576 D82B  46     movb @keyboard_table(r11),@key1_data    ; might be a dead key, but that's okay
     A578 A608     
     A57A 8348     
0950 A57C 100D  14     jmp !key4
0951               
0952               !key3
0953 A57E 091C  18     srl r12,1
0954 A580 060C  14     dec r12
0955 A582 15F2  14     jgt -!key2
0956 A584 13F1  14     jeq -!key2      ; we don't have a jump if not negative
0957               
0958 A586 022B  22     ai r11,>0100
     A588 0100     
0959 A58A 028B  22     ci r11,>0600
     A58C 0600     
0960 A58E 16E3  14     jne -!key1
0961               
0962 A590 020B  20     li r11,>0f00
     A592 0F00     
0963 A594 D80B  30     movb r11,@key1_data     ; no key was pressed
     A596 8348     
0964               !key4
0965               
0966               ; check for quit - attempts to work it into the above were not working
0967               ; borrowed from console ROM
0968 A598 020C  20     li r12,>0024
     A59A 0024     
0969 A59C 30CC  30     ldcr r12,3
0970 A59E 0B7C  30     src r12,7
0971 A5A0 020C  20     li r12,>0006
     A5A2 0006     
0972 A5A4 360B  48     stcr r11,8
0973 A5A6 020C  20     li r12,>1100
     A5A8 1100     
0974 A5AA 26CC  18     czc r12,r11
0975 A5AC 1604  14     jne .noquit
0976 A5AE 04E0  26     clr @intwsr2
     A5B0 83C4     
0977 A5B2 0420  42     blwp @>0000
     A5B4 0000     
0978               .noquit
0979               
0986               
0987 A5B6 05A0  26     inc @frame
     A5B8 834A     
0988 A5BA 0200  20     li r0,3
     A5BC 0003     
0989 A5BE A800  30     a r0,@lfsr  ; Make LFSR more random
     A5C0 834C     
0990               
1006               
1007               
1008               ; restore the saved bank
1013               
1014               ; get back the interrupt workspace and return
1015 A5C2 02E0  18     lwpi INTWS
     A5C4 83C0     
1016 A5C6 0380  18     RTWP
1017               
1018               ; given a joystick read in r13, return bits in r12
1019               ; The final output is 8 bits:
1020               ; 21xxLDRU - 1 and 2 are button and button2 respectively
1021               ; NOTE: if called by the compiler, this won't act as expected
1022               convert_joystick
1023 A5C8 04CC  14     clr r12
1024 A5CA 2760  34     czc @joystick_table,r13
     A5CC A5FE     
1025 A5CE 1602  14     jne !j1
1026 A5D0 026C  22     ori r12,>0800
     A5D2 0800     
1027               !j1
1028 A5D4 2760  34     czc @joystick_table+2,r13
     A5D6 A600     
1029 A5D8 1602  14     jne !j2
1030 A5DA 026C  22     ori r12,>0400
     A5DC 0400     
1031               !j2
1032 A5DE 2760  34     czc @joystick_table+4,r13
     A5E0 A602     
1033 A5E2 1602  14     jne !j3
1034 A5E4 026C  22     ori r12,>0200
     A5E6 0200     
1035               !j3
1036 A5E8 2760  34     czc @joystick_table+6,r13
     A5EA A604     
1037 A5EC 1602  14     jne !j4
1038 A5EE 026C  22     ori r12,>0100
     A5F0 0100     
1039               !j4
1040 A5F2 2760  34     czc @joystick_table+8,r13
     A5F4 A606     
1041 A5F6 1602  14     jne !j5
1042 A5F8 026C  22     ori r12,>4000
     A5FA 4000     
1043               !j5
1044 A5FC 045B  20     b *r11
1045               
1046               joystick_table
1047 A5FE 0200         data >0200,>0800,>0400,>1000,>0100    ; LDRU1
     A600 0800     
     A602 0400     
     A604 1000     
     A606 0100     
1048               
1049               ; By columns, then rows. 8 Rows per column. No shift states - converted to the Coleco returns
1050               ; for numbers, , and . become ; and #. Control is control1 button2, and Fctn is control2 button2
1051               keyboard_table
1052 A608 3D20         byte 61,32,11,15,254,15,255,15  ; '=',' ',enter,n/a,fctn,shift,ctrl,n/a
     A60A 0B0F     
     A60C FE0F     
     A60E FF0F     
1053 A610 2E4C         byte 46,76,79,9,2,83,87,88      ; '.','L','O','9','2','S','W','X'
     A612 4F09     
     A614 0253     
     A616 5758     
1054 A618 2C4B         byte 44,75,73,8,3,68,69,67      ; ',','K','I','8','3','D','E','C'
     A61A 4908     
     A61C 0344     
     A61E 4543     
1055 A620 4D4A         byte 77,74,85,7,4,70,82,86      ; 'M','J','U','7','4','F','R','V'
     A622 5507     
     A624 0446     
     A626 5256     
1056 A628 4E48         byte 78,72,89,6,5,71,84,66      ; 'N','H','Y','6','5','G','T','B'
     A62A 5906     
     A62C 0547     
     A62E 5442     
1057 A630 0A3B         byte 10,59,80,0,1,65,81,90      ; '/',';','P','0','1','A','Q','Z'
     A632 5000     
     A634 0141     
     A636 515A     
1058               
1059               masktable
1060 A638 0100         data >0100,>0200,>0400,>0800,>1000,>2000,>4000,>8000
     A63A 0200     
     A63C 0400     
     A63E 0800     
     A640 1000     
     A642 2000     
     A644 4000     
     A646 8000     
1061 A648 0F00         data >0f00
1062               
1063               ; wait for frame to increment
1064               wait
1065 A64A C020  30     mov @frame,r0
     A64C 834A     
1066               !1
1067 A64E 8800  30     c r0,@frame
     A650 834A     
1068 A652 13FD  14     jeq -!1
1069 A654 045B  20     b *r11
1070               
1071               ; initialize music system
1072               music_init
1073               ; mute sound chip
1074 A656 0200  20     li r0,>9fbf
     A658 9FBF     
1075 A65A D800  30     movb r0,@SOUND
     A65C 8400     
1076 A65E 06C0  14     swpb r0
1077 A660 D800  30     movb r0,@SOUND
     A662 8400     
1078 A664 0200  20     li r0,>dfff
     A666 DFFF     
1079 A668 D800  30     movb r0,@SOUND
     A66A 8400     
1080 A66C 06C0  14     swpb r0
1081 A66E D800  30     movb r0,@SOUND
     A670 8400     
1082               
1084               ; return if we don't have the player compiled in
1085 A672 045B  20     b *r11
1087               
1088               ; all the rest of the player is under this if
1525               
1526               
1819               
1820               ; Required for Creativision because it doesn't provide an ASCII charset.
1821               ; Kept for TI to reduce dependence on the console and because it looks
1822               ; better than the caps.
1823               ;
1824               ; My personal font for TMS9928.
1825               ;
1826               ; Patterned after the TMS9928 programming manual 6x8 letters
1827               ; with better lowercase letters, also I made a proper
1828               ; AT sign.
1829               ;
1830               font_bitmaps
1831 A674 0000         byte >00,>00,>00,>00,>00,>00,>00,>00      ; >20 space
     A676 0000     
     A678 0000     
     A67A 0000     
1832 A67C 2020         byte >20,>20,>20,>20,>20,>00,>20,>00      ; >21 !
     A67E 2020     
     A680 2000     
     A682 2000     
1833 A684 5050         byte >50,>50,>50,>00,>00,>00,>00,>00      ; >22 "
     A686 5000     
     A688 0000     
     A68A 0000     
1834 A68C 5050         byte >50,>50,>f8,>50,>f8,>50,>50,>00      ; >23 #
     A68E F850     
     A690 F850     
     A692 5000     
1835 A694 2078         byte >20,>78,>a0,>70,>28,>f0,>20,>00      ; >24 >
     A696 A070     
     A698 28F0     
     A69A 2000     
1836 A69C C0C8         byte >c0,>c8,>10,>20,>40,>98,>18,>00      ; >25 %
     A69E 1020     
     A6A0 4098     
     A6A2 1800     
1837 A6A4 40A0         byte >40,>a0,>40,>a0,>a8,>90,>68,>00      ; >26 &
     A6A6 40A0     
     A6A8 A890     
     A6AA 6800     
1838 A6AC 6020         byte >60,>20,>40,>00,>00,>00,>00,>00      ; >27 '
     A6AE 4000     
     A6B0 0000     
     A6B2 0000     
1839 A6B4 1020         byte >10,>20,>40,>40,>40,>20,>10,>00      ; >28 (
     A6B6 4040     
     A6B8 4020     
     A6BA 1000     
1840 A6BC 4020         byte >40,>20,>10,>10,>10,>20,>40,>00      ; >29 )
     A6BE 1010     
     A6C0 1020     
     A6C2 4000     
1841 A6C4 00A8         byte >00,>a8,>70,>20,>70,>a8,>00,>00      ; >2a *
     A6C6 7020     
     A6C8 70A8     
     A6CA 0000     
1842 A6CC 0020         byte >00,>20,>20,>f8,>20,>20,>00,>00      ; >2b +
     A6CE 20F8     
     A6D0 2020     
     A6D2 0000     
1843 A6D4 0000         byte >00,>00,>00,>00,>00,>60,>20,>40      ; >2c ,
     A6D6 0000     
     A6D8 0060     
     A6DA 2040     
1844 A6DC 0000         byte >00,>00,>00,>fc,>00,>00,>00,>00      ; >2d -
     A6DE 00FC     
     A6E0 0000     
     A6E2 0000     
1845 A6E4 0000         byte >00,>00,>00,>00,>00,>00,>60,>00      ; >2e .
     A6E6 0000     
     A6E8 0000     
     A6EA 6000     
1846 A6EC 0008         byte >00,>08,>10,>20,>40,>80,>00,>00      ; >2f /
     A6EE 1020     
     A6F0 4080     
     A6F2 0000     
1847 A6F4 7088         byte >70,>88,>98,>a8,>c8,>88,>70,>00      ; >30 0
     A6F6 98A8     
     A6F8 C888     
     A6FA 7000     
1848 A6FC 2060         byte >20,>60,>20,>20,>20,>20,>f8,>00      ; >31 1
     A6FE 2020     
     A700 2020     
     A702 F800     
1849 A704 7088         byte >70,>88,>08,>10,>60,>80,>f8,>00      ; >32 2
     A706 0810     
     A708 6080     
     A70A F800     
1850 A70C 7088         byte >70,>88,>08,>30,>08,>88,>70,>00      ; >33 3
     A70E 0830     
     A710 0888     
     A712 7000     
1851 A714 3050         byte >30,>50,>90,>90,>f8,>10,>10,>00      ; >34 4
     A716 9090     
     A718 F810     
     A71A 1000     
1852 A71C F880         byte >f8,>80,>f0,>08,>08,>08,>f0,>00      ; >35 5
     A71E F008     
     A720 0808     
     A722 F000     
1853 A724 3040         byte >30,>40,>80,>f0,>88,>88,>70,>00      ; >36 6
     A726 80F0     
     A728 8888     
     A72A 7000     
1854 A72C F808         byte >f8,>08,>10,>20,>20,>20,>20,>00      ; >37 7
     A72E 1020     
     A730 2020     
     A732 2000     
1855 A734 7088         byte >70,>88,>88,>70,>88,>88,>70,>00      ; >38 8
     A736 8870     
     A738 8888     
     A73A 7000     
1856 A73C 7088         byte >70,>88,>88,>78,>08,>10,>60,>00      ; >39 9
     A73E 8878     
     A740 0810     
     A742 6000     
1857 A744 0000         byte >00,>00,>00,>60,>00,>60,>00,>00      ; >3a
     A746 0060     
     A748 0060     
     A74A 0000     
1858 A74C 0000         byte >00,>00,>00,>60,>00,>60,>20,>40      ; >3b *
     A74E 0060     
     A750 0060     
     A752 2040     
1859 A754 1020         byte >10,>20,>40,>80,>40,>20,>10,>00      ; >3c <
     A756 4080     
     A758 4020     
     A75A 1000     
1860 A75C 0000         byte >00,>00,>f8,>00,>f8,>00,>00,>00      ; >3d =
     A75E F800     
     A760 F800     
     A762 0000     
1861 A764 0804         byte >08,>04,>02,>01,>02,>04,>08,>00      ; >3e >
     A766 0201     
     A768 0204     
     A76A 0800     
1862 A76C 7088         byte >70,>88,>08,>10,>20,>00,>20,>00      ; >3f ?
     A76E 0810     
     A770 2000     
     A772 2000     
1863 A774 7088         byte >70,>88,>98,>a8,>98,>80,>70,>00      ; >40 @
     A776 98A8     
     A778 9880     
     A77A 7000     
1864 A77C 2050         byte >20,>50,>88,>88,>f8,>88,>88,>00      ; >41 A
     A77E 8888     
     A780 F888     
     A782 8800     
1865 A784 F088         byte >f0,>88,>88,>f0,>88,>88,>f0,>00      ; >42 B
     A786 88F0     
     A788 8888     
     A78A F000     
1866 A78C 7088         byte >70,>88,>80,>80,>80,>88,>70,>00      ; >43 C
     A78E 8080     
     A790 8088     
     A792 7000     
1867 A794 F088         byte >f0,>88,>88,>88,>88,>88,>f0,>00      ; >44 D
     A796 8888     
     A798 8888     
     A79A F000     
1868 A79C F880         byte >f8,>80,>80,>f0,>80,>80,>f8,>00      ; >45 E
     A79E 80F0     
     A7A0 8080     
     A7A2 F800     
1869 A7A4 F880         byte >f8,>80,>80,>f0,>80,>80,>80,>00      ; >46 F
     A7A6 80F0     
     A7A8 8080     
     A7AA 8000     
1870 A7AC 7088         byte >70,>88,>80,>b8,>88,>88,>70,>00      ; >47 G
     A7AE 80B8     
     A7B0 8888     
     A7B2 7000     
1871 A7B4 8888         byte >88,>88,>88,>f8,>88,>88,>88,>00      ; >48 H
     A7B6 88F8     
     A7B8 8888     
     A7BA 8800     
1872 A7BC 7020         byte >70,>20,>20,>20,>20,>20,>70,>00      ; >49 I
     A7BE 2020     
     A7C0 2020     
     A7C2 7000     
1873 A7C4 0808         byte >08,>08,>08,>08,>88,>88,>70,>00      ; >4A J
     A7C6 0808     
     A7C8 8888     
     A7CA 7000     
1874 A7CC 8890         byte >88,>90,>a0,>c0,>a0,>90,>88,>00      ; >4B K
     A7CE A0C0     
     A7D0 A090     
     A7D2 8800     
1875 A7D4 8080         byte >80,>80,>80,>80,>80,>80,>f8,>00      ; >4C L
     A7D6 8080     
     A7D8 8080     
     A7DA F800     
1876 A7DC 88D8         byte >88,>d8,>a8,>a8,>88,>88,>88,>00      ; >4D M
     A7DE A8A8     
     A7E0 8888     
     A7E2 8800     
1877 A7E4 88C8         byte >88,>c8,>c8,>a8,>98,>98,>88,>00      ; >4E N
     A7E6 C8A8     
     A7E8 9898     
     A7EA 8800     
1878 A7EC 7088         byte >70,>88,>88,>88,>88,>88,>70,>00      ; >4F O
     A7EE 8888     
     A7F0 8888     
     A7F2 7000     
1879 A7F4 F088         byte >f0,>88,>88,>f0,>80,>80,>80,>00      ; >50 P
     A7F6 88F0     
     A7F8 8080     
     A7FA 8000     
1880 A7FC 7088         byte >70,>88,>88,>88,>88,>a8,>90,>68      ; >51 Q
     A7FE 8888     
     A800 88A8     
     A802 9068     
1881 A804 F088         byte >f0,>88,>88,>f0,>a0,>90,>88,>00      ; >52 R
     A806 88F0     
     A808 A090     
     A80A 8800     
1882 A80C 7088         byte >70,>88,>80,>70,>08,>88,>70,>00      ; >53 S
     A80E 8070     
     A810 0888     
     A812 7000     
1883 A814 F820         byte >f8,>20,>20,>20,>20,>20,>20,>00      ; >54 T
     A816 2020     
     A818 2020     
     A81A 2000     
1884 A81C 8888         byte >88,>88,>88,>88,>88,>88,>70,>00      ; >55 U
     A81E 8888     
     A820 8888     
     A822 7000     
1885 A824 8888         byte >88,>88,>88,>88,>50,>50,>20,>00      ; >56 V
     A826 8888     
     A828 5050     
     A82A 2000     
1886 A82C 8888         byte >88,>88,>88,>a8,>a8,>d8,>88,>00      ; >57 W
     A82E 88A8     
     A830 A8D8     
     A832 8800     
1887 A834 8888         byte >88,>88,>50,>20,>50,>88,>88,>00      ; >58 X
     A836 5020     
     A838 5088     
     A83A 8800     
1888 A83C 8888         byte >88,>88,>88,>70,>20,>20,>20,>00      ; >59 Y
     A83E 8870     
     A840 2020     
     A842 2000     
1889 A844 F808         byte >f8,>08,>10,>20,>40,>80,>f8,>00      ; >5A Z
     A846 1020     
     A848 4080     
     A84A F800     
1890 A84C 7860         byte >78,>60,>60,>60,>60,>60,>78,>00      ; >5B [
     A84E 6060     
     A850 6060     
     A852 7800     
1891 A854 0080         byte >00,>80,>40,>20,>10,>08,>00,>00      ; >5C \
     A856 4020     
     A858 1008     
     A85A 0000     
1892 A85C F030         byte >F0,>30,>30,>30,>30,>30,>F0,>00      ; >5D ]
     A85E 3030     
     A860 3030     
     A862 F000     
1893 A864 2050         byte >20,>50,>88,>00,>00,>00,>00,>00      ; >5E
     A866 8800     
     A868 0000     
     A86A 0000     
1894 A86C 0000         byte >00,>00,>00,>00,>00,>00,>f8,>00      ; >5F _
     A86E 0000     
     A870 0000     
     A872 F800     
1895 A874 4020         byte >40,>20,>10,>00,>00,>00,>00,>00      ; >60
     A876 1000     
     A878 0000     
     A87A 0000     
1896 A87C 0000         byte >00,>00,>68,>98,>88,>98,>68,>00      ; >61 a
     A87E 6898     
     A880 8898     
     A882 6800     
1897 A884 8080         byte >80,>80,>f0,>88,>88,>88,>f0,>00      ; >62 b
     A886 F088     
     A888 8888     
     A88A F000     
1898 A88C 0000         byte >00,>00,>78,>80,>80,>80,>78,>00      ; >63 c
     A88E 7880     
     A890 8080     
     A892 7800     
1899 A894 0808         byte >08,>08,>68,>98,>88,>98,>68,>00      ; >64 d
     A896 6898     
     A898 8898     
     A89A 6800     
1900 A89C 0000         byte >00,>00,>70,>88,>f8,>80,>70,>00      ; >65 e
     A89E 7088     
     A8A0 F880     
     A8A2 7000     
1901 A8A4 3048         byte >30,>48,>40,>e0,>40,>40,>40,>00      ; >66 f
     A8A6 40E0     
     A8A8 4040     
     A8AA 4000     
1902 A8AC 0000         byte >00,>00,>78,>88,>88,>78,>08,>70      ; >67 g
     A8AE 7888     
     A8B0 8878     
     A8B2 0870     
1903 A8B4 8080         byte >80,>80,>f0,>88,>88,>88,>88,>00      ; >68 h
     A8B6 F088     
     A8B8 8888     
     A8BA 8800     
1904 A8BC 2000         byte >20,>00,>60,>20,>20,>20,>70,>00      ; >69 i
     A8BE 6020     
     A8C0 2020     
     A8C2 7000     
1905 A8C4 0800         byte >08,>00,>18,>08,>88,>88,>70,>00      ; >6a j
     A8C6 1808     
     A8C8 8888     
     A8CA 7000     
1906 A8CC 8080         byte >80,>80,>88,>90,>e0,>90,>88,>00      ; >6b k
     A8CE 8890     
     A8D0 E090     
     A8D2 8800     
1907 A8D4 6020         byte >60,>20,>20,>20,>20,>20,>70,>00      ; >6c l
     A8D6 2020     
     A8D8 2020     
     A8DA 7000     
1908 A8DC 0000         byte >00,>00,>d0,>a8,>a8,>a8,>a8,>00      ; >6d m
     A8DE D0A8     
     A8E0 A8A8     
     A8E2 A800     
1909 A8E4 0000         byte >00,>00,>b0,>c8,>88,>88,>88,>00      ; >6e n
     A8E6 B0C8     
     A8E8 8888     
     A8EA 8800     
1910 A8EC 0000         byte >00,>00,>70,>88,>88,>88,>70,>00      ; >6f o
     A8EE 7088     
     A8F0 8888     
     A8F2 7000     
1911 A8F4 0000         byte >00,>00,>f0,>88,>88,>88,>f0,>80      ; >70 p
     A8F6 F088     
     A8F8 8888     
     A8FA F080     
1912 A8FC 0000         byte >00,>00,>78,>88,>88,>88,>78,>08      ; >71 q
     A8FE 7888     
     A900 8888     
     A902 7808     
1913 A904 0000         byte >00,>00,>b8,>c0,>80,>80,>80,>00      ; >72 r
     A906 B8C0     
     A908 8080     
     A90A 8000     
1914 A90C 0000         byte >00,>00,>78,>80,>70,>08,>f0,>00      ; >73 s
     A90E 7880     
     A910 7008     
     A912 F000     
1915 A914 2020         byte >20,>20,>f8,>20,>20,>20,>20,>00      ; >74 t
     A916 F820     
     A918 2020     
     A91A 2000     
1916 A91C 0000         byte >00,>00,>88,>88,>88,>98,>68,>00      ; >75 u
     A91E 8888     
     A920 8898     
     A922 6800     
1917 A924 0000         byte >00,>00,>88,>88,>88,>50,>20,>00      ; >76 v
     A926 8888     
     A928 8850     
     A92A 2000     
1918 A92C 0000         byte >00,>00,>88,>a8,>a8,>a8,>50,>00      ; >77 w
     A92E 88A8     
     A930 A8A8     
     A932 5000     
1919 A934 0000         byte >00,>00,>88,>50,>20,>50,>88,>00      ; >78 x
     A936 8850     
     A938 2050     
     A93A 8800     
1920 A93C 0000         byte >00,>00,>88,>88,>98,>68,>08,>70      ; >79 y
     A93E 8888     
     A940 9868     
     A942 0870     
1921 A944 0000         byte >00,>00,>f8,>10,>20,>40,>f8,>00      ; >7a z
     A946 F810     
     A948 2040     
     A94A F800     
1922 A94C 1820         byte >18,>20,>20,>40,>20,>20,>18,>00      ; >7b {
     A94E 2040     
     A950 2020     
     A952 1800     
1923 A954 2020         byte >20,>20,>20,>20,>20,>20,>20,>00      ; >7c |
     A956 2020     
     A958 2020     
     A95A 2000     
1924 A95C C020         byte >c0,>20,>20,>10,>20,>20,>c0,>00      ; >7d }
     A95E 2010     
     A960 2020     
     A962 C000     
1925 A964 0000         byte >00,>00,>40,>a8,>10,>00,>00,>00      ; >7e
     A966 40A8     
     A968 1000     
     A96A 0000     
1926 A96C 7070         byte >70,>70,>20,>f8,>20,>70,>50,>00      ; >7f
     A96E 20F8     
     A970 2070     
     A972 5000     
1927               
1928               
1929               ; The stack is simulated using R10. It's not used in
1930               ; these functions but the compiled code will need it.
1931               ; To push: dect r10, mov r0,*r10
1932               ; To pop:  mov *r10+,r0
1933               ; However, for JSR a function is helpful - call this like:
1934               ; bl @jsr
1935               ; data <function_address>
1936               jsr
1937 A974 C3BB  30     mov *r11+,r14       ; get the jump address
1938 A976 064A  14     dect r10            ; make room on stack
1939 A978 C68B  30     mov r11,*r10        ; save return address
1940 A97A 069E  24     bl *r14             ; new subroutine call, we can come back here
1941 A97C C2FA  30     mov *r10+,r11       ; get real return off stack - warning, all basic functions do this inline rather than return
1942 A97E 045B  20     b *r11              ; back to caller
1943               
1944               ; entry code - we should enter with ints off anyway
1945               START
1946 A980 0300  22     limi 0
     A982 0000     
1947 A984 02E0  18     lwpi mywp           ; get our private workspace
     A986 8300     
1948 A988 020A  20     li R10,>4000        ; pseudo stack pointer
     A98A 4000     
1949 A98C D820  42     movb @>8802,@vdp_status  ; clear any pending VDP interrupt and initialize vdp_status if needed
     A98E 8802     
     A990 837B     
1950               
1951 A992 0200  20     li r0,>0182         ; select 16k, magnified, blank, no ints
     A994 0182     
1952 A996 06A0  32     bl @wrtvdp          ; other ports write this twice... maybe to be 100% sure no NMI happens? We don't have that problem.
     A998 A000     
1953               
1954 A99A 0200  20     li r0,firstsp       ; clear variables in scratchpad
     A99C 8340     
1955               stlp1
1956 A99E 04F0  30     clr *r0+
1957 A9A0 0280  22     ci r0,lastsp
     A9A2 8352     
1958 A9A4 1AFC  14     jl stlp1
1959               
1960 A9A6 0200  20     li r0,>2000         ; clear lower 8k RAM
     A9A8 2000     
1961               stlp2
1962 A9AA 04F0  30     clr *r0+
1963 A9AC 0280  22     ci r0,>4000
     A9AE 4000     
1964 A9B0 16FC  14     jne stlp2
1965               
1966 A9B2 0200  20     li r0,>0f0f
     A9B4 0F0F     
1967 A9B6 C800  30     mov r0,@key1_data   ; gets both - no key is >0f return
     A9B8 8348     
1968               
1969 A9BA 06A0  32     bl @music_init
     A9BC A656     
1970 A9BE 06A0  32     bl @mode_0
     A9C0 A33E     
1971               
1972 A9C2 0200  20     li r0,int_handler
     A9C4 A48E     
1973 A9C6 C800  30     mov r0,@intwsr2     ; set interrupt function
     A9C8 83C4     
1974 A9CA 0200  20     li r0,>8000
     A9CC 8000     
1975 A9CE C800  30     mov r0,@intwsr1     ; disable most console ROM interrupt handling
     A9D0 83C2     
1976 A9D2 0201  20     li r1,1
     A9D4 0001     
1977 A9D6 C801  30     mov r1,@intwsr11    ; make sure screen timeout is odd so it never triggers
     A9D8 83D6     
1978 A9DA 0201  20     li r1,>0108
     A9DC 0108     
1979 A9DE C801  30     mov r1,@gplwsr14    ; GPL status flags, should already be this, but be sure
     A9E0 83FC     
1980 A9E2 D801  30     movb r1,@ntsc       ; init ntsc flag to true - we actually do not have a good way to detect
     A9E4 8350     
1981 A9E6 0201  20     li r1,>8c02
     A9E8 8C02     
1982 A9EA C801  30     mov r1,@gplwsr15    ; Address of VDP for GPL - should already be this, but be sure
     A9EC 83FE     
1983               
1984               ;;; CVBasic code starts here
1985               	; 	' ============================================================
1986               	; 	' ADVENTIRE - an Atari-2600-Adventure-style action-adventure.
1987               	; 	' Original code, art, and room data throughout (a mechanics
1988               	; 	' homage: layouts and connections are our own adaptation of
1989               	; 	' the game structure documented in published maps/guides).
1990               	; 	'
1991               	; 	' FOUR game variations, chosen on the title screen:
1992               	; 	'   GAME 1  INTRO KINGDOM  - our original 13-room map: a
1993               	; 	'           gentle introduction (3 castles, 3 dragons, bat,
1994               	; 	'           bridge + sealed chamber).
1995               	; 	'   GAME 2  SMALL KINGDOM  - compact kingdom in the spirit of
1996               	; 	'           the cartridge's first game: gold + black castles,
1997               	; 	'           two dragons, no bat, no dark rooms.
1998               	; 	'   GAME 3  FULL KINGDOM   - the big map: 3 castles, corridor
1999               	; 	'           row, blue maze, DARK catacombs and black-castle
2000               	; 	'           maze (fog of war), red maze, magnet, bat, and the
2001               	; 	'           hidden-dot secret room.
2002               	; 	'   GAME 4  RANDOM KINGDOM - the full kingdom with object
2003               	; 	'           locations scrambled each game.
2004               	; 	'
2005               	; 	' Core rules (all games):
2006               	; 	'  - Rooms are 32x24 grids of 8x8-pixel cells (4 bytes/row,
2007               	; 	'    authored as readable BITMAP art); collision is a RAM bit
2008               	; 	'    test, zero per-frame VRAM reads. Thin 8px walls give the
2009               	; 	'    kingdom's mazes their winding, original-cartridge look.
2010               	; 	'  - Dragons ignore walls entirely and PURSUE you from room
2011               	; 	'    to room (a live dragon you escape bursts in ~1.3s later).
2012               	; 	'  - Doorways whose exit leads nowhere in the selected game
2013               	; 	'    are sealed on entry, so collision and visuals agree.
2014               	; 	'  - Carry ONE object (touch = pick up / swap, FIRE = drop);
2015               	; 	'    a carried object keeps the offset where you grabbed it.
2016               	; 	'  - Keys open the matching castle gate on touch; walk up into
2017               	; 	'    the open archway to enter.
2018               	; 	'  - The SWORD slays dragons on contact, carried or lying.
2019               	; 	'  - The BRIDGE: grab by its RAILS, drop across a wall (snaps
2020               	; 	'    to the block grid) and walk through its dark channel.
2021               	; 	'  - The MAGNET (games 3/4) drags every loose object in its
2022               	; 	'    room toward it - even out of sealed chambers.
2023               	; 	'  - The BAT steals objects, even from your hands.
2024               	; 	'  - DARK rooms (games 3/4) reveal walls only near you.
2025               	; 	'  - The invisible DOT (games 3/4) hides in the black castle
2026               	; 	'    maze chamber; bring it + 2 objects to the corridor's east
2027               	; 	'    end and the wall opens to a secret room.
2028               	; 	'  - Swallowed or victorious -> back to the title (game
2029               	; 	'    select); every start is a full reset.
2030               	; 	'
2031               	; 	' Build (ONE source, dual target):
2032               	; 	'   TI-99/4A:     cvbasic --ti994a adventire.bas -> xas99 -> linkticart
2033               	; 	'   ColecoVision: cvbasic adventire.bas -> gasm80 -> adventire.rom
2034               	; 	' Loop is paced to 30Hz (two WAITs) on both machines.
2035               	; 	' ============================================================
2036               	;
2037               	; 	' rooms are 32x24 grids of 8x8-pixel cells ("quarter blocks"):
2038               	; 	' 4 bytes per row x 24 rows = 96 bytes, MSB = leftmost cell
2039               	; 	DIM rm(96), msk(8)
2040               	; 	DIM orm(8), obx(8), oby(8), ocl(8)
2041               	; 	DIM drm(3), ddx(3), ddy(3), dst(3), dcl(3), dsp(3), gop(3), fdl(3), drc(3), dpd(3)
2042               	; 	' 71 distinct room rows (4 bytes each) live here; rooms are 24
2043               	; 	' indices into it (see rowdd), expanded into rm() on room entry
2044               	; 	DIM rowd(284)
2045               	;
2046               	; 	BORDER 1
2047 A9EE 0200  20 	li r0,256   ; 1*256
     A9F0 0100     
2048 A9F2 0980  32 	srl r0,8
2049 A9F4 0260  22 	ori r0,>8700
     A9F6 8700     
2050 A9F8 06C0  14 	swpb r0
2051 A9FA 0300  22 	limi 0
     A9FC 0000     
2052 A9FE D800  30 	movb r0,@VDPWADR
     AA00 8C02     
2053 AA02 06C0  14 	swpb r0
2054 AA04 D800  30 	movb r0,@VDPWADR
     AA06 8C02     
2055 AA08 0300  22 	limi 2
     AA0A 0002     
2056               	; 	' 2x sprite magnification: SI=1 (16x16 patterns) + MAG=1 -> sprites
2057               	; 	' render 32x32. VDP()= is CVBasic's portable register write (TI+CV).
2058               	; 	VDP(1) = $E3
2059 AA0C 0200  20 	li r0,58112   ; 227*256
     AA0E E300     
2060 AA10 0201  20 	li r1,33024   ; 1*256+0x8000
     AA12 8100     
2061 AA14 D800  30 	movb r0,@VDPWADR
     AA16 8C02     
2062 AA18 D801  30 	movb r1,@VDPWADR
     AA1A 8C02     
2063               	; 	DEFINE CHAR 128, 2, wallchar
2064 AA1C 0204  20 	li r4,128
     AA1E 0080     
2065 AA20 0205  20 	li r5,512
     AA22 0200     
2066 AA24 0200  20 	li r0,cvb_WALLCHAR
     AA26 F6EB     
2067 AA28 06A0  32 	bl @jsr
     AA2A A974     
2068 AA2C A1FA     	data define_char
2069               	; 	DEFINE COLOR 128, 2, wallcol
2070 AA2E 0204  20 	li r4,128
     AA30 0080     
2071 AA32 0205  20 	li r5,512
     AA34 0200     
2072 AA36 0200  20 	li r0,cvb_WALLCOL
     AA38 F6FB     
2073 AA3A 06A0  32 	bl @jsr
     AA3C A974     
2074 AA3E A22E     	data define_color
2075               	; 	DEFINE SPRITE 0, 13, gsprites
2076 AA40 04C4  14 	clr r4
2077 AA42 0205  20 	li r5,3328
     AA44 0D00     
2078 AA46 0200  20 	li r0,cvb_GSPRITES
     AA48 F70B     
2079 AA4A 06A0  32 	bl @jsr
     AA4C A974     
2080 AA4E A1DA     	data define_sprite
2081               	;
2082               	; 	RESTORE mskdat
2083 AA50 0200  20 	li r0,cvb_MSKDAT
     AA52 F16C     
2084 AA54 C800  30 	mov r0,@read_pointer
     AA56 8340     
2085               	; 	FOR i = 0 TO 7 : READ BYTE msk(i) : NEXT i
2086 AA58 04C0  14 	clr r0
2087 AA5A D800  38 	movb r0,@cvb_I
     AA5C 2087     
2088               cv1
2089 AA5E C060  30 	mov @read_pointer,r1
     AA60 8340     
2090 AA62 D011  26 	movb *r1,r0
2091 AA64 05A0  26 	inc @read_pointer
     AA66 8340     
2092 AA68 C040  18 	mov r0,r1
2093 AA6A D020  34 	movb @cvb_I,r0
     AA6C 2087     
2094 AA6E 0980  32 	srl r0,8
2095 AA70 0220  22 	ai r0,array_MSK
     AA72 2102     
2096 AA74 D401  30 	movb r1,*r0
2097 AA76 D020  34 	movb @cvb_I,r0
     AA78 2087     
2098 AA7A 0220  22 	ai r0,256	; 1
     AA7C 0100     
2099 AA7E D800  38 	movb r0,@cvb_I
     AA80 2087     
2100 AA82 0201  20 	li r1,2048   ; 8*256
     AA84 0800     
2101 AA86 9040  18 	cb r0,r1
2102 AA88 1402  14 	jhe cv2
2103 AA8A 0460  28 	b @cv1
     AA8C AA5E     
2104               cv2
2105               	; 	' load the room-row dictionary once (RAM copy = fast expansion).
2106               	; 	' #di is 16-bit: an 8-bit FOR to 283 would wrap at 255 and hang.
2107               	; 	RESTORE rowdd
2108 AA8E 0200  20 	li r0,cvb_ROWDD
     AA90 F317     
2109 AA92 C800  30 	mov r0,@read_pointer
     AA94 8340     
2110               	; 	FOR #di = 0 TO 283 : READ BYTE rowd(#di) : NEXT #di
2111 AA96 04E0  34 	clr @cvb__DI
     AA98 20BC     
2112               cv3
2113 AA9A C060  30 	mov @read_pointer,r1
     AA9C 8340     
2114 AA9E D011  26 	movb *r1,r0
2115 AAA0 05A0  26 	inc @read_pointer
     AAA2 8340     
2116 AAA4 C040  18 	mov r0,r1
2117 AAA6 C020  34 	mov @cvb__DI,r0
     AAA8 20BC     
2118 AAAA 0220  22 	ai r0,array_ROWD
     AAAC 2132     
2119 AAAE D401  30 	movb r1,*r0
2120 AAB0 05A0  34 	inc @cvb__DI
     AAB2 20BC     
2121 AAB4 C020  34 	mov @cvb__DI,r0
     AAB6 20BC     
2122 AAB8 0201  20 	li r1,284
     AABA 011C     
2123 AABC 8040  18 	c r0,r1
2124 AABE 1402  14 	jhe cv4
2125 AAC0 0460  28 	b @cv3
     AAC2 AA9A     
2126               cv4
2127               	; 	gm = 1
2128 AAC4 0200  20 	li r0,256   ; 1*256
     AAC6 0100     
2129 AAC8 D800  38 	movb r0,@cvb_GM
     AACA 20D7     
2130               	;
2131               	; restart:
2132               cvb_RESTART
2133               	; 	GOSUB title
2134 AACC 06A0  32 	bl @jsr
     AACE A974     
2135 AAD0 EC24     	data cvb_TITLE
2136               	;
2137               	; newgame:
2138               cvb_NEWGAME
2139               	; 	' ---- per-game world state (objects, dragons, bat, start) ----
2140               	; 	IF gm = 1 THEN RESTORE objd1
2141 AAD2 D020  34 	movb @cvb_GM,r0
     AAD4 20D7     
2142 AAD6 0201  20 	li r1,256   ; 1*256
     AAD8 0100     
2143 AADA 9001  18 	cb r1,r0
2144 AADC 1302  14 	jeq cv6
2145 AADE 0460  28 	b @cv5
     AAE0 AAEA     
2146               cv6
2147 AAE2 0200  20 	li r0,cvb_OBJD1
     AAE4 F293     
2148 AAE6 C800  30 	mov r0,@read_pointer
     AAE8 8340     
2149               cv5
2150               	; 	IF gm = 2 THEN RESTORE objd2
2151 AAEA D020  34 	movb @cvb_GM,r0
     AAEC 20D7     
2152 AAEE 0201  20 	li r1,512   ; 2*256
     AAF0 0200     
2153 AAF2 9001  18 	cb r1,r0
2154 AAF4 1302  14 	jeq cv8
2155 AAF6 0460  28 	b @cv7
     AAF8 AB02     
2156               cv8
2157 AAFA 0200  20 	li r0,cvb_OBJD2
     AAFC F2BF     
2158 AAFE C800  30 	mov r0,@read_pointer
     AB00 8340     
2159               cv7
2160               	; 	IF gm > 2 THEN RESTORE objd3
2161 AB02 D020  34 	movb @cvb_GM,r0
     AB04 20D7     
2162 AB06 0201  20 	li r1,768   ; 3*256
     AB08 0300     
2163 AB0A 9040  18 	cb r0,r1
2164 AB0C 1402  14 	jhe cv10
2165 AB0E 0460  28 	b @cv9
     AB10 AB1A     
2166               cv10
2167 AB12 0200  20 	li r0,cvb_OBJD3
     AB14 F2EB     
2168 AB16 C800  30 	mov r0,@read_pointer
     AB18 8340     
2169               cv9
2170               	; 	FOR i = 0 TO 7
2171 AB1A 04C0  14 	clr r0
2172 AB1C D800  38 	movb r0,@cvb_I
     AB1E 2087     
2173               cv11
2174               	; 	READ BYTE orm(i) : READ BYTE obx(i) : READ BYTE oby(i)
2175 AB20 C060  30 	mov @read_pointer,r1
     AB22 8340     
2176 AB24 D011  26 	movb *r1,r0
2177 AB26 05A0  26 	inc @read_pointer
     AB28 8340     
2178 AB2A C040  18 	mov r0,r1
2179 AB2C D020  34 	movb @cvb_I,r0
     AB2E 2087     
2180 AB30 0980  32 	srl r0,8
2181 AB32 0220  22 	ai r0,array_ORM
     AB34 224E     
2182 AB36 D401  30 	movb r1,*r0
2183 AB38 C060  30 	mov @read_pointer,r1
     AB3A 8340     
2184 AB3C D011  26 	movb *r1,r0
2185 AB3E 05A0  26 	inc @read_pointer
     AB40 8340     
2186 AB42 C040  18 	mov r0,r1
2187 AB44 D020  34 	movb @cvb_I,r0
     AB46 2087     
2188 AB48 0980  32 	srl r0,8
2189 AB4A 0220  22 	ai r0,array_OBX
     AB4C 211E     
2190 AB4E D401  30 	movb r1,*r0
2191 AB50 C060  30 	mov @read_pointer,r1
     AB52 8340     
2192 AB54 D011  26 	movb *r1,r0
2193 AB56 05A0  26 	inc @read_pointer
     AB58 8340     
2194 AB5A C040  18 	mov r0,r1
2195 AB5C D020  34 	movb @cvb_I,r0
     AB5E 2087     
2196 AB60 0980  32 	srl r0,8
2197 AB62 0220  22 	ai r0,array_OBY
     AB64 2126     
2198 AB66 D401  30 	movb r1,*r0
2199               	; 	NEXT i
2200 AB68 D020  34 	movb @cvb_I,r0
     AB6A 2087     
2201 AB6C 0220  22 	ai r0,256	; 1
     AB6E 0100     
2202 AB70 D800  38 	movb r0,@cvb_I
     AB72 2087     
2203 AB74 0201  20 	li r1,2048   ; 8*256
     AB76 0800     
2204 AB78 9040  18 	cb r0,r1
2205 AB7A 1402  14 	jhe cv12
2206 AB7C 0460  28 	b @cv11
     AB7E AB20     
2207               cv12
2208               	; 	FOR i = 0 TO 2
2209 AB80 04C0  14 	clr r0
2210 AB82 D800  38 	movb r0,@cvb_I
     AB84 2087     
2211               cv13
2212               	; 	READ BYTE drm(i) : READ BYTE ddx(i) : READ BYTE ddy(i) : READ BYTE dcl(i) : READ BYTE dsp(i)
2213 AB86 C060  30 	mov @read_pointer,r1
     AB88 8340     
2214 AB8A D011  26 	movb *r1,r0
2215 AB8C 05A0  26 	inc @read_pointer
     AB8E 8340     
2216 AB90 C040  18 	mov r0,r1
2217 AB92 D020  34 	movb @cvb_I,r0
     AB94 2087     
2218 AB96 0980  32 	srl r0,8
2219 AB98 0220  22 	ai r0,array_DRM
     AB9A 210A     
2220 AB9C D401  30 	movb r1,*r0
2221 AB9E C060  30 	mov @read_pointer,r1
     ABA0 8340     
2222 ABA2 D011  26 	movb *r1,r0
2223 ABA4 05A0  26 	inc @read_pointer
     ABA6 8340     
2224 ABA8 C040  18 	mov r0,r1
2225 ABAA D020  34 	movb @cvb_I,r0
     ABAC 2087     
2226 ABAE 0980  32 	srl r0,8
2227 ABB0 0220  22 	ai r0,array_DDX
     ABB2 20F2     
2228 ABB4 D401  30 	movb r1,*r0
2229 ABB6 C060  30 	mov @read_pointer,r1
     ABB8 8340     
2230 ABBA D011  26 	movb *r1,r0
2231 ABBC 05A0  26 	inc @read_pointer
     ABBE 8340     
2232 ABC0 C040  18 	mov r0,r1
2233 ABC2 D020  34 	movb @cvb_I,r0
     ABC4 2087     
2234 ABC6 0980  32 	srl r0,8
2235 ABC8 0220  22 	ai r0,array_DDY
     ABCA 20F6     
2236 ABCC D401  30 	movb r1,*r0
2237 ABCE C060  30 	mov @read_pointer,r1
     ABD0 8340     
2238 ABD2 D011  26 	movb *r1,r0
2239 ABD4 05A0  26 	inc @read_pointer
     ABD6 8340     
2240 ABD8 C040  18 	mov r0,r1
2241 ABDA D020  34 	movb @cvb_I,r0
     ABDC 2087     
2242 ABDE 0980  32 	srl r0,8
2243 ABE0 0220  22 	ai r0,array_DCL
     ABE2 20EE     
2244 ABE4 D401  30 	movb r1,*r0
2245 ABE6 C060  30 	mov @read_pointer,r1
     ABE8 8340     
2246 ABEA D011  26 	movb *r1,r0
2247 ABEC 05A0  26 	inc @read_pointer
     ABEE 8340     
2248 ABF0 C040  18 	mov r0,r1
2249 ABF2 D020  34 	movb @cvb_I,r0
     ABF4 2087     
2250 ABF6 0980  32 	srl r0,8
2251 ABF8 0220  22 	ai r0,array_DSP
     ABFA 210E     
2252 ABFC D401  30 	movb r1,*r0
2253               	; 	dst(i) = 0
2254 ABFE 04C1  14 	clr r1
2255 AC00 D020  34 	movb @cvb_I,r0
     AC02 2087     
2256 AC04 0980  32 	srl r0,8
2257 AC06 0220  22 	ai r0,array_DST
     AC08 2112     
2258 AC0A D401  30 	movb r1,*r0
2259               	; 	NEXT i
2260 AC0C D020  34 	movb @cvb_I,r0
     AC0E 2087     
2261 AC10 0220  22 	ai r0,256	; 1
     AC12 0100     
2262 AC14 D800  38 	movb r0,@cvb_I
     AC16 2087     
2263 AC18 0201  20 	li r1,768   ; 3*256
     AC1A 0300     
2264 AC1C 9040  18 	cb r0,r1
2265 AC1E 1402  14 	jhe cv14
2266 AC20 0460  28 	b @cv13
     AC22 AB86     
2267               cv14
2268               	; 	READ BYTE btr : READ BYTE btx : READ BYTE bty
2269 AC24 C060  30 	mov @read_pointer,r1
     AC26 8340     
2270 AC28 D011  26 	movb *r1,r0
2271 AC2A 05A0  26 	inc @read_pointer
     AC2C 8340     
2272 AC2E D800  38 	movb r0,@cvb_BTR
     AC30 2096     
2273 AC32 C060  30 	mov @read_pointer,r1
     AC34 8340     
2274 AC36 D011  26 	movb *r1,r0
2275 AC38 05A0  26 	inc @read_pointer
     AC3A 8340     
2276 AC3C D800  38 	movb r0,@cvb_BTX
     AC3E 2098     
2277 AC40 C060  30 	mov @read_pointer,r1
     AC42 8340     
2278 AC44 D011  26 	movb *r1,r0
2279 AC46 05A0  26 	inc @read_pointer
     AC48 8340     
2280 AC4A D800  38 	movb r0,@cvb_BTY
     AC4C 2099     
2281               	; 	READ BYTE rn : READ BYTE winrm
2282 AC4E C060  30 	mov @read_pointer,r1
     AC50 8340     
2283 AC52 D011  26 	movb *r1,r0
2284 AC54 05A0  26 	inc @read_pointer
     AC56 8340     
2285 AC58 D800  38 	movb r0,@cvb_RN
     AC5A 20E3     
2286 AC5C C060  30 	mov @read_pointer,r1
     AC5E 8340     
2287 AC60 D011  26 	movb *r1,r0
2288 AC62 05A0  26 	inc @read_pointer
     AC64 8340     
2289 AC66 D800  38 	movb r0,@cvb_WINRM
     AC68 20A4     
2290               	; 	fdl(0) = 0 : fdl(1) = 0 : fdl(2) = 0 : prn = 255 : gdir = 255
2291 AC6A 04C0  14 	clr r0
2292 AC6C D800  38 	movb r0,@array_FDL
     AC6E 212E     
2293 AC70 04C0  14 	clr r0
2294 AC72 D800  38 	movb r0,@array_FDL+1
     AC74 212F     
2295 AC76 04C0  14 	clr r0
2296 AC78 D800  38 	movb r0,@array_FDL+2
     AC7A 2130     
2297 AC7C 0200  20 	li r0,65280   ; 255*256
     AC7E FF00     
2298 AC80 D800  38 	movb r0,@cvb_PRN
     AC82 20C4     
2299 AC84 0200  20 	li r0,65280   ; 255*256
     AC86 FF00     
2300 AC88 D800  38 	movb r0,@cvb_GDIR
     AC8A 20EC     
2301               	; 	gop(0) = 0 : gop(1) = 0 : gop(2) = 0
2302 AC8C 04C0  14 	clr r0
2303 AC8E D800  38 	movb r0,@array_GOP
     AC90 2256     
2304 AC92 04C0  14 	clr r0
2305 AC94 D800  38 	movb r0,@array_GOP+1
     AC96 2257     
2306 AC98 04C0  14 	clr r0
2307 AC9A D800  38 	movb r0,@array_GOP+2
     AC9C 2258     
2308               	; 	IF gm = 4 THEN GOSUB rndobj
2309 AC9E D020  34 	movb @cvb_GM,r0
     ACA0 20D7     
2310 ACA2 0201  20 	li r1,1024   ; 4*256
     ACA4 0400     
2311 ACA6 9001  18 	cb r1,r0
2312 ACA8 1302  14 	jeq cv16
2313 ACAA 0460  28 	b @cv15
     ACAC ACB4     
2314               cv16
2315 ACAE 06A0  32 	bl @jsr
     ACB0 A974     
2316 ACB2 E742     	data cvb_RNDOBJ
2317               cv15
2318               	; 	RESTORE ocldat
2319 ACB4 0200  20 	li r0,cvb_OCLDAT
     ACB6 F174     
2320 ACB8 C800  30 	mov r0,@read_pointer
     ACBA 8340     
2321               	; 	FOR i = 0 TO 7 : READ BYTE ocl(i) : NEXT i
2322 ACBC 04C0  14 	clr r0
2323 ACBE D800  38 	movb r0,@cvb_I
     ACC0 2087     
2324               cv17
2325 ACC2 C060  30 	mov @read_pointer,r1
     ACC4 8340     
2326 ACC6 D011  26 	movb *r1,r0
2327 ACC8 05A0  26 	inc @read_pointer
     ACCA 8340     
2328 ACCC C040  18 	mov r0,r1
2329 ACCE D020  34 	movb @cvb_I,r0
     ACD0 2087     
2330 ACD2 0980  32 	srl r0,8
2331 ACD4 0220  22 	ai r0,array_OCL
     ACD6 2116     
2332 ACD8 D401  30 	movb r1,*r0
2333 ACDA D020  34 	movb @cvb_I,r0
     ACDC 2087     
2334 ACDE 0220  22 	ai r0,256	; 1
     ACE0 0100     
2335 ACE2 D800  38 	movb r0,@cvb_I
     ACE4 2087     
2336 ACE6 0201  20 	li r1,2048   ; 8*256
     ACE8 0800     
2337 ACEA 9040  18 	cb r0,r1
2338 ACEC 1402  14 	jhe cv18
2339 ACEE 0460  28 	b @cv17
     ACF0 ACC2     
2340               cv18
2341               	; 	btc = 255 : btcd = 90 : bfx = 0 : bfy = 1
2342 ACF2 0200  20 	li r0,65280   ; 255*256
     ACF4 FF00     
2343 ACF6 D800  38 	movb r0,@cvb_BTC
     ACF8 2094     
2344 ACFA 0200  20 	li r0,23040   ; 90*256
     ACFC 5A00     
2345 ACFE D800  38 	movb r0,@cvb_BTCD
     AD00 20C0     
2346 AD02 04C0  14 	clr r0
2347 AD04 D800  38 	movb r0,@cvb_BFX
     AD06 2080     
2348 AD08 0200  20 	li r0,256   ; 1*256
     AD0A 0100     
2349 AD0C D800  38 	movb r0,@cvb_BFY
     AD0E 2081     
2350               	; 	cr = 255 : pkcd = 0 : btnp = 1 : rmch = 0 : eflag = 0 : tk = 0 : qht = 0
2351 AD10 0200  20 	li r0,65280   ; 255*256
     AD12 FF00     
2352 AD14 D800  38 	movb r0,@cvb_CR
     AD16 20D0     
2353 AD18 04C0  14 	clr r0
2354 AD1A D800  38 	movb r0,@cvb_PKCD
     AD1C 20AC     
2355 AD1E 0200  20 	li r0,256   ; 1*256
     AD20 0100     
2356 AD22 D800  38 	movb r0,@cvb_BTNP
     AD24 20C7     
2357 AD26 04C0  14 	clr r0
2358 AD28 D800  38 	movb r0,@cvb_RMCH
     AD2A 2093     
2359 AD2C 04C0  14 	clr r0
2360 AD2E D800  38 	movb r0,@cvb_EFLAG
     AD30 20A5     
2361 AD32 04C0  14 	clr r0
2362 AD34 D800  38 	movb r0,@cvb_TK
     AD36 20E6     
2363 AD38 04C0  14 	clr r0
2364 AD3A D800  38 	movb r0,@cvb_QHT
     AD3C 20C5     
2365               	; 	sfx = 0 : sfc = 0 : #crx = 64 : #cry = 64 : eggon = 0
2366 AD3E 04C0  14 	clr r0
2367 AD40 D800  38 	movb r0,@cvb_SFX
     AD42 20E2     
2368 AD44 04C0  14 	clr r0
2369 AD46 D800  38 	movb r0,@cvb_SFC
     AD48 20DA     
2370 AD4A 0200  20 	li r0,64
     AD4C 0040     
2371 AD4E C800  38 	mov r0,@cvb__CRX
     AD50 20A8     
2372 AD52 0200  20 	li r0,64
     AD54 0040     
2373 AD56 C800  38 	mov r0,@cvb__CRY
     AD58 20AA     
2374 AD5A 04C0  14 	clr r0
2375 AD5C D800  38 	movb r0,@cvb_EGGON
     AD5E 209E     
2376               	; 	SOUND 0, , 0 : SOUND 3, , 0
2377 AD60 04C0  14 	clr r0
2378 AD62 0202  20 	li r2,>9000
     AD64 9000     
2379 AD66 06A0  32 	bl @jsr
     AD68 A974     
2380 AD6A A2D6     	data sn76489_vol
2381 AD6C 04C0  14 	clr r0
2382 AD6E 0202  20 	li r2,>f000
     AD70 F000     
2383 AD72 06A0  32 	bl @jsr
     AD74 A974     
2384 AD76 A2D6     	data sn76489_vol
2385               	; 	px = 120 : py = 160
2386 AD78 0200  20 	li r0,30720   ; 120*256
     AD7A 7800     
2387 AD7C D800  38 	movb r0,@cvb_PX
     AD7E 20DF     
2388 AD80 0200  20 	li r0,40960   ; 160*256
     AD82 A000     
2389 AD84 D800  38 	movb r0,@cvb_PY
     AD86 20E0     
2390               	; 	GOSUB enterroom
2391 AD88 06A0  32 	bl @jsr
     AD8A A974     
2392 AD8C D61A     	data cvb_ENTERROOM
2393               	;
2394               	; mainloop:
2395               cvb_MAINLOOP
2396               	; 	WAIT
2397 AD8E 06A0  32 	bl @jsr
     AD90 A974     
2398 AD92 A64A     	data wait
2399               	; 	WAIT
2400 AD94 06A0  32 	bl @jsr
     AD96 A974     
2401 AD98 A64A     	data wait
2402               	; 	tk = tk + 1
2403 AD9A D020  34 	movb @cvb_TK,r0
     AD9C 20E6     
2404 AD9E 0220  22 	ai r0,256	; 1
     ADA0 0100     
2405 ADA2 D800  38 	movb r0,@cvb_TK
     ADA4 20E6     
2406               	; 	' player glides 3.5 px/frame (alternating 3 and 4) - a touch
2407               	; 	' faster than a normal dragon so open ground can be outrun
2408               	; 	pstep = 3 + (tk AND 1)
2409 ADA6 0201  20 	li r1,256   ; 1*256
     ADA8 0100     
2410 ADAA 0541  14 	inv r1
2411 ADAC 5001  18 	szcb r1,r0
2412 ADAE 0220  22 	ai r0,768	; 3
     ADB0 0300     
2413 ADB2 D800  38 	movb r0,@cvb_PSTEP
     ADB4 2082     
2414               	; 	GOSUB dosfx
2415 ADB6 06A0  32 	bl @jsr
     ADB8 A974     
2416 ADBA E852     	data cvb_DOSFX
2417               	; 	IF pkcd > 0 THEN pkcd = pkcd - 1
2418 ADBC D020  34 	movb @cvb_PKCD,r0
     ADBE 20AC     
2419 ADC0 0201  20 	li r1,256   ; 1*256
     ADC2 0100     
2420 ADC4 9040  18 	cb r0,r1
2421 ADC6 1402  14 	jhe cv20
2422 ADC8 0460  28 	b @cv19
     ADCA ADD8     
2423               cv20
2424 ADCC D020  34 	movb @cvb_PKCD,r0
     ADCE 20AC     
2425 ADD0 0220  22 	ai r0,65280	; -1
     ADD2 FF00     
2426 ADD4 D800  38 	movb r0,@cvb_PKCD
     ADD6 20AC     
2427               cv19
2428               	;
2429               	; 	' --- player movement (X and Y independent => wall sliding) ---
2430               	; 	IF cont1.left THEN GOSUB mvleft
2431 ADD8 D020  30 	movb @joy1_data,r0
     ADDA 8346     
2432 ADDC 0201  20 	li r1,2048   ; 8*256
     ADDE 0800     
2433 ADE0 0541  14 	inv r1
2434 ADE2 5001  18 	szcb r1,r0
2435 ADE4 1602  14 	jne cv22
2436 ADE6 0460  28 	b @cv21
     ADE8 ADF0     
2437               cv22
2438 ADEA 06A0  32 	bl @jsr
     ADEC A974     
2439 ADEE B492     	data cvb_MVLEFT
2440               cv21
2441               	; 	IF cont1.right THEN GOSUB mvright
2442 ADF0 D020  30 	movb @joy1_data,r0
     ADF2 8346     
2443 ADF4 0201  20 	li r1,512   ; 2*256
     ADF6 0200     
2444 ADF8 0541  14 	inv r1
2445 ADFA 5001  18 	szcb r1,r0
2446 ADFC 1602  14 	jne cv24
2447 ADFE 0460  28 	b @cv23
     AE00 AE08     
2448               cv24
2449 AE02 06A0  32 	bl @jsr
     AE04 A974     
2450 AE06 B53C     	data cvb_MVRIGHT
2451               cv23
2452               	; 	IF cont1.up THEN GOSUB mvup
2453 AE08 D020  30 	movb @joy1_data,r0
     AE0A 8346     
2454 AE0C 0201  20 	li r1,256   ; 1*256
     AE0E 0100     
2455 AE10 0541  14 	inv r1
2456 AE12 5001  18 	szcb r1,r0
2457 AE14 1602  14 	jne cv26
2458 AE16 0460  28 	b @cv25
     AE18 AE20     
2459               cv26
2460 AE1A 06A0  32 	bl @jsr
     AE1C A974     
2461 AE1E B5E8     	data cvb_MVUP
2462               cv25
2463               	; 	IF cont1.down THEN GOSUB mvdown
2464 AE20 D020  30 	movb @joy1_data,r0
     AE22 8346     
2465 AE24 0201  20 	li r1,1024   ; 4*256
     AE26 0400     
2466 AE28 0541  14 	inv r1
2467 AE2A 5001  18 	szcb r1,r0
2468 AE2C 1602  14 	jne cv28
2469 AE2E 0460  28 	b @cv27
     AE30 AE38     
2470               cv28
2471 AE32 06A0  32 	bl @jsr
     AE34 A974     
2472 AE36 B692     	data cvb_MVDOWN
2473               cv27
2474               	; 	IF rmch = 1 THEN rmch = 0 : GOTO drawframe
2475 AE38 D020  34 	movb @cvb_RMCH,r0
     AE3A 2093     
2476 AE3C 0201  20 	li r1,256   ; 1*256
     AE3E 0100     
2477 AE40 9001  18 	cb r1,r0
2478 AE42 1302  14 	jeq cv30
2479 AE44 0460  28 	b @cv29
     AE46 AE52     
2480               cv30
2481 AE48 04C0  14 	clr r0
2482 AE4A D800  38 	movb r0,@cvb_RMCH
     AE4C 2093     
2483 AE4E 0460  28 	b @cvb_DRAWFRAME
     AE50 B0A0     
2484               cv29
2485               	;
2486               	; 	' --- dark rooms: keep the reveal window on the player ---
2487               	; 	IF fon = 1 THEN GOSUB fogupd
2488 AE52 D020  34 	movb @cvb_FON,r0
     AE54 20AF     
2489 AE56 0201  20 	li r1,256   ; 1*256
     AE58 0100     
2490 AE5A 9001  18 	cb r1,r0
2491 AE5C 1302  14 	jeq cv32
2492 AE5E 0460  28 	b @cv31
     AE60 AE68     
2493               cv32
2494 AE62 06A0  32 	bl @jsr
     AE64 A974     
2495 AE66 E054     	data cvb_FOGUPD
2496               cv31
2497               	;
2498               	; 	' --- castle gate: open with key / walk in when open ---
2499               	; 	IF gz > 0 THEN GOSUB gatelogic
2500 AE68 D020  34 	movb @cvb_GZ,r0
     AE6A 20D8     
2501 AE6C 0201  20 	li r1,256   ; 1*256
     AE6E 0100     
2502 AE70 9040  18 	cb r0,r1
2503 AE72 1402  14 	jhe cv34
2504 AE74 0460  28 	b @cv33
     AE76 AE7E     
2505               cv34
2506 AE78 06A0  32 	bl @jsr
     AE7A A974     
2507 AE7C BD32     	data cvb_GATELOGIC
2508               cv33
2509               	; 	IF rmch = 1 THEN rmch = 0 : GOTO drawframe
2510 AE7E D020  34 	movb @cvb_RMCH,r0
     AE80 2093     
2511 AE82 0201  20 	li r1,256   ; 1*256
     AE84 0100     
2512 AE86 9001  18 	cb r1,r0
2513 AE88 1302  14 	jeq cv36
2514 AE8A 0460  28 	b @cv35
     AE8C AE98     
2515               cv36
2516 AE8E 04C0  14 	clr r0
2517 AE90 D800  38 	movb r0,@cvb_RMCH
     AE92 2093     
2518 AE94 0460  28 	b @cvb_DRAWFRAME
     AE96 B0A0     
2519               cv35
2520               	;
2521               	; 	' --- drop carried object with FIRE (edge-triggered) ---
2522               	; 	b = cont1.button
2523 AE98 D020  30 	movb @joy1_data,r0
     AE9A 8346     
2524 AE9C 0201  20 	li r1,16384   ; 64*256
     AE9E 4000     
2525 AEA0 0541  14 	inv r1
2526 AEA2 5001  18 	szcb r1,r0
2527 AEA4 D800  38 	movb r0,@cvb_B
     AEA6 2083     
2528               	; 	IF b > 0 THEN IF btnp = 0 THEN IF cr < 8 THEN GOSUB dodrop
2529 AEA8 0201  20 	li r1,256   ; 1*256
     AEAA 0100     
2530 AEAC 9040  18 	cb r0,r1
2531 AEAE 1402  14 	jhe cv38
2532 AEB0 0460  28 	b @cv37
     AEB2 AED4     
2533               cv38
2534 AEB4 D020  34 	movb @cvb_BTNP,r0
     AEB6 20C7     
2535 AEB8 1302  14 	jeq cv40
2536 AEBA 0460  28 	b @cv39
     AEBC AED4     
2537               cv40
2538 AEBE D020  34 	movb @cvb_CR,r0
     AEC0 20D0     
2539 AEC2 0201  20 	li r1,2048   ; 8*256
     AEC4 0800     
2540 AEC6 9040  18 	cb r0,r1
2541 AEC8 1A02  14 	jl cv42
2542 AECA 0460  28 	b @cv41
     AECC AED4     
2543               cv42
2544 AECE 06A0  32 	bl @jsr
     AED0 A974     
2545 AED2 B366     	data cvb_DODROP
2546               cv41
2547               cv39
2548               cv37
2549               	; 	btnp = b
2550 AED4 D820  54 	movb @cvb_B,@cvb_BTNP
     AED6 2083     
     AED8 20C7     
2551               	;
2552               	; 	' --- hold FIRE 4s to abandon the quest (back to the title);
2553               	; 	' a rising tone arms for the final 2s, release cancels ---
2554               	; 	IF b = 0 THEN IF qht > 60 THEN SOUND 0, , 0
2555 AEDA D020  34 	movb @cvb_B,r0
     AEDC 2083     
2556 AEDE 1302  14 	jeq cv44
2557 AEE0 0460  28 	b @cv43
     AEE2 AF00     
2558               cv44
2559 AEE4 D020  34 	movb @cvb_QHT,r0
     AEE6 20C5     
2560 AEE8 0201  20 	li r1,15616   ; 61*256
     AEEA 3D00     
2561 AEEC 9040  18 	cb r0,r1
2562 AEEE 1402  14 	jhe cv46
2563 AEF0 0460  28 	b @cv45
     AEF2 AF00     
2564               cv46
2565 AEF4 04C0  14 	clr r0
2566 AEF6 0202  20 	li r2,>9000
     AEF8 9000     
2567 AEFA 06A0  32 	bl @jsr
     AEFC A974     
2568 AEFE A2D6     	data sn76489_vol
2569               cv45
2570               cv43
2571               	; 	IF b = 0 THEN qht = 0
2572 AF00 D020  34 	movb @cvb_B,r0
     AF02 2083     
2573 AF04 1302  14 	jeq cv48
2574 AF06 0460  28 	b @cv47
     AF08 AF10     
2575               cv48
2576 AF0A 04C0  14 	clr r0
2577 AF0C D800  38 	movb r0,@cvb_QHT
     AF0E 20C5     
2578               cv47
2579               	; 	IF b > 0 THEN qht = qht + 1 : IF qht > 60 THEN SOUND 0, 840 - qht * 4, 10
2580 AF10 D020  34 	movb @cvb_B,r0
     AF12 2083     
2581 AF14 0201  20 	li r1,256   ; 1*256
     AF16 0100     
2582 AF18 9040  18 	cb r0,r1
2583 AF1A 1402  14 	jhe cv50
2584 AF1C 0460  28 	b @cv49
     AF1E AF60     
2585               cv50
2586 AF20 D020  34 	movb @cvb_QHT,r0
     AF22 20C5     
2587 AF24 0220  22 	ai r0,256	; 1
     AF26 0100     
2588 AF28 D800  38 	movb r0,@cvb_QHT
     AF2A 20C5     
2589 AF2C 0201  20 	li r1,15616   ; 61*256
     AF2E 3D00     
2590 AF30 9040  18 	cb r0,r1
2591 AF32 1402  14 	jhe cv52
2592 AF34 0460  28 	b @cv51
     AF36 AF60     
2593               cv52
2594 AF38 D020  34 	movb @cvb_QHT,r0
     AF3A 20C5     
2595 AF3C 0980  32 	srl r0,8
2596 AF3E 0A20  20 	sla r0,2
2597 AF40 C040  18 	mov r0,r1
2598 AF42 0200  20 	li r0,840
     AF44 0348     
2599 AF46 6001  18 	s r1,r0
2600 AF48 0202  20 	li r2,>8000
     AF4A 8000     
2601 AF4C 06A0  32 	bl @jsr
     AF4E A974     
2602 AF50 A2BA     	data sn76489_freq
2603 AF52 0200  20 	li r0,2560   ; 10*256
     AF54 0A00     
2604 AF56 0202  20 	li r2,>9000
     AF58 9000     
2605 AF5A 06A0  32 	bl @jsr
     AF5C A974     
2606 AF5E A2D6     	data sn76489_vol
2607               cv51
2608               cv49
2609               	; 	IF qht >= 120 THEN SOUND 0, , 0 : GOTO restart
2610 AF60 D020  34 	movb @cvb_QHT,r0
     AF62 20C5     
2611 AF64 0201  20 	li r1,30720   ; 120*256
     AF66 7800     
2612 AF68 9040  18 	cb r0,r1
2613 AF6A 1402  14 	jhe cv54
2614 AF6C 0460  28 	b @cv53
     AF6E AF80     
2615               cv54
2616 AF70 04C0  14 	clr r0
2617 AF72 0202  20 	li r2,>9000
     AF74 9000     
2618 AF76 06A0  32 	bl @jsr
     AF78 A974     
2619 AF7A A2D6     	data sn76489_vol
2620 AF7C 0460  28 	b @cvb_RESTART
     AF7E AACC     
2621               cv53
2622               	;
2623               	; 	' --- carried object keeps the offset where it was grabbed ---
2624               	; 	IF cr < 8 THEN GOSUB carrypos
2625 AF80 D020  34 	movb @cvb_CR,r0
     AF82 20D0     
2626 AF84 0201  20 	li r1,2048   ; 8*256
     AF86 0800     
2627 AF88 9040  18 	cb r0,r1
2628 AF8A 1A02  14 	jl cv56
2629 AF8C 0460  28 	b @cv55
     AF8E AF96     
2630               cv56
2631 AF90 06A0  32 	bl @jsr
     AF92 A974     
2632 AF94 BFBC     	data cvb_CARRYPOS
2633               cv55
2634               	;
2635               	; 	' --- WIN: the chalice is inside the gold castle ---
2636               	; 	IF orm(5) = winrm THEN GOTO winseq
2637 AF96 D020  34 	movb @array_ORM+5,r0
     AF98 2253     
2638 AF9A 9020  34 	cb @cvb_WINRM,r0
     AF9C 20A4     
2639 AF9E 1302  14 	jeq cv58
2640 AFA0 0460  28 	b @cv57
     AFA2 AFA8     
2641               cv58
2642 AFA4 0460  28 	b @cvb_WINSEQ
     AFA6 E9D4     
2643               cv57
2644               	;
2645               	; 	' --- pick up / swap on touch ---
2646               	; 	IF pkcd = 0 THEN GOSUB trypick
2647 AFA8 D020  34 	movb @cvb_PKCD,r0
     AFAA 20AC     
2648 AFAC 1302  14 	jeq cv60
2649 AFAE 0460  28 	b @cv59
     AFB0 AFB8     
2650               cv60
2651 AFB2 06A0  32 	bl @jsr
     AFB4 A974     
2652 AFB6 C070     	data cvb_TRYPICK
2653               cv59
2654               	;
2655               	; 	' --- the magnet drags loose objects in its room ---
2656               	; 	IF orm(6) = rn THEN IF cr <> 6 THEN GOSUB magnetdo
2657 AFB8 D020  34 	movb @array_ORM+6,r0
     AFBA 2254     
2658 AFBC 9020  34 	cb @cvb_RN,r0
     AFBE 20E3     
2659 AFC0 1302  14 	jeq cv62
2660 AFC2 0460  28 	b @cv61
     AFC4 AFDC     
2661               cv62
2662 AFC6 D020  34 	movb @cvb_CR,r0
     AFC8 20D0     
2663 AFCA 0201  20 	li r1,1536   ; 6*256
     AFCC 0600     
2664 AFCE 9001  18 	cb r1,r0
2665 AFD0 1602  14 	jne cv64
2666 AFD2 0460  28 	b @cv63
     AFD4 AFDC     
2667               cv64
2668 AFD6 06A0  32 	bl @jsr
     AFD8 A974     
2669 AFDA C370     	data cvb_MAGNETDO
2670               cv63
2671               cv61
2672               	;
2673               	; 	' --- secret wall: check + flicker (full kingdom only) ---
2674               	; 	IF gm > 2 THEN IF rn = 17 THEN GOSUB eggdo
2675 AFDC D020  34 	movb @cvb_GM,r0
     AFDE 20D7     
2676 AFE0 0201  20 	li r1,768   ; 3*256
     AFE2 0300     
2677 AFE4 9040  18 	cb r0,r1
2678 AFE6 1402  14 	jhe cv66
2679 AFE8 0460  28 	b @cv65
     AFEA B002     
2680               cv66
2681 AFEC D020  34 	movb @cvb_RN,r0
     AFEE 20E3     
2682 AFF0 0201  20 	li r1,4352   ; 17*256
     AFF2 1100     
2683 AFF4 9001  18 	cb r1,r0
2684 AFF6 1302  14 	jeq cv68
2685 AFF8 0460  28 	b @cv67
     AFFA B002     
2686               cv68
2687 AFFC 06A0  32 	bl @jsr
     AFFE A974     
2688 B000 C516     	data cvb_EGGDO
2689               cv67
2690               cv65
2691               	; 	IF rn = 18 THEN GOSUB eggtxt
2692 B002 D020  34 	movb @cvb_RN,r0
     B004 20E3     
2693 B006 0201  20 	li r1,4608   ; 18*256
     B008 1200     
2694 B00A 9001  18 	cb r1,r0
2695 B00C 1302  14 	jeq cv70
2696 B00E 0460  28 	b @cv69
     B010 B018     
2697               cv70
2698 B012 06A0  32 	bl @jsr
     B014 A974     
2699 B016 C644     	data cvb_EGGTXT
2700               cv69
2701               	;
2702               	; 	' --- the bat flies always, everywhere ---
2703               	; 	IF btr < 255 THEN GOSUB batdo
2704 B018 D020  34 	movb @cvb_BTR,r0
     B01A 2096     
2705 B01C 0201  20 	li r1,65280   ; 255*256
     B01E FF00     
2706 B020 9040  18 	cb r0,r1
2707 B022 1A02  14 	jl cv72
2708 B024 0460  28 	b @cv71
     B026 B02E     
2709               cv72
2710 B028 06A0  32 	bl @jsr
     B02A A974     
2711 B02C C710     	data cvb_BATDO
2712               cv71
2713               	;
2714               	; 	' --- dragons: pending pursuers arrive, residents chase ---
2715               	; 	FOR d = 0 TO 2
2716 B02E 04C0  14 	clr r0
2717 B030 D800  38 	movb r0,@cvb_D
     B032 2084     
2718               cv73
2719               	; 	IF fdl(d) > 0 THEN GOSUB dfollow
2720 B034 D020  34 	movb @cvb_D,r0
     B036 2084     
2721 B038 0980  32 	srl r0,8
2722 B03A 0220  22 	ai r0,array_FDL
     B03C 212E     
2723 B03E D010  26 	movb *r0,r0
2724 B040 0201  20 	li r1,256   ; 1*256
     B042 0100     
2725 B044 9040  18 	cb r0,r1
2726 B046 1402  14 	jhe cv75
2727 B048 0460  28 	b @cv74
     B04A B052     
2728               cv75
2729 B04C 06A0  32 	bl @jsr
     B04E A974     
2730 B050 CFD2     	data cvb_DFOLLOW
2731               cv74
2732               	; 	IF drm(d) = rn THEN GOSUB dragondo
2733 B052 D020  34 	movb @cvb_D,r0
     B054 2084     
2734 B056 0980  32 	srl r0,8
2735 B058 0220  22 	ai r0,array_DRM
     B05A 210A     
2736 B05C D010  26 	movb *r0,r0
2737 B05E 9020  34 	cb @cvb_RN,r0
     B060 20E3     
2738 B062 1302  14 	jeq cv77
2739 B064 0460  28 	b @cv76
     B066 B06E     
2740               cv77
2741 B068 06A0  32 	bl @jsr
     B06A A974     
2742 B06C CC62     	data cvb_DRAGONDO
2743               cv76
2744               	; 	NEXT d
2745 B06E D020  34 	movb @cvb_D,r0
     B070 2084     
2746 B072 0220  22 	ai r0,256	; 1
     B074 0100     
2747 B076 D800  38 	movb r0,@cvb_D
     B078 2084     
2748 B07A 0201  20 	li r1,768   ; 3*256
     B07C 0300     
2749 B07E 9040  18 	cb r0,r1
2750 B080 1402  14 	jhe cv78
2751 B082 0460  28 	b @cv73
     B084 B034     
2752               cv78
2753               	; 	' swallowed: play the sequence, then back to the title
2754               	; 	IF eflag > 0 THEN GOSUB eatenrt : GOTO restart
2755 B086 D020  34 	movb @cvb_EFLAG,r0
     B088 20A5     
2756 B08A 0201  20 	li r1,256   ; 1*256
     B08C 0100     
2757 B08E 9040  18 	cb r0,r1
2758 B090 1402  14 	jhe cv80
2759 B092 0460  28 	b @cv79
     B094 B0A0     
2760               cv80
2761 B096 06A0  32 	bl @jsr
     B098 A974     
2762 B09A D206     	data cvb_EATENRT
2763 B09C 0460  28 	b @cvb_RESTART
     B09E AACC     
2764               cv79
2765               	;
2766               	; drawframe:
2767               cvb_DRAWFRAME
2768               	; 	SPRITE 0, py - 1, px, 0, pcol
2769 B0A0 04C4  14 	clr r4
2770 B0A2 D020  34 	movb @cvb_PY,r0
     B0A4 20E0     
2771 B0A6 0220  22 	ai r0,65280	; -1
     B0A8 FF00     
2772 B0AA D140  18 	movb r0,r5
2773 B0AC D1A0  34 	movb @cvb_PX,r6
     B0AE 20DF     
2774 B0B0 04C7  14 	clr r7
2775 B0B2 D020  34 	movb @cvb_PCOL,r0
     B0B4 20D1     
2776 B0B6 06A0  32 	bl @jsr
     B0B8 A974     
2777 B0BA A24E     	data update_sprite
2778               	; 	' dragons are TWO stacked 32x32 sprites (32x64 shown)
2779               	; 	FOR d = 0 TO 2
2780 B0BC 04C0  14 	clr r0
2781 B0BE D800  38 	movb r0,@cvb_D
     B0C0 2084     
2782               cv81
2783               	; 	IF drm(d) = rn THEN GOSUB drawdrg ELSE SPRITE 1 + d + d, $d1, 0, 0, 0 : SPRITE 2 + d + d, $d1, 0, 0, 0
2784 B0C2 D020  34 	movb @cvb_D,r0
     B0C4 2084     
2785 B0C6 0980  32 	srl r0,8
2786 B0C8 0220  22 	ai r0,array_DRM
     B0CA 210A     
2787 B0CC D010  26 	movb *r0,r0
2788 B0CE 9020  34 	cb @cvb_RN,r0
     B0D0 20E3     
2789 B0D2 1302  14 	jeq cv83
2790 B0D4 0460  28 	b @cv82
     B0D6 B0E2     
2791               cv83
2792 B0D8 06A0  32 	bl @jsr
     B0DA A974     
2793 B0DC B242     	data cvb_DRAWDRG
2794 B0DE 0460  28 	b @cv84
     B0E0 B12E     
2795               cv82
2796 B0E2 D020  34 	movb @cvb_D,r0
     B0E4 2084     
2797 B0E6 0980  32 	srl r0,8
2798 B0E8 C040  18 	mov r0,r1
2799 B0EA D020  34 	movb @cvb_D,r0
     B0EC 2084     
2800 B0EE 0980  32 	srl r0,8
2801 B0F0 0580  14 	inc r0
2802 B0F2 A001  18 	a r1,r0
2803 B0F4 0A80  32 	sla r0,8
2804 B0F6 C100  18 	mov r0,r4
2805 B0F8 0205  20 	li r5,53504
     B0FA D100     
2806 B0FC 04C6  14 	clr r6
2807 B0FE 04C7  14 	clr r7
2808 B100 04C0  14 	clr r0
2809 B102 06A0  32 	bl @jsr
     B104 A974     
2810 B106 A24E     	data update_sprite
2811 B108 D020  34 	movb @cvb_D,r0
     B10A 2084     
2812 B10C 0980  32 	srl r0,8
2813 B10E C040  18 	mov r0,r1
2814 B110 D020  34 	movb @cvb_D,r0
     B112 2084     
2815 B114 0980  32 	srl r0,8
2816 B116 05C0  14 	inct r0
2817 B118 A001  18 	a r1,r0
2818 B11A 0A80  32 	sla r0,8
2819 B11C C100  18 	mov r0,r4
2820 B11E 0205  20 	li r5,53504
     B120 D100     
2821 B122 04C6  14 	clr r6
2822 B124 04C7  14 	clr r7
2823 B126 04C0  14 	clr r0
2824 B128 06A0  32 	bl @jsr
     B12A A974     
2825 B12C A24E     	data update_sprite
2826               cv84
2827               	; 	NEXT d
2828 B12E D020  34 	movb @cvb_D,r0
     B130 2084     
2829 B132 0220  22 	ai r0,256	; 1
     B134 0100     
2830 B136 D800  38 	movb r0,@cvb_D
     B138 2084     
2831 B13A 0201  20 	li r1,768   ; 3*256
     B13C 0300     
2832 B13E 9040  18 	cb r0,r1
2833 B140 1402  14 	jhe cv85
2834 B142 0460  28 	b @cv81
     B144 B0C2     
2835               cv85
2836               	; 	FOR i = 0 TO 7
2837 B146 04C0  14 	clr r0
2838 B148 D800  38 	movb r0,@cvb_I
     B14A 2087     
2839               cv86
2840               	; 	IF orm(i) = rn THEN GOSUB drawobj ELSE SPRITE 7 + i, $d1, 0, 0, 0
2841 B14C D020  34 	movb @cvb_I,r0
     B14E 2087     
2842 B150 0980  32 	srl r0,8
2843 B152 0220  22 	ai r0,array_ORM
     B154 224E     
2844 B156 D010  26 	movb *r0,r0
2845 B158 9020  34 	cb @cvb_RN,r0
     B15A 20E3     
2846 B15C 1302  14 	jeq cv88
2847 B15E 0460  28 	b @cv87
     B160 B16C     
2848               cv88
2849 B162 06A0  32 	bl @jsr
     B164 A974     
2850 B166 B3AE     	data cvb_DRAWOBJ
2851 B168 0460  28 	b @cv89
     B16A B186     
2852               cv87
2853 B16C D020  34 	movb @cvb_I,r0
     B16E 2087     
2854 B170 0220  22 	ai r0,1792	; 7
     B172 0700     
2855 B174 C100  18 	mov r0,r4
2856 B176 0205  20 	li r5,53504
     B178 D100     
2857 B17A 04C6  14 	clr r6
2858 B17C 04C7  14 	clr r7
2859 B17E 04C0  14 	clr r0
2860 B180 06A0  32 	bl @jsr
     B182 A974     
2861 B184 A24E     	data update_sprite
2862               cv89
2863               	; 	NEXT i
2864 B186 D020  34 	movb @cvb_I,r0
     B188 2087     
2865 B18A 0220  22 	ai r0,256	; 1
     B18C 0100     
2866 B18E D800  38 	movb r0,@cvb_I
     B190 2087     
2867 B192 0201  20 	li r1,2048   ; 8*256
     B194 0800     
2868 B196 9040  18 	cb r0,r1
2869 B198 1402  14 	jhe cv90
2870 B19A 0460  28 	b @cv86
     B19C B14C     
2871               cv90
2872               	; 	IF btr = rn THEN SPRITE 15, bty - 1, btx, 32 + ((tk AND 2) * 2), 1 ELSE SPRITE 15, $d1, 0, 0, 0
2873 B19E D020  34 	movb @cvb_BTR,r0
     B1A0 2096     
2874 B1A2 9020  34 	cb @cvb_RN,r0
     B1A4 20E3     
2875 B1A6 1302  14 	jeq cv92
2876 B1A8 0460  28 	b @cv91
     B1AA B1E4     
2877               cv92
2878 B1AC 0204  20 	li r4,3840
     B1AE 0F00     
2879 B1B0 D020  34 	movb @cvb_BTY,r0
     B1B2 2099     
2880 B1B4 0220  22 	ai r0,65280	; -1
     B1B6 FF00     
2881 B1B8 D140  18 	movb r0,r5
2882 B1BA D1A0  34 	movb @cvb_BTX,r6
     B1BC 2098     
2883 B1BE D020  34 	movb @cvb_TK,r0
     B1C0 20E6     
2884 B1C2 0201  20 	li r1,512   ; 2*256
     B1C4 0200     
2885 B1C6 0541  14 	inv r1
2886 B1C8 5001  18 	szcb r1,r0
2887 B1CA 0240  22 	andi r0,>ff00
     B1CC FF00     
2888 B1CE 0A10  18 	sla r0,1
2889 B1D0 0220  22 	ai r0,8192	; 32
     B1D2 2000     
2890 B1D4 D1C0  18 	movb r0,r7
2891 B1D6 0200  20 	li r0,256   ; 1*256
     B1D8 0100     
2892 B1DA 06A0  32 	bl @jsr
     B1DC A974     
2893 B1DE A24E     	data update_sprite
2894 B1E0 0460  28 	b @cv93
     B1E2 B1F8     
2895               cv91
2896 B1E4 0204  20 	li r4,3840
     B1E6 0F00     
2897 B1E8 0205  20 	li r5,53504
     B1EA D100     
2898 B1EC 04C6  14 	clr r6
2899 B1EE 04C7  14 	clr r7
2900 B1F0 04C0  14 	clr r0
2901 B1F2 06A0  32 	bl @jsr
     B1F4 A974     
2902 B1F6 A24E     	data update_sprite
2903               cv93
2904               	; 	' the bridge channel gets a black fill sprite so it reads as
2905               	; 	' an opening in the wall it spans (rails sprite lies on top)
2906               	; 	IF orm(4) = rn THEN SPRITE 16, oby(4) - 1, obx(4), 40, 1 ELSE SPRITE 16, $d1, 0, 0, 0
2907 B1F8 D020  34 	movb @array_ORM+4,r0
     B1FA 2252     
2908 B1FC 9020  34 	cb @cvb_RN,r0
     B1FE 20E3     
2909 B200 1302  14 	jeq cv95
2910 B202 0460  28 	b @cv94
     B204 B22A     
2911               cv95
2912 B206 0204  20 	li r4,4096
     B208 1000     
2913 B20A D020  34 	movb @array_OBY+4,r0
     B20C 212A     
2914 B20E 0220  22 	ai r0,65280	; -1
     B210 FF00     
2915 B212 D140  18 	movb r0,r5
2916 B214 D1A0  34 	movb @array_OBX+4,r6
     B216 2122     
2917 B218 0207  20 	li r7,10240
     B21A 2800     
2918 B21C 0200  20 	li r0,256   ; 1*256
     B21E 0100     
2919 B220 06A0  32 	bl @jsr
     B222 A974     
2920 B224 A24E     	data update_sprite
2921 B226 0460  28 	b @cv96
     B228 B23E     
2922               cv94
2923 B22A 0204  20 	li r4,4096
     B22C 1000     
2924 B22E 0205  20 	li r5,53504
     B230 D100     
2925 B232 04C6  14 	clr r6
2926 B234 04C7  14 	clr r7
2927 B236 04C0  14 	clr r0
2928 B238 06A0  32 	bl @jsr
     B23A A974     
2929 B23C A24E     	data update_sprite
2930               cv96
2931               	; 	GOTO mainloop
2932 B23E 0460  28 	b @cvb_MAINLOOP
     B240 AD8E     
2933               	;
2934               	; 	' ------------------------------------------------------------
2935               	; 	' dragon body: def1 (head/neck) above def2 (body/legs);
2936               	; 	' slain dragons collapse to the belly-up def3 at ground level
2937               	; 	' ------------------------------------------------------------
2938               	; drawdrg: PROCEDURE
2939               	even
2940               cvb_DRAWDRG
2941               	; 	IF dst(d) = 1 THEN SPRITE 1 + d + d, $d1, 0, 0, 0 : SPRITE 2 + d + d, ddy(d) + 31, ddx(d), 12, dcl(d) : RETURN
2942 B242 D020  34 	movb @cvb_D,r0
     B244 2084     
2943 B246 0980  32 	srl r0,8
2944 B248 0220  22 	ai r0,array_DST
     B24A 2112     
2945 B24C D010  26 	movb *r0,r0
2946 B24E 0201  20 	li r1,256   ; 1*256
     B250 0100     
2947 B252 9001  18 	cb r1,r0
2948 B254 1302  14 	jeq cv98
2949 B256 0460  28 	b @cv97
     B258 B2CE     
2950               cv98
2951 B25A D020  34 	movb @cvb_D,r0
     B25C 2084     
2952 B25E 0980  32 	srl r0,8
2953 B260 C040  18 	mov r0,r1
2954 B262 D020  34 	movb @cvb_D,r0
     B264 2084     
2955 B266 0980  32 	srl r0,8
2956 B268 0580  14 	inc r0
2957 B26A A001  18 	a r1,r0
2958 B26C 0A80  32 	sla r0,8
2959 B26E C100  18 	mov r0,r4
2960 B270 0205  20 	li r5,53504
     B272 D100     
2961 B274 04C6  14 	clr r6
2962 B276 04C7  14 	clr r7
2963 B278 04C0  14 	clr r0
2964 B27A 06A0  32 	bl @jsr
     B27C A974     
2965 B27E A24E     	data update_sprite
2966 B280 D020  34 	movb @cvb_D,r0
     B282 2084     
2967 B284 0980  32 	srl r0,8
2968 B286 C040  18 	mov r0,r1
2969 B288 D020  34 	movb @cvb_D,r0
     B28A 2084     
2970 B28C 0980  32 	srl r0,8
2971 B28E 05C0  14 	inct r0
2972 B290 A001  18 	a r1,r0
2973 B292 0A80  32 	sla r0,8
2974 B294 C100  18 	mov r0,r4
2975 B296 D020  34 	movb @cvb_D,r0
     B298 2084     
2976 B29A 0980  32 	srl r0,8
2977 B29C 0220  22 	ai r0,array_DDY
     B29E 20F6     
2978 B2A0 D010  26 	movb *r0,r0
2979 B2A2 0220  22 	ai r0,7936	; 31
     B2A4 1F00     
2980 B2A6 D140  18 	movb r0,r5
2981 B2A8 D020  34 	movb @cvb_D,r0
     B2AA 2084     
2982 B2AC 0980  32 	srl r0,8
2983 B2AE 0220  22 	ai r0,array_DDX
     B2B0 20F2     
2984 B2B2 D190  26 	movb *r0,r6
2985 B2B4 0207  20 	li r7,3072
     B2B6 0C00     
2986 B2B8 D020  34 	movb @cvb_D,r0
     B2BA 2084     
2987 B2BC 0980  32 	srl r0,8
2988 B2BE 0220  22 	ai r0,array_DCL
     B2C0 20EE     
2989 B2C2 D010  26 	movb *r0,r0
2990 B2C4 06A0  32 	bl @jsr
     B2C6 A974     
2991 B2C8 A24E     	data update_sprite
2992 B2CA C03A  30 	mov *r10+,r0
2993 B2CC 0450  20 	b *r0
2994               cv97
2995               	; 	SPRITE 1 + d + d, ddy(d) - 1, ddx(d), 4, dcl(d)
2996 B2CE D020  34 	movb @cvb_D,r0
     B2D0 2084     
2997 B2D2 0980  32 	srl r0,8
2998 B2D4 C040  18 	mov r0,r1
2999 B2D6 D020  34 	movb @cvb_D,r0
     B2D8 2084     
3000 B2DA 0980  32 	srl r0,8
3001 B2DC 0580  14 	inc r0
3002 B2DE A001  18 	a r1,r0
3003 B2E0 0A80  32 	sla r0,8
3004 B2E2 C100  18 	mov r0,r4
3005 B2E4 D020  34 	movb @cvb_D,r0
     B2E6 2084     
3006 B2E8 0980  32 	srl r0,8
3007 B2EA 0220  22 	ai r0,array_DDY
     B2EC 20F6     
3008 B2EE D010  26 	movb *r0,r0
3009 B2F0 0220  22 	ai r0,65280	; -1
     B2F2 FF00     
3010 B2F4 D140  18 	movb r0,r5
3011 B2F6 D020  34 	movb @cvb_D,r0
     B2F8 2084     
3012 B2FA 0980  32 	srl r0,8
3013 B2FC 0220  22 	ai r0,array_DDX
     B2FE 20F2     
3014 B300 D190  26 	movb *r0,r6
3015 B302 0207  20 	li r7,1024
     B304 0400     
3016 B306 D020  34 	movb @cvb_D,r0
     B308 2084     
3017 B30A 0980  32 	srl r0,8
3018 B30C 0220  22 	ai r0,array_DCL
     B30E 20EE     
3019 B310 D010  26 	movb *r0,r0
3020 B312 06A0  32 	bl @jsr
     B314 A974     
3021 B316 A24E     	data update_sprite
3022               	; 	SPRITE 2 + d + d, ddy(d) + 31, ddx(d), 8, dcl(d)
3023 B318 D020  34 	movb @cvb_D,r0
     B31A 2084     
3024 B31C 0980  32 	srl r0,8
3025 B31E C040  18 	mov r0,r1
3026 B320 D020  34 	movb @cvb_D,r0
     B322 2084     
3027 B324 0980  32 	srl r0,8
3028 B326 05C0  14 	inct r0
3029 B328 A001  18 	a r1,r0
3030 B32A 0A80  32 	sla r0,8
3031 B32C C100  18 	mov r0,r4
3032 B32E D020  34 	movb @cvb_D,r0
     B330 2084     
3033 B332 0980  32 	srl r0,8
3034 B334 0220  22 	ai r0,array_DDY
     B336 20F6     
3035 B338 D010  26 	movb *r0,r0
3036 B33A 0220  22 	ai r0,7936	; 31
     B33C 1F00     
3037 B33E D140  18 	movb r0,r5
3038 B340 D020  34 	movb @cvb_D,r0
     B342 2084     
3039 B344 0980  32 	srl r0,8
3040 B346 0220  22 	ai r0,array_DDX
     B348 20F2     
3041 B34A D190  26 	movb *r0,r6
3042 B34C 0207  20 	li r7,2048
     B34E 0800     
3043 B350 D020  34 	movb @cvb_D,r0
     B352 2084     
3044 B354 0980  32 	srl r0,8
3045 B356 0220  22 	ai r0,array_DCL
     B358 20EE     
3046 B35A D010  26 	movb *r0,r0
3047 B35C 06A0  32 	bl @jsr
     B35E A974     
3048 B360 A24E     	data update_sprite
3049               	; 	END
3050 B362 C03A  30 	mov *r10+,r0
3051 B364 0450  20 	b *r0
3052               	;
3053               	; 	' ------------------------------------------------------------
3054               	; 	' drop: the bridge snaps to the 16px block grid vertically so
3055               	; 	' its channel always covers whole wall rows
3056               	; 	' ------------------------------------------------------------
3057               	; dodrop: PROCEDURE
3058               	even
3059               cvb_DODROP
3060               	; 	IF cr = 4 THEN oby(4) = (oby(4) + 8) AND 240
3061 B366 D020  34 	movb @cvb_CR,r0
     B368 20D0     
3062 B36A 0201  20 	li r1,1024   ; 4*256
     B36C 0400     
3063 B36E 9001  18 	cb r1,r0
3064 B370 1302  14 	jeq cv100
3065 B372 0460  28 	b @cv99
     B374 B38A     
3066               cv100
3067 B376 D020  34 	movb @array_OBY+4,r0
     B378 212A     
3068 B37A 0220  22 	ai r0,2048	; 8
     B37C 0800     
3069 B37E 0201  20 	li r1,61440   ; 240*256
     B380 F000     
3070 B382 0541  14 	inv r1
3071 B384 5001  18 	szcb r1,r0
3072 B386 D800  38 	movb r0,@array_OBY+4
     B388 212A     
3073               cv99
3074               	; 	cr = 255 : pkcd = 10 : sfx = 2 : sfc = 4
3075 B38A 0200  20 	li r0,65280   ; 255*256
     B38C FF00     
3076 B38E D800  38 	movb r0,@cvb_CR
     B390 20D0     
3077 B392 0200  20 	li r0,2560   ; 10*256
     B394 0A00     
3078 B396 D800  38 	movb r0,@cvb_PKCD
     B398 20AC     
3079 B39A 0200  20 	li r0,512   ; 2*256
     B39C 0200     
3080 B39E D800  38 	movb r0,@cvb_SFX
     B3A0 20E2     
3081 B3A2 0200  20 	li r0,1024   ; 4*256
     B3A4 0400     
3082 B3A6 D800  38 	movb r0,@cvb_SFC
     B3A8 20DA     
3083               	; 	END
3084 B3AA C03A  30 	mov *r10+,r0
3085 B3AC 0450  20 	b *r0
3086               	;
3087               	; 	' ------------------------------------------------------------
3088               	; 	' object sprite: defs 3=key 4=sword 5=chalice 6=bridge
3089               	; 	' 10=magnet 11=dot (dot painted in the background colour)
3090               	; 	' ------------------------------------------------------------
3091               	; drawobj: PROCEDURE
3092               	even
3093               cvb_DRAWOBJ
3094               	; 	t = ocl(i)
3095 B3AE D020  34 	movb @cvb_I,r0
     B3B0 2087     
3096 B3B2 0980  32 	srl r0,8
3097 B3B4 0220  22 	ai r0,array_OCL
     B3B6 2116     
3098 B3B8 D810  46 	movb *r0,@cvb_T
     B3BA 208C     
3099               	; 	f = 16
3100 B3BC 0200  20 	li r0,4096   ; 16*256
     B3BE 1000     
3101 B3C0 D800  38 	movb r0,@cvb_F
     B3C2 2086     
3102               	; 	IF i = 3 THEN f = 20
3103 B3C4 D020  34 	movb @cvb_I,r0
     B3C6 2087     
3104 B3C8 0201  20 	li r1,768   ; 3*256
     B3CA 0300     
3105 B3CC 9001  18 	cb r1,r0
3106 B3CE 1302  14 	jeq cv102
3107 B3D0 0460  28 	b @cv101
     B3D2 B3DC     
3108               cv102
3109 B3D4 0200  20 	li r0,5120   ; 20*256
     B3D6 1400     
3110 B3D8 D800  38 	movb r0,@cvb_F
     B3DA 2086     
3111               cv101
3112               	; 	IF i = 4 THEN f = 28
3113 B3DC D020  34 	movb @cvb_I,r0
     B3DE 2087     
3114 B3E0 0201  20 	li r1,1024   ; 4*256
     B3E2 0400     
3115 B3E4 9001  18 	cb r1,r0
3116 B3E6 1302  14 	jeq cv104
3117 B3E8 0460  28 	b @cv103
     B3EA B3F4     
3118               cv104
3119 B3EC 0200  20 	li r0,7168   ; 28*256
     B3EE 1C00     
3120 B3F0 D800  38 	movb r0,@cvb_F
     B3F2 2086     
3121               cv103
3122               	; 	IF i = 5 THEN f = 24 : t = (FRAME AND 7) + 8
3123 B3F4 D020  34 	movb @cvb_I,r0
     B3F6 2087     
3124 B3F8 0201  20 	li r1,1280   ; 5*256
     B3FA 0500     
3125 B3FC 9001  18 	cb r1,r0
3126 B3FE 1302  14 	jeq cv106
3127 B400 0460  28 	b @cv105
     B402 B422     
3128               cv106
3129 B404 0200  20 	li r0,6144   ; 24*256
     B406 1800     
3130 B408 D800  38 	movb r0,@cvb_F
     B40A 2086     
3131 B40C C020  30 	mov @frame,r0
     B40E 834A     
3132 B410 0A80  32 	sla r0,8
3133 B412 0201  20 	li r1,1792   ; 7*256
     B414 0700     
3134 B416 0541  14 	inv r1
3135 B418 5001  18 	szcb r1,r0
3136 B41A 0220  22 	ai r0,2048	; 8
     B41C 0800     
3137 B41E D800  38 	movb r0,@cvb_T
     B420 208C     
3138               cv105
3139               	; 	IF i = 6 THEN f = 44
3140 B422 D020  34 	movb @cvb_I,r0
     B424 2087     
3141 B426 0201  20 	li r1,1536   ; 6*256
     B428 0600     
3142 B42A 9001  18 	cb r1,r0
3143 B42C 1302  14 	jeq cv108
3144 B42E 0460  28 	b @cv107
     B430 B43A     
3145               cv108
3146 B432 0200  20 	li r0,11264   ; 44*256
     B434 2C00     
3147 B436 D800  38 	movb r0,@cvb_F
     B438 2086     
3148               cv107
3149               	; 	IF i = 7 THEN f = 48 : t = cb
3150 B43A D020  34 	movb @cvb_I,r0
     B43C 2087     
3151 B43E 0201  20 	li r1,1792   ; 7*256
     B440 0700     
3152 B442 9001  18 	cb r1,r0
3153 B444 1302  14 	jeq cv110
3154 B446 0460  28 	b @cv109
     B448 B458     
3155               cv110
3156 B44A 0200  20 	li r0,12288   ; 48*256
     B44C 3000     
3157 B44E D800  38 	movb r0,@cvb_F
     B450 2086     
3158 B452 D820  54 	movb @cvb_CB,@cvb_T
     B454 20CD     
     B456 208C     
3159               cv109
3160               	; 	SPRITE 7 + i, oby(i) - 1, obx(i), f, t
3161 B458 D020  34 	movb @cvb_I,r0
     B45A 2087     
3162 B45C 0220  22 	ai r0,1792	; 7
     B45E 0700     
3163 B460 C100  18 	mov r0,r4
3164 B462 D020  34 	movb @cvb_I,r0
     B464 2087     
3165 B466 0980  32 	srl r0,8
3166 B468 0220  22 	ai r0,array_OBY
     B46A 2126     
3167 B46C D010  26 	movb *r0,r0
3168 B46E 0220  22 	ai r0,65280	; -1
     B470 FF00     
3169 B472 D140  18 	movb r0,r5
3170 B474 D020  34 	movb @cvb_I,r0
     B476 2087     
3171 B478 0980  32 	srl r0,8
3172 B47A 0220  22 	ai r0,array_OBX
     B47C 211E     
3173 B47E D190  26 	movb *r0,r6
3174 B480 D1E0  34 	movb @cvb_F,r7
     B482 2086     
3175 B484 D020  34 	movb @cvb_T,r0
     B486 208C     
3176 B488 06A0  32 	bl @jsr
     B48A A974     
3177 B48C A24E     	data update_sprite
3178               	; 	END
3179 B48E C03A  30 	mov *r10+,r0
3180 B490 0450  20 	b *r0
3181               	;
3182               	; 	' ------------------------------------------------------------
3183               	; 	' movement: 3px steps, screen-edge exits, box-vs-wall test,
3184               	; 	' bridge channel exemption
3185               	; 	' ------------------------------------------------------------
3186               	; mvleft: PROCEDURE
3187               	even
3188               cvb_MVLEFT
3189               	; 	IF rmch = 1 THEN RETURN
3190 B492 D020  34 	movb @cvb_RMCH,r0
     B494 2093     
3191 B496 0201  20 	li r1,256   ; 1*256
     B498 0100     
3192 B49A 9001  18 	cb r1,r0
3193 B49C 1302  14 	jeq cv112
3194 B49E 0460  28 	b @cv111
     B4A0 B4A6     
3195               cv112
3196 B4A2 C03A  30 	mov *r10+,r0
3197 B4A4 0450  20 	b *r0
3198               cv111
3199               	; 	IF px < pstep THEN GOSUB gowest : RETURN
3200 B4A6 D020  34 	movb @cvb_PX,r0
     B4A8 20DF     
3201 B4AA 9800  34 	cb r0,@cvb_PSTEP
     B4AC 2082     
3202 B4AE 1A02  14 	jl cv114
3203 B4B0 0460  28 	b @cv113
     B4B2 B4BE     
3204               cv114
3205 B4B4 06A0  32 	bl @jsr
     B4B6 A974     
3206 B4B8 B936     	data cvb_GOWEST
3207 B4BA C03A  30 	mov *r10+,r0
3208 B4BC 0450  20 	b *r0
3209               cv113
3210               	; 	x0 = px - pstep : y0 = py : bw = 7 : bh = 7
3211 B4BE D020  34 	movb @cvb_PX,r0
     B4C0 20DF     
3212 B4C2 7020  34 	sb @cvb_PSTEP,r0
     B4C4 2082     
3213 B4C6 D800  38 	movb r0,@cvb_X0
     B4C8 20E9     
3214 B4CA D820  54 	movb @cvb_PY,@cvb_Y0
     B4CC 20E0     
     B4CE 20EB     
3215 B4D0 0200  20 	li r0,1792   ; 7*256
     B4D2 0700     
3216 B4D4 D800  38 	movb r0,@cvb_BW
     B4D6 20CF     
3217 B4D8 0200  20 	li r0,1792   ; 7*256
     B4DA 0700     
3218 B4DC D800  38 	movb r0,@cvb_BH
     B4DE 20CB     
3219               	; 	GOSUB chkbox
3220 B4E0 06A0  32 	bl @jsr
     B4E2 A974     
3221 B4E4 D478     	data cvb_CHKBOX
3222               	; 	IF bf = 1 THEN GOSUB brchk : IF brf = 1 THEN bf = 0
3223 B4E6 D020  34 	movb @cvb_BF,r0
     B4E8 20CA     
3224 B4EA 0201  20 	li r1,256   ; 1*256
     B4EC 0100     
3225 B4EE 9001  18 	cb r1,r0
3226 B4F0 1302  14 	jeq cv116
3227 B4F2 0460  28 	b @cv115
     B4F4 B512     
3228               cv116
3229 B4F6 06A0  32 	bl @jsr
     B4F8 A974     
3230 B4FA B85E     	data cvb_BRCHK
3231 B4FC D020  34 	movb @cvb_BRF,r0
     B4FE 2092     
3232 B500 0201  20 	li r1,256   ; 1*256
     B502 0100     
3233 B504 9001  18 	cb r1,r0
3234 B506 1302  14 	jeq cv118
3235 B508 0460  28 	b @cv117
     B50A B512     
3236               cv118
3237 B50C 04C0  14 	clr r0
3238 B50E D800  38 	movb r0,@cvb_BF
     B510 20CA     
3239               cv117
3240               cv115
3241               	; 	IF bf = 1 THEN GOSUB hassist
3242 B512 D020  34 	movb @cvb_BF,r0
     B514 20CA     
3243 B516 0201  20 	li r1,256   ; 1*256
     B518 0100     
3244 B51A 9001  18 	cb r1,r0
3245 B51C 1302  14 	jeq cv120
3246 B51E 0460  28 	b @cv119
     B520 B528     
3247               cv120
3248 B522 06A0  32 	bl @jsr
     B524 A974     
3249 B526 B7CE     	data cvb_HASSIST
3250               cv119
3251               	; 	IF bf = 0 THEN px = x0
3252 B528 D020  34 	movb @cvb_BF,r0
     B52A 20CA     
3253 B52C 1302  14 	jeq cv122
3254 B52E 0460  28 	b @cv121
     B530 B538     
3255               cv122
3256 B532 D820  54 	movb @cvb_X0,@cvb_PX
     B534 20E9     
     B536 20DF     
3257               cv121
3258               	; 	END
3259 B538 C03A  30 	mov *r10+,r0
3260 B53A 0450  20 	b *r0
3261               	;
3262               	; mvright: PROCEDURE
3263               	even
3264               cvb_MVRIGHT
3265               	; 	IF rmch = 1 THEN RETURN
3266 B53C D020  34 	movb @cvb_RMCH,r0
     B53E 2093     
3267 B540 0201  20 	li r1,256   ; 1*256
     B542 0100     
3268 B544 9001  18 	cb r1,r0
3269 B546 1302  14 	jeq cv124
3270 B548 0460  28 	b @cv123
     B54A B550     
3271               cv124
3272 B54C C03A  30 	mov *r10+,r0
3273 B54E 0450  20 	b *r0
3274               cv123
3275               	; 	IF px > 244 THEN GOSUB goeast : RETURN
3276 B550 D020  34 	movb @cvb_PX,r0
     B552 20DF     
3277 B554 0201  20 	li r1,62720   ; 245*256
     B556 F500     
3278 B558 9040  18 	cb r0,r1
3279 B55A 1402  14 	jhe cv126
3280 B55C 0460  28 	b @cv125
     B55E B56A     
3281               cv126
3282 B560 06A0  32 	bl @jsr
     B562 A974     
3283 B564 B984     	data cvb_GOEAST
3284 B566 C03A  30 	mov *r10+,r0
3285 B568 0450  20 	b *r0
3286               cv125
3287               	; 	x0 = px + pstep : y0 = py : bw = 7 : bh = 7
3288 B56A D020  34 	movb @cvb_PX,r0
     B56C 20DF     
3289 B56E B020  34 	ab @cvb_PSTEP,r0
     B570 2082     
3290 B572 D800  38 	movb r0,@cvb_X0
     B574 20E9     
3291 B576 D820  54 	movb @cvb_PY,@cvb_Y0
     B578 20E0     
     B57A 20EB     
3292 B57C 0200  20 	li r0,1792   ; 7*256
     B57E 0700     
3293 B580 D800  38 	movb r0,@cvb_BW
     B582 20CF     
3294 B584 0200  20 	li r0,1792   ; 7*256
     B586 0700     
3295 B588 D800  38 	movb r0,@cvb_BH
     B58A 20CB     
3296               	; 	GOSUB chkbox
3297 B58C 06A0  32 	bl @jsr
     B58E A974     
3298 B590 D478     	data cvb_CHKBOX
3299               	; 	IF bf = 1 THEN GOSUB brchk : IF brf = 1 THEN bf = 0
3300 B592 D020  34 	movb @cvb_BF,r0
     B594 20CA     
3301 B596 0201  20 	li r1,256   ; 1*256
     B598 0100     
3302 B59A 9001  18 	cb r1,r0
3303 B59C 1302  14 	jeq cv128
3304 B59E 0460  28 	b @cv127
     B5A0 B5BE     
3305               cv128
3306 B5A2 06A0  32 	bl @jsr
     B5A4 A974     
3307 B5A6 B85E     	data cvb_BRCHK
3308 B5A8 D020  34 	movb @cvb_BRF,r0
     B5AA 2092     
3309 B5AC 0201  20 	li r1,256   ; 1*256
     B5AE 0100     
3310 B5B0 9001  18 	cb r1,r0
3311 B5B2 1302  14 	jeq cv130
3312 B5B4 0460  28 	b @cv129
     B5B6 B5BE     
3313               cv130
3314 B5B8 04C0  14 	clr r0
3315 B5BA D800  38 	movb r0,@cvb_BF
     B5BC 20CA     
3316               cv129
3317               cv127
3318               	; 	IF bf = 1 THEN GOSUB hassist
3319 B5BE D020  34 	movb @cvb_BF,r0
     B5C0 20CA     
3320 B5C2 0201  20 	li r1,256   ; 1*256
     B5C4 0100     
3321 B5C6 9001  18 	cb r1,r0
3322 B5C8 1302  14 	jeq cv132
3323 B5CA 0460  28 	b @cv131
     B5CC B5D4     
3324               cv132
3325 B5CE 06A0  32 	bl @jsr
     B5D0 A974     
3326 B5D2 B7CE     	data cvb_HASSIST
3327               cv131
3328               	; 	IF bf = 0 THEN px = x0
3329 B5D4 D020  34 	movb @cvb_BF,r0
     B5D6 20CA     
3330 B5D8 1302  14 	jeq cv134
3331 B5DA 0460  28 	b @cv133
     B5DC B5E4     
3332               cv134
3333 B5DE D820  54 	movb @cvb_X0,@cvb_PX
     B5E0 20E9     
     B5E2 20DF     
3334               cv133
3335               	; 	END
3336 B5E4 C03A  30 	mov *r10+,r0
3337 B5E6 0450  20 	b *r0
3338               	;
3339               	; mvup: PROCEDURE
3340               	even
3341               cvb_MVUP
3342               	; 	IF rmch = 1 THEN RETURN
3343 B5E8 D020  34 	movb @cvb_RMCH,r0
     B5EA 2093     
3344 B5EC 0201  20 	li r1,256   ; 1*256
     B5EE 0100     
3345 B5F0 9001  18 	cb r1,r0
3346 B5F2 1302  14 	jeq cv136
3347 B5F4 0460  28 	b @cv135
     B5F6 B5FC     
3348               cv136
3349 B5F8 C03A  30 	mov *r10+,r0
3350 B5FA 0450  20 	b *r0
3351               cv135
3352               	; 	IF py < pstep THEN GOSUB gonorth : RETURN
3353 B5FC D020  34 	movb @cvb_PY,r0
     B5FE 20E0     
3354 B600 9800  34 	cb r0,@cvb_PSTEP
     B602 2082     
3355 B604 1A02  14 	jl cv138
3356 B606 0460  28 	b @cv137
     B608 B614     
3357               cv138
3358 B60A 06A0  32 	bl @jsr
     B60C A974     
3359 B60E B9D4     	data cvb_GONORTH
3360 B610 C03A  30 	mov *r10+,r0
3361 B612 0450  20 	b *r0
3362               cv137
3363               	; 	x0 = px : y0 = py - pstep : bw = 7 : bh = 7
3364 B614 D820  54 	movb @cvb_PX,@cvb_X0
     B616 20DF     
     B618 20E9     
3365 B61A D020  34 	movb @cvb_PY,r0
     B61C 20E0     
3366 B61E 7020  34 	sb @cvb_PSTEP,r0
     B620 2082     
3367 B622 D800  38 	movb r0,@cvb_Y0
     B624 20EB     
3368 B626 0200  20 	li r0,1792   ; 7*256
     B628 0700     
3369 B62A D800  38 	movb r0,@cvb_BW
     B62C 20CF     
3370 B62E 0200  20 	li r0,1792   ; 7*256
     B630 0700     
3371 B632 D800  38 	movb r0,@cvb_BH
     B634 20CB     
3372               	; 	GOSUB chkbox
3373 B636 06A0  32 	bl @jsr
     B638 A974     
3374 B63A D478     	data cvb_CHKBOX
3375               	; 	IF bf = 1 THEN GOSUB brchk : IF brf = 1 THEN bf = 0
3376 B63C D020  34 	movb @cvb_BF,r0
     B63E 20CA     
3377 B640 0201  20 	li r1,256   ; 1*256
     B642 0100     
3378 B644 9001  18 	cb r1,r0
3379 B646 1302  14 	jeq cv140
3380 B648 0460  28 	b @cv139
     B64A B668     
3381               cv140
3382 B64C 06A0  32 	bl @jsr
     B64E A974     
3383 B650 B85E     	data cvb_BRCHK
3384 B652 D020  34 	movb @cvb_BRF,r0
     B654 2092     
3385 B656 0201  20 	li r1,256   ; 1*256
     B658 0100     
3386 B65A 9001  18 	cb r1,r0
3387 B65C 1302  14 	jeq cv142
3388 B65E 0460  28 	b @cv141
     B660 B668     
3389               cv142
3390 B662 04C0  14 	clr r0
3391 B664 D800  38 	movb r0,@cvb_BF
     B666 20CA     
3392               cv141
3393               cv139
3394               	; 	IF bf = 1 THEN GOSUB vassist
3395 B668 D020  34 	movb @cvb_BF,r0
     B66A 20CA     
3396 B66C 0201  20 	li r1,256   ; 1*256
     B66E 0100     
3397 B670 9001  18 	cb r1,r0
3398 B672 1302  14 	jeq cv144
3399 B674 0460  28 	b @cv143
     B676 B67E     
3400               cv144
3401 B678 06A0  32 	bl @jsr
     B67A A974     
3402 B67C B73E     	data cvb_VASSIST
3403               cv143
3404               	; 	IF bf = 0 THEN py = y0
3405 B67E D020  34 	movb @cvb_BF,r0
     B680 20CA     
3406 B682 1302  14 	jeq cv146
3407 B684 0460  28 	b @cv145
     B686 B68E     
3408               cv146
3409 B688 D820  54 	movb @cvb_Y0,@cvb_PY
     B68A 20EB     
     B68C 20E0     
3410               cv145
3411               	; 	END
3412 B68E C03A  30 	mov *r10+,r0
3413 B690 0450  20 	b *r0
3414               	;
3415               	; mvdown: PROCEDURE
3416               	even
3417               cvb_MVDOWN
3418               	; 	IF rmch = 1 THEN RETURN
3419 B692 D020  34 	movb @cvb_RMCH,r0
     B694 2093     
3420 B696 0201  20 	li r1,256   ; 1*256
     B698 0100     
3421 B69A 9001  18 	cb r1,r0
3422 B69C 1302  14 	jeq cv148
3423 B69E 0460  28 	b @cv147
     B6A0 B6A6     
3424               cv148
3425 B6A2 C03A  30 	mov *r10+,r0
3426 B6A4 0450  20 	b *r0
3427               cv147
3428               	; 	IF py > 181 THEN GOSUB gosouth : RETURN
3429 B6A6 D020  34 	movb @cvb_PY,r0
     B6A8 20E0     
3430 B6AA 0201  20 	li r1,46592   ; 182*256
     B6AC B600     
3431 B6AE 9040  18 	cb r0,r1
3432 B6B0 1402  14 	jhe cv150
3433 B6B2 0460  28 	b @cv149
     B6B4 B6C0     
3434               cv150
3435 B6B6 06A0  32 	bl @jsr
     B6B8 A974     
3436 B6BA BA22     	data cvb_GOSOUTH
3437 B6BC C03A  30 	mov *r10+,r0
3438 B6BE 0450  20 	b *r0
3439               cv149
3440               	; 	x0 = px : y0 = py + pstep : bw = 7 : bh = 7
3441 B6C0 D820  54 	movb @cvb_PX,@cvb_X0
     B6C2 20DF     
     B6C4 20E9     
3442 B6C6 D020  34 	movb @cvb_PY,r0
     B6C8 20E0     
3443 B6CA B020  34 	ab @cvb_PSTEP,r0
     B6CC 2082     
3444 B6CE D800  38 	movb r0,@cvb_Y0
     B6D0 20EB     
3445 B6D2 0200  20 	li r0,1792   ; 7*256
     B6D4 0700     
3446 B6D6 D800  38 	movb r0,@cvb_BW
     B6D8 20CF     
3447 B6DA 0200  20 	li r0,1792   ; 7*256
     B6DC 0700     
3448 B6DE D800  38 	movb r0,@cvb_BH
     B6E0 20CB     
3449               	; 	GOSUB chkbox
3450 B6E2 06A0  32 	bl @jsr
     B6E4 A974     
3451 B6E6 D478     	data cvb_CHKBOX
3452               	; 	IF bf = 1 THEN GOSUB brchk : IF brf = 1 THEN bf = 0
3453 B6E8 D020  34 	movb @cvb_BF,r0
     B6EA 20CA     
3454 B6EC 0201  20 	li r1,256   ; 1*256
     B6EE 0100     
3455 B6F0 9001  18 	cb r1,r0
3456 B6F2 1302  14 	jeq cv152
3457 B6F4 0460  28 	b @cv151
     B6F6 B714     
3458               cv152
3459 B6F8 06A0  32 	bl @jsr
     B6FA A974     
3460 B6FC B85E     	data cvb_BRCHK
3461 B6FE D020  34 	movb @cvb_BRF,r0
     B700 2092     
3462 B702 0201  20 	li r1,256   ; 1*256
     B704 0100     
3463 B706 9001  18 	cb r1,r0
3464 B708 1302  14 	jeq cv154
3465 B70A 0460  28 	b @cv153
     B70C B714     
3466               cv154
3467 B70E 04C0  14 	clr r0
3468 B710 D800  38 	movb r0,@cvb_BF
     B712 20CA     
3469               cv153
3470               cv151
3471               	; 	IF bf = 1 THEN GOSUB vassist
3472 B714 D020  34 	movb @cvb_BF,r0
     B716 20CA     
3473 B718 0201  20 	li r1,256   ; 1*256
     B71A 0100     
3474 B71C 9001  18 	cb r1,r0
3475 B71E 1302  14 	jeq cv156
3476 B720 0460  28 	b @cv155
     B722 B72A     
3477               cv156
3478 B724 06A0  32 	bl @jsr
     B726 A974     
3479 B728 B73E     	data cvb_VASSIST
3480               cv155
3481               	; 	IF bf = 0 THEN py = y0
3482 B72A D020  34 	movb @cvb_BF,r0
     B72C 20CA     
3483 B72E 1302  14 	jeq cv158
3484 B730 0460  28 	b @cv157
     B732 B73A     
3485               cv158
3486 B734 D820  54 	movb @cvb_Y0,@cvb_PY
     B736 20EB     
     B738 20E0     
3487               cv157
3488               	; 	END
3489 B73A C03A  30 	mov *r10+,r0
3490 B73C 0450  20 	b *r0
3491               	;
3492               	; 	' ------------------------------------------------------------
3493               	; 	' doorway assist: 3px steps make lining an 8px square up with
3494               	; 	' a 16px gap fiddly, so when a move is blocked we nudge the
3495               	; 	' player (max 4px) onto the cell grid if that clears the way
3496               	; 	' ------------------------------------------------------------
3497               	; vassist: PROCEDURE
3498               	even
3499               cvb_VASSIST
3500               	; 	t = (px + 4) AND 248
3501 B73E D020  34 	movb @cvb_PX,r0
     B740 20DF     
3502 B742 0220  22 	ai r0,1024	; 4
     B744 0400     
3503 B746 0201  20 	li r1,63488   ; 248*256
     B748 F800     
3504 B74A 0541  14 	inv r1
3505 B74C 5001  18 	szcb r1,r0
3506 B74E D800  38 	movb r0,@cvb_T
     B750 208C     
3507               	; 	IF t = px THEN RETURN
3508 B752 9020  34 	cb @cvb_PX,r0
     B754 20DF     
3509 B756 1302  14 	jeq cv160
3510 B758 0460  28 	b @cv159
     B75A B760     
3511               cv160
3512 B75C C03A  30 	mov *r10+,r0
3513 B75E 0450  20 	b *r0
3514               cv159
3515               	; 	IF t > px THEN t2 = t - px ELSE t2 = px - t
3516 B760 D020  34 	movb @cvb_PX,r0
     B762 20DF     
3517 B764 9800  34 	cb r0,@cvb_T
     B766 208C     
3518 B768 1A02  14 	jl cv162
3519 B76A 0460  28 	b @cv161
     B76C B77E     
3520               cv162
3521 B76E D020  34 	movb @cvb_T,r0
     B770 208C     
3522 B772 7020  34 	sb @cvb_PX,r0
     B774 20DF     
3523 B776 D800  38 	movb r0,@cvb_T2
     B778 20E1     
3524 B77A 0460  28 	b @cv163
     B77C B78A     
3525               cv161
3526 B77E D020  34 	movb @cvb_PX,r0
     B780 20DF     
3527 B782 7020  34 	sb @cvb_T,r0
     B784 208C     
3528 B786 D800  38 	movb r0,@cvb_T2
     B788 20E1     
3529               cv163
3530               	; 	IF t2 > 4 THEN RETURN
3531 B78A D020  34 	movb @cvb_T2,r0
     B78C 20E1     
3532 B78E 0201  20 	li r1,1280   ; 5*256
     B790 0500     
3533 B792 9040  18 	cb r0,r1
3534 B794 1402  14 	jhe cv165
3535 B796 0460  28 	b @cv164
     B798 B79E     
3536               cv165
3537 B79A C03A  30 	mov *r10+,r0
3538 B79C 0450  20 	b *r0
3539               cv164
3540               	; 	x0 = t
3541 B79E D820  54 	movb @cvb_T,@cvb_X0
     B7A0 208C     
     B7A2 20E9     
3542               	; 	GOSUB chkbox
3543 B7A4 06A0  32 	bl @jsr
     B7A6 A974     
3544 B7A8 D478     	data cvb_CHKBOX
3545               	; 	IF bf = 1 THEN x0 = px : RETURN
3546 B7AA D020  34 	movb @cvb_BF,r0
     B7AC 20CA     
3547 B7AE 0201  20 	li r1,256   ; 1*256
     B7B0 0100     
3548 B7B2 9001  18 	cb r1,r0
3549 B7B4 1302  14 	jeq cv167
3550 B7B6 0460  28 	b @cv166
     B7B8 B7C4     
3551               cv167
3552 B7BA D820  54 	movb @cvb_PX,@cvb_X0
     B7BC 20DF     
     B7BE 20E9     
3553 B7C0 C03A  30 	mov *r10+,r0
3554 B7C2 0450  20 	b *r0
3555               cv166
3556               	; 	px = t
3557 B7C4 D820  54 	movb @cvb_T,@cvb_PX
     B7C6 208C     
     B7C8 20DF     
3558               	; 	END
3559 B7CA C03A  30 	mov *r10+,r0
3560 B7CC 0450  20 	b *r0
3561               	;
3562               	; hassist: PROCEDURE
3563               	even
3564               cvb_HASSIST
3565               	; 	t = (py + 4) AND 248
3566 B7CE D020  34 	movb @cvb_PY,r0
     B7D0 20E0     
3567 B7D2 0220  22 	ai r0,1024	; 4
     B7D4 0400     
3568 B7D6 0201  20 	li r1,63488   ; 248*256
     B7D8 F800     
3569 B7DA 0541  14 	inv r1
3570 B7DC 5001  18 	szcb r1,r0
3571 B7DE D800  38 	movb r0,@cvb_T
     B7E0 208C     
3572               	; 	IF t = py THEN RETURN
3573 B7E2 9020  34 	cb @cvb_PY,r0
     B7E4 20E0     
3574 B7E6 1302  14 	jeq cv169
3575 B7E8 0460  28 	b @cv168
     B7EA B7F0     
3576               cv169
3577 B7EC C03A  30 	mov *r10+,r0
3578 B7EE 0450  20 	b *r0
3579               cv168
3580               	; 	IF t > py THEN t2 = t - py ELSE t2 = py - t
3581 B7F0 D020  34 	movb @cvb_PY,r0
     B7F2 20E0     
3582 B7F4 9800  34 	cb r0,@cvb_T
     B7F6 208C     
3583 B7F8 1A02  14 	jl cv171
3584 B7FA 0460  28 	b @cv170
     B7FC B80E     
3585               cv171
3586 B7FE D020  34 	movb @cvb_T,r0
     B800 208C     
3587 B802 7020  34 	sb @cvb_PY,r0
     B804 20E0     
3588 B806 D800  38 	movb r0,@cvb_T2
     B808 20E1     
3589 B80A 0460  28 	b @cv172
     B80C B81A     
3590               cv170
3591 B80E D020  34 	movb @cvb_PY,r0
     B810 20E0     
3592 B812 7020  34 	sb @cvb_T,r0
     B814 208C     
3593 B816 D800  38 	movb r0,@cvb_T2
     B818 20E1     
3594               cv172
3595               	; 	IF t2 > 4 THEN RETURN
3596 B81A D020  34 	movb @cvb_T2,r0
     B81C 20E1     
3597 B81E 0201  20 	li r1,1280   ; 5*256
     B820 0500     
3598 B822 9040  18 	cb r0,r1
3599 B824 1402  14 	jhe cv174
3600 B826 0460  28 	b @cv173
     B828 B82E     
3601               cv174
3602 B82A C03A  30 	mov *r10+,r0
3603 B82C 0450  20 	b *r0
3604               cv173
3605               	; 	y0 = t
3606 B82E D820  54 	movb @cvb_T,@cvb_Y0
     B830 208C     
     B832 20EB     
3607               	; 	GOSUB chkbox
3608 B834 06A0  32 	bl @jsr
     B836 A974     
3609 B838 D478     	data cvb_CHKBOX
3610               	; 	IF bf = 1 THEN y0 = py : RETURN
3611 B83A D020  34 	movb @cvb_BF,r0
     B83C 20CA     
3612 B83E 0201  20 	li r1,256   ; 1*256
     B840 0100     
3613 B842 9001  18 	cb r1,r0
3614 B844 1302  14 	jeq cv176
3615 B846 0460  28 	b @cv175
     B848 B854     
3616               cv176
3617 B84A D820  54 	movb @cvb_PY,@cvb_Y0
     B84C 20E0     
     B84E 20EB     
3618 B850 C03A  30 	mov *r10+,r0
3619 B852 0450  20 	b *r0
3620               cv175
3621               	; 	py = t
3622 B854 D820  54 	movb @cvb_T,@cvb_PY
     B856 208C     
     B858 20E0     
3623               	; 	END
3624 B85A C03A  30 	mov *r10+,r0
3625 B85C 0450  20 	b *r0
3626               	;
3627               	; brchk: PROCEDURE
3628               	even
3629               cvb_BRCHK
3630               	; 	' bridge passage: the target box lies inside the channel of the
3631               	; 	' bridge (lying in this room, not carried, never over a gate)
3632               	; 	brf = 0
3633 B85E 04C0  14 	clr r0
3634 B860 D800  38 	movb r0,@cvb_BRF
     B862 2092     
3635               	; 	IF orm(4) <> rn THEN RETURN
3636 B864 D020  34 	movb @array_ORM+4,r0
     B866 2252     
3637 B868 9020  34 	cb @cvb_RN,r0
     B86A 20E3     
3638 B86C 1602  14 	jne cv178
3639 B86E 0460  28 	b @cv177
     B870 B876     
3640               cv178
3641 B872 C03A  30 	mov *r10+,r0
3642 B874 0450  20 	b *r0
3643               cv177
3644               	; 	IF cr = 4 THEN RETURN
3645 B876 D020  34 	movb @cvb_CR,r0
     B878 20D0     
3646 B87A 0201  20 	li r1,1024   ; 4*256
     B87C 0400     
3647 B87E 9001  18 	cb r1,r0
3648 B880 1302  14 	jeq cv180
3649 B882 0460  28 	b @cv179
     B884 B88A     
3650               cv180
3651 B886 C03A  30 	mov *r10+,r0
3652 B888 0450  20 	b *r0
3653               cv179
3654               	; 	IF gz > 0 THEN RETURN
3655 B88A D020  34 	movb @cvb_GZ,r0
     B88C 20D8     
3656 B88E 0201  20 	li r1,256   ; 1*256
     B890 0100     
3657 B892 9040  18 	cb r0,r1
3658 B894 1402  14 	jhe cv182
3659 B896 0460  28 	b @cv181
     B898 B89E     
3660               cv182
3661 B89A C03A  30 	mov *r10+,r0
3662 B89C 0450  20 	b *r0
3663               cv181
3664               	; 	' passage keeps a 2px margin off the rails so walking through
3665               	; 	' never counts as touching (= grabbing) them
3666               	; 	IF x0 < obx(4) + 6 THEN RETURN
3667 B89E D020  34 	movb @array_OBX+4,r0
     B8A0 2122     
3668 B8A2 0980  32 	srl r0,8
3669 B8A4 0220  22 	ai r0,6
     B8A6 0006     
3670 B8A8 C040  18 	mov r0,r1
3671 B8AA D020  34 	movb @cvb_X0,r0
     B8AC 20E9     
3672 B8AE 0980  32 	srl r0,8
3673 B8B0 8040  18 	c r0,r1
3674 B8B2 1A02  14 	jl cv184
3675 B8B4 0460  28 	b @cv183
     B8B6 B8BC     
3676               cv184
3677 B8B8 C03A  30 	mov *r10+,r0
3678 B8BA 0450  20 	b *r0
3679               cv183
3680               	; 	#ax = obx(4) + 25
3681 B8BC D020  34 	movb @array_OBX+4,r0
     B8BE 2122     
3682 B8C0 0980  32 	srl r0,8
3683 B8C2 0220  22 	ai r0,25
     B8C4 0019     
3684 B8C6 C800  38 	mov r0,@cvb__AX
     B8C8 20B8     
3685               	; 	IF x0 + 7 > #ax THEN RETURN
3686 B8CA D020  34 	movb @cvb_X0,r0
     B8CC 20E9     
3687 B8CE 0980  32 	srl r0,8
3688 B8D0 0220  22 	ai r0,7
     B8D2 0007     
3689 B8D4 C040  18 	mov r0,r1
3690 B8D6 C020  34 	mov @cvb__AX,r0
     B8D8 20B8     
3691 B8DA 8040  18 	c r0,r1
3692 B8DC 1A02  14 	jl cv186
3693 B8DE 0460  28 	b @cv185
     B8E0 B8E6     
3694               cv186
3695 B8E2 C03A  30 	mov *r10+,r0
3696 B8E4 0450  20 	b *r0
3697               cv185
3698               	; 	IF y0 + 7 < oby(4) THEN RETURN
3699 B8E6 D020  34 	movb @array_OBY+4,r0
     B8E8 212A     
3700 B8EA 0980  32 	srl r0,8
3701 B8EC C040  18 	mov r0,r1
3702 B8EE D020  34 	movb @cvb_Y0,r0
     B8F0 20EB     
3703 B8F2 0980  32 	srl r0,8
3704 B8F4 0220  22 	ai r0,7
     B8F6 0007     
3705 B8F8 8040  18 	c r0,r1
3706 B8FA 1A02  14 	jl cv188
3707 B8FC 0460  28 	b @cv187
     B8FE B904     
3708               cv188
3709 B900 C03A  30 	mov *r10+,r0
3710 B902 0450  20 	b *r0
3711               cv187
3712               	; 	#ax = oby(4) + 31
3713 B904 D020  34 	movb @array_OBY+4,r0
     B906 212A     
3714 B908 0980  32 	srl r0,8
3715 B90A 0220  22 	ai r0,31
     B90C 001F     
3716 B90E C800  38 	mov r0,@cvb__AX
     B910 20B8     
3717               	; 	IF y0 > #ax THEN RETURN
3718 B912 D020  34 	movb @cvb_Y0,r0
     B914 20EB     
3719 B916 0980  32 	srl r0,8
3720 B918 C040  18 	mov r0,r1
3721 B91A C020  34 	mov @cvb__AX,r0
     B91C 20B8     
3722 B91E 8040  18 	c r0,r1
3723 B920 1A02  14 	jl cv190
3724 B922 0460  28 	b @cv189
     B924 B92A     
3725               cv190
3726 B926 C03A  30 	mov *r10+,r0
3727 B928 0450  20 	b *r0
3728               cv189
3729               	; 	brf = 1
3730 B92A 0200  20 	li r0,256   ; 1*256
     B92C 0100     
3731 B92E D800  38 	movb r0,@cvb_BRF
     B930 2092     
3732               	; 	END
3733 B932 C03A  30 	mov *r10+,r0
3734 B934 0450  20 	b *r0
3735               	;
3736               	; gowest: PROCEDURE
3737               	even
3738               cvb_GOWEST
3739               	; 	IF pw = 255 THEN RETURN
3740 B936 D020  34 	movb @cvb_PW,r0
     B938 20DE     
3741 B93A 0201  20 	li r1,65280   ; 255*256
     B93C FF00     
3742 B93E 9001  18 	cb r1,r0
3743 B940 1302  14 	jeq cv192
3744 B942 0460  28 	b @cv191
     B944 B94A     
3745               cv192
3746 B946 C03A  30 	mov *r10+,r0
3747 B948 0450  20 	b *r0
3748               cv191
3749               	; 	gdir = 0 : dpc = py
3750 B94A 04C0  14 	clr r0
3751 B94C D800  38 	movb r0,@cvb_GDIR
     B94E 20EC     
3752 B950 D820  54 	movb @cvb_PY,@cvb_DPC
     B952 20E0     
     B954 20A2     
3753               	; 	rn = pw : px = 244 : rmch = 1
3754 B956 D820  54 	movb @cvb_PW,@cvb_RN
     B958 20DE     
     B95A 20E3     
3755 B95C 0200  20 	li r0,62464   ; 244*256
     B95E F400     
3756 B960 D800  38 	movb r0,@cvb_PX
     B962 20DF     
3757 B964 0200  20 	li r0,256   ; 1*256
     B966 0100     
3758 B968 D800  38 	movb r0,@cvb_RMCH
     B96A 2093     
3759               	; 	GOSUB enterroom
3760 B96C 06A0  32 	bl @jsr
     B96E A974     
3761 B970 D61A     	data cvb_ENTERROOM
3762               	; 	ax = 1
3763 B972 0200  20 	li r0,256   ; 1*256
     B974 0100     
3764 B976 D800  38 	movb r0,@cvb_AX
     B978 20CC     
3765               	; 	GOSUB arrsnap
3766 B97A 06A0  32 	bl @jsr
     B97C A974     
3767 B97E BB40     	data cvb_ARRSNAP
3768               	; 	END
3769 B980 C03A  30 	mov *r10+,r0
3770 B982 0450  20 	b *r0
3771               	;
3772               	; goeast: PROCEDURE
3773               	even
3774               cvb_GOEAST
3775               	; 	IF pe = 255 THEN RETURN
3776 B984 D020  34 	movb @cvb_PE,r0
     B986 20D9     
3777 B988 0201  20 	li r1,65280   ; 255*256
     B98A FF00     
3778 B98C 9001  18 	cb r1,r0
3779 B98E 1302  14 	jeq cv194
3780 B990 0460  28 	b @cv193
     B992 B998     
3781               cv194
3782 B994 C03A  30 	mov *r10+,r0
3783 B996 0450  20 	b *r0
3784               cv193
3785               	; 	gdir = 1 : dpc = py
3786 B998 0200  20 	li r0,256   ; 1*256
     B99A 0100     
3787 B99C D800  38 	movb r0,@cvb_GDIR
     B99E 20EC     
3788 B9A0 D820  54 	movb @cvb_PY,@cvb_DPC
     B9A2 20E0     
     B9A4 20A2     
3789               	; 	rn = pe : px = 4 : rmch = 1
3790 B9A6 D820  54 	movb @cvb_PE,@cvb_RN
     B9A8 20D9     
     B9AA 20E3     
3791 B9AC 0200  20 	li r0,1024   ; 4*256
     B9AE 0400     
3792 B9B0 D800  38 	movb r0,@cvb_PX
     B9B2 20DF     
3793 B9B4 0200  20 	li r0,256   ; 1*256
     B9B6 0100     
3794 B9B8 D800  38 	movb r0,@cvb_RMCH
     B9BA 2093     
3795               	; 	GOSUB enterroom
3796 B9BC 06A0  32 	bl @jsr
     B9BE A974     
3797 B9C0 D61A     	data cvb_ENTERROOM
3798               	; 	ax = 1
3799 B9C2 0200  20 	li r0,256   ; 1*256
     B9C4 0100     
3800 B9C6 D800  38 	movb r0,@cvb_AX
     B9C8 20CC     
3801               	; 	GOSUB arrsnap
3802 B9CA 06A0  32 	bl @jsr
     B9CC A974     
3803 B9CE BB40     	data cvb_ARRSNAP
3804               	; 	END
3805 B9D0 C03A  30 	mov *r10+,r0
3806 B9D2 0450  20 	b *r0
3807               	;
3808               	; gonorth: PROCEDURE
3809               	even
3810               cvb_GONORTH
3811               	; 	IF pn = 255 THEN RETURN
3812 B9D4 D020  34 	movb @cvb_PN,r0
     B9D6 20DC     
3813 B9D8 0201  20 	li r1,65280   ; 255*256
     B9DA FF00     
3814 B9DC 9001  18 	cb r1,r0
3815 B9DE 1302  14 	jeq cv196
3816 B9E0 0460  28 	b @cv195
     B9E2 B9E8     
3817               cv196
3818 B9E4 C03A  30 	mov *r10+,r0
3819 B9E6 0450  20 	b *r0
3820               cv195
3821               	; 	gdir = 2 : dpc = px
3822 B9E8 0200  20 	li r0,512   ; 2*256
     B9EA 0200     
3823 B9EC D800  38 	movb r0,@cvb_GDIR
     B9EE 20EC     
3824 B9F0 D820  54 	movb @cvb_PX,@cvb_DPC
     B9F2 20DF     
     B9F4 20A2     
3825               	; 	rn = pn : py = 180 : rmch = 1
3826 B9F6 D820  54 	movb @cvb_PN,@cvb_RN
     B9F8 20DC     
     B9FA 20E3     
3827 B9FC 0200  20 	li r0,46080   ; 180*256
     B9FE B400     
3828 BA00 D800  38 	movb r0,@cvb_PY
     BA02 20E0     
3829 BA04 0200  20 	li r0,256   ; 1*256
     BA06 0100     
3830 BA08 D800  38 	movb r0,@cvb_RMCH
     BA0A 2093     
3831               	; 	GOSUB enterroom
3832 BA0C 06A0  32 	bl @jsr
     BA0E A974     
3833 BA10 D61A     	data cvb_ENTERROOM
3834               	; 	ax = 0
3835 BA12 04C0  14 	clr r0
3836 BA14 D800  38 	movb r0,@cvb_AX
     BA16 20CC     
3837               	; 	GOSUB arrsnap
3838 BA18 06A0  32 	bl @jsr
     BA1A A974     
3839 BA1C BB40     	data cvb_ARRSNAP
3840               	; 	END
3841 BA1E C03A  30 	mov *r10+,r0
3842 BA20 0450  20 	b *r0
3843               	;
3844               	; gosouth: PROCEDURE
3845               	even
3846               cvb_GOSOUTH
3847               	; 	' leaving a castle hall puts you just below its (open) gate
3848               	; 	IF rn = 2 THEN rn = 0 : GOTO gsw
3849 BA22 D020  34 	movb @cvb_RN,r0
     BA24 20E3     
3850 BA26 0201  20 	li r1,512   ; 2*256
     BA28 0200     
3851 BA2A 9001  18 	cb r1,r0
3852 BA2C 1302  14 	jeq cv198
3853 BA2E 0460  28 	b @cv197
     BA30 BA3C     
3854               cv198
3855 BA32 04C0  14 	clr r0
3856 BA34 D800  38 	movb r0,@cvb_RN
     BA36 20E3     
3857 BA38 0460  28 	b @cvb_GSW
     BA3A BB16     
3858               cv197
3859               	; 	IF rn = 9 THEN rn = 8 : GOTO gsw
3860 BA3C D020  34 	movb @cvb_RN,r0
     BA3E 20E3     
3861 BA40 0201  20 	li r1,2304   ; 9*256
     BA42 0900     
3862 BA44 9001  18 	cb r1,r0
3863 BA46 1302  14 	jeq cv200
3864 BA48 0460  28 	b @cv199
     BA4A BA58     
3865               cv200
3866 BA4C 0200  20 	li r0,2048   ; 8*256
     BA4E 0800     
3867 BA50 D800  38 	movb r0,@cvb_RN
     BA52 20E3     
3868 BA54 0460  28 	b @cvb_GSW
     BA56 BB16     
3869               cv199
3870               	; 	IF rn = 12 THEN rn = 11 : GOTO gsw
3871 BA58 D020  34 	movb @cvb_RN,r0
     BA5A 20E3     
3872 BA5C 0201  20 	li r1,3072   ; 12*256
     BA5E 0C00     
3873 BA60 9001  18 	cb r1,r0
3874 BA62 1302  14 	jeq cv202
3875 BA64 0460  28 	b @cv201
     BA66 BA74     
3876               cv202
3877 BA68 0200  20 	li r0,2816   ; 11*256
     BA6A 0B00     
3878 BA6C D800  38 	movb r0,@cvb_RN
     BA6E 20E3     
3879 BA70 0460  28 	b @cvb_GSW
     BA72 BB16     
3880               cv201
3881               	; 	IF rn = 14 THEN rn = 13 : GOTO gsw
3882 BA74 D020  34 	movb @cvb_RN,r0
     BA76 20E3     
3883 BA78 0201  20 	li r1,3584   ; 14*256
     BA7A 0E00     
3884 BA7C 9001  18 	cb r1,r0
3885 BA7E 1302  14 	jeq cv204
3886 BA80 0460  28 	b @cv203
     BA82 BA90     
3887               cv204
3888 BA84 0200  20 	li r0,3328   ; 13*256
     BA86 0D00     
3889 BA88 D800  38 	movb r0,@cvb_RN
     BA8A 20E3     
3890 BA8C 0460  28 	b @cvb_GSW
     BA8E BB16     
3891               cv203
3892               	; 	IF rn = 25 THEN rn = 24 : GOTO gsw
3893 BA90 D020  34 	movb @cvb_RN,r0
     BA92 20E3     
3894 BA94 0201  20 	li r1,6400   ; 25*256
     BA96 1900     
3895 BA98 9001  18 	cb r1,r0
3896 BA9A 1302  14 	jeq cv206
3897 BA9C 0460  28 	b @cv205
     BA9E BAAC     
3898               cv206
3899 BAA0 0200  20 	li r0,6144   ; 24*256
     BAA2 1800     
3900 BAA4 D800  38 	movb r0,@cvb_RN
     BAA6 20E3     
3901 BAA8 0460  28 	b @cvb_GSW
     BAAA BB16     
3902               cv205
3903               	; 	IF rn = 33 THEN rn = 32 : GOTO gsw
3904 BAAC D020  34 	movb @cvb_RN,r0
     BAAE 20E3     
3905 BAB0 0201  20 	li r1,8448   ; 33*256
     BAB2 2100     
3906 BAB4 9001  18 	cb r1,r0
3907 BAB6 1302  14 	jeq cv208
3908 BAB8 0460  28 	b @cv207
     BABA BAC8     
3909               cv208
3910 BABC 0200  20 	li r0,8192   ; 32*256
     BABE 2000     
3911 BAC0 D800  38 	movb r0,@cvb_RN
     BAC2 20E3     
3912 BAC4 0460  28 	b @cvb_GSW
     BAC6 BB16     
3913               cv207
3914               	; 	IF ps = 255 THEN RETURN
3915 BAC8 D020  34 	movb @cvb_PS,r0
     BACA 20DD     
3916 BACC 0201  20 	li r1,65280   ; 255*256
     BACE FF00     
3917 BAD0 9001  18 	cb r1,r0
3918 BAD2 1302  14 	jeq cv210
3919 BAD4 0460  28 	b @cv209
     BAD6 BADC     
3920               cv210
3921 BAD8 C03A  30 	mov *r10+,r0
3922 BADA 0450  20 	b *r0
3923               cv209
3924               	; 	gdir = 3 : dpc = px
3925 BADC 0200  20 	li r0,768   ; 3*256
     BADE 0300     
3926 BAE0 D800  38 	movb r0,@cvb_GDIR
     BAE2 20EC     
3927 BAE4 D820  54 	movb @cvb_PX,@cvb_DPC
     BAE6 20DF     
     BAE8 20A2     
3928               	; 	rn = ps : py = 4 : rmch = 1
3929 BAEA D820  54 	movb @cvb_PS,@cvb_RN
     BAEC 20DD     
     BAEE 20E3     
3930 BAF0 0200  20 	li r0,1024   ; 4*256
     BAF2 0400     
3931 BAF4 D800  38 	movb r0,@cvb_PY
     BAF6 20E0     
3932 BAF8 0200  20 	li r0,256   ; 1*256
     BAFA 0100     
3933 BAFC D800  38 	movb r0,@cvb_RMCH
     BAFE 2093     
3934               	; 	GOSUB enterroom
3935 BB00 06A0  32 	bl @jsr
     BB02 A974     
3936 BB04 D61A     	data cvb_ENTERROOM
3937               	; 	ax = 0
3938 BB06 04C0  14 	clr r0
3939 BB08 D800  38 	movb r0,@cvb_AX
     BB0A 20CC     
3940               	; 	GOSUB arrsnap
3941 BB0C 06A0  32 	bl @jsr
     BB0E A974     
3942 BB10 BB40     	data cvb_ARRSNAP
3943               	; 	RETURN
3944 BB12 C03A  30 	mov *r10+,r0
3945 BB14 0450  20 	b *r0
3946               	; gsw:
3947               cvb_GSW
3948               	; 	gdir = 255
3949 BB16 0200  20 	li r0,65280   ; 255*256
     BB18 FF00     
3950 BB1A D800  38 	movb r0,@cvb_GDIR
     BB1C 20EC     
3951               	; 	px = 120 : py = 66 : rmch = 1
3952 BB1E 0200  20 	li r0,30720   ; 120*256
     BB20 7800     
3953 BB22 D800  38 	movb r0,@cvb_PX
     BB24 20DF     
3954 BB26 0200  20 	li r0,16896   ; 66*256
     BB28 4200     
3955 BB2A D800  38 	movb r0,@cvb_PY
     BB2C 20E0     
3956 BB2E 0200  20 	li r0,256   ; 1*256
     BB30 0100     
3957 BB32 D800  38 	movb r0,@cvb_RMCH
     BB34 2093     
3958               	; 	GOSUB enterroom
3959 BB36 06A0  32 	bl @jsr
     BB38 A974     
3960 BB3A D61A     	data cvb_ENTERROOM
3961               	; 	END
3962 BB3C C03A  30 	mov *r10+,r0
3963 BB3E 0450  20 	b *r0
3964               	;
3965               	; 	' ------------------------------------------------------------
3966               	; 	' arrival snap: screens deliberately do NOT line up (multiple,
3967               	; 	' offset gaps per edge, like the original) - if the arrival
3968               	; 	' spot is walled, slide along the edge to the NEAREST opening.
3969               	; 	' ax=0: slide px (N/S arrivals); ax=1: slide py (E/W arrivals)
3970               	; 	' ------------------------------------------------------------
3971               	; arrsnap: PROCEDURE
3972               	even
3973               cvb_ARRSNAP
3974               	; 	x0 = px : y0 = py : bw = 7 : bh = 7
3975 BB40 D820  54 	movb @cvb_PX,@cvb_X0
     BB42 20DF     
     BB44 20E9     
3976 BB46 D820  54 	movb @cvb_PY,@cvb_Y0
     BB48 20E0     
     BB4A 20EB     
3977 BB4C 0200  20 	li r0,1792   ; 7*256
     BB4E 0700     
3978 BB50 D800  38 	movb r0,@cvb_BW
     BB52 20CF     
3979 BB54 0200  20 	li r0,1792   ; 7*256
     BB56 0700     
3980 BB58 D800  38 	movb r0,@cvb_BH
     BB5A 20CB     
3981               	; 	GOSUB chkbox
3982 BB5C 06A0  32 	bl @jsr
     BB5E A974     
3983 BB60 D478     	data cvb_CHKBOX
3984               	; 	IF bf = 0 THEN RETURN
3985 BB62 D020  34 	movb @cvb_BF,r0
     BB64 20CA     
3986 BB66 1302  14 	jeq cv212
3987 BB68 0460  28 	b @cv211
     BB6A BB70     
3988               cv212
3989 BB6C C03A  30 	mov *r10+,r0
3990 BB6E 0450  20 	b *r0
3991               cv211
3992               	; 	IF ax = 0 THEN snb = (px + 4) AND 248 ELSE snb = (py + 4) AND 248
3993 BB70 D020  34 	movb @cvb_AX,r0
     BB72 20CC     
3994 BB74 1302  14 	jeq cv214
3995 BB76 0460  28 	b @cv213
     BB78 BB92     
3996               cv214
3997 BB7A D020  34 	movb @cvb_PX,r0
     BB7C 20DF     
3998 BB7E 0220  22 	ai r0,1024	; 4
     BB80 0400     
3999 BB82 0201  20 	li r1,63488   ; 248*256
     BB84 F800     
4000 BB86 0541  14 	inv r1
4001 BB88 5001  18 	szcb r1,r0
4002 BB8A D800  38 	movb r0,@cvb_SNB
     BB8C 20ED     
4003 BB8E 0460  28 	b @cv215
     BB90 BBA6     
4004               cv213
4005 BB92 D020  34 	movb @cvb_PY,r0
     BB94 20E0     
4006 BB96 0220  22 	ai r0,1024	; 4
     BB98 0400     
4007 BB9A 0201  20 	li r1,63488   ; 248*256
     BB9C F800     
4008 BB9E 0541  14 	inv r1
4009 BBA0 5001  18 	szcb r1,r0
4010 BBA2 D800  38 	movb r0,@cvb_SNB
     BBA4 20ED     
4011               cv215
4012               	; 	FOR sfd = 8 TO 240 STEP 8
4013 BBA6 0200  20 	li r0,2048   ; 8*256
     BBA8 0800     
4014 BBAA D800  38 	movb r0,@cvb_SFD
     BBAC 20DB     
4015               cv216
4016               	; 	GOSUB artry
4017 BBAE 06A0  32 	bl @jsr
     BBB0 A974     
4018 BBB2 BBFA     	data cvb_ARTRY
4019               	; 	IF bf = 0 THEN GOTO arrs2
4020 BBB4 D020  34 	movb @cvb_BF,r0
     BBB6 20CA     
4021 BBB8 1302  14 	jeq cv218
4022 BBBA 0460  28 	b @cv217
     BBBC BBC2     
4023               cv218
4024 BBBE 0460  28 	b @cvb_ARRS2
     BBC0 BBDA     
4025               cv217
4026               	; 	NEXT sfd
4027 BBC2 D020  34 	movb @cvb_SFD,r0
     BBC4 20DB     
4028 BBC6 0220  22 	ai r0,2048	; 8
     BBC8 0800     
4029 BBCA D800  38 	movb r0,@cvb_SFD
     BBCC 20DB     
4030 BBCE 0201  20 	li r1,61696   ; 241*256
     BBD0 F100     
4031 BBD2 9040  18 	cb r0,r1
4032 BBD4 1402  14 	jhe cv219
4033 BBD6 0460  28 	b @cv216
     BBD8 BBAE     
4034               cv219
4035               	; arrs2:
4036               cvb_ARRS2
4037               	; 	' the snap moved us after fogenter drew - recentre the lamp
4038               	; 	IF fon = 1 THEN GOSUB fogwipe : GOSUB fogenter
4039 BBDA D020  34 	movb @cvb_FON,r0
     BBDC 20AF     
4040 BBDE 0201  20 	li r1,256   ; 1*256
     BBE0 0100     
4041 BBE2 9001  18 	cb r1,r0
4042 BBE4 1302  14 	jeq cv221
4043 BBE6 0460  28 	b @cv220
     BBE8 BBF6     
4044               cv221
4045 BBEA 06A0  32 	bl @jsr
     BBEC A974     
4046 BBEE E4DE     	data cvb_FOGWIPE
4047 BBF0 06A0  32 	bl @jsr
     BBF2 A974     
4048 BBF4 E01E     	data cvb_FOGENTER
4049               cv220
4050               	; 	END
4051 BBF6 C03A  30 	mov *r10+,r0
4052 BBF8 0450  20 	b *r0
4053               	;
4054               	; artry: PROCEDURE
4055               	even
4056               cvb_ARTRY
4057               	; 	IF snb >= sfd THEN GOSUB artrym : IF bf = 0 THEN RETURN
4058 BBFA D020  34 	movb @cvb_SNB,r0
     BBFC 20ED     
4059 BBFE 9800  34 	cb r0,@cvb_SFD
     BC00 20DB     
4060 BC02 1402  14 	jhe cv223
4061 BC04 0460  28 	b @cv222
     BC06 BC1C     
4062               cv223
4063 BC08 06A0  32 	bl @jsr
     BC0A A974     
4064 BC0C BC26     	data cvb_ARTRYM
4065 BC0E D020  34 	movb @cvb_BF,r0
     BC10 20CA     
4066 BC12 1302  14 	jeq cv225
4067 BC14 0460  28 	b @cv224
     BC16 BC1C     
4068               cv225
4069 BC18 C03A  30 	mov *r10+,r0
4070 BC1A 0450  20 	b *r0
4071               cv224
4072               cv222
4073               	; 	GOSUB artryp
4074 BC1C 06A0  32 	bl @jsr
     BC1E A974     
4075 BC20 BC84     	data cvb_ARTRYP
4076               	; 	END
4077 BC22 C03A  30 	mov *r10+,r0
4078 BC24 0450  20 	b *r0
4079               	;
4080               	; artrym: PROCEDURE
4081               	even
4082               cvb_ARTRYM
4083               	; 	t2 = snb - sfd
4084 BC26 D020  34 	movb @cvb_SNB,r0
     BC28 20ED     
4085 BC2A 7020  34 	sb @cvb_SFD,r0
     BC2C 20DB     
4086 BC2E D800  38 	movb r0,@cvb_T2
     BC30 20E1     
4087               	; 	IF ax = 0 THEN x0 = t2 ELSE y0 = t2
4088 BC32 D020  34 	movb @cvb_AX,r0
     BC34 20CC     
4089 BC36 1302  14 	jeq cv227
4090 BC38 0460  28 	b @cv226
     BC3A BC46     
4091               cv227
4092 BC3C D820  54 	movb @cvb_T2,@cvb_X0
     BC3E 20E1     
     BC40 20E9     
4093 BC42 0460  28 	b @cv228
     BC44 BC4C     
4094               cv226
4095 BC46 D820  54 	movb @cvb_T2,@cvb_Y0
     BC48 20E1     
     BC4A 20EB     
4096               cv228
4097               	; 	GOSUB chkbox
4098 BC4C 06A0  32 	bl @jsr
     BC4E A974     
4099 BC50 D478     	data cvb_CHKBOX
4100               	; 	IF bf = 1 THEN RETURN
4101 BC52 D020  34 	movb @cvb_BF,r0
     BC54 20CA     
4102 BC56 0201  20 	li r1,256   ; 1*256
     BC58 0100     
4103 BC5A 9001  18 	cb r1,r0
4104 BC5C 1302  14 	jeq cv230
4105 BC5E 0460  28 	b @cv229
     BC60 BC66     
4106               cv230
4107 BC62 C03A  30 	mov *r10+,r0
4108 BC64 0450  20 	b *r0
4109               cv229
4110               	; 	IF ax = 0 THEN px = t2 ELSE py = t2
4111 BC66 D020  34 	movb @cvb_AX,r0
     BC68 20CC     
4112 BC6A 1302  14 	jeq cv232
4113 BC6C 0460  28 	b @cv231
     BC6E BC7A     
4114               cv232
4115 BC70 D820  54 	movb @cvb_T2,@cvb_PX
     BC72 20E1     
     BC74 20DF     
4116 BC76 0460  28 	b @cv233
     BC78 BC80     
4117               cv231
4118 BC7A D820  54 	movb @cvb_T2,@cvb_PY
     BC7C 20E1     
     BC7E 20E0     
4119               cv233
4120               	; 	END
4121 BC80 C03A  30 	mov *r10+,r0
4122 BC82 0450  20 	b *r0
4123               	;
4124               	; artryp: PROCEDURE
4125               	even
4126               cvb_ARTRYP
4127               	; 	#aw = snb + sfd
4128 BC84 D020  34 	movb @cvb_SNB,r0
     BC86 20ED     
4129 BC88 B020  34 	ab @cvb_SFD,r0
     BC8A 20DB     
4130 BC8C 0980  32 	srl r0,8
4131 BC8E C800  38 	mov r0,@cvb__AW
     BC90 20B6     
4132               	; 	IF ax = 0 THEN IF #aw > 240 THEN RETURN
4133 BC92 D020  34 	movb @cvb_AX,r0
     BC94 20CC     
4134 BC96 1302  14 	jeq cv235
4135 BC98 0460  28 	b @cv234
     BC9A BCB0     
4136               cv235
4137 BC9C C020  34 	mov @cvb__AW,r0
     BC9E 20B6     
4138 BCA0 0201  20 	li r1,241
     BCA2 00F1     
4139 BCA4 8040  18 	c r0,r1
4140 BCA6 1402  14 	jhe cv237
4141 BCA8 0460  28 	b @cv236
     BCAA BCB0     
4142               cv237
4143 BCAC C03A  30 	mov *r10+,r0
4144 BCAE 0450  20 	b *r0
4145               cv236
4146               cv234
4147               	; 	IF ax = 1 THEN IF #aw > 176 THEN RETURN
4148 BCB0 D020  34 	movb @cvb_AX,r0
     BCB2 20CC     
4149 BCB4 0201  20 	li r1,256   ; 1*256
     BCB6 0100     
4150 BCB8 9001  18 	cb r1,r0
4151 BCBA 1302  14 	jeq cv239
4152 BCBC 0460  28 	b @cv238
     BCBE BCD4     
4153               cv239
4154 BCC0 C020  34 	mov @cvb__AW,r0
     BCC2 20B6     
4155 BCC4 0201  20 	li r1,177
     BCC6 00B1     
4156 BCC8 8040  18 	c r0,r1
4157 BCCA 1402  14 	jhe cv241
4158 BCCC 0460  28 	b @cv240
     BCCE BCD4     
4159               cv241
4160 BCD0 C03A  30 	mov *r10+,r0
4161 BCD2 0450  20 	b *r0
4162               cv240
4163               cv238
4164               	; 	t2 = snb + sfd
4165 BCD4 D020  34 	movb @cvb_SNB,r0
     BCD6 20ED     
4166 BCD8 B020  34 	ab @cvb_SFD,r0
     BCDA 20DB     
4167 BCDC D800  38 	movb r0,@cvb_T2
     BCDE 20E1     
4168               	; 	IF ax = 0 THEN x0 = t2 ELSE y0 = t2
4169 BCE0 D020  34 	movb @cvb_AX,r0
     BCE2 20CC     
4170 BCE4 1302  14 	jeq cv243
4171 BCE6 0460  28 	b @cv242
     BCE8 BCF4     
4172               cv243
4173 BCEA D820  54 	movb @cvb_T2,@cvb_X0
     BCEC 20E1     
     BCEE 20E9     
4174 BCF0 0460  28 	b @cv244
     BCF2 BCFA     
4175               cv242
4176 BCF4 D820  54 	movb @cvb_T2,@cvb_Y0
     BCF6 20E1     
     BCF8 20EB     
4177               cv244
4178               	; 	GOSUB chkbox
4179 BCFA 06A0  32 	bl @jsr
     BCFC A974     
4180 BCFE D478     	data cvb_CHKBOX
4181               	; 	IF bf = 1 THEN RETURN
4182 BD00 D020  34 	movb @cvb_BF,r0
     BD02 20CA     
4183 BD04 0201  20 	li r1,256   ; 1*256
     BD06 0100     
4184 BD08 9001  18 	cb r1,r0
4185 BD0A 1302  14 	jeq cv246
4186 BD0C 0460  28 	b @cv245
     BD0E BD14     
4187               cv246
4188 BD10 C03A  30 	mov *r10+,r0
4189 BD12 0450  20 	b *r0
4190               cv245
4191               	; 	IF ax = 0 THEN px = t2 ELSE py = t2
4192 BD14 D020  34 	movb @cvb_AX,r0
     BD16 20CC     
4193 BD18 1302  14 	jeq cv248
4194 BD1A 0460  28 	b @cv247
     BD1C BD28     
4195               cv248
4196 BD1E D820  54 	movb @cvb_T2,@cvb_PX
     BD20 20E1     
     BD22 20DF     
4197 BD24 0460  28 	b @cv249
     BD26 BD2E     
4198               cv247
4199 BD28 D820  54 	movb @cvb_T2,@cvb_PY
     BD2A 20E1     
     BD2C 20E0     
4200               cv249
4201               	; 	END
4202 BD2E C03A  30 	mov *r10+,r0
4203 BD30 0450  20 	b *r0
4204               	;
4205               	; 	' ------------------------------------------------------------
4206               	; 	' gate: closed = touch it while carrying the matching key
4207               	; 	' (generous window: 3px steps can leave you at py=66-70);
4208               	; 	' open = walking deep into the archway warps inside the castle
4209               	; 	' ------------------------------------------------------------
4210               	; gatelogic: PROCEDURE
4211               	even
4212               cvb_GATELOGIC
4213               	; 	IF gopn = 1 THEN GOTO gwarp
4214 BD32 D020  34 	movb @cvb_GOPN,r0
     BD34 209D     
4215 BD36 0201  20 	li r1,256   ; 1*256
     BD38 0100     
4216 BD3A 9001  18 	cb r1,r0
4217 BD3C 1302  14 	jeq cv251
4218 BD3E 0460  28 	b @cv250
     BD40 BD46     
4219               cv251
4220 BD42 0460  28 	b @cvb_GWARP
     BD44 BEC8     
4221               cv250
4222               	; 	IF cr <> gz - 1 THEN RETURN
4223 BD46 D020  34 	movb @cvb_GZ,r0
     BD48 20D8     
4224 BD4A 0980  32 	srl r0,8
4225 BD4C 0600  14 	dec r0
4226 BD4E C040  18 	mov r0,r1
4227 BD50 D020  34 	movb @cvb_CR,r0
     BD52 20D0     
4228 BD54 0980  32 	srl r0,8
4229 BD56 8040  18 	c r0,r1
4230 BD58 1602  14 	jne cv253
4231 BD5A 0460  28 	b @cv252
     BD5C BD62     
4232               cv253
4233 BD5E C03A  30 	mov *r10+,r0
4234 BD60 0450  20 	b *r0
4235               cv252
4236               	; 	IF px < 100 THEN RETURN
4237 BD62 D020  34 	movb @cvb_PX,r0
     BD64 20DF     
4238 BD66 0201  20 	li r1,25600   ; 100*256
     BD68 6400     
4239 BD6A 9040  18 	cb r0,r1
4240 BD6C 1A02  14 	jl cv255
4241 BD6E 0460  28 	b @cv254
     BD70 BD76     
4242               cv255
4243 BD72 C03A  30 	mov *r10+,r0
4244 BD74 0450  20 	b *r0
4245               cv254
4246               	; 	IF px > 148 THEN RETURN
4247 BD76 D020  34 	movb @cvb_PX,r0
     BD78 20DF     
4248 BD7A 0201  20 	li r1,38144   ; 149*256
     BD7C 9500     
4249 BD7E 9040  18 	cb r0,r1
4250 BD80 1402  14 	jhe cv257
4251 BD82 0460  28 	b @cv256
     BD84 BD8A     
4252               cv257
4253 BD86 C03A  30 	mov *r10+,r0
4254 BD88 0450  20 	b *r0
4255               cv256
4256               	; 	IF py > 70 THEN RETURN
4257 BD8A D020  34 	movb @cvb_PY,r0
     BD8C 20E0     
4258 BD8E 0201  20 	li r1,18176   ; 71*256
     BD90 4700     
4259 BD92 9040  18 	cb r0,r1
4260 BD94 1402  14 	jhe cv259
4261 BD96 0460  28 	b @cv258
     BD98 BD9E     
4262               cv259
4263 BD9A C03A  30 	mov *r10+,r0
4264 BD9C 0450  20 	b *r0
4265               cv258
4266               	; 	gop(gz - 1) = 1
4267 BD9E 0201  20 	li r1,256
     BDA0 0100     
4268 BDA2 D020  34 	movb @cvb_GZ,r0
     BDA4 20D8     
4269 BDA6 0980  32 	srl r0,8
4270 BDA8 0600  14 	dec r0
4271 BDAA 0220  22 	ai r0,array_GOP
     BDAC 2256     
4272 BDAE D401  30 	movb r1,*r0
4273               	; 	' the portcullis RISES: the opening appears at the bottom and
4274               	; 	' grows upward, one row at a time, with a rising clank per row
4275               	; 	' (the gate stays solid until it is fully up)
4276               	; 	FOR r = 7 TO 4 STEP -1
4277 BDB0 0200  20 	li r0,1792   ; 7*256
     BDB2 0700     
4278 BDB4 D800  38 	movb r0,@cvb_R
     BDB6 208B     
4279               cv260
4280               	; 	VPOKE $1800 + r * 32 + 14, 32 : VPOKE $1800 + r * 32 + 15, 32
4281 BDB8 0200  20 	li r0,8192   ; 32*256
     BDBA 2000     
4282 BDBC 064A  14 	dect r10
4283 BDBE C680  30 	mov r0,*r10
4284 BDC0 D020  34 	movb @cvb_R,r0
     BDC2 208B     
4285 BDC4 0980  32 	srl r0,8
4286 BDC6 0A50  26 	sla r0,5
4287 BDC8 0220  22 	ai r0,6158
     BDCA 180E     
4288 BDCC C0BA  30 	mov *r10+,r2
4289 BDCE 0300  22 	limi 0
     BDD0 0000     
4290 BDD2 06A0  32 	bl @JSR
     BDD4 A974     
4291 BDD6 A018     	data WRTVRM
4292 BDD8 0300  22 	limi 2
     BDDA 0002     
4293 BDDC 0200  20 	li r0,8192   ; 32*256
     BDDE 2000     
4294 BDE0 064A  14 	dect r10
4295 BDE2 C680  30 	mov r0,*r10
4296 BDE4 D020  34 	movb @cvb_R,r0
     BDE6 208B     
4297 BDE8 0980  32 	srl r0,8
4298 BDEA 0A50  26 	sla r0,5
4299 BDEC 0220  22 	ai r0,6159
     BDEE 180F     
4300 BDF0 C0BA  30 	mov *r10+,r2
4301 BDF2 0300  22 	limi 0
     BDF4 0000     
4302 BDF6 06A0  32 	bl @JSR
     BDF8 A974     
4303 BDFA A018     	data WRTVRM
4304 BDFC 0300  22 	limi 2
     BDFE 0002     
4305               	; 	VPOKE $1800 + r * 32 + 16, 32 : VPOKE $1800 + r * 32 + 17, 32
4306 BE00 0200  20 	li r0,8192   ; 32*256
     BE02 2000     
4307 BE04 064A  14 	dect r10
4308 BE06 C680  30 	mov r0,*r10
4309 BE08 D020  34 	movb @cvb_R,r0
     BE0A 208B     
4310 BE0C 0980  32 	srl r0,8
4311 BE0E 0A50  26 	sla r0,5
4312 BE10 0220  22 	ai r0,6160
     BE12 1810     
4313 BE14 C0BA  30 	mov *r10+,r2
4314 BE16 0300  22 	limi 0
     BE18 0000     
4315 BE1A 06A0  32 	bl @JSR
     BE1C A974     
4316 BE1E A018     	data WRTVRM
4317 BE20 0300  22 	limi 2
     BE22 0002     
4318 BE24 0200  20 	li r0,8192   ; 32*256
     BE26 2000     
4319 BE28 064A  14 	dect r10
4320 BE2A C680  30 	mov r0,*r10
4321 BE2C D020  34 	movb @cvb_R,r0
     BE2E 208B     
4322 BE30 0980  32 	srl r0,8
4323 BE32 0A50  26 	sla r0,5
4324 BE34 0220  22 	ai r0,6161
     BE36 1811     
4325 BE38 C0BA  30 	mov *r10+,r2
4326 BE3A 0300  22 	limi 0
     BE3C 0000     
4327 BE3E 06A0  32 	bl @JSR
     BE40 A974     
4328 BE42 A018     	data WRTVRM
4329 BE44 0300  22 	limi 2
     BE46 0002     
4330               	; 	SOUND 0, 200 + r * 60, 11
4331 BE48 D020  34 	movb @cvb_R,r0
     BE4A 208B     
4332 BE4C 0980  32 	srl r0,8
4333 BE4E 0201  20 	li r1,60
     BE50 003C     
4334 BE52 3801  58 	mpy r1,r0
4335 BE54 C001  18 	mov r1,r0
4336 BE56 0220  22 	ai r0,200
     BE58 00C8     
4337 BE5A 0202  20 	li r2,>8000
     BE5C 8000     
4338 BE5E 06A0  32 	bl @jsr
     BE60 A974     
4339 BE62 A2BA     	data sn76489_freq
4340 BE64 0200  20 	li r0,2816   ; 11*256
     BE66 0B00     
4341 BE68 0202  20 	li r2,>9000
     BE6A 9000     
4342 BE6C 06A0  32 	bl @jsr
     BE6E A974     
4343 BE70 A2D6     	data sn76489_vol
4344               	; 	FOR i = 1 TO 7 : WAIT : NEXT i
4345 BE72 0200  20 	li r0,256   ; 1*256
     BE74 0100     
4346 BE76 D800  38 	movb r0,@cvb_I
     BE78 2087     
4347               cv261
4348 BE7A 06A0  32 	bl @jsr
     BE7C A974     
4349 BE7E A64A     	data wait
4350 BE80 D020  34 	movb @cvb_I,r0
     BE82 2087     
4351 BE84 0220  22 	ai r0,256	; 1
     BE86 0100     
4352 BE88 D800  38 	movb r0,@cvb_I
     BE8A 2087     
4353 BE8C 0201  20 	li r1,2048   ; 8*256
     BE8E 0800     
4354 BE90 9040  18 	cb r0,r1
4355 BE92 1402  14 	jhe cv262
4356 BE94 0460  28 	b @cv261
     BE96 BE7A     
4357               cv262
4358               	; 	NEXT r
4359 BE98 D020  34 	movb @cvb_R,r0
     BE9A 208B     
4360 BE9C 0220  22 	ai r0,65280	; -1
     BE9E FF00     
4361 BEA0 D800  38 	movb r0,@cvb_R
     BEA2 208B     
4362 BEA4 0201  20 	li r1,1024   ; 4*256
     BEA6 0400     
4363 BEA8 9040  18 	cb r0,r1
4364 BEAA 1A02  14 	jl cv263
4365 BEAC 0460  28 	b @cv260
     BEAE BDB8     
4366               cv263
4367               	; 	SOUND 0, , 0
4368 BEB0 04C0  14 	clr r0
4369 BEB2 0202  20 	li r2,>9000
     BEB4 9000     
4370 BEB6 06A0  32 	bl @jsr
     BEB8 A974     
4371 BEBA A2D6     	data sn76489_vol
4372               	; 	gopn = 1
4373 BEBC 0200  20 	li r0,256   ; 1*256
     BEBE 0100     
4374 BEC0 D800  38 	movb r0,@cvb_GOPN
     BEC2 209D     
4375               	; 	RETURN
4376 BEC4 C03A  30 	mov *r10+,r0
4377 BEC6 0450  20 	b *r0
4378               	; gwarp:
4379               cvb_GWARP
4380               	; 	IF py > 34 THEN RETURN
4381 BEC8 D020  34 	movb @cvb_PY,r0
     BECA 20E0     
4382 BECC 0201  20 	li r1,8960   ; 35*256
     BECE 2300     
4383 BED0 9040  18 	cb r0,r1
4384 BED2 1402  14 	jhe cv265
4385 BED4 0460  28 	b @cv264
     BED6 BEDC     
4386               cv265
4387 BED8 C03A  30 	mov *r10+,r0
4388 BEDA 0450  20 	b *r0
4389               cv264
4390               	; 	IF px < 106 THEN RETURN
4391 BEDC D020  34 	movb @cvb_PX,r0
     BEDE 20DF     
4392 BEE0 0201  20 	li r1,27136   ; 106*256
     BEE2 6A00     
4393 BEE4 9040  18 	cb r0,r1
4394 BEE6 1A02  14 	jl cv267
4395 BEE8 0460  28 	b @cv266
     BEEA BEF0     
4396               cv267
4397 BEEC C03A  30 	mov *r10+,r0
4398 BEEE 0450  20 	b *r0
4399               cv266
4400               	; 	IF px > 138 THEN RETURN
4401 BEF0 D020  34 	movb @cvb_PX,r0
     BEF2 20DF     
4402 BEF4 0201  20 	li r1,35584   ; 139*256
     BEF6 8B00     
4403 BEF8 9040  18 	cb r0,r1
4404 BEFA 1402  14 	jhe cv269
4405 BEFC 0460  28 	b @cv268
     BEFE BF04     
4406               cv269
4407 BF00 C03A  30 	mov *r10+,r0
4408 BF02 0450  20 	b *r0
4409               cv268
4410               	; 	IF rn = 0 THEN rn = 2 : GOTO gwin
4411 BF04 D020  34 	movb @cvb_RN,r0
     BF06 20E3     
4412 BF08 1302  14 	jeq cv271
4413 BF0A 0460  28 	b @cv270
     BF0C BF1A     
4414               cv271
4415 BF0E 0200  20 	li r0,512   ; 2*256
     BF10 0200     
4416 BF12 D800  38 	movb r0,@cvb_RN
     BF14 20E3     
4417 BF16 0460  28 	b @cvb_GWIN
     BF18 BF92     
4418               cv270
4419               	; 	IF rn = 8 THEN rn = 9 : GOTO gwin
4420 BF1A D020  34 	movb @cvb_RN,r0
     BF1C 20E3     
4421 BF1E 0201  20 	li r1,2048   ; 8*256
     BF20 0800     
4422 BF22 9001  18 	cb r1,r0
4423 BF24 1302  14 	jeq cv273
4424 BF26 0460  28 	b @cv272
     BF28 BF36     
4425               cv273
4426 BF2A 0200  20 	li r0,2304   ; 9*256
     BF2C 0900     
4427 BF2E D800  38 	movb r0,@cvb_RN
     BF30 20E3     
4428 BF32 0460  28 	b @cvb_GWIN
     BF34 BF92     
4429               cv272
4430               	; 	IF rn = 11 THEN rn = 12 : GOTO gwin
4431 BF36 D020  34 	movb @cvb_RN,r0
     BF38 20E3     
4432 BF3A 0201  20 	li r1,2816   ; 11*256
     BF3C 0B00     
4433 BF3E 9001  18 	cb r1,r0
4434 BF40 1302  14 	jeq cv275
4435 BF42 0460  28 	b @cv274
     BF44 BF52     
4436               cv275
4437 BF46 0200  20 	li r0,3072   ; 12*256
     BF48 0C00     
4438 BF4A D800  38 	movb r0,@cvb_RN
     BF4C 20E3     
4439 BF4E 0460  28 	b @cvb_GWIN
     BF50 BF92     
4440               cv274
4441               	; 	IF rn = 13 THEN rn = 14 : GOTO gwin
4442 BF52 D020  34 	movb @cvb_RN,r0
     BF54 20E3     
4443 BF56 0201  20 	li r1,3328   ; 13*256
     BF58 0D00     
4444 BF5A 9001  18 	cb r1,r0
4445 BF5C 1302  14 	jeq cv277
4446 BF5E 0460  28 	b @cv276
     BF60 BF6E     
4447               cv277
4448 BF62 0200  20 	li r0,3584   ; 14*256
     BF64 0E00     
4449 BF66 D800  38 	movb r0,@cvb_RN
     BF68 20E3     
4450 BF6A 0460  28 	b @cvb_GWIN
     BF6C BF92     
4451               cv276
4452               	; 	IF rn = 24 THEN rn = 25 : GOTO gwin
4453 BF6E D020  34 	movb @cvb_RN,r0
     BF70 20E3     
4454 BF72 0201  20 	li r1,6144   ; 24*256
     BF74 1800     
4455 BF76 9001  18 	cb r1,r0
4456 BF78 1302  14 	jeq cv279
4457 BF7A 0460  28 	b @cv278
     BF7C BF8A     
4458               cv279
4459 BF7E 0200  20 	li r0,6400   ; 25*256
     BF80 1900     
4460 BF82 D800  38 	movb r0,@cvb_RN
     BF84 20E3     
4461 BF86 0460  28 	b @cvb_GWIN
     BF88 BF92     
4462               cv278
4463               	; 	rn = 33
4464 BF8A 0200  20 	li r0,8448   ; 33*256
     BF8C 2100     
4465 BF8E D800  38 	movb r0,@cvb_RN
     BF90 20E3     
4466               	; gwin:
4467               cvb_GWIN
4468               	; 	gdir = 255
4469 BF92 0200  20 	li r0,65280   ; 255*256
     BF94 FF00     
4470 BF96 D800  38 	movb r0,@cvb_GDIR
     BF98 20EC     
4471               	; 	px = 120 : py = 156 : rmch = 1
4472 BF9A 0200  20 	li r0,30720   ; 120*256
     BF9C 7800     
4473 BF9E D800  38 	movb r0,@cvb_PX
     BFA0 20DF     
4474 BFA2 0200  20 	li r0,39936   ; 156*256
     BFA4 9C00     
4475 BFA6 D800  38 	movb r0,@cvb_PY
     BFA8 20E0     
4476 BFAA 0200  20 	li r0,256   ; 1*256
     BFAC 0100     
4477 BFAE D800  38 	movb r0,@cvb_RMCH
     BFB0 2093     
4478               	; 	GOSUB enterroom
4479 BFB2 06A0  32 	bl @jsr
     BFB4 A974     
4480 BFB6 D61A     	data cvb_ENTERROOM
4481               	; 	END
4482 BFB8 C03A  30 	mov *r10+,r0
4483 BFBA 0450  20 	b *r0
4484               	;
4485               	; 	' ------------------------------------------------------------
4486               	; 	' carried object rides at its grab offset (#crx/#cry are the
4487               	; 	' object-minus-player offset, biased +64 to stay unsigned)
4488               	; 	' ------------------------------------------------------------
4489               	; carrypos: PROCEDURE
4490               	even
4491               cvb_CARRYPOS
4492               	; 	orm(cr) = rn
4493 BFBC D060  34 	movb @cvb_RN,r1
     BFBE 20E3     
4494 BFC0 D020  34 	movb @cvb_CR,r0
     BFC2 20D0     
4495 BFC4 0980  32 	srl r0,8
4496 BFC6 0220  22 	ai r0,array_ORM
     BFC8 224E     
4497 BFCA D401  30 	movb r1,*r0
4498               	; 	#ax = px + #crx
4499 BFCC D020  34 	movb @cvb_PX,r0
     BFCE 20DF     
4500 BFD0 0980  32 	srl r0,8
4501 BFD2 A020  34 	a @cvb__CRX,r0
     BFD4 20A8     
4502 BFD6 C800  38 	mov r0,@cvb__AX
     BFD8 20B8     
4503               	; 	IF #ax < 64 THEN #ax = 64
4504 BFDA 0280  22 	ci r0,64
     BFDC 0040     
4505 BFDE 1A02  14 	jl cv281
4506 BFE0 0460  28 	b @cv280
     BFE2 BFEC     
4507               cv281
4508 BFE4 0200  20 	li r0,64
     BFE6 0040     
4509 BFE8 C800  38 	mov r0,@cvb__AX
     BFEA 20B8     
4510               cv280
4511               	; 	IF #ax > 304 THEN #ax = 304
4512 BFEC C020  34 	mov @cvb__AX,r0
     BFEE 20B8     
4513 BFF0 0201  20 	li r1,305
     BFF2 0131     
4514 BFF4 8040  18 	c r0,r1
4515 BFF6 1402  14 	jhe cv283
4516 BFF8 0460  28 	b @cv282
     BFFA C004     
4517               cv283
4518 BFFC 0200  20 	li r0,304
     BFFE 0130     
4519 C000 C800  38 	mov r0,@cvb__AX
     C002 20B8     
4520               cv282
4521               	; 	obx(cr) = #ax - 64
4522 C004 C020  34 	mov @cvb__AX,r0
     C006 20B8     
4523 C008 0A80  32 	sla r0,8
4524 C00A 0220  22 	ai r0,49152	; -64
     C00C C000     
4525 C00E C040  18 	mov r0,r1
4526 C010 D020  34 	movb @cvb_CR,r0
     C012 20D0     
4527 C014 0980  32 	srl r0,8
4528 C016 0220  22 	ai r0,array_OBX
     C018 211E     
4529 C01A D401  30 	movb r1,*r0
4530               	; 	#ax = py + #cry
4531 C01C D020  34 	movb @cvb_PY,r0
     C01E 20E0     
4532 C020 0980  32 	srl r0,8
4533 C022 A020  34 	a @cvb__CRY,r0
     C024 20AA     
4534 C026 C800  38 	mov r0,@cvb__AX
     C028 20B8     
4535               	; 	IF #ax < 64 THEN #ax = 64
4536 C02A 0280  22 	ci r0,64
     C02C 0040     
4537 C02E 1A02  14 	jl cv285
4538 C030 0460  28 	b @cv284
     C032 C03C     
4539               cv285
4540 C034 0200  20 	li r0,64
     C036 0040     
4541 C038 C800  38 	mov r0,@cvb__AX
     C03A 20B8     
4542               cv284
4543               	; 	IF #ax > 240 THEN #ax = 240
4544 C03C C020  34 	mov @cvb__AX,r0
     C03E 20B8     
4545 C040 0201  20 	li r1,241
     C042 00F1     
4546 C044 8040  18 	c r0,r1
4547 C046 1402  14 	jhe cv287
4548 C048 0460  28 	b @cv286
     C04A C054     
4549               cv287
4550 C04C 0200  20 	li r0,240
     C04E 00F0     
4551 C050 C800  38 	mov r0,@cvb__AX
     C052 20B8     
4552               cv286
4553               	; 	oby(cr) = #ax - 64
4554 C054 C020  34 	mov @cvb__AX,r0
     C056 20B8     
4555 C058 0A80  32 	sla r0,8
4556 C05A 0220  22 	ai r0,49152	; -64
     C05C C000     
4557 C05E C040  18 	mov r0,r1
4558 C060 D020  34 	movb @cvb_CR,r0
     C062 20D0     
4559 C064 0980  32 	srl r0,8
4560 C066 0220  22 	ai r0,array_OBY
     C068 2126     
4561 C06A D401  30 	movb r1,*r0
4562               	; 	END
4563 C06C C03A  30 	mov *r10+,r0
4564 C06E 0450  20 	b *r0
4565               	;
4566               	; 	' ------------------------------------------------------------
4567               	; 	' pick up on touch (swap drops the old object on the spot)
4568               	; 	' ------------------------------------------------------------
4569               	; trypick: PROCEDURE
4570               	even
4571               cvb_TRYPICK
4572               	; 	FOR i = 0 TO 7
4573 C070 04C0  14 	clr r0
4574 C072 D800  38 	movb r0,@cvb_I
     C074 2087     
4575               cv288
4576               	; 	IF i <> cr THEN IF orm(i) = rn THEN GOSUB pchk
4577 C076 D020  34 	movb @cvb_I,r0
     C078 2087     
4578 C07A 9020  34 	cb @cvb_CR,r0
     C07C 20D0     
4579 C07E 1602  14 	jne cv290
4580 C080 0460  28 	b @cv289
     C082 C0A0     
4581               cv290
4582 C084 D020  34 	movb @cvb_I,r0
     C086 2087     
4583 C088 0980  32 	srl r0,8
4584 C08A 0220  22 	ai r0,array_ORM
     C08C 224E     
4585 C08E D010  26 	movb *r0,r0
4586 C090 9020  34 	cb @cvb_RN,r0
     C092 20E3     
4587 C094 1302  14 	jeq cv292
4588 C096 0460  28 	b @cv291
     C098 C0A0     
4589               cv292
4590 C09A 06A0  32 	bl @jsr
     C09C A974     
4591 C09E C0BC     	data cvb_PCHK
4592               cv291
4593               cv289
4594               	; 	NEXT i
4595 C0A0 D020  34 	movb @cvb_I,r0
     C0A2 2087     
4596 C0A4 0220  22 	ai r0,256	; 1
     C0A6 0100     
4597 C0A8 D800  38 	movb r0,@cvb_I
     C0AA 2087     
4598 C0AC 0201  20 	li r1,2048   ; 8*256
     C0AE 0800     
4599 C0B0 9040  18 	cb r0,r1
4600 C0B2 1402  14 	jhe cv293
4601 C0B4 0460  28 	b @cv288
     C0B6 C076     
4602               cv293
4603               	; 	END
4604 C0B8 C03A  30 	mov *r10+,r0
4605 C0BA 0450  20 	b *r0
4606               	;
4607               	; pchk: PROCEDURE
4608               	even
4609               cvb_PCHK
4610               	; 	IF i = 4 THEN GOSUB pbrchk : RETURN
4611 C0BC D020  34 	movb @cvb_I,r0
     C0BE 2087     
4612 C0C0 0201  20 	li r1,1024   ; 4*256
     C0C2 0400     
4613 C0C4 9001  18 	cb r1,r0
4614 C0C6 1302  14 	jeq cv295
4615 C0C8 0460  28 	b @cv294
     C0CA C0D6     
4616               cv295
4617 C0CC 06A0  32 	bl @jsr
     C0CE A974     
4618 C0D0 C15C     	data cvb_PBRCHK
4619 C0D2 C03A  30 	mov *r10+,r0
4620 C0D4 0450  20 	b *r0
4621               cv294
4622               	; 	#ax = obx(i) + 8 : #bx = px + 4
4623 C0D6 D020  34 	movb @cvb_I,r0
     C0D8 2087     
4624 C0DA 0980  32 	srl r0,8
4625 C0DC 0220  22 	ai r0,array_OBX
     C0DE 211E     
4626 C0E0 D010  26 	movb *r0,r0
4627 C0E2 0980  32 	srl r0,8
4628 C0E4 0220  22 	ai r0,8
     C0E6 0008     
4629 C0E8 C800  38 	mov r0,@cvb__AX
     C0EA 20B8     
4630 C0EC D020  34 	movb @cvb_PX,r0
     C0EE 20DF     
4631 C0F0 0980  32 	srl r0,8
4632 C0F2 0220  22 	ai r0,4
     C0F4 0004     
4633 C0F6 C800  38 	mov r0,@cvb__BX
     C0F8 20BA     
4634               	; 	GOSUB adiff
4635 C0FA 06A0  32 	bl @jsr
     C0FC A974     
4636 C0FE C342     	data cvb_ADIFF
4637               	; 	IF #cx > 11 THEN RETURN
4638 C100 C020  34 	mov @cvb__CX,r0
     C102 20BE     
4639 C104 0201  20 	li r1,12
     C106 000C     
4640 C108 8040  18 	c r0,r1
4641 C10A 1402  14 	jhe cv297
4642 C10C 0460  28 	b @cv296
     C10E C114     
4643               cv297
4644 C110 C03A  30 	mov *r10+,r0
4645 C112 0450  20 	b *r0
4646               cv296
4647               	; 	#ax = oby(i) + 6 : #bx = py + 4
4648 C114 D020  34 	movb @cvb_I,r0
     C116 2087     
4649 C118 0980  32 	srl r0,8
4650 C11A 0220  22 	ai r0,array_OBY
     C11C 2126     
4651 C11E D010  26 	movb *r0,r0
4652 C120 0980  32 	srl r0,8
4653 C122 0220  22 	ai r0,6
     C124 0006     
4654 C126 C800  38 	mov r0,@cvb__AX
     C128 20B8     
4655 C12A D020  34 	movb @cvb_PY,r0
     C12C 20E0     
4656 C12E 0980  32 	srl r0,8
4657 C130 0220  22 	ai r0,4
     C132 0004     
4658 C134 C800  38 	mov r0,@cvb__BX
     C136 20BA     
4659               	; 	GOSUB adiff
4660 C138 06A0  32 	bl @jsr
     C13A A974     
4661 C13C C342     	data cvb_ADIFF
4662               	; 	IF #cx > 10 THEN RETURN
4663 C13E C020  34 	mov @cvb__CX,r0
     C140 20BE     
4664 C142 0201  20 	li r1,11
     C144 000B     
4665 C146 8040  18 	c r0,r1
4666 C148 1402  14 	jhe cv299
4667 C14A 0460  28 	b @cv298
     C14C C152     
4668               cv299
4669 C14E C03A  30 	mov *r10+,r0
4670 C150 0450  20 	b *r0
4671               cv298
4672               	; 	GOSUB dopick
4673 C152 06A0  32 	bl @jsr
     C154 A974     
4674 C156 C2AC     	data cvb_DOPICK
4675               	; 	END
4676 C158 C03A  30 	mov *r10+,r0
4677 C15A 0450  20 	b *r0
4678               	;
4679               	; pbrchk: PROCEDURE
4680               	even
4681               cvb_PBRCHK
4682               	; 	' bridge: grabbed by its RAILS only - walking the channel (or
4683               	; 	' standing where you just dropped it) must NOT re-pick it up.
4684               	; 	' Also never while standing inside a wall - that would seal
4685               	; 	' you in.
4686               	; 	IF py + 7 < oby(i) THEN RETURN
4687 C15C D020  34 	movb @cvb_I,r0
     C15E 2087     
4688 C160 0980  32 	srl r0,8
4689 C162 0220  22 	ai r0,array_OBY
     C164 2126     
4690 C166 D010  26 	movb *r0,r0
4691 C168 0980  32 	srl r0,8
4692 C16A C040  18 	mov r0,r1
4693 C16C D020  34 	movb @cvb_PY,r0
     C16E 20E0     
4694 C170 0980  32 	srl r0,8
4695 C172 0220  22 	ai r0,7
     C174 0007     
4696 C176 8040  18 	c r0,r1
4697 C178 1A02  14 	jl cv301
4698 C17A 0460  28 	b @cv300
     C17C C182     
4699               cv301
4700 C17E C03A  30 	mov *r10+,r0
4701 C180 0450  20 	b *r0
4702               cv300
4703               	; 	#ax = oby(i) + 31
4704 C182 D020  34 	movb @cvb_I,r0
     C184 2087     
4705 C186 0980  32 	srl r0,8
4706 C188 0220  22 	ai r0,array_OBY
     C18A 2126     
4707 C18C D010  26 	movb *r0,r0
4708 C18E 0980  32 	srl r0,8
4709 C190 0220  22 	ai r0,31
     C192 001F     
4710 C194 C800  38 	mov r0,@cvb__AX
     C196 20B8     
4711               	; 	IF py > #ax THEN RETURN
4712 C198 D020  34 	movb @cvb_PY,r0
     C19A 20E0     
4713 C19C 0980  32 	srl r0,8
4714 C19E C040  18 	mov r0,r1
4715 C1A0 C020  34 	mov @cvb__AX,r0
     C1A2 20B8     
4716 C1A4 8040  18 	c r0,r1
4717 C1A6 1A02  14 	jl cv303
4718 C1A8 0460  28 	b @cv302
     C1AA C1B0     
4719               cv303
4720 C1AC C03A  30 	mov *r10+,r0
4721 C1AE 0450  20 	b *r0
4722               cv302
4723               	; 	hit = 0
4724 C1B0 04C0  14 	clr r0
4725 C1B2 D800  38 	movb r0,@cvb_HIT
     C1B4 20C6     
4726               	; 	#ax = obx(i) + 4
4727 C1B6 D020  34 	movb @cvb_I,r0
     C1B8 2087     
4728 C1BA 0980  32 	srl r0,8
4729 C1BC 0220  22 	ai r0,array_OBX
     C1BE 211E     
4730 C1C0 D010  26 	movb *r0,r0
4731 C1C2 0980  32 	srl r0,8
4732 C1C4 0220  22 	ai r0,4
     C1C6 0004     
4733 C1C8 C800  38 	mov r0,@cvb__AX
     C1CA 20B8     
4734               	; 	IF px <= #ax THEN IF px + 7 >= obx(i) THEN hit = 1
4735 C1CC D020  34 	movb @cvb_PX,r0
     C1CE 20DF     
4736 C1D0 0980  32 	srl r0,8
4737 C1D2 C040  18 	mov r0,r1
4738 C1D4 C020  34 	mov @cvb__AX,r0
     C1D6 20B8     
4739 C1D8 8040  18 	c r0,r1
4740 C1DA 1402  14 	jhe cv305
4741 C1DC 0460  28 	b @cv304
     C1DE C20A     
4742               cv305
4743 C1E0 D020  34 	movb @cvb_I,r0
     C1E2 2087     
4744 C1E4 0980  32 	srl r0,8
4745 C1E6 0220  22 	ai r0,array_OBX
     C1E8 211E     
4746 C1EA D010  26 	movb *r0,r0
4747 C1EC 0980  32 	srl r0,8
4748 C1EE C040  18 	mov r0,r1
4749 C1F0 D020  34 	movb @cvb_PX,r0
     C1F2 20DF     
4750 C1F4 0980  32 	srl r0,8
4751 C1F6 0220  22 	ai r0,7
     C1F8 0007     
4752 C1FA 8040  18 	c r0,r1
4753 C1FC 1402  14 	jhe cv307
4754 C1FE 0460  28 	b @cv306
     C200 C20A     
4755               cv307
4756 C202 0200  20 	li r0,256   ; 1*256
     C204 0100     
4757 C206 D800  38 	movb r0,@cvb_HIT
     C208 20C6     
4758               cv306
4759               cv304
4760               	; 	#ax = obx(i) + 27
4761 C20A D020  34 	movb @cvb_I,r0
     C20C 2087     
4762 C20E 0980  32 	srl r0,8
4763 C210 0220  22 	ai r0,array_OBX
     C212 211E     
4764 C214 D010  26 	movb *r0,r0
4765 C216 0980  32 	srl r0,8
4766 C218 0220  22 	ai r0,27
     C21A 001B     
4767 C21C C800  38 	mov r0,@cvb__AX
     C21E 20B8     
4768               	; 	IF px + 7 >= #ax THEN IF px <= obx(i) + 31 THEN hit = 1
4769 C220 D020  34 	movb @cvb_PX,r0
     C222 20DF     
4770 C224 0980  32 	srl r0,8
4771 C226 0220  22 	ai r0,7
     C228 0007     
4772 C22A 8800  34 	c r0,@cvb__AX
     C22C 20B8     
4773 C22E 1402  14 	jhe cv309
4774 C230 0460  28 	b @cv308
     C232 C25E     
4775               cv309
4776 C234 D020  34 	movb @cvb_PX,r0
     C236 20DF     
4777 C238 0980  32 	srl r0,8
4778 C23A C040  18 	mov r0,r1
4779 C23C D020  34 	movb @cvb_I,r0
     C23E 2087     
4780 C240 0980  32 	srl r0,8
4781 C242 0220  22 	ai r0,array_OBX
     C244 211E     
4782 C246 D010  26 	movb *r0,r0
4783 C248 0980  32 	srl r0,8
4784 C24A 0220  22 	ai r0,31
     C24C 001F     
4785 C24E 8040  18 	c r0,r1
4786 C250 1402  14 	jhe cv311
4787 C252 0460  28 	b @cv310
     C254 C25E     
4788               cv311
4789 C256 0200  20 	li r0,256   ; 1*256
     C258 0100     
4790 C25A D800  38 	movb r0,@cvb_HIT
     C25C 20C6     
4791               cv310
4792               cv308
4793               	; 	IF hit = 0 THEN RETURN
4794 C25E D020  34 	movb @cvb_HIT,r0
     C260 20C6     
4795 C262 1302  14 	jeq cv313
4796 C264 0460  28 	b @cv312
     C266 C26C     
4797               cv313
4798 C268 C03A  30 	mov *r10+,r0
4799 C26A 0450  20 	b *r0
4800               cv312
4801               	; 	x0 = px : y0 = py : bw = 7 : bh = 7
4802 C26C D820  54 	movb @cvb_PX,@cvb_X0
     C26E 20DF     
     C270 20E9     
4803 C272 D820  54 	movb @cvb_PY,@cvb_Y0
     C274 20E0     
     C276 20EB     
4804 C278 0200  20 	li r0,1792   ; 7*256
     C27A 0700     
4805 C27C D800  38 	movb r0,@cvb_BW
     C27E 20CF     
4806 C280 0200  20 	li r0,1792   ; 7*256
     C282 0700     
4807 C284 D800  38 	movb r0,@cvb_BH
     C286 20CB     
4808               	; 	GOSUB chkbox
4809 C288 06A0  32 	bl @jsr
     C28A A974     
4810 C28C D478     	data cvb_CHKBOX
4811               	; 	IF bf = 1 THEN RETURN
4812 C28E D020  34 	movb @cvb_BF,r0
     C290 20CA     
4813 C292 0201  20 	li r1,256   ; 1*256
     C294 0100     
4814 C296 9001  18 	cb r1,r0
4815 C298 1302  14 	jeq cv315
4816 C29A 0460  28 	b @cv314
     C29C C2A2     
4817               cv315
4818 C29E C03A  30 	mov *r10+,r0
4819 C2A0 0450  20 	b *r0
4820               cv314
4821               	; 	GOSUB dopick
4822 C2A2 06A0  32 	bl @jsr
     C2A4 A974     
4823 C2A6 C2AC     	data cvb_DOPICK
4824               	; 	END
4825 C2A8 C03A  30 	mov *r10+,r0
4826 C2AA 0450  20 	b *r0
4827               	;
4828               	; dopick: PROCEDURE
4829               	even
4830               cvb_DOPICK
4831               	; 	cr = i : pkcd = 10 : sfx = 1 : sfc = 4
4832 C2AC D820  54 	movb @cvb_I,@cvb_CR
     C2AE 2087     
     C2B0 20D0     
4833 C2B2 0200  20 	li r0,2560   ; 10*256
     C2B4 0A00     
4834 C2B6 D800  38 	movb r0,@cvb_PKCD
     C2B8 20AC     
4835 C2BA 0200  20 	li r0,256   ; 1*256
     C2BC 0100     
4836 C2BE D800  38 	movb r0,@cvb_SFX
     C2C0 20E2     
4837 C2C2 0200  20 	li r0,1024   ; 4*256
     C2C4 0400     
4838 C2C6 D800  38 	movb r0,@cvb_SFC
     C2C8 20DA     
4839               	; 	IF i = 7 THEN sfx = 0
4840 C2CA D020  34 	movb @cvb_I,r0
     C2CC 2087     
4841 C2CE 0201  20 	li r1,1792   ; 7*256
     C2D0 0700     
4842 C2D2 9001  18 	cb r1,r0
4843 C2D4 1302  14 	jeq cv317
4844 C2D6 0460  28 	b @cv316
     C2D8 C2E0     
4845               cv317
4846 C2DA 04C0  14 	clr r0
4847 C2DC D800  38 	movb r0,@cvb_SFX
     C2DE 20E2     
4848               cv316
4849               	; 	' remember which side it was grabbed on
4850               	; 	#crx = obx(i) + 64 - px : #cry = oby(i) + 64 - py
4851 C2E0 D020  34 	movb @cvb_PX,r0
     C2E2 20DF     
4852 C2E4 0980  32 	srl r0,8
4853 C2E6 C040  18 	mov r0,r1
4854 C2E8 D020  34 	movb @cvb_I,r0
     C2EA 2087     
4855 C2EC 0980  32 	srl r0,8
4856 C2EE 0220  22 	ai r0,array_OBX
     C2F0 211E     
4857 C2F2 D010  26 	movb *r0,r0
4858 C2F4 0980  32 	srl r0,8
4859 C2F6 0220  22 	ai r0,64
     C2F8 0040     
4860 C2FA 6001  18 	s r1,r0
4861 C2FC C800  38 	mov r0,@cvb__CRX
     C2FE 20A8     
4862 C300 D020  34 	movb @cvb_PY,r0
     C302 20E0     
4863 C304 0980  32 	srl r0,8
4864 C306 C040  18 	mov r0,r1
4865 C308 D020  34 	movb @cvb_I,r0
     C30A 2087     
4866 C30C 0980  32 	srl r0,8
4867 C30E 0220  22 	ai r0,array_OBY
     C310 2126     
4868 C312 D010  26 	movb *r0,r0
4869 C314 0980  32 	srl r0,8
4870 C316 0220  22 	ai r0,64
     C318 0040     
4871 C31A 6001  18 	s r1,r0
4872 C31C C800  38 	mov r0,@cvb__CRY
     C31E 20AA     
4873               	; 	' snatched back from the bat
4874               	; 	IF i = btc THEN btc = 255 : btcd = 150
4875 C320 D020  34 	movb @cvb_I,r0
     C322 2087     
4876 C324 9020  34 	cb @cvb_BTC,r0
     C326 2094     
4877 C328 1302  14 	jeq cv319
4878 C32A 0460  28 	b @cv318
     C32C C33E     
4879               cv319
4880 C32E 0200  20 	li r0,65280   ; 255*256
     C330 FF00     
4881 C332 D800  38 	movb r0,@cvb_BTC
     C334 2094     
4882 C336 0200  20 	li r0,38400   ; 150*256
     C338 9600     
4883 C33A D800  38 	movb r0,@cvb_BTCD
     C33C 20C0     
4884               cv318
4885               	; 	END
4886 C33E C03A  30 	mov *r10+,r0
4887 C340 0450  20 	b *r0
4888               	;
4889               	; adiff: PROCEDURE
4890               	even
4891               cvb_ADIFF
4892               	; 	IF #ax > #bx THEN #cx = #ax - #bx ELSE #cx = #bx - #ax
4893 C342 C020  34 	mov @cvb__BX,r0
     C344 20BA     
4894 C346 8800  34 	c r0,@cvb__AX
     C348 20B8     
4895 C34A 1A02  14 	jl cv321
4896 C34C 0460  28 	b @cv320
     C34E C360     
4897               cv321
4898 C350 C020  34 	mov @cvb__AX,r0
     C352 20B8     
4899 C354 6020  34 	s @cvb__BX,r0
     C356 20BA     
4900 C358 C800  38 	mov r0,@cvb__CX
     C35A 20BE     
4901 C35C 0460  28 	b @cv322
     C35E C36C     
4902               cv320
4903 C360 C020  34 	mov @cvb__BX,r0
     C362 20BA     
4904 C364 6020  34 	s @cvb__AX,r0
     C366 20B8     
4905 C368 C800  38 	mov r0,@cvb__CX
     C36A 20BE     
4906               cv322
4907               	; 	END
4908 C36C C03A  30 	mov *r10+,r0
4909 C36E 0450  20 	b *r0
4910               	;
4911               	; 	' ------------------------------------------------------------
4912               	; 	' magnet: every loose object in the magnet's room creeps 1px
4913               	; 	' per tick toward it (straight line, through walls) until it
4914               	; 	' rests beside it - the classic tool for retrieving objects
4915               	; 	' from unreachable spots
4916               	; 	' ------------------------------------------------------------
4917               	; magnetdo: PROCEDURE
4918               	even
4919               cvb_MAGNETDO
4920               	; 	FOR o = 0 TO 7
4921 C370 04C0  14 	clr r0
4922 C372 D800  38 	movb r0,@cvb_O
     C374 208A     
4923               cv323
4924               	; 	IF o <> 6 THEN IF o <> cr THEN IF o <> btc THEN IF orm(o) = rn THEN GOSUB magpull
4925 C376 D020  34 	movb @cvb_O,r0
     C378 208A     
4926 C37A 0201  20 	li r1,1536   ; 6*256
     C37C 0600     
4927 C37E 9001  18 	cb r1,r0
4928 C380 1602  14 	jne cv325
4929 C382 0460  28 	b @cv324
     C384 C3BE     
4930               cv325
4931 C386 D020  34 	movb @cvb_O,r0
     C388 208A     
4932 C38A 9020  34 	cb @cvb_CR,r0
     C38C 20D0     
4933 C38E 1602  14 	jne cv327
4934 C390 0460  28 	b @cv326
     C392 C3BE     
4935               cv327
4936 C394 D020  34 	movb @cvb_O,r0
     C396 208A     
4937 C398 9020  34 	cb @cvb_BTC,r0
     C39A 2094     
4938 C39C 1602  14 	jne cv329
4939 C39E 0460  28 	b @cv328
     C3A0 C3BE     
4940               cv329
4941 C3A2 D020  34 	movb @cvb_O,r0
     C3A4 208A     
4942 C3A6 0980  32 	srl r0,8
4943 C3A8 0220  22 	ai r0,array_ORM
     C3AA 224E     
4944 C3AC D010  26 	movb *r0,r0
4945 C3AE 9020  34 	cb @cvb_RN,r0
     C3B0 20E3     
4946 C3B2 1302  14 	jeq cv331
4947 C3B4 0460  28 	b @cv330
     C3B6 C3BE     
4948               cv331
4949 C3B8 06A0  32 	bl @jsr
     C3BA A974     
4950 C3BC C3DA     	data cvb_MAGPULL
4951               cv330
4952               cv328
4953               cv326
4954               cv324
4955               	; 	NEXT o
4956 C3BE D020  34 	movb @cvb_O,r0
     C3C0 208A     
4957 C3C2 0220  22 	ai r0,256	; 1
     C3C4 0100     
4958 C3C6 D800  38 	movb r0,@cvb_O
     C3C8 208A     
4959 C3CA 0201  20 	li r1,2048   ; 8*256
     C3CC 0800     
4960 C3CE 9040  18 	cb r0,r1
4961 C3D0 1402  14 	jhe cv332
4962 C3D2 0460  28 	b @cv323
     C3D4 C376     
4963               cv332
4964               	; 	END
4965 C3D6 C03A  30 	mov *r10+,r0
4966 C3D8 0450  20 	b *r0
4967               	;
4968               	; magpull: PROCEDURE
4969               	even
4970               cvb_MAGPULL
4971               	; 	#ax = obx(o) : #bx = obx(6)
4972 C3DA D020  34 	movb @cvb_O,r0
     C3DC 208A     
4973 C3DE 0980  32 	srl r0,8
4974 C3E0 0220  22 	ai r0,array_OBX
     C3E2 211E     
4975 C3E4 D010  26 	movb *r0,r0
4976 C3E6 0980  32 	srl r0,8
4977 C3E8 C800  38 	mov r0,@cvb__AX
     C3EA 20B8     
4978 C3EC D020  34 	movb @array_OBX+6,r0
     C3EE 2124     
4979 C3F0 0980  32 	srl r0,8
4980 C3F2 C800  38 	mov r0,@cvb__BX
     C3F4 20BA     
4981               	; 	GOSUB adiff
4982 C3F6 06A0  32 	bl @jsr
     C3F8 A974     
4983 C3FA C342     	data cvb_ADIFF
4984               	; 	#dx = #cx
4985 C3FC C820  54 	mov @cvb__CX,@cvb__DX
     C3FE 20BE     
     C400 20C2     
4986               	; 	#ax = oby(o) : #bx = oby(6)
4987 C402 D020  34 	movb @cvb_O,r0
     C404 208A     
4988 C406 0980  32 	srl r0,8
4989 C408 0220  22 	ai r0,array_OBY
     C40A 2126     
4990 C40C D010  26 	movb *r0,r0
4991 C40E 0980  32 	srl r0,8
4992 C410 C800  38 	mov r0,@cvb__AX
     C412 20B8     
4993 C414 D020  34 	movb @array_OBY+6,r0
     C416 212C     
4994 C418 0980  32 	srl r0,8
4995 C41A C800  38 	mov r0,@cvb__BX
     C41C 20BA     
4996               	; 	GOSUB adiff
4997 C41E 06A0  32 	bl @jsr
     C420 A974     
4998 C422 C342     	data cvb_ADIFF
4999               	; 	IF #dx + #cx <= 12 THEN RETURN
5000 C424 C020  34 	mov @cvb__DX,r0
     C426 20C2     
5001 C428 A020  34 	a @cvb__CX,r0
     C42A 20BE     
5002 C42C 0280  22 	ci r0,13
     C42E 000D     
5003 C430 1A02  14 	jl cv334
5004 C432 0460  28 	b @cv333
     C434 C43A     
5005               cv334
5006 C436 C03A  30 	mov *r10+,r0
5007 C438 0450  20 	b *r0
5008               cv333
5009               	; 	IF obx(o) < obx(6) THEN obx(o) = obx(o) + 1
5010 C43A D060  34 	movb @array_OBX+6,r1
     C43C 2124     
5011 C43E D020  34 	movb @cvb_O,r0
     C440 208A     
5012 C442 0980  32 	srl r0,8
5013 C444 0220  22 	ai r0,array_OBX
     C446 211E     
5014 C448 D010  26 	movb *r0,r0
5015 C44A 9040  18 	cb r0,r1
5016 C44C 1A02  14 	jl cv336
5017 C44E 0460  28 	b @cv335
     C450 C470     
5018               cv336
5019 C452 D020  34 	movb @cvb_O,r0
     C454 208A     
5020 C456 0980  32 	srl r0,8
5021 C458 0220  22 	ai r0,array_OBX
     C45A 211E     
5022 C45C D010  26 	movb *r0,r0
5023 C45E 0220  22 	ai r0,256	; 1
     C460 0100     
5024 C462 C040  18 	mov r0,r1
5025 C464 D020  34 	movb @cvb_O,r0
     C466 208A     
5026 C468 0980  32 	srl r0,8
5027 C46A 0220  22 	ai r0,array_OBX
     C46C 211E     
5028 C46E D401  30 	movb r1,*r0
5029               cv335
5030               	; 	IF obx(o) > obx(6) THEN obx(o) = obx(o) - 1
5031 C470 D020  34 	movb @cvb_O,r0
     C472 208A     
5032 C474 0980  32 	srl r0,8
5033 C476 0220  22 	ai r0,array_OBX
     C478 211E     
5034 C47A D050  26 	movb *r0,r1
5035 C47C D020  34 	movb @array_OBX+6,r0
     C47E 2124     
5036 C480 9040  18 	cb r0,r1
5037 C482 1A02  14 	jl cv338
5038 C484 0460  28 	b @cv337
     C486 C4A6     
5039               cv338
5040 C488 D020  34 	movb @cvb_O,r0
     C48A 208A     
5041 C48C 0980  32 	srl r0,8
5042 C48E 0220  22 	ai r0,array_OBX
     C490 211E     
5043 C492 D010  26 	movb *r0,r0
5044 C494 0220  22 	ai r0,65280	; -1
     C496 FF00     
5045 C498 C040  18 	mov r0,r1
5046 C49A D020  34 	movb @cvb_O,r0
     C49C 208A     
5047 C49E 0980  32 	srl r0,8
5048 C4A0 0220  22 	ai r0,array_OBX
     C4A2 211E     
5049 C4A4 D401  30 	movb r1,*r0
5050               cv337
5051               	; 	IF oby(o) < oby(6) THEN oby(o) = oby(o) + 1
5052 C4A6 D060  34 	movb @array_OBY+6,r1
     C4A8 212C     
5053 C4AA D020  34 	movb @cvb_O,r0
     C4AC 208A     
5054 C4AE 0980  32 	srl r0,8
5055 C4B0 0220  22 	ai r0,array_OBY
     C4B2 2126     
5056 C4B4 D010  26 	movb *r0,r0
5057 C4B6 9040  18 	cb r0,r1
5058 C4B8 1A02  14 	jl cv340
5059 C4BA 0460  28 	b @cv339
     C4BC C4DC     
5060               cv340
5061 C4BE D020  34 	movb @cvb_O,r0
     C4C0 208A     
5062 C4C2 0980  32 	srl r0,8
5063 C4C4 0220  22 	ai r0,array_OBY
     C4C6 2126     
5064 C4C8 D010  26 	movb *r0,r0
5065 C4CA 0220  22 	ai r0,256	; 1
     C4CC 0100     
5066 C4CE C040  18 	mov r0,r1
5067 C4D0 D020  34 	movb @cvb_O,r0
     C4D2 208A     
5068 C4D4 0980  32 	srl r0,8
5069 C4D6 0220  22 	ai r0,array_OBY
     C4D8 2126     
5070 C4DA D401  30 	movb r1,*r0
5071               cv339
5072               	; 	IF oby(o) > oby(6) THEN oby(o) = oby(o) - 1
5073 C4DC D020  34 	movb @cvb_O,r0
     C4DE 208A     
5074 C4E0 0980  32 	srl r0,8
5075 C4E2 0220  22 	ai r0,array_OBY
     C4E4 2126     
5076 C4E6 D050  26 	movb *r0,r1
5077 C4E8 D020  34 	movb @array_OBY+6,r0
     C4EA 212C     
5078 C4EC 9040  18 	cb r0,r1
5079 C4EE 1A02  14 	jl cv342
5080 C4F0 0460  28 	b @cv341
     C4F2 C512     
5081               cv342
5082 C4F4 D020  34 	movb @cvb_O,r0
     C4F6 208A     
5083 C4F8 0980  32 	srl r0,8
5084 C4FA 0220  22 	ai r0,array_OBY
     C4FC 2126     
5085 C4FE D010  26 	movb *r0,r0
5086 C500 0220  22 	ai r0,65280	; -1
     C502 FF00     
5087 C504 C040  18 	mov r0,r1
5088 C506 D020  34 	movb @cvb_O,r0
     C508 208A     
5089 C50A 0980  32 	srl r0,8
5090 C50C 0220  22 	ai r0,array_OBY
     C50E 2126     
5091 C510 D401  30 	movb r1,*r0
5092               cv341
5093               	; 	END
5094 C512 C03A  30 	mov *r10+,r0
5095 C514 0450  20 	b *r0
5096               	;
5097               	; 	' ------------------------------------------------------------
5098               	; 	' the secret wall (room 17, east end of the corridor row):
5099               	; 	' with the dot here plus 2 or more other objects, the east
5100               	; 	' wall flickers and lets you through to the secret room
5101               	; 	' ------------------------------------------------------------
5102               	; eggdo: PROCEDURE
5103               	even
5104               cvb_EGGDO
5105               	; 	IF eggon = 0 THEN GOSUB eggchk
5106 C516 D020  34 	movb @cvb_EGGON,r0
     C518 209E     
5107 C51A 1302  14 	jeq cv344
5108 C51C 0460  28 	b @cv343
     C51E C526     
5109               cv344
5110 C520 06A0  32 	bl @jsr
     C522 A974     
5111 C524 C5C8     	data cvb_EGGCHK
5112               cv343
5113               	; 	IF eggon = 0 THEN RETURN
5114 C526 D020  34 	movb @cvb_EGGON,r0
     C528 209E     
5115 C52A 1302  14 	jeq cv346
5116 C52C 0460  28 	b @cv345
     C52E C534     
5117               cv346
5118 C530 C03A  30 	mov *r10+,r0
5119 C532 0450  20 	b *r0
5120               cv345
5121               	; 	t = 32 : IF (tk AND 1) = 1 THEN t = 128
5122 C534 0200  20 	li r0,8192   ; 32*256
     C536 2000     
5123 C538 D800  38 	movb r0,@cvb_T
     C53A 208C     
5124 C53C D020  34 	movb @cvb_TK,r0
     C53E 20E6     
5125 C540 0201  20 	li r1,256   ; 1*256
     C542 0100     
5126 C544 0541  14 	inv r1
5127 C546 5001  18 	szcb r1,r0
5128 C548 0201  20 	li r1,256   ; 1*256
     C54A 0100     
5129 C54C 9001  18 	cb r1,r0
5130 C54E 1302  14 	jeq cv348
5131 C550 0460  28 	b @cv347
     C552 C55C     
5132               cv348
5133 C554 0200  20 	li r0,32768   ; 128*256
     C556 8000     
5134 C558 D800  38 	movb r0,@cvb_T
     C55A 208C     
5135               cv347
5136               	; 	FOR r = 10 TO 13
5137 C55C 0200  20 	li r0,2560   ; 10*256
     C55E 0A00     
5138 C560 D800  38 	movb r0,@cvb_R
     C562 208B     
5139               cv349
5140               	; 	VPOKE $1800 + r * 32 + 30, t : VPOKE $1800 + r * 32 + 31, t
5141 C564 D020  34 	movb @cvb_T,r0
     C566 208C     
5142 C568 064A  14 	dect r10
5143 C56A C680  30 	mov r0,*r10
5144 C56C D020  34 	movb @cvb_R,r0
     C56E 208B     
5145 C570 0980  32 	srl r0,8
5146 C572 0A50  26 	sla r0,5
5147 C574 0220  22 	ai r0,6174
     C576 181E     
5148 C578 C0BA  30 	mov *r10+,r2
5149 C57A 0300  22 	limi 0
     C57C 0000     
5150 C57E 06A0  32 	bl @JSR
     C580 A974     
5151 C582 A018     	data WRTVRM
5152 C584 0300  22 	limi 2
     C586 0002     
5153 C588 D020  34 	movb @cvb_T,r0
     C58A 208C     
5154 C58C 064A  14 	dect r10
5155 C58E C680  30 	mov r0,*r10
5156 C590 D020  34 	movb @cvb_R,r0
     C592 208B     
5157 C594 0980  32 	srl r0,8
5158 C596 0A50  26 	sla r0,5
5159 C598 0220  22 	ai r0,6175
     C59A 181F     
5160 C59C C0BA  30 	mov *r10+,r2
5161 C59E 0300  22 	limi 0
     C5A0 0000     
5162 C5A2 06A0  32 	bl @JSR
     C5A4 A974     
5163 C5A6 A018     	data WRTVRM
5164 C5A8 0300  22 	limi 2
     C5AA 0002     
5165               	; 	NEXT r
5166 C5AC D020  34 	movb @cvb_R,r0
     C5AE 208B     
5167 C5B0 0220  22 	ai r0,256	; 1
     C5B2 0100     
5168 C5B4 D800  38 	movb r0,@cvb_R
     C5B6 208B     
5169 C5B8 0201  20 	li r1,3584   ; 14*256
     C5BA 0E00     
5170 C5BC 9040  18 	cb r0,r1
5171 C5BE 1402  14 	jhe cv350
5172 C5C0 0460  28 	b @cv349
     C5C2 C564     
5173               cv350
5174               	; 	END
5175 C5C4 C03A  30 	mov *r10+,r0
5176 C5C6 0450  20 	b *r0
5177               	;
5178               	; eggchk: PROCEDURE
5179               	even
5180               cvb_EGGCHK
5181               	; 	IF orm(7) <> 17 THEN RETURN
5182 C5C8 D020  34 	movb @array_ORM+7,r0
     C5CA 2255     
5183 C5CC 0201  20 	li r1,4352   ; 17*256
     C5CE 1100     
5184 C5D0 9001  18 	cb r1,r0
5185 C5D2 1602  14 	jne cv352
5186 C5D4 0460  28 	b @cv351
     C5D6 C5DC     
5187               cv352
5188 C5D8 C03A  30 	mov *r10+,r0
5189 C5DA 0450  20 	b *r0
5190               cv351
5191               	; 	e2 = 0
5192 C5DC 04C0  14 	clr r0
5193 C5DE D800  38 	movb r0,@cvb_E2
     C5E0 20CE     
5194               	; 	FOR i = 0 TO 6
5195 C5E2 04C0  14 	clr r0
5196 C5E4 D800  38 	movb r0,@cvb_I
     C5E6 2087     
5197               cv353
5198               	; 	IF orm(i) = 17 THEN e2 = e2 + 1
5199 C5E8 D020  34 	movb @cvb_I,r0
     C5EA 2087     
5200 C5EC 0980  32 	srl r0,8
5201 C5EE 0220  22 	ai r0,array_ORM
     C5F0 224E     
5202 C5F2 D010  26 	movb *r0,r0
5203 C5F4 0201  20 	li r1,4352   ; 17*256
     C5F6 1100     
5204 C5F8 9001  18 	cb r1,r0
5205 C5FA 1302  14 	jeq cv355
5206 C5FC 0460  28 	b @cv354
     C5FE C60C     
5207               cv355
5208 C600 D020  34 	movb @cvb_E2,r0
     C602 20CE     
5209 C604 0220  22 	ai r0,256	; 1
     C606 0100     
5210 C608 D800  38 	movb r0,@cvb_E2
     C60A 20CE     
5211               cv354
5212               	; 	NEXT i
5213 C60C D020  34 	movb @cvb_I,r0
     C60E 2087     
5214 C610 0220  22 	ai r0,256	; 1
     C612 0100     
5215 C614 D800  38 	movb r0,@cvb_I
     C616 2087     
5216 C618 0201  20 	li r1,1792   ; 7*256
     C61A 0700     
5217 C61C 9040  18 	cb r0,r1
5218 C61E 1402  14 	jhe cv356
5219 C620 0460  28 	b @cv353
     C622 C5E8     
5220               cv356
5221               	; 	IF e2 < 2 THEN RETURN
5222 C624 D020  34 	movb @cvb_E2,r0
     C626 20CE     
5223 C628 0201  20 	li r1,512   ; 2*256
     C62A 0200     
5224 C62C 9040  18 	cb r0,r1
5225 C62E 1A02  14 	jl cv358
5226 C630 0460  28 	b @cv357
     C632 C638     
5227               cv358
5228 C634 C03A  30 	mov *r10+,r0
5229 C636 0450  20 	b *r0
5230               cv357
5231               	; 	eggon = 1
5232 C638 0200  20 	li r0,256   ; 1*256
     C63A 0100     
5233 C63C D800  38 	movb r0,@cvb_EGGON
     C63E 209E     
5234               	; 	END
5235 C640 C03A  30 	mov *r10+,r0
5236 C642 0450  20 	b *r0
5237               	;
5238               	; 	' secret room: ripple one glyph's colour per tick
5239               	; eggtxt: PROCEDURE
5240               	even
5241               cvb_EGGTXT
5242               	; 	i2 = tk AND 15
5243 C644 D020  34 	movb @cvb_TK,r0
     C646 20E6     
5244 C648 0201  20 	li r1,3840   ; 15*256
     C64A 0F00     
5245 C64C 0541  14 	inv r1
5246 C64E 5001  18 	szcb r1,r0
5247 C650 D800  38 	movb r0,@cvb_I2
     C652 20D6     
5248               	; 	RESTORE eggch
5249 C654 0200  20 	li r0,cvb_EGGCH
     C656 F17C     
5250 C658 C800  30 	mov r0,@read_pointer
     C65A 8340     
5251               	; 	WHILE i2 > 0 : READ BYTE t : i2 = i2 - 1 : WEND
5252               cv359
5253 C65C D020  34 	movb @cvb_I2,r0
     C65E 20D6     
5254 C660 0201  20 	li r1,256   ; 1*256
     C662 0100     
5255 C664 9040  18 	cb r0,r1
5256 C666 1402  14 	jhe cv361
5257 C668 0460  28 	b @cv360
     C66A C68A     
5258               cv361
5259 C66C C060  30 	mov @read_pointer,r1
     C66E 8340     
5260 C670 D011  26 	movb *r1,r0
5261 C672 05A0  26 	inc @read_pointer
     C674 8340     
5262 C676 D800  38 	movb r0,@cvb_T
     C678 208C     
5263 C67A D020  34 	movb @cvb_I2,r0
     C67C 20D6     
5264 C67E 0220  22 	ai r0,65280	; -1
     C680 FF00     
5265 C682 D800  38 	movb r0,@cvb_I2
     C684 20D6     
5266 C686 0460  28 	b @cv359
     C688 C65C     
5267               cv360
5268               	; 	READ BYTE t
5269 C68A C060  30 	mov @read_pointer,r1
     C68C 8340     
5270 C68E D011  26 	movb *r1,r0
5271 C690 05A0  26 	inc @read_pointer
     C692 8340     
5272 C694 D800  38 	movb r0,@cvb_T
     C696 208C     
5273               	; 	c3 = ((tk / 4) AND 7) + 8
5274 C698 D020  34 	movb @cvb_TK,r0
     C69A 20E6     
5275 C69C 0920  20 	srl r0,2
5276 C69E 0201  20 	li r1,1792   ; 7*256
     C6A0 0700     
5277 C6A2 0541  14 	inv r1
5278 C6A4 5001  18 	szcb r1,r0
5279 C6A6 0220  22 	ai r0,2048	; 8
     C6A8 0800     
5280 C6AA D800  38 	movb r0,@cvb_C3
     C6AC 20C9     
5281               	; 	#ad = $2800 + t * 8
5282 C6AE D020  34 	movb @cvb_T,r0
     C6B0 208C     
5283 C6B2 0980  32 	srl r0,8
5284 C6B4 0A30  22 	sla r0,3
5285 C6B6 0220  22 	ai r0,10240
     C6B8 2800     
5286 C6BA C800  38 	mov r0,@cvb__AD
     C6BC 20B2     
5287               	; 	FOR i2 = 0 TO 7 : VPOKE #ad + i2, c3 * 16 + 14 : NEXT i2
5288 C6BE 04C0  14 	clr r0
5289 C6C0 D800  38 	movb r0,@cvb_I2
     C6C2 20D6     
5290               cv362
5291 C6C4 D020  34 	movb @cvb_C3,r0
     C6C6 20C9     
5292 C6C8 0240  22 	andi r0,>ff00
     C6CA FF00     
5293 C6CC 0A40  24 	sla r0,4
5294 C6CE 0220  22 	ai r0,3584	; 14
     C6D0 0E00     
5295 C6D2 064A  14 	dect r10
5296 C6D4 C680  30 	mov r0,*r10
5297 C6D6 D020  34 	movb @cvb_I2,r0
     C6D8 20D6     
5298 C6DA 0980  32 	srl r0,8
5299 C6DC C040  18 	mov r0,r1
5300 C6DE C020  34 	mov @cvb__AD,r0
     C6E0 20B2     
5301 C6E2 A001  18 	a r1,r0
5302 C6E4 C0BA  30 	mov *r10+,r2
5303 C6E6 0300  22 	limi 0
     C6E8 0000     
5304 C6EA 06A0  32 	bl @JSR
     C6EC A974     
5305 C6EE A018     	data WRTVRM
5306 C6F0 0300  22 	limi 2
     C6F2 0002     
5307 C6F4 D020  34 	movb @cvb_I2,r0
     C6F6 20D6     
5308 C6F8 0220  22 	ai r0,256	; 1
     C6FA 0100     
5309 C6FC D800  38 	movb r0,@cvb_I2
     C6FE 20D6     
5310 C700 0201  20 	li r1,2048   ; 8*256
     C702 0800     
5311 C704 9040  18 	cb r0,r1
5312 C706 1402  14 	jhe cv363
5313 C708 0460  28 	b @cv362
     C70A C6C4     
5314               cv363
5315               	; 	END
5316 C70C C03A  30 	mov *r10+,r0
5317 C70E 0450  20 	b *r0
5318               	;
5319               	; 	' ------------------------------------------------------------
5320               	; 	' bat: simulated every tick in whatever room it occupies.
5321               	; 	' Flies through walls; drifts between rooms via the exit
5322               	; 	' links. Steals/swaps objects on touch - even yours.
5323               	; 	' ------------------------------------------------------------
5324               	; batdo: PROCEDURE
5325               	even
5326               cvb_BATDO
5327               	; 	IF btcd > 0 THEN btcd = btcd - 1
5328 C710 D020  34 	movb @cvb_BTCD,r0
     C712 20C0     
5329 C714 0201  20 	li r1,256   ; 1*256
     C716 0100     
5330 C718 9040  18 	cb r0,r1
5331 C71A 1402  14 	jhe cv365
5332 C71C 0460  28 	b @cv364
     C71E C72C     
5333               cv365
5334 C720 D020  34 	movb @cvb_BTCD,r0
     C722 20C0     
5335 C724 0220  22 	ai r0,65280	; -1
     C726 FF00     
5336 C728 D800  38 	movb r0,@cvb_BTCD
     C72A 20C0     
5337               cv364
5338               	; 	IF bfx = 1 THEN GOSUB batright ELSE GOSUB batleft
5339 C72C D020  34 	movb @cvb_BFX,r0
     C72E 2080     
5340 C730 0201  20 	li r1,256   ; 1*256
     C732 0100     
5341 C734 9001  18 	cb r1,r0
5342 C736 1302  14 	jeq cv367
5343 C738 0460  28 	b @cv366
     C73A C746     
5344               cv367
5345 C73C 06A0  32 	bl @jsr
     C73E A974     
5346 C740 C8E2     	data cvb_BATRIGHT
5347 C742 0460  28 	b @cv368
     C744 C74C     
5348               cv366
5349 C746 06A0  32 	bl @jsr
     C748 A974     
5350 C74A C86C     	data cvb_BATLEFT
5351               cv368
5352               	; 	IF bfy = 1 THEN bty = bty + 1 ELSE bty = bty - 1
5353 C74C D020  34 	movb @cvb_BFY,r0
     C74E 2081     
5354 C750 0201  20 	li r1,256   ; 1*256
     C752 0100     
5355 C754 9001  18 	cb r1,r0
5356 C756 1302  14 	jeq cv370
5357 C758 0460  28 	b @cv369
     C75A C76C     
5358               cv370
5359 C75C D020  34 	movb @cvb_BTY,r0
     C75E 2099     
5360 C760 0220  22 	ai r0,256	; 1
     C762 0100     
5361 C764 D800  38 	movb r0,@cvb_BTY
     C766 2099     
5362 C768 0460  28 	b @cv371
     C76A C778     
5363               cv369
5364 C76C D020  34 	movb @cvb_BTY,r0
     C76E 2099     
5365 C770 0220  22 	ai r0,65280	; -1
     C772 FF00     
5366 C774 D800  38 	movb r0,@cvb_BTY
     C776 2099     
5367               cv371
5368               	; 	IF bty < 12 THEN GOSUB batnorth
5369 C778 D020  34 	movb @cvb_BTY,r0
     C77A 2099     
5370 C77C 0201  20 	li r1,3072   ; 12*256
     C77E 0C00     
5371 C780 9040  18 	cb r0,r1
5372 C782 1A02  14 	jl cv373
5373 C784 0460  28 	b @cv372
     C786 C78E     
5374               cv373
5375 C788 06A0  32 	bl @jsr
     C78A A974     
5376 C78C C954     	data cvb_BATNORTH
5377               cv372
5378               	; 	IF bty > 150 THEN GOSUB batsouth
5379 C78E D020  34 	movb @cvb_BTY,r0
     C790 2099     
5380 C792 0201  20 	li r1,38656   ; 151*256
     C794 9700     
5381 C796 9040  18 	cb r0,r1
5382 C798 1402  14 	jhe cv375
5383 C79A 0460  28 	b @cv374
     C79C C7A4     
5384               cv375
5385 C79E 06A0  32 	bl @jsr
     C7A0 A974     
5386 C7A2 C9AA     	data cvb_BATSOUTH
5387               cv374
5388               	; 	IF (tk AND 31) = 0 THEN bfy = 1 - bfy
5389 C7A4 D020  34 	movb @cvb_TK,r0
     C7A6 20E6     
5390 C7A8 0201  20 	li r1,7936   ; 31*256
     C7AA 1F00     
5391 C7AC 0541  14 	inv r1
5392 C7AE 5001  18 	szcb r1,r0
5393 C7B0 04C1  14 	clr r1
5394 C7B2 9001  18 	cb r1,r0
5395 C7B4 1302  14 	jeq cv377
5396 C7B6 0460  28 	b @cv376
     C7B8 C7CE     
5397               cv377
5398 C7BA D020  34 	movb @cvb_BFY,r0
     C7BC 2081     
5399 C7BE 0980  32 	srl r0,8
5400 C7C0 C040  18 	mov r0,r1
5401 C7C2 0200  20 	li r0,1
     C7C4 0001     
5402 C7C6 6001  18 	s r1,r0
5403 C7C8 0A80  32 	sla r0,8
5404 C7CA D800  38 	movb r0,@cvb_BFY
     C7CC 2081     
5405               cv376
5406               	; 	IF (tk AND 63) = 0 THEN IF RANDOM(2) = 1 THEN bfx = 1 - bfx
5407 C7CE D020  34 	movb @cvb_TK,r0
     C7D0 20E6     
5408 C7D2 0201  20 	li r1,16128   ; 63*256
     C7D4 3F00     
5409 C7D6 0541  14 	inv r1
5410 C7D8 5001  18 	szcb r1,r0
5411 C7DA 04C1  14 	clr r1
5412 C7DC 9001  18 	cb r1,r0
5413 C7DE 1302  14 	jeq cv379
5414 C7E0 0460  28 	b @cv378
     C7E2 C80C     
5415               cv379
5416 C7E4 06A0  32 	bl @jsr
     C7E6 A974     
5417 C7E8 A2A6     	data random
5418 C7EA 0240  22 	andi r0,1
     C7EC 0001     
5419 C7EE 0280  22 	ci r0,1
     C7F0 0001     
5420 C7F2 1302  14 	jeq cv381
5421 C7F4 0460  28 	b @cv380
     C7F6 C80C     
5422               cv381
5423 C7F8 D020  34 	movb @cvb_BFX,r0
     C7FA 2080     
5424 C7FC 0980  32 	srl r0,8
5425 C7FE C040  18 	mov r0,r1
5426 C800 0200  20 	li r0,1
     C802 0001     
5427 C804 6001  18 	s r1,r0
5428 C806 0A80  32 	sla r0,8
5429 C808 D800  38 	movb r0,@cvb_BFX
     C80A 2080     
5430               cv380
5431               cv378
5432               	; 	' its loot dangles underneath
5433               	; 	IF btc < 8 THEN orm(btc) = btr : obx(btc) = btx + 8 : oby(btc) = bty + 10
5434 C80C D020  34 	movb @cvb_BTC,r0
     C80E 2094     
5435 C810 0201  20 	li r1,2048   ; 8*256
     C812 0800     
5436 C814 9040  18 	cb r0,r1
5437 C816 1A02  14 	jl cv383
5438 C818 0460  28 	b @cv382
     C81A C858     
5439               cv383
5440 C81C D060  34 	movb @cvb_BTR,r1
     C81E 2096     
5441 C820 D020  34 	movb @cvb_BTC,r0
     C822 2094     
5442 C824 0980  32 	srl r0,8
5443 C826 0220  22 	ai r0,array_ORM
     C828 224E     
5444 C82A D401  30 	movb r1,*r0
5445 C82C D020  34 	movb @cvb_BTX,r0
     C82E 2098     
5446 C830 0220  22 	ai r0,2048	; 8
     C832 0800     
5447 C834 C040  18 	mov r0,r1
5448 C836 D020  34 	movb @cvb_BTC,r0
     C838 2094     
5449 C83A 0980  32 	srl r0,8
5450 C83C 0220  22 	ai r0,array_OBX
     C83E 211E     
5451 C840 D401  30 	movb r1,*r0
5452 C842 D020  34 	movb @cvb_BTY,r0
     C844 2099     
5453 C846 0220  22 	ai r0,2560	; 10
     C848 0A00     
5454 C84A C040  18 	mov r0,r1
5455 C84C D020  34 	movb @cvb_BTC,r0
     C84E 2094     
5456 C850 0980  32 	srl r0,8
5457 C852 0220  22 	ai r0,array_OBY
     C854 2126     
5458 C856 D401  30 	movb r1,*r0
5459               cv382
5460               	; 	IF btcd = 0 THEN GOSUB batgrab
5461 C858 D020  34 	movb @cvb_BTCD,r0
     C85A 20C0     
5462 C85C 1302  14 	jeq cv385
5463 C85E 0460  28 	b @cv384
     C860 C868     
5464               cv385
5465 C862 06A0  32 	bl @jsr
     C864 A974     
5466 C866 C9FC     	data cvb_BATGRAB
5467               cv384
5468               	; 	END
5469 C868 C03A  30 	mov *r10+,r0
5470 C86A 0450  20 	b *r0
5471               	;
5472               	; batleft: PROCEDURE
5473               	even
5474               cvb_BATLEFT
5475               	; 	IF btx >= 10 THEN btx = btx - 2 : RETURN
5476 C86C D020  34 	movb @cvb_BTX,r0
     C86E 2098     
5477 C870 0201  20 	li r1,2560   ; 10*256
     C872 0A00     
5478 C874 9040  18 	cb r0,r1
5479 C876 1402  14 	jhe cv387
5480 C878 0460  28 	b @cv386
     C87A C88C     
5481               cv387
5482 C87C D020  34 	movb @cvb_BTX,r0
     C87E 2098     
5483 C880 0220  22 	ai r0,65024	; -2
     C882 FE00     
5484 C884 D800  38 	movb r0,@cvb_BTX
     C886 2098     
5485 C888 C03A  30 	mov *r10+,r0
5486 C88A 0450  20 	b *r0
5487               cv386
5488               	; 	lkr = btr
5489 C88C D820  54 	movb @cvb_BTR,@cvb_LKR
     C88E 2096     
     C890 209A     
5490               	; 	GOSUB getlnk
5491 C892 06A0  32 	bl @jsr
     C894 A974     
5492 C896 D51C     	data cvb_GETLNK
5493               	; 	IF lkw = 255 THEN bfx = 1 : RETURN
5494 C898 D020  34 	movb @cvb_LKW,r0
     C89A 209C     
5495 C89C 0201  20 	li r1,65280   ; 255*256
     C89E FF00     
5496 C8A0 9001  18 	cb r1,r0
5497 C8A2 1302  14 	jeq cv389
5498 C8A4 0460  28 	b @cv388
     C8A6 C8B4     
5499               cv389
5500 C8A8 0200  20 	li r0,256   ; 1*256
     C8AA 0100     
5501 C8AC D800  38 	movb r0,@cvb_BFX
     C8AE 2080     
5502 C8B0 C03A  30 	mov *r10+,r0
5503 C8B2 0450  20 	b *r0
5504               cv388
5505               	; 	IF lkw = 18 THEN bfx = 1 : RETURN
5506 C8B4 D020  34 	movb @cvb_LKW,r0
     C8B6 209C     
5507 C8B8 0201  20 	li r1,4608   ; 18*256
     C8BA 1200     
5508 C8BC 9001  18 	cb r1,r0
5509 C8BE 1302  14 	jeq cv391
5510 C8C0 0460  28 	b @cv390
     C8C2 C8D0     
5511               cv391
5512 C8C4 0200  20 	li r0,256   ; 1*256
     C8C6 0100     
5513 C8C8 D800  38 	movb r0,@cvb_BFX
     C8CA 2080     
5514 C8CC C03A  30 	mov *r10+,r0
5515 C8CE 0450  20 	b *r0
5516               cv390
5517               	; 	btr = lkw : btx = 224
5518 C8D0 D820  54 	movb @cvb_LKW,@cvb_BTR
     C8D2 209C     
     C8D4 2096     
5519 C8D6 0200  20 	li r0,57344   ; 224*256
     C8D8 E000     
5520 C8DA D800  38 	movb r0,@cvb_BTX
     C8DC 2098     
5521               	; 	END
5522 C8DE C03A  30 	mov *r10+,r0
5523 C8E0 0450  20 	b *r0
5524               	;
5525               	; batright: PROCEDURE
5526               	even
5527               cvb_BATRIGHT
5528               	; 	IF btx <= 222 THEN btx = btx + 2 : RETURN
5529 C8E2 D020  34 	movb @cvb_BTX,r0
     C8E4 2098     
5530 C8E6 0201  20 	li r1,57088   ; 223*256
     C8E8 DF00     
5531 C8EA 9040  18 	cb r0,r1
5532 C8EC 1A02  14 	jl cv393
5533 C8EE 0460  28 	b @cv392
     C8F0 C902     
5534               cv393
5535 C8F2 D020  34 	movb @cvb_BTX,r0
     C8F4 2098     
5536 C8F6 0220  22 	ai r0,512	; 2
     C8F8 0200     
5537 C8FA D800  38 	movb r0,@cvb_BTX
     C8FC 2098     
5538 C8FE C03A  30 	mov *r10+,r0
5539 C900 0450  20 	b *r0
5540               cv392
5541               	; 	lkr = btr
5542 C902 D820  54 	movb @cvb_BTR,@cvb_LKR
     C904 2096     
     C906 209A     
5543               	; 	GOSUB getlnk
5544 C908 06A0  32 	bl @jsr
     C90A A974     
5545 C90C D51C     	data cvb_GETLNK
5546               	; 	IF lke = 255 THEN bfx = 0 : RETURN
5547 C90E D020  34 	movb @cvb_LKE,r0
     C910 2095     
5548 C912 0201  20 	li r1,65280   ; 255*256
     C914 FF00     
5549 C916 9001  18 	cb r1,r0
5550 C918 1302  14 	jeq cv395
5551 C91A 0460  28 	b @cv394
     C91C C928     
5552               cv395
5553 C91E 04C0  14 	clr r0
5554 C920 D800  38 	movb r0,@cvb_BFX
     C922 2080     
5555 C924 C03A  30 	mov *r10+,r0
5556 C926 0450  20 	b *r0
5557               cv394
5558               	; 	IF lke = 18 THEN bfx = 0 : RETURN
5559 C928 D020  34 	movb @cvb_LKE,r0
     C92A 2095     
5560 C92C 0201  20 	li r1,4608   ; 18*256
     C92E 1200     
5561 C930 9001  18 	cb r1,r0
5562 C932 1302  14 	jeq cv397
5563 C934 0460  28 	b @cv396
     C936 C942     
5564               cv397
5565 C938 04C0  14 	clr r0
5566 C93A D800  38 	movb r0,@cvb_BFX
     C93C 2080     
5567 C93E C03A  30 	mov *r10+,r0
5568 C940 0450  20 	b *r0
5569               cv396
5570               	; 	btr = lke : btx = 12
5571 C942 D820  54 	movb @cvb_LKE,@cvb_BTR
     C944 2095     
     C946 2096     
5572 C948 0200  20 	li r0,3072   ; 12*256
     C94A 0C00     
5573 C94C D800  38 	movb r0,@cvb_BTX
     C94E 2098     
5574               	; 	END
5575 C950 C03A  30 	mov *r10+,r0
5576 C952 0450  20 	b *r0
5577               	;
5578               	; batnorth: PROCEDURE
5579               	even
5580               cvb_BATNORTH
5581               	; 	lkr = btr
5582 C954 D820  54 	movb @cvb_BTR,@cvb_LKR
     C956 2096     
     C958 209A     
5583               	; 	GOSUB getlnk
5584 C95A 06A0  32 	bl @jsr
     C95C A974     
5585 C95E D51C     	data cvb_GETLNK
5586               	; 	IF lkn = 255 THEN bfy = 1 : RETURN
5587 C960 D020  34 	movb @cvb_LKN,r0
     C962 2097     
5588 C964 0201  20 	li r1,65280   ; 255*256
     C966 FF00     
5589 C968 9001  18 	cb r1,r0
5590 C96A 1302  14 	jeq cv399
5591 C96C 0460  28 	b @cv398
     C96E C97C     
5592               cv399
5593 C970 0200  20 	li r0,256   ; 1*256
     C972 0100     
5594 C974 D800  38 	movb r0,@cvb_BFY
     C976 2081     
5595 C978 C03A  30 	mov *r10+,r0
5596 C97A 0450  20 	b *r0
5597               cv398
5598               	; 	IF lkn = 18 THEN bfy = 1 : RETURN
5599 C97C D020  34 	movb @cvb_LKN,r0
     C97E 2097     
5600 C980 0201  20 	li r1,4608   ; 18*256
     C982 1200     
5601 C984 9001  18 	cb r1,r0
5602 C986 1302  14 	jeq cv401
5603 C988 0460  28 	b @cv400
     C98A C998     
5604               cv401
5605 C98C 0200  20 	li r0,256   ; 1*256
     C98E 0100     
5606 C990 D800  38 	movb r0,@cvb_BFY
     C992 2081     
5607 C994 C03A  30 	mov *r10+,r0
5608 C996 0450  20 	b *r0
5609               cv400
5610               	; 	btr = lkn : bty = 144
5611 C998 D820  54 	movb @cvb_LKN,@cvb_BTR
     C99A 2097     
     C99C 2096     
5612 C99E 0200  20 	li r0,36864   ; 144*256
     C9A0 9000     
5613 C9A2 D800  38 	movb r0,@cvb_BTY
     C9A4 2099     
5614               	; 	END
5615 C9A6 C03A  30 	mov *r10+,r0
5616 C9A8 0450  20 	b *r0
5617               	;
5618               	; batsouth: PROCEDURE
5619               	even
5620               cvb_BATSOUTH
5621               	; 	lkr = btr
5622 C9AA D820  54 	movb @cvb_BTR,@cvb_LKR
     C9AC 2096     
     C9AE 209A     
5623               	; 	GOSUB getlnk
5624 C9B0 06A0  32 	bl @jsr
     C9B2 A974     
5625 C9B4 D51C     	data cvb_GETLNK
5626               	; 	IF lks = 255 THEN bfy = 0 : RETURN
5627 C9B6 D020  34 	movb @cvb_LKS,r0
     C9B8 209B     
5628 C9BA 0201  20 	li r1,65280   ; 255*256
     C9BC FF00     
5629 C9BE 9001  18 	cb r1,r0
5630 C9C0 1302  14 	jeq cv403
5631 C9C2 0460  28 	b @cv402
     C9C4 C9D0     
5632               cv403
5633 C9C6 04C0  14 	clr r0
5634 C9C8 D800  38 	movb r0,@cvb_BFY
     C9CA 2081     
5635 C9CC C03A  30 	mov *r10+,r0
5636 C9CE 0450  20 	b *r0
5637               cv402
5638               	; 	IF lks = 18 THEN bfy = 0 : RETURN
5639 C9D0 D020  34 	movb @cvb_LKS,r0
     C9D2 209B     
5640 C9D4 0201  20 	li r1,4608   ; 18*256
     C9D6 1200     
5641 C9D8 9001  18 	cb r1,r0
5642 C9DA 1302  14 	jeq cv405
5643 C9DC 0460  28 	b @cv404
     C9DE C9EA     
5644               cv405
5645 C9E0 04C0  14 	clr r0
5646 C9E2 D800  38 	movb r0,@cvb_BFY
     C9E4 2081     
5647 C9E6 C03A  30 	mov *r10+,r0
5648 C9E8 0450  20 	b *r0
5649               cv404
5650               	; 	btr = lks : bty = 14
5651 C9EA D820  54 	movb @cvb_LKS,@cvb_BTR
     C9EC 209B     
     C9EE 2096     
5652 C9F0 0200  20 	li r0,3584   ; 14*256
     C9F2 0E00     
5653 C9F4 D800  38 	movb r0,@cvb_BTY
     C9F6 2099     
5654               	; 	END
5655 C9F8 C03A  30 	mov *r10+,r0
5656 C9FA 0450  20 	b *r0
5657               	;
5658               	; batgrab: PROCEDURE
5659               	even
5660               cvb_BATGRAB
5661               	; 	FOR i = 0 TO 6
5662 C9FC 04C0  14 	clr r0
5663 C9FE D800  38 	movb r0,@cvb_I
     CA00 2087     
5664               cv406
5665               	; 	IF i <> btc THEN IF orm(i) = btr THEN GOSUB bgchk
5666 CA02 D020  34 	movb @cvb_I,r0
     CA04 2087     
5667 CA06 9020  34 	cb @cvb_BTC,r0
     CA08 2094     
5668 CA0A 1602  14 	jne cv408
5669 CA0C 0460  28 	b @cv407
     CA0E CA2C     
5670               cv408
5671 CA10 D020  34 	movb @cvb_I,r0
     CA12 2087     
5672 CA14 0980  32 	srl r0,8
5673 CA16 0220  22 	ai r0,array_ORM
     CA18 224E     
5674 CA1A D010  26 	movb *r0,r0
5675 CA1C 9020  34 	cb @cvb_BTR,r0
     CA1E 2096     
5676 CA20 1302  14 	jeq cv410
5677 CA22 0460  28 	b @cv409
     CA24 CA2C     
5678               cv410
5679 CA26 06A0  32 	bl @jsr
     CA28 A974     
5680 CA2A CA48     	data cvb_BGCHK
5681               cv409
5682               cv407
5683               	; 	NEXT i
5684 CA2C D020  34 	movb @cvb_I,r0
     CA2E 2087     
5685 CA30 0220  22 	ai r0,256	; 1
     CA32 0100     
5686 CA34 D800  38 	movb r0,@cvb_I
     CA36 2087     
5687 CA38 0201  20 	li r1,1792   ; 7*256
     CA3A 0700     
5688 CA3C 9040  18 	cb r0,r1
5689 CA3E 1402  14 	jhe cv411
5690 CA40 0460  28 	b @cv406
     CA42 CA02     
5691               cv411
5692               	; 	END
5693 CA44 C03A  30 	mov *r10+,r0
5694 CA46 0450  20 	b *r0
5695               	;
5696               	; bgchk: PROCEDURE
5697               	even
5698               cvb_BGCHK
5699               	; 	#ax = obx(i) + 8 : #bx = btx + 16
5700 CA48 D020  34 	movb @cvb_I,r0
     CA4A 2087     
5701 CA4C 0980  32 	srl r0,8
5702 CA4E 0220  22 	ai r0,array_OBX
     CA50 211E     
5703 CA52 D010  26 	movb *r0,r0
5704 CA54 0980  32 	srl r0,8
5705 CA56 0220  22 	ai r0,8
     CA58 0008     
5706 CA5A C800  38 	mov r0,@cvb__AX
     CA5C 20B8     
5707 CA5E D020  34 	movb @cvb_BTX,r0
     CA60 2098     
5708 CA62 0980  32 	srl r0,8
5709 CA64 0220  22 	ai r0,16
     CA66 0010     
5710 CA68 C800  38 	mov r0,@cvb__BX
     CA6A 20BA     
5711               	; 	GOSUB adiff
5712 CA6C 06A0  32 	bl @jsr
     CA6E A974     
5713 CA70 C342     	data cvb_ADIFF
5714               	; 	IF #cx > 12 THEN RETURN
5715 CA72 C020  34 	mov @cvb__CX,r0
     CA74 20BE     
5716 CA76 0201  20 	li r1,13
     CA78 000D     
5717 CA7A 8040  18 	c r0,r1
5718 CA7C 1402  14 	jhe cv413
5719 CA7E 0460  28 	b @cv412
     CA80 CA86     
5720               cv413
5721 CA82 C03A  30 	mov *r10+,r0
5722 CA84 0450  20 	b *r0
5723               cv412
5724               	; 	#ax = oby(i) + 6 : #bx = bty + 8
5725 CA86 D020  34 	movb @cvb_I,r0
     CA88 2087     
5726 CA8A 0980  32 	srl r0,8
5727 CA8C 0220  22 	ai r0,array_OBY
     CA8E 2126     
5728 CA90 D010  26 	movb *r0,r0
5729 CA92 0980  32 	srl r0,8
5730 CA94 0220  22 	ai r0,6
     CA96 0006     
5731 CA98 C800  38 	mov r0,@cvb__AX
     CA9A 20B8     
5732 CA9C D020  34 	movb @cvb_BTY,r0
     CA9E 2099     
5733 CAA0 0980  32 	srl r0,8
5734 CAA2 0220  22 	ai r0,8
     CAA4 0008     
5735 CAA6 C800  38 	mov r0,@cvb__BX
     CAA8 20BA     
5736               	; 	GOSUB adiff
5737 CAAA 06A0  32 	bl @jsr
     CAAC A974     
5738 CAAE C342     	data cvb_ADIFF
5739               	; 	IF #cx > 10 THEN RETURN
5740 CAB0 C020  34 	mov @cvb__CX,r0
     CAB2 20BE     
5741 CAB4 0201  20 	li r1,11
     CAB6 000B     
5742 CAB8 8040  18 	c r0,r1
5743 CABA 1402  14 	jhe cv415
5744 CABC 0460  28 	b @cv414
     CABE CAC4     
5745               cv415
5746 CAC0 C03A  30 	mov *r10+,r0
5747 CAC2 0450  20 	b *r0
5748               cv414
5749               	; 	' anti-softlock guards:
5750               	; 	' never take the bridge out of a chamber room (6/28/35), and
5751               	; 	' never swap-drop a carried object inside a sealed chamber
5752               	; 	IF i = 4 THEN IF (btr = 6) OR (btr = 28) OR (btr = 35) THEN RETURN
5753 CAC4 D020  34 	movb @cvb_I,r0
     CAC6 2087     
5754 CAC8 0201  20 	li r1,1024   ; 4*256
     CACA 0400     
5755 CACC 9001  18 	cb r1,r0
5756 CACE 1302  14 	jeq cv417
5757 CAD0 0460  28 	b @cv416
     CAD2 CB24     
5758               cv417
5759 CAD4 D020  34 	movb @cvb_BTR,r0
     CAD6 2096     
5760 CAD8 0201  20 	li r1,8960   ; 35*256
     CADA 2300     
5761 CADC 9001  18 	cb r1,r0
5762 CADE 1302  14 	jeq cv419
5763 CAE0 04C0  14 	clr r0
5764 CAE2 1001  14 	jmp $+4
5765               cv419
5766 CAE4 0700  14 	seto r0
5767 CAE6 064A  14 	dect r10
5768 CAE8 C680  30 	mov r0,*r10
5769 CAEA D020  34 	movb @cvb_BTR,r0
     CAEC 2096     
5770 CAEE 0201  20 	li r1,7168   ; 28*256
     CAF0 1C00     
5771 CAF2 9001  18 	cb r1,r0
5772 CAF4 1302  14 	jeq cv420
5773 CAF6 04C0  14 	clr r0
5774 CAF8 1001  14 	jmp $+4
5775               cv420
5776 CAFA 0700  14 	seto r0
5777 CAFC 064A  14 	dect r10
5778 CAFE C680  30 	mov r0,*r10
5779 CB00 D020  34 	movb @cvb_BTR,r0
     CB02 2096     
5780 CB04 0201  20 	li r1,1536   ; 6*256
     CB06 0600     
5781 CB08 9001  18 	cb r1,r0
5782 CB0A 1302  14 	jeq cv421
5783 CB0C 04C0  14 	clr r0
5784 CB0E 1001  14 	jmp $+4
5785               cv421
5786 CB10 0700  14 	seto r0
5787 CB12 C07A  30 	mov *r10+,r1
5788 CB14 F001  18 	socb r1,r0
5789 CB16 C07A  30 	mov *r10+,r1
5790 CB18 F001  18 	socb r1,r0
5791 CB1A 1602  14 	jne cv422
5792 CB1C 0460  28 	b @cv418
     CB1E CB24     
5793               cv422
5794 CB20 C03A  30 	mov *r10+,r0
5795 CB22 0450  20 	b *r0
5796               cv418
5797               cv416
5798               	; 	IF btc < 8 THEN IF (btr = 6) OR (btr = 28) OR (btr = 35) THEN IF obx(i) > 160 THEN IF obx(i) < 216 THEN IF oby(i) < 64 THEN RETURN
5799 CB24 D020  34 	movb @cvb_BTC,r0
     CB26 2094     
5800 CB28 0201  20 	li r1,2048   ; 8*256
     CB2A 0800     
5801 CB2C 9040  18 	cb r0,r1
5802 CB2E 1A02  14 	jl cv424
5803 CB30 0460  28 	b @cv423
     CB32 CBCC     
5804               cv424
5805 CB34 D020  34 	movb @cvb_BTR,r0
     CB36 2096     
5806 CB38 0201  20 	li r1,8960   ; 35*256
     CB3A 2300     
5807 CB3C 9001  18 	cb r1,r0
5808 CB3E 1302  14 	jeq cv426
5809 CB40 04C0  14 	clr r0
5810 CB42 1001  14 	jmp $+4
5811               cv426
5812 CB44 0700  14 	seto r0
5813 CB46 064A  14 	dect r10
5814 CB48 C680  30 	mov r0,*r10
5815 CB4A D020  34 	movb @cvb_BTR,r0
     CB4C 2096     
5816 CB4E 0201  20 	li r1,7168   ; 28*256
     CB50 1C00     
5817 CB52 9001  18 	cb r1,r0
5818 CB54 1302  14 	jeq cv427
5819 CB56 04C0  14 	clr r0
5820 CB58 1001  14 	jmp $+4
5821               cv427
5822 CB5A 0700  14 	seto r0
5823 CB5C 064A  14 	dect r10
5824 CB5E C680  30 	mov r0,*r10
5825 CB60 D020  34 	movb @cvb_BTR,r0
     CB62 2096     
5826 CB64 0201  20 	li r1,1536   ; 6*256
     CB66 0600     
5827 CB68 9001  18 	cb r1,r0
5828 CB6A 1302  14 	jeq cv428
5829 CB6C 04C0  14 	clr r0
5830 CB6E 1001  14 	jmp $+4
5831               cv428
5832 CB70 0700  14 	seto r0
5833 CB72 C07A  30 	mov *r10+,r1
5834 CB74 F001  18 	socb r1,r0
5835 CB76 C07A  30 	mov *r10+,r1
5836 CB78 F001  18 	socb r1,r0
5837 CB7A 1602  14 	jne cv429
5838 CB7C 0460  28 	b @cv425
     CB7E CBCC     
5839               cv429
5840 CB80 D020  34 	movb @cvb_I,r0
     CB82 2087     
5841 CB84 0980  32 	srl r0,8
5842 CB86 0220  22 	ai r0,array_OBX
     CB88 211E     
5843 CB8A D010  26 	movb *r0,r0
5844 CB8C 0201  20 	li r1,41216   ; 161*256
     CB8E A100     
5845 CB90 9040  18 	cb r0,r1
5846 CB92 1402  14 	jhe cv431
5847 CB94 0460  28 	b @cv430
     CB96 CBCC     
5848               cv431
5849 CB98 D020  34 	movb @cvb_I,r0
     CB9A 2087     
5850 CB9C 0980  32 	srl r0,8
5851 CB9E 0220  22 	ai r0,array_OBX
     CBA0 211E     
5852 CBA2 D010  26 	movb *r0,r0
5853 CBA4 0201  20 	li r1,55296   ; 216*256
     CBA6 D800     
5854 CBA8 9040  18 	cb r0,r1
5855 CBAA 1A02  14 	jl cv433
5856 CBAC 0460  28 	b @cv432
     CBAE CBCC     
5857               cv433
5858 CBB0 D020  34 	movb @cvb_I,r0
     CBB2 2087     
5859 CBB4 0980  32 	srl r0,8
5860 CBB6 0220  22 	ai r0,array_OBY
     CBB8 2126     
5861 CBBA D010  26 	movb *r0,r0
5862 CBBC 0201  20 	li r1,16384   ; 64*256
     CBBE 4000     
5863 CBC0 9040  18 	cb r0,r1
5864 CBC2 1A02  14 	jl cv435
5865 CBC4 0460  28 	b @cv434
     CBC6 CBCC     
5866               cv435
5867 CBC8 C03A  30 	mov *r10+,r0
5868 CBCA 0450  20 	b *r0
5869               cv434
5870               cv432
5871               cv430
5872               cv425
5873               cv423
5874               	; 	' steal it out of the player's hands if need be
5875               	; 	IF i = cr THEN cr = 255 : pkcd = 10
5876 CBCC D020  34 	movb @cvb_I,r0
     CBCE 2087     
5877 CBD0 9020  34 	cb @cvb_CR,r0
     CBD2 20D0     
5878 CBD4 1302  14 	jeq cv437
5879 CBD6 0460  28 	b @cv436
     CBD8 CBEA     
5880               cv437
5881 CBDA 0200  20 	li r0,65280   ; 255*256
     CBDC FF00     
5882 CBDE D800  38 	movb r0,@cvb_CR
     CBE0 20D0     
5883 CBE2 0200  20 	li r0,2560   ; 10*256
     CBE4 0A00     
5884 CBE6 D800  38 	movb r0,@cvb_PKCD
     CBE8 20AC     
5885               cv436
5886               	; 	t = btc : btc = i
5887 CBEA D820  54 	movb @cvb_BTC,@cvb_T
     CBEC 2094     
     CBEE 208C     
5888 CBF0 D820  54 	movb @cvb_I,@cvb_BTC
     CBF2 2087     
     CBF4 2094     
5889               	; 	IF t < 8 THEN orm(t) = btr : obx(t) = obx(i) : oby(t) = oby(i)
5890 CBF6 D020  34 	movb @cvb_T,r0
     CBF8 208C     
5891 CBFA 0201  20 	li r1,2048   ; 8*256
     CBFC 0800     
5892 CBFE 9040  18 	cb r0,r1
5893 CC00 1A02  14 	jl cv439
5894 CC02 0460  28 	b @cv438
     CC04 CC46     
5895               cv439
5896 CC06 D060  34 	movb @cvb_BTR,r1
     CC08 2096     
5897 CC0A D020  34 	movb @cvb_T,r0
     CC0C 208C     
5898 CC0E 0980  32 	srl r0,8
5899 CC10 0220  22 	ai r0,array_ORM
     CC12 224E     
5900 CC14 D401  30 	movb r1,*r0
5901 CC16 D020  34 	movb @cvb_I,r0
     CC18 2087     
5902 CC1A 0980  32 	srl r0,8
5903 CC1C 0220  22 	ai r0,array_OBX
     CC1E 211E     
5904 CC20 D050  26 	movb *r0,r1
5905 CC22 D020  34 	movb @cvb_T,r0
     CC24 208C     
5906 CC26 0980  32 	srl r0,8
5907 CC28 0220  22 	ai r0,array_OBX
     CC2A 211E     
5908 CC2C D401  30 	movb r1,*r0
5909 CC2E D020  34 	movb @cvb_I,r0
     CC30 2087     
5910 CC32 0980  32 	srl r0,8
5911 CC34 0220  22 	ai r0,array_OBY
     CC36 2126     
5912 CC38 D050  26 	movb *r0,r1
5913 CC3A D020  34 	movb @cvb_T,r0
     CC3C 208C     
5914 CC3E 0980  32 	srl r0,8
5915 CC40 0220  22 	ai r0,array_OBY
     CC42 2126     
5916 CC44 D401  30 	movb r1,*r0
5917               cv438
5918               	; 	btcd = 150 : sfx = 6 : sfc = 10
5919 CC46 0200  20 	li r0,38400   ; 150*256
     CC48 9600     
5920 CC4A D800  38 	movb r0,@cvb_BTCD
     CC4C 20C0     
5921 CC4E 0200  20 	li r0,1536   ; 6*256
     CC50 0600     
5922 CC52 D800  38 	movb r0,@cvb_SFX
     CC54 20E2     
5923 CC56 0200  20 	li r0,2560   ; 10*256
     CC58 0A00     
5924 CC5A D800  38 	movb r0,@cvb_SFC
     CC5C 20DA     
5925               	; 	END
5926 CC5E C03A  30 	mov *r10+,r0
5927 CC60 0450  20 	b *r0
5928               	;
5929               	; 	' ------------------------------------------------------------
5930               	; 	' dragon: greedy chase (prefer the longer axis, slide on the
5931               	; 	' other), sword check, then bite check. Fast flag (dsp=1)
5932               	; 	' marks the red dragon. Shown 32x32; wall box = central 8x16.
5933               	; 	' ------------------------------------------------------------
5934               	; dragondo: PROCEDURE
5935               	even
5936               cvb_DRAGONDO
5937               	; 	IF dst(d) = 1 THEN RETURN
5938 CC62 D020  34 	movb @cvb_D,r0
     CC64 2084     
5939 CC66 0980  32 	srl r0,8
5940 CC68 0220  22 	ai r0,array_DST
     CC6A 2112     
5941 CC6C D010  26 	movb *r0,r0
5942 CC6E 0201  20 	li r1,256   ; 1*256
     CC70 0100     
5943 CC72 9001  18 	cb r1,r0
5944 CC74 1302  14 	jeq cv441
5945 CC76 0460  28 	b @cv440
     CC78 CC7E     
5946               cv441
5947 CC7A C03A  30 	mov *r10+,r0
5948 CC7C 0450  20 	b *r0
5949               cv440
5950               	; 	' reaction time: a freshly-engaged dragon hesitates (drc ticks)
5951               	; 	' before it moves or bites - you can still slay it while it winds
5952               	; 	' up, so a room entry / arrival gives a real head start
5953               	; 	IF drc(d) > 0 THEN drc(d) = drc(d) - 1 : GOSUB swordchk : RETURN
5954 CC7E D020  34 	movb @cvb_D,r0
     CC80 2084     
5955 CC82 0980  32 	srl r0,8
5956 CC84 0220  22 	ai r0,array_DRC
     CC86 20FE     
5957 CC88 D010  26 	movb *r0,r0
5958 CC8A 0201  20 	li r1,256   ; 1*256
     CC8C 0100     
5959 CC8E 9040  18 	cb r0,r1
5960 CC90 1402  14 	jhe cv443
5961 CC92 0460  28 	b @cv442
     CC94 CCBE     
5962               cv443
5963 CC96 D020  34 	movb @cvb_D,r0
     CC98 2084     
5964 CC9A 0980  32 	srl r0,8
5965 CC9C 0220  22 	ai r0,array_DRC
     CC9E 20FE     
5966 CCA0 D010  26 	movb *r0,r0
5967 CCA2 0220  22 	ai r0,65280	; -1
     CCA4 FF00     
5968 CCA6 C040  18 	mov r0,r1
5969 CCA8 D020  34 	movb @cvb_D,r0
     CCAA 2084     
5970 CCAC 0980  32 	srl r0,8
5971 CCAE 0220  22 	ai r0,array_DRC
     CCB0 20FE     
5972 CCB2 D401  30 	movb r1,*r0
5973 CCB4 06A0  32 	bl @jsr
     CCB6 A974     
5974 CCB8 D14A     	data cvb_SWORDCHK
5975 CCBA C03A  30 	mov *r10+,r0
5976 CCBC 0450  20 	b *r0
5977               cv442
5978               	; 	tpx = px : IF tpx > 12 THEN tpx = tpx - 12
5979 CCBE D820  54 	movb @cvb_PX,@cvb_TPX
     CCC0 20DF     
     CCC2 208D     
5980 CCC4 D020  34 	movb @cvb_TPX,r0
     CCC6 208D     
5981 CCC8 0201  20 	li r1,3328   ; 13*256
     CCCA 0D00     
5982 CCCC 9040  18 	cb r0,r1
5983 CCCE 1402  14 	jhe cv445
5984 CCD0 0460  28 	b @cv444
     CCD2 CCE0     
5985               cv445
5986 CCD4 D020  34 	movb @cvb_TPX,r0
     CCD6 208D     
5987 CCD8 0220  22 	ai r0,62464	; -12
     CCDA F400     
5988 CCDC D800  38 	movb r0,@cvb_TPX
     CCDE 208D     
5989               cv444
5990               	; 	tpy = py : IF tpy > 12 THEN tpy = tpy - 12
5991 CCE0 D820  54 	movb @cvb_PY,@cvb_TPY
     CCE2 20E0     
     CCE4 208E     
5992 CCE6 D020  34 	movb @cvb_TPY,r0
     CCE8 208E     
5993 CCEA 0201  20 	li r1,3328   ; 13*256
     CCEC 0D00     
5994 CCEE 9040  18 	cb r0,r1
5995 CCF0 1402  14 	jhe cv447
5996 CCF2 0460  28 	b @cv446
     CCF4 CD02     
5997               cv447
5998 CCF6 D020  34 	movb @cvb_TPY,r0
     CCF8 208E     
5999 CCFA 0220  22 	ai r0,62464	; -12
     CCFC F400     
6000 CCFE D800  38 	movb r0,@cvb_TPY
     CD00 208E     
6001               cv446
6002               	; 	' normal dragons average 2.5 px/frame (alternating 2/3); the red
6003               	; 	' dragon (dsp=1) is faster at a steady 3
6004               	; 	ds = 2 + (tk AND 1)
6005 CD02 D020  34 	movb @cvb_TK,r0
     CD04 20E6     
6006 CD06 0201  20 	li r1,256   ; 1*256
     CD08 0100     
6007 CD0A 0541  14 	inv r1
6008 CD0C 5001  18 	szcb r1,r0
6009 CD0E 0220  22 	ai r0,512	; 2
     CD10 0200     
6010 CD12 D800  38 	movb r0,@cvb_DS
     CD14 20D3     
6011               	; 	IF dsp(d) = 1 THEN ds = 3
6012 CD16 D020  34 	movb @cvb_D,r0
     CD18 2084     
6013 CD1A 0980  32 	srl r0,8
6014 CD1C 0220  22 	ai r0,array_DSP
     CD1E 210E     
6015 CD20 D010  26 	movb *r0,r0
6016 CD22 0201  20 	li r1,256   ; 1*256
     CD24 0100     
6017 CD26 9001  18 	cb r1,r0
6018 CD28 1302  14 	jeq cv449
6019 CD2A 0460  28 	b @cv448
     CD2C CD36     
6020               cv449
6021 CD2E 0200  20 	li r0,768   ; 3*256
     CD30 0300     
6022 CD32 D800  38 	movb r0,@cvb_DS
     CD34 20D3     
6023               cv448
6024               	; 	#ax = ddx(d) : #bx = tpx
6025 CD36 D020  34 	movb @cvb_D,r0
     CD38 2084     
6026 CD3A 0980  32 	srl r0,8
6027 CD3C 0220  22 	ai r0,array_DDX
     CD3E 20F2     
6028 CD40 D010  26 	movb *r0,r0
6029 CD42 0980  32 	srl r0,8
6030 CD44 C800  38 	mov r0,@cvb__AX
     CD46 20B8     
6031 CD48 D020  34 	movb @cvb_TPX,r0
     CD4A 208D     
6032 CD4C 0980  32 	srl r0,8
6033 CD4E C800  38 	mov r0,@cvb__BX
     CD50 20BA     
6034               	; 	GOSUB adiff
6035 CD52 06A0  32 	bl @jsr
     CD54 A974     
6036 CD56 C342     	data cvb_ADIFF
6037               	; 	#dx = #cx
6038 CD58 C820  54 	mov @cvb__CX,@cvb__DX
     CD5A 20BE     
     CD5C 20C2     
6039               	; 	#ax = ddy(d) : #bx = tpy
6040 CD5E D020  34 	movb @cvb_D,r0
     CD60 2084     
6041 CD62 0980  32 	srl r0,8
6042 CD64 0220  22 	ai r0,array_DDY
     CD66 20F6     
6043 CD68 D010  26 	movb *r0,r0
6044 CD6A 0980  32 	srl r0,8
6045 CD6C C800  38 	mov r0,@cvb__AX
     CD6E 20B8     
6046 CD70 D020  34 	movb @cvb_TPY,r0
     CD72 208E     
6047 CD74 0980  32 	srl r0,8
6048 CD76 C800  38 	mov r0,@cvb__BX
     CD78 20BA     
6049               	; 	GOSUB adiff
6050 CD7A 06A0  32 	bl @jsr
     CD7C A974     
6051 CD7E C342     	data cvb_ADIFF
6052               	; 	' remember how far it is from you this frame, so the room-to-room
6053               	; 	' pursuit (dchase) can scale its catch-up delay by that distance
6054               	; 	dpd(d) = #dx + #cx
6055 CD80 C020  34 	mov @cvb__DX,r0
     CD82 20C2     
6056 CD84 A020  34 	a @cvb__CX,r0
     CD86 20BE     
6057 CD88 0A80  32 	sla r0,8
6058 CD8A C040  18 	mov r0,r1
6059 CD8C D020  34 	movb @cvb_D,r0
     CD8E 2084     
6060 CD90 0980  32 	srl r0,8
6061 CD92 0220  22 	ai r0,array_DPD
     CD94 20FA     
6062 CD96 D401  30 	movb r1,*r0
6063               	; 	m = 0
6064 CD98 04C0  14 	clr r0
6065 CD9A D800  38 	movb r0,@cvb_M
     CD9C 2088     
6066               	; 	IF #dx >= #cx THEN GOSUB dmovx ELSE GOSUB dmovy
6067 CD9E C020  34 	mov @cvb__DX,r0
     CDA0 20C2     
6068 CDA2 8800  34 	c r0,@cvb__CX
     CDA4 20BE     
6069 CDA6 1402  14 	jhe cv451
6070 CDA8 0460  28 	b @cv450
     CDAA CDB6     
6071               cv451
6072 CDAC 06A0  32 	bl @jsr
     CDAE A974     
6073 CDB0 CE92     	data cvb_DMOVX
6074 CDB2 0460  28 	b @cv452
     CDB4 CDBC     
6075               cv450
6076 CDB6 06A0  32 	bl @jsr
     CDB8 A974     
6077 CDBA CF32     	data cvb_DMOVY
6078               cv452
6079               	; 	IF m = 0 THEN IF #dx >= #cx THEN GOSUB dmovy ELSE GOSUB dmovx
6080 CDBC D020  34 	movb @cvb_M,r0
     CDBE 2088     
6081 CDC0 1302  14 	jeq cv454
6082 CDC2 0460  28 	b @cv453
     CDC4 CDE4     
6083               cv454
6084 CDC6 C020  34 	mov @cvb__DX,r0
     CDC8 20C2     
6085 CDCA 8800  34 	c r0,@cvb__CX
     CDCC 20BE     
6086 CDCE 1402  14 	jhe cv456
6087 CDD0 0460  28 	b @cv455
     CDD2 CDDE     
6088               cv456
6089 CDD4 06A0  32 	bl @jsr
     CDD6 A974     
6090 CDD8 CF32     	data cvb_DMOVY
6091 CDDA 0460  28 	b @cv457
     CDDC CDE4     
6092               cv455
6093 CDDE 06A0  32 	bl @jsr
     CDE0 A974     
6094 CDE2 CE92     	data cvb_DMOVX
6095               cv457
6096               cv453
6097               	; 	GOSUB swordchk
6098 CDE4 06A0  32 	bl @jsr
     CDE6 A974     
6099 CDE8 D14A     	data cvb_SWORDCHK
6100               	; 	IF dst(d) = 1 THEN RETURN
6101 CDEA D020  34 	movb @cvb_D,r0
     CDEC 2084     
6102 CDEE 0980  32 	srl r0,8
6103 CDF0 0220  22 	ai r0,array_DST
     CDF2 2112     
6104 CDF4 D010  26 	movb *r0,r0
6105 CDF6 0201  20 	li r1,256   ; 1*256
     CDF8 0100     
6106 CDFA 9001  18 	cb r1,r0
6107 CDFC 1302  14 	jeq cv459
6108 CDFE 0460  28 	b @cv458
     CE00 CE06     
6109               cv459
6110 CE02 C03A  30 	mov *r10+,r0
6111 CE04 0450  20 	b *r0
6112               cv458
6113               	; 	' bite: dragon centre (32x64 shown) vs player centre
6114               	; 	#ax = ddx(d) + 16 : #bx = px + 4
6115 CE06 D020  34 	movb @cvb_D,r0
     CE08 2084     
6116 CE0A 0980  32 	srl r0,8
6117 CE0C 0220  22 	ai r0,array_DDX
     CE0E 20F2     
6118 CE10 D010  26 	movb *r0,r0
6119 CE12 0980  32 	srl r0,8
6120 CE14 0220  22 	ai r0,16
     CE16 0010     
6121 CE18 C800  38 	mov r0,@cvb__AX
     CE1A 20B8     
6122 CE1C D020  34 	movb @cvb_PX,r0
     CE1E 20DF     
6123 CE20 0980  32 	srl r0,8
6124 CE22 0220  22 	ai r0,4
     CE24 0004     
6125 CE26 C800  38 	mov r0,@cvb__BX
     CE28 20BA     
6126               	; 	GOSUB adiff
6127 CE2A 06A0  32 	bl @jsr
     CE2C A974     
6128 CE2E C342     	data cvb_ADIFF
6129               	; 	IF #cx > 14 THEN RETURN
6130 CE30 C020  34 	mov @cvb__CX,r0
     CE32 20BE     
6131 CE34 0201  20 	li r1,15
     CE36 000F     
6132 CE38 8040  18 	c r0,r1
6133 CE3A 1402  14 	jhe cv461
6134 CE3C 0460  28 	b @cv460
     CE3E CE44     
6135               cv461
6136 CE40 C03A  30 	mov *r10+,r0
6137 CE42 0450  20 	b *r0
6138               cv460
6139               	; 	#ax = ddy(d) + 32 : #bx = py + 4
6140 CE44 D020  34 	movb @cvb_D,r0
     CE46 2084     
6141 CE48 0980  32 	srl r0,8
6142 CE4A 0220  22 	ai r0,array_DDY
     CE4C 20F6     
6143 CE4E D010  26 	movb *r0,r0
6144 CE50 0980  32 	srl r0,8
6145 CE52 0220  22 	ai r0,32
     CE54 0020     
6146 CE56 C800  38 	mov r0,@cvb__AX
     CE58 20B8     
6147 CE5A D020  34 	movb @cvb_PY,r0
     CE5C 20E0     
6148 CE5E 0980  32 	srl r0,8
6149 CE60 0220  22 	ai r0,4
     CE62 0004     
6150 CE64 C800  38 	mov r0,@cvb__BX
     CE66 20BA     
6151               	; 	GOSUB adiff
6152 CE68 06A0  32 	bl @jsr
     CE6A A974     
6153 CE6C C342     	data cvb_ADIFF
6154               	; 	IF #cx > 24 THEN RETURN
6155 CE6E C020  34 	mov @cvb__CX,r0
     CE70 20BE     
6156 CE72 0201  20 	li r1,25
     CE74 0019     
6157 CE76 8040  18 	c r0,r1
6158 CE78 1402  14 	jhe cv463
6159 CE7A 0460  28 	b @cv462
     CE7C CE82     
6160               cv463
6161 CE7E C03A  30 	mov *r10+,r0
6162 CE80 0450  20 	b *r0
6163               cv462
6164               	; 	eflag = d + 1
6165 CE82 D020  34 	movb @cvb_D,r0
     CE84 2084     
6166 CE86 0220  22 	ai r0,256	; 1
     CE88 0100     
6167 CE8A D800  38 	movb r0,@cvb_EFLAG
     CE8C 20A5     
6168               	; 	END
6169 CE8E C03A  30 	mov *r10+,r0
6170 CE90 0450  20 	b *r0
6171               	;
6172               	; 	' dragons glide OVER walls, like the cartridge's - the maze
6173               	; 	' never protects you, only the sword does
6174               	; dmovx: PROCEDURE
6175               	even
6176               cvb_DMOVX
6177               	; 	IF ddx(d) = tpx THEN RETURN
6178 CE92 D020  34 	movb @cvb_D,r0
     CE94 2084     
6179 CE96 0980  32 	srl r0,8
6180 CE98 0220  22 	ai r0,array_DDX
     CE9A 20F2     
6181 CE9C D010  26 	movb *r0,r0
6182 CE9E 9020  34 	cb @cvb_TPX,r0
     CEA0 208D     
6183 CEA2 1302  14 	jeq cv465
6184 CEA4 0460  28 	b @cv464
     CEA6 CEAC     
6185               cv465
6186 CEA8 C03A  30 	mov *r10+,r0
6187 CEAA 0450  20 	b *r0
6188               cv464
6189               	; 	IF tpx > ddx(d) THEN t = ddx(d) + ds ELSE t = ddx(d) - ds
6190 CEAC D020  34 	movb @cvb_D,r0
     CEAE 2084     
6191 CEB0 0980  32 	srl r0,8
6192 CEB2 0220  22 	ai r0,array_DDX
     CEB4 20F2     
6193 CEB6 D010  26 	movb *r0,r0
6194 CEB8 9800  34 	cb r0,@cvb_TPX
     CEBA 208D     
6195 CEBC 1A02  14 	jl cv467
6196 CEBE 0460  28 	b @cv466
     CEC0 CEDA     
6197               cv467
6198 CEC2 D020  34 	movb @cvb_D,r0
     CEC4 2084     
6199 CEC6 0980  32 	srl r0,8
6200 CEC8 0220  22 	ai r0,array_DDX
     CECA 20F2     
6201 CECC D010  26 	movb *r0,r0
6202 CECE B020  34 	ab @cvb_DS,r0
     CED0 20D3     
6203 CED2 D800  38 	movb r0,@cvb_T
     CED4 208C     
6204 CED6 0460  28 	b @cv468
     CED8 CEEE     
6205               cv466
6206 CEDA D020  34 	movb @cvb_D,r0
     CEDC 2084     
6207 CEDE 0980  32 	srl r0,8
6208 CEE0 0220  22 	ai r0,array_DDX
     CEE2 20F2     
6209 CEE4 D010  26 	movb *r0,r0
6210 CEE6 7020  34 	sb @cvb_DS,r0
     CEE8 20D3     
6211 CEEA D800  38 	movb r0,@cvb_T
     CEEC 208C     
6212               cv468
6213               	; 	IF t < 4 THEN RETURN
6214 CEEE D020  34 	movb @cvb_T,r0
     CEF0 208C     
6215 CEF2 0201  20 	li r1,1024   ; 4*256
     CEF4 0400     
6216 CEF6 9040  18 	cb r0,r1
6217 CEF8 1A02  14 	jl cv470
6218 CEFA 0460  28 	b @cv469
     CEFC CF02     
6219               cv470
6220 CEFE C03A  30 	mov *r10+,r0
6221 CF00 0450  20 	b *r0
6222               cv469
6223               	; 	IF t > 220 THEN RETURN
6224 CF02 D020  34 	movb @cvb_T,r0
     CF04 208C     
6225 CF06 0201  20 	li r1,56576   ; 221*256
     CF08 DD00     
6226 CF0A 9040  18 	cb r0,r1
6227 CF0C 1402  14 	jhe cv472
6228 CF0E 0460  28 	b @cv471
     CF10 CF16     
6229               cv472
6230 CF12 C03A  30 	mov *r10+,r0
6231 CF14 0450  20 	b *r0
6232               cv471
6233               	; 	ddx(d) = t : m = 1
6234 CF16 D060  34 	movb @cvb_T,r1
     CF18 208C     
6235 CF1A D020  34 	movb @cvb_D,r0
     CF1C 2084     
6236 CF1E 0980  32 	srl r0,8
6237 CF20 0220  22 	ai r0,array_DDX
     CF22 20F2     
6238 CF24 D401  30 	movb r1,*r0
6239 CF26 0200  20 	li r0,256   ; 1*256
     CF28 0100     
6240 CF2A D800  38 	movb r0,@cvb_M
     CF2C 2088     
6241               	; 	END
6242 CF2E C03A  30 	mov *r10+,r0
6243 CF30 0450  20 	b *r0
6244               	;
6245               	; dmovy: PROCEDURE
6246               	even
6247               cvb_DMOVY
6248               	; 	IF ddy(d) = tpy THEN RETURN
6249 CF32 D020  34 	movb @cvb_D,r0
     CF34 2084     
6250 CF36 0980  32 	srl r0,8
6251 CF38 0220  22 	ai r0,array_DDY
     CF3A 20F6     
6252 CF3C D010  26 	movb *r0,r0
6253 CF3E 9020  34 	cb @cvb_TPY,r0
     CF40 208E     
6254 CF42 1302  14 	jeq cv474
6255 CF44 0460  28 	b @cv473
     CF46 CF4C     
6256               cv474
6257 CF48 C03A  30 	mov *r10+,r0
6258 CF4A 0450  20 	b *r0
6259               cv473
6260               	; 	IF tpy > ddy(d) THEN t = ddy(d) + ds ELSE t = ddy(d) - ds
6261 CF4C D020  34 	movb @cvb_D,r0
     CF4E 2084     
6262 CF50 0980  32 	srl r0,8
6263 CF52 0220  22 	ai r0,array_DDY
     CF54 20F6     
6264 CF56 D010  26 	movb *r0,r0
6265 CF58 9800  34 	cb r0,@cvb_TPY
     CF5A 208E     
6266 CF5C 1A02  14 	jl cv476
6267 CF5E 0460  28 	b @cv475
     CF60 CF7A     
6268               cv476
6269 CF62 D020  34 	movb @cvb_D,r0
     CF64 2084     
6270 CF66 0980  32 	srl r0,8
6271 CF68 0220  22 	ai r0,array_DDY
     CF6A 20F6     
6272 CF6C D010  26 	movb *r0,r0
6273 CF6E B020  34 	ab @cvb_DS,r0
     CF70 20D3     
6274 CF72 D800  38 	movb r0,@cvb_T
     CF74 208C     
6275 CF76 0460  28 	b @cv477
     CF78 CF8E     
6276               cv475
6277 CF7A D020  34 	movb @cvb_D,r0
     CF7C 2084     
6278 CF7E 0980  32 	srl r0,8
6279 CF80 0220  22 	ai r0,array_DDY
     CF82 20F6     
6280 CF84 D010  26 	movb *r0,r0
6281 CF86 7020  34 	sb @cvb_DS,r0
     CF88 20D3     
6282 CF8A D800  38 	movb r0,@cvb_T
     CF8C 208C     
6283               cv477
6284               	; 	IF t < 4 THEN RETURN
6285 CF8E D020  34 	movb @cvb_T,r0
     CF90 208C     
6286 CF92 0201  20 	li r1,1024   ; 4*256
     CF94 0400     
6287 CF96 9040  18 	cb r0,r1
6288 CF98 1A02  14 	jl cv479
6289 CF9A 0460  28 	b @cv478
     CF9C CFA2     
6290               cv479
6291 CF9E C03A  30 	mov *r10+,r0
6292 CFA0 0450  20 	b *r0
6293               cv478
6294               	; 	IF t > 124 THEN RETURN
6295 CFA2 D020  34 	movb @cvb_T,r0
     CFA4 208C     
6296 CFA6 0201  20 	li r1,32000   ; 125*256
     CFA8 7D00     
6297 CFAA 9040  18 	cb r0,r1
6298 CFAC 1402  14 	jhe cv481
6299 CFAE 0460  28 	b @cv480
     CFB0 CFB6     
6300               cv481
6301 CFB2 C03A  30 	mov *r10+,r0
6302 CFB4 0450  20 	b *r0
6303               cv480
6304               	; 	ddy(d) = t : m = 1
6305 CFB6 D060  34 	movb @cvb_T,r1
     CFB8 208C     
6306 CFBA D020  34 	movb @cvb_D,r0
     CFBC 2084     
6307 CFBE 0980  32 	srl r0,8
6308 CFC0 0220  22 	ai r0,array_DDY
     CFC2 20F6     
6309 CFC4 D401  30 	movb r1,*r0
6310 CFC6 0200  20 	li r0,256   ; 1*256
     CFC8 0100     
6311 CFCA D800  38 	movb r0,@cvb_M
     CFCC 2088     
6312               	; 	END
6313 CFCE C03A  30 	mov *r10+,r0
6314 CFD0 0450  20 	b *r0
6315               	;
6316               	; 	' a live dragon left behind pursues you through the same doorway
6317               	; 	' a beat later: it slides in from the edge you fled through (gdir)
6318               	; 	' at your crossing offset, then dragondo chases this same tick
6319               	; dfollow: PROCEDURE
6320               	even
6321               cvb_DFOLLOW
6322               	; 	fdl(d) = fdl(d) - 1
6323 CFD2 D020  34 	movb @cvb_D,r0
     CFD4 2084     
6324 CFD6 0980  32 	srl r0,8
6325 CFD8 0220  22 	ai r0,array_FDL
     CFDA 212E     
6326 CFDC D010  26 	movb *r0,r0
6327 CFDE 0220  22 	ai r0,65280	; -1
     CFE0 FF00     
6328 CFE2 C040  18 	mov r0,r1
6329 CFE4 D020  34 	movb @cvb_D,r0
     CFE6 2084     
6330 CFE8 0980  32 	srl r0,8
6331 CFEA 0220  22 	ai r0,array_FDL
     CFEC 212E     
6332 CFEE D401  30 	movb r1,*r0
6333               	; 	IF fdl(d) > 0 THEN RETURN
6334 CFF0 D020  34 	movb @cvb_D,r0
     CFF2 2084     
6335 CFF4 0980  32 	srl r0,8
6336 CFF6 0220  22 	ai r0,array_FDL
     CFF8 212E     
6337 CFFA D010  26 	movb *r0,r0
6338 CFFC 0201  20 	li r1,256   ; 1*256
     CFFE 0100     
6339 D000 9040  18 	cb r0,r1
6340 D002 1402  14 	jhe cv483
6341 D004 0460  28 	b @cv482
     D006 D00C     
6342               cv483
6343 D008 C03A  30 	mov *r10+,r0
6344 D00A 0450  20 	b *r0
6345               cv482
6346               	; 	IF dst(d) = 1 THEN RETURN
6347 D00C D020  34 	movb @cvb_D,r0
     D00E 2084     
6348 D010 0980  32 	srl r0,8
6349 D012 0220  22 	ai r0,array_DST
     D014 2112     
6350 D016 D010  26 	movb *r0,r0
6351 D018 0201  20 	li r1,256   ; 1*256
     D01A 0100     
6352 D01C 9001  18 	cb r1,r0
6353 D01E 1302  14 	jeq cv485
6354 D020 0460  28 	b @cv484
     D022 D028     
6355               cv485
6356 D024 C03A  30 	mov *r10+,r0
6357 D026 0450  20 	b *r0
6358               cv484
6359               	; 	drm(d) = rn
6360 D028 D060  34 	movb @cvb_RN,r1
     D02A 20E3     
6361 D02C D020  34 	movb @cvb_D,r0
     D02E 2084     
6362 D030 0980  32 	srl r0,8
6363 D032 0220  22 	ai r0,array_DRM
     D034 210A     
6364 D036 D401  30 	movb r1,*r0
6365               	; 	' arrive through the doorway the player last used: the far edge
6366               	; 	' on the travel axis, their crossing offset (dpc) on the cross
6367               	; 	' axis - captured a beat ago in go*, so the player has since
6368               	; 	' moved off it (no spawning on top). Clamp dpc into the dragon's
6369               	; 	' mobile range (dmovx<=220, dmovy<=124) or it would sit stuck.
6370               	; 	IF dpc < 4 THEN dpc = 4
6371 D038 D020  34 	movb @cvb_DPC,r0
     D03A 20A2     
6372 D03C 0201  20 	li r1,1024   ; 4*256
     D03E 0400     
6373 D040 9040  18 	cb r0,r1
6374 D042 1A02  14 	jl cv487
6375 D044 0460  28 	b @cv486
     D046 D050     
6376               cv487
6377 D048 0200  20 	li r0,1024   ; 4*256
     D04A 0400     
6378 D04C D800  38 	movb r0,@cvb_DPC
     D04E 20A2     
6379               cv486
6380               	; 	dhi = 220 : IF gdir < 2 THEN dhi = 124
6381 D050 0200  20 	li r0,56320   ; 220*256
     D052 DC00     
6382 D054 D800  38 	movb r0,@cvb_DHI
     D056 20A1     
6383 D058 D020  34 	movb @cvb_GDIR,r0
     D05A 20EC     
6384 D05C 0201  20 	li r1,512   ; 2*256
     D05E 0200     
6385 D060 9040  18 	cb r0,r1
6386 D062 1A02  14 	jl cv489
6387 D064 0460  28 	b @cv488
     D066 D070     
6388               cv489
6389 D068 0200  20 	li r0,31744   ; 124*256
     D06A 7C00     
6390 D06C D800  38 	movb r0,@cvb_DHI
     D06E 20A1     
6391               cv488
6392               	; 	IF dpc > dhi THEN dpc = dhi
6393 D070 D020  34 	movb @cvb_DHI,r0
     D072 20A1     
6394 D074 9800  34 	cb r0,@cvb_DPC
     D076 20A2     
6395 D078 1A02  14 	jl cv491
6396 D07A 0460  28 	b @cv490
     D07C D084     
6397               cv491
6398 D07E D820  54 	movb @cvb_DHI,@cvb_DPC
     D080 20A1     
     D082 20A2     
6399               cv490
6400               	; 	dex = 108 : dey = 64
6401 D084 0200  20 	li r0,27648   ; 108*256
     D086 6C00     
6402 D088 D800  38 	movb r0,@cvb_DEX
     D08A 209F     
6403 D08C 0200  20 	li r0,16384   ; 64*256
     D08E 4000     
6404 D090 D800  38 	movb r0,@cvb_DEY
     D092 20A0     
6405               	; 	IF gdir = 0 THEN dex = 220 : dey = dpc
6406 D094 D020  34 	movb @cvb_GDIR,r0
     D096 20EC     
6407 D098 1302  14 	jeq cv493
6408 D09A 0460  28 	b @cv492
     D09C D0AC     
6409               cv493
6410 D09E 0200  20 	li r0,56320   ; 220*256
     D0A0 DC00     
6411 D0A2 D800  38 	movb r0,@cvb_DEX
     D0A4 209F     
6412 D0A6 D820  54 	movb @cvb_DPC,@cvb_DEY
     D0A8 20A2     
     D0AA 20A0     
6413               cv492
6414               	; 	IF gdir = 1 THEN dex = 8 : dey = dpc
6415 D0AC D020  34 	movb @cvb_GDIR,r0
     D0AE 20EC     
6416 D0B0 0201  20 	li r1,256   ; 1*256
     D0B2 0100     
6417 D0B4 9001  18 	cb r1,r0
6418 D0B6 1302  14 	jeq cv495
6419 D0B8 0460  28 	b @cv494
     D0BA D0CA     
6420               cv495
6421 D0BC 0200  20 	li r0,2048   ; 8*256
     D0BE 0800     
6422 D0C0 D800  38 	movb r0,@cvb_DEX
     D0C2 209F     
6423 D0C4 D820  54 	movb @cvb_DPC,@cvb_DEY
     D0C6 20A2     
     D0C8 20A0     
6424               cv494
6425               	; 	IF gdir = 2 THEN dey = 120 : dex = dpc
6426 D0CA D020  34 	movb @cvb_GDIR,r0
     D0CC 20EC     
6427 D0CE 0201  20 	li r1,512   ; 2*256
     D0D0 0200     
6428 D0D2 9001  18 	cb r1,r0
6429 D0D4 1302  14 	jeq cv497
6430 D0D6 0460  28 	b @cv496
     D0D8 D0E8     
6431               cv497
6432 D0DA 0200  20 	li r0,30720   ; 120*256
     D0DC 7800     
6433 D0DE D800  38 	movb r0,@cvb_DEY
     D0E0 20A0     
6434 D0E2 D820  54 	movb @cvb_DPC,@cvb_DEX
     D0E4 20A2     
     D0E6 209F     
6435               cv496
6436               	; 	IF gdir = 3 THEN dey = 8 : dex = dpc
6437 D0E8 D020  34 	movb @cvb_GDIR,r0
     D0EA 20EC     
6438 D0EC 0201  20 	li r1,768   ; 3*256
     D0EE 0300     
6439 D0F0 9001  18 	cb r1,r0
6440 D0F2 1302  14 	jeq cv499
6441 D0F4 0460  28 	b @cv498
     D0F6 D106     
6442               cv499
6443 D0F8 0200  20 	li r0,2048   ; 8*256
     D0FA 0800     
6444 D0FC D800  38 	movb r0,@cvb_DEY
     D0FE 20A0     
6445 D100 D820  54 	movb @cvb_DPC,@cvb_DEX
     D102 20A2     
     D104 209F     
6446               cv498
6447               	; 	ddx(d) = dex : ddy(d) = dey
6448 D106 D060  34 	movb @cvb_DEX,r1
     D108 209F     
6449 D10A D020  34 	movb @cvb_D,r0
     D10C 2084     
6450 D10E 0980  32 	srl r0,8
6451 D110 0220  22 	ai r0,array_DDX
     D112 20F2     
6452 D114 D401  30 	movb r1,*r0
6453 D116 D060  34 	movb @cvb_DEY,r1
     D118 20A0     
6454 D11A D020  34 	movb @cvb_D,r0
     D11C 2084     
6455 D11E 0980  32 	srl r0,8
6456 D120 0220  22 	ai r0,array_DDY
     D122 20F6     
6457 D124 D401  30 	movb r1,*r0
6458               	; 	drc(d) = 12
6459 D126 0201  20 	li r1,3072
     D128 0C00     
6460 D12A D020  34 	movb @cvb_D,r0
     D12C 2084     
6461 D12E 0980  32 	srl r0,8
6462 D130 0220  22 	ai r0,array_DRC
     D132 20FE     
6463 D134 D401  30 	movb r1,*r0
6464               	; 	sfx = 5 : sfc = 20
6465 D136 0200  20 	li r0,1280   ; 5*256
     D138 0500     
6466 D13A D800  38 	movb r0,@cvb_SFX
     D13C 20E2     
6467 D13E 0200  20 	li r0,5120   ; 20*256
     D140 1400     
6468 D142 D800  38 	movb r0,@cvb_SFC
     D144 20DA     
6469               	; 	END
6470 D146 C03A  30 	mov *r10+,r0
6471 D148 0450  20 	b *r0
6472               	;
6473               	; swordchk: PROCEDURE
6474               	even
6475               cvb_SWORDCHK
6476               	; 	' the sword (object 3) slays on contact, carried OR lying
6477               	; 	IF orm(3) <> drm(d) THEN RETURN
6478 D14A D020  34 	movb @cvb_D,r0
     D14C 2084     
6479 D14E 0980  32 	srl r0,8
6480 D150 0220  22 	ai r0,array_DRM
     D152 210A     
6481 D154 D050  26 	movb *r0,r1
6482 D156 D020  34 	movb @array_ORM+3,r0
     D158 2251     
6483 D15A 9001  18 	cb r1,r0
6484 D15C 1602  14 	jne cv501
6485 D15E 0460  28 	b @cv500
     D160 D166     
6486               cv501
6487 D162 C03A  30 	mov *r10+,r0
6488 D164 0450  20 	b *r0
6489               cv500
6490               	; 	#ax = obx(3) + 12 : #bx = ddx(d) + 16
6491 D166 D020  34 	movb @array_OBX+3,r0
     D168 2121     
6492 D16A 0980  32 	srl r0,8
6493 D16C 0220  22 	ai r0,12
     D16E 000C     
6494 D170 C800  38 	mov r0,@cvb__AX
     D172 20B8     
6495 D174 D020  34 	movb @cvb_D,r0
     D176 2084     
6496 D178 0980  32 	srl r0,8
6497 D17A 0220  22 	ai r0,array_DDX
     D17C 20F2     
6498 D17E D010  26 	movb *r0,r0
6499 D180 0980  32 	srl r0,8
6500 D182 0220  22 	ai r0,16
     D184 0010     
6501 D186 C800  38 	mov r0,@cvb__BX
     D188 20BA     
6502               	; 	GOSUB adiff
6503 D18A 06A0  32 	bl @jsr
     D18C A974     
6504 D18E C342     	data cvb_ADIFF
6505               	; 	IF #cx > 17 THEN RETURN
6506 D190 C020  34 	mov @cvb__CX,r0
     D192 20BE     
6507 D194 0201  20 	li r1,18
     D196 0012     
6508 D198 8040  18 	c r0,r1
6509 D19A 1402  14 	jhe cv503
6510 D19C 0460  28 	b @cv502
     D19E D1A4     
6511               cv503
6512 D1A0 C03A  30 	mov *r10+,r0
6513 D1A2 0450  20 	b *r0
6514               cv502
6515               	; 	#ax = oby(3) + 7 : #bx = ddy(d) + 32
6516 D1A4 D020  34 	movb @array_OBY+3,r0
     D1A6 2129     
6517 D1A8 0980  32 	srl r0,8
6518 D1AA 0220  22 	ai r0,7
     D1AC 0007     
6519 D1AE C800  38 	mov r0,@cvb__AX
     D1B0 20B8     
6520 D1B2 D020  34 	movb @cvb_D,r0
     D1B4 2084     
6521 D1B6 0980  32 	srl r0,8
6522 D1B8 0220  22 	ai r0,array_DDY
     D1BA 20F6     
6523 D1BC D010  26 	movb *r0,r0
6524 D1BE 0980  32 	srl r0,8
6525 D1C0 0220  22 	ai r0,32
     D1C2 0020     
6526 D1C4 C800  38 	mov r0,@cvb__BX
     D1C6 20BA     
6527               	; 	GOSUB adiff
6528 D1C8 06A0  32 	bl @jsr
     D1CA A974     
6529 D1CC C342     	data cvb_ADIFF
6530               	; 	IF #cx > 26 THEN RETURN
6531 D1CE C020  34 	mov @cvb__CX,r0
     D1D0 20BE     
6532 D1D2 0201  20 	li r1,27
     D1D4 001B     
6533 D1D6 8040  18 	c r0,r1
6534 D1D8 1402  14 	jhe cv505
6535 D1DA 0460  28 	b @cv504
     D1DC D1E2     
6536               cv505
6537 D1DE C03A  30 	mov *r10+,r0
6538 D1E0 0450  20 	b *r0
6539               cv504
6540               	; 	dst(d) = 1 : sfx = 4 : sfc = 14
6541 D1E2 0201  20 	li r1,256
     D1E4 0100     
6542 D1E6 D020  34 	movb @cvb_D,r0
     D1E8 2084     
6543 D1EA 0980  32 	srl r0,8
6544 D1EC 0220  22 	ai r0,array_DST
     D1EE 2112     
6545 D1F0 D401  30 	movb r1,*r0
6546 D1F2 0200  20 	li r0,1024   ; 4*256
     D1F4 0400     
6547 D1F6 D800  38 	movb r0,@cvb_SFX
     D1F8 20E2     
6548 D1FA 0200  20 	li r0,3584   ; 14*256
     D1FC 0E00     
6549 D1FE D800  38 	movb r0,@cvb_SFC
     D200 20DA     
6550               	; 	END
6551 D202 C03A  30 	mov *r10+,r0
6552 D204 0450  20 	b *r0
6553               	;
6554               	; 	' ------------------------------------------------------------
6555               	; 	' swallowed: wail + player shown in the dragon's belly, then
6556               	; 	' FIRE returns to the caller (back to the title screen)
6557               	; 	' ------------------------------------------------------------
6558               	; eatenrt: PROCEDURE
6559               	even
6560               cvb_EATENRT
6561               	; 	e = eflag - 1 : eflag = 0
6562 D206 D020  34 	movb @cvb_EFLAG,r0
     D208 20A5     
6563 D20A 0220  22 	ai r0,65280	; -1
     D20C FF00     
6564 D20E D800  38 	movb r0,@cvb_E
     D210 2085     
6565 D212 04C0  14 	clr r0
6566 D214 D800  38 	movb r0,@cvb_EFLAG
     D216 20A5     
6567               	; 	sfx = 0 : SOUND 3, , 0
6568 D218 04C0  14 	clr r0
6569 D21A D800  38 	movb r0,@cvb_SFX
     D21C 20E2     
6570 D21E 04C0  14 	clr r0
6571 D220 0202  20 	li r2,>f000
     D222 F000     
6572 D224 06A0  32 	bl @jsr
     D226 A974     
6573 D228 A2D6     	data sn76489_vol
6574               	; 	FOR i = 1 TO 56
6575 D22A 0200  20 	li r0,256   ; 1*256
     D22C 0100     
6576 D22E D800  38 	movb r0,@cvb_I
     D230 2087     
6577               cv506
6578               	; 	WAIT
6579 D232 06A0  32 	bl @jsr
     D234 A974     
6580 D236 A64A     	data wait
6581               	; 	SOUND 0, 200 + i * 14, 13
6582 D238 D020  34 	movb @cvb_I,r0
     D23A 2087     
6583 D23C 0980  32 	srl r0,8
6584 D23E 0201  20 	li r1,14
     D240 000E     
6585 D242 3801  58 	mpy r1,r0
6586 D244 C001  18 	mov r1,r0
6587 D246 0220  22 	ai r0,200
     D248 00C8     
6588 D24A 0202  20 	li r2,>8000
     D24C 8000     
6589 D24E 06A0  32 	bl @jsr
     D250 A974     
6590 D252 A2BA     	data sn76489_freq
6591 D254 0200  20 	li r0,3328   ; 13*256
     D256 0D00     
6592 D258 0202  20 	li r2,>9000
     D25A 9000     
6593 D25C 06A0  32 	bl @jsr
     D25E A974     
6594 D260 A2D6     	data sn76489_vol
6595               	; 	GOSUB eatflash
6596 D262 06A0  32 	bl @jsr
     D264 A974     
6597 D266 D2DE     	data cvb_EATFLASH
6598               	; 	NEXT i
6599 D268 D020  34 	movb @cvb_I,r0
     D26A 2087     
6600 D26C 0220  22 	ai r0,256	; 1
     D26E 0100     
6601 D270 D800  38 	movb r0,@cvb_I
     D272 2087     
6602 D274 0201  20 	li r1,14592   ; 57*256
     D276 3900     
6603 D278 9040  18 	cb r0,r1
6604 D27A 1402  14 	jhe cv507
6605 D27C 0460  28 	b @cv506
     D27E D232     
6606               cv507
6607               	; 	SOUND 0, , 0
6608 D280 04C0  14 	clr r0
6609 D282 0202  20 	li r2,>9000
     D284 9000     
6610 D286 06A0  32 	bl @jsr
     D288 A974     
6611 D28A A2D6     	data sn76489_vol
6612               	; ewt1:	WAIT
6613               cvb_EWT1
6614 D28C 06A0  32 	bl @jsr
     D28E A974     
6615 D290 A64A     	data wait
6616               	; 	GOSUB eatflash
6617 D292 06A0  32 	bl @jsr
     D294 A974     
6618 D296 D2DE     	data cvb_EATFLASH
6619               	; 	IF cont1.button > 0 THEN GOTO ewt1
6620 D298 D020  30 	movb @joy1_data,r0
     D29A 8346     
6621 D29C 0201  20 	li r1,16384   ; 64*256
     D29E 4000     
6622 D2A0 0541  14 	inv r1
6623 D2A2 5001  18 	szcb r1,r0
6624 D2A4 0201  20 	li r1,256   ; 1*256
     D2A6 0100     
6625 D2A8 9040  18 	cb r0,r1
6626 D2AA 1402  14 	jhe cv509
6627 D2AC 0460  28 	b @cv508
     D2AE D2B4     
6628               cv509
6629 D2B0 0460  28 	b @cvb_EWT1
     D2B2 D28C     
6630               cv508
6631               	; ewt2:	WAIT
6632               cvb_EWT2
6633 D2B4 06A0  32 	bl @jsr
     D2B6 A974     
6634 D2B8 A64A     	data wait
6635               	; 	GOSUB eatflash
6636 D2BA 06A0  32 	bl @jsr
     D2BC A974     
6637 D2BE D2DE     	data cvb_EATFLASH
6638               	; 	IF cont1.button = 0 THEN GOTO ewt2
6639 D2C0 D020  30 	movb @joy1_data,r0
     D2C2 8346     
6640 D2C4 0201  20 	li r1,16384   ; 64*256
     D2C6 4000     
6641 D2C8 0541  14 	inv r1
6642 D2CA 5001  18 	szcb r1,r0
6643 D2CC 04C1  14 	clr r1
6644 D2CE 9001  18 	cb r1,r0
6645 D2D0 1302  14 	jeq cv511
6646 D2D2 0460  28 	b @cv510
     D2D4 D2DA     
6647               cv511
6648 D2D6 0460  28 	b @cvb_EWT2
     D2D8 D2B4     
6649               cv510
6650               	; 	END
6651 D2DA C03A  30 	mov *r10+,r0
6652 D2DC 0450  20 	b *r0
6653               	;
6654               	; 	' in the belly: flash black/white so the player is visible
6655               	; 	' whatever colour the dragon (or the room) happens to be
6656               	; eatflash: PROCEDURE
6657               	even
6658               cvb_EATFLASH
6659               	; 	t2 = 1
6660 D2DE 0200  20 	li r0,256   ; 1*256
     D2E0 0100     
6661 D2E2 D800  38 	movb r0,@cvb_T2
     D2E4 20E1     
6662               	; 	IF (FRAME AND 8) > 0 THEN t2 = 15
6663 D2E6 C020  30 	mov @frame,r0
     D2E8 834A     
6664 D2EA 0240  22 	andi r0,8
     D2EC 0008     
6665 D2EE 0201  20 	li r1,1
     D2F0 0001     
6666 D2F2 8040  18 	c r0,r1
6667 D2F4 1402  14 	jhe cv513
6668 D2F6 0460  28 	b @cv512
     D2F8 D302     
6669               cv513
6670 D2FA 0200  20 	li r0,3840   ; 15*256
     D2FC 0F00     
6671 D2FE D800  38 	movb r0,@cvb_T2
     D300 20E1     
6672               cv512
6673               	; 	SPRITE 0, ddy(e) + 27, ddx(e) + 11, 0, t2
6674 D302 04C4  14 	clr r4
6675 D304 D020  34 	movb @cvb_E,r0
     D306 2085     
6676 D308 0980  32 	srl r0,8
6677 D30A 0220  22 	ai r0,array_DDY
     D30C 20F6     
6678 D30E D010  26 	movb *r0,r0
6679 D310 0220  22 	ai r0,6912	; 27
     D312 1B00     
6680 D314 D140  18 	movb r0,r5
6681 D316 D020  34 	movb @cvb_E,r0
     D318 2085     
6682 D31A 0980  32 	srl r0,8
6683 D31C 0220  22 	ai r0,array_DDX
     D31E 20F2     
6684 D320 D010  26 	movb *r0,r0
6685 D322 0220  22 	ai r0,2816	; 11
     D324 0B00     
6686 D326 D180  18 	movb r0,r6
6687 D328 04C7  14 	clr r7
6688 D32A D020  34 	movb @cvb_T2,r0
     D32C 20E1     
6689 D32E 06A0  32 	bl @jsr
     D330 A974     
6690 D332 A24E     	data update_sprite
6691               	; 	END
6692 D334 C03A  30 	mov *r10+,r0
6693 D336 0450  20 	b *r0
6694               	;
6695               	; 	' ------------------------------------------------------------
6696               	; 	' point-vs-wall: RAM bitmap test + closed-gate special case
6697               	; 	' + the secret wall once it is open
6698               	; 	' ------------------------------------------------------------
6699               	; chkpt: PROCEDURE
6700               	even
6701               cvb_CHKPT
6702               	; 	' 8px cells: row 0-23, col 0-31; byte = row*4 + col/8
6703               	; 	r = ty / 8 : c2 = tx / 8
6704 D338 D020  34 	movb @cvb_TY,r0
     D33A 20E8     
6705 D33C 0930  22 	srl r0,3
6706 D33E D800  38 	movb r0,@cvb_R
     D340 208B     
6707 D342 D020  34 	movb @cvb_TX,r0
     D344 20E7     
6708 D346 0930  22 	srl r0,3
6709 D348 D800  38 	movb r0,@cvb_C2
     D34A 20C8     
6710               	; 	wf = rm(r * 4 + (c2 / 8)) AND msk(c2 AND 7)
6711 D34C 0201  20 	li r1,1792   ; 7*256
     D34E 0700     
6712 D350 0541  14 	inv r1
6713 D352 5001  18 	szcb r1,r0
6714 D354 0980  32 	srl r0,8
6715 D356 0220  22 	ai r0,array_MSK
     D358 2102     
6716 D35A D010  26 	movb *r0,r0
6717 D35C 064A  14 	dect r10
6718 D35E C680  30 	mov r0,*r10
6719 D360 D020  34 	movb @cvb_C2,r0
     D362 20C8     
6720 D364 0980  32 	srl r0,8
6721 D366 0930  22 	srl r0,3
6722 D368 C040  18 	mov r0,r1
6723 D36A D020  34 	movb @cvb_R,r0
     D36C 208B     
6724 D36E 0980  32 	srl r0,8
6725 D370 0A20  20 	sla r0,2
6726 D372 A001  18 	a r1,r0
6727 D374 0220  22 	ai r0,array_RM
     D376 225A     
6728 D378 D010  26 	movb *r0,r0
6729 D37A C07A  30 	mov *r10+,r1
6730 D37C 0541  14 	inv r1
6731 D37E 5001  18 	szcb r1,r0
6732 D380 D800  38 	movb r0,@cvb_WF
     D382 20EA     
6733               	; 	IF wf = 0 THEN GOTO ckgate
6734 D384 04C1  14 	clr r1
6735 D386 9001  18 	cb r1,r0
6736 D388 1302  14 	jeq cv515
6737 D38A 0460  28 	b @cv514
     D38C D392     
6738               cv515
6739 D38E 0460  28 	b @cvb_CKGATE
     D390 D3FA     
6740               cv514
6741               	; 	' the flickering secret wall is passable
6742               	; 	IF eggon = 0 THEN RETURN
6743 D392 D020  34 	movb @cvb_EGGON,r0
     D394 209E     
6744 D396 1302  14 	jeq cv517
6745 D398 0460  28 	b @cv516
     D39A D3A0     
6746               cv517
6747 D39C C03A  30 	mov *r10+,r0
6748 D39E 0450  20 	b *r0
6749               cv516
6750               	; 	IF rn <> 17 THEN RETURN
6751 D3A0 D020  34 	movb @cvb_RN,r0
     D3A2 20E3     
6752 D3A4 0201  20 	li r1,4352   ; 17*256
     D3A6 1100     
6753 D3A8 9001  18 	cb r1,r0
6754 D3AA 1602  14 	jne cv519
6755 D3AC 0460  28 	b @cv518
     D3AE D3B4     
6756               cv519
6757 D3B0 C03A  30 	mov *r10+,r0
6758 D3B2 0450  20 	b *r0
6759               cv518
6760               	; 	IF c2 < 30 THEN RETURN
6761 D3B4 D020  34 	movb @cvb_C2,r0
     D3B6 20C8     
6762 D3B8 0201  20 	li r1,7680   ; 30*256
     D3BA 1E00     
6763 D3BC 9040  18 	cb r0,r1
6764 D3BE 1A02  14 	jl cv521
6765 D3C0 0460  28 	b @cv520
     D3C2 D3C8     
6766               cv521
6767 D3C4 C03A  30 	mov *r10+,r0
6768 D3C6 0450  20 	b *r0
6769               cv520
6770               	; 	IF r < 10 THEN RETURN
6771 D3C8 D020  34 	movb @cvb_R,r0
     D3CA 208B     
6772 D3CC 0201  20 	li r1,2560   ; 10*256
     D3CE 0A00     
6773 D3D0 9040  18 	cb r0,r1
6774 D3D2 1A02  14 	jl cv523
6775 D3D4 0460  28 	b @cv522
     D3D6 D3DC     
6776               cv523
6777 D3D8 C03A  30 	mov *r10+,r0
6778 D3DA 0450  20 	b *r0
6779               cv522
6780               	; 	IF r > 13 THEN RETURN
6781 D3DC D020  34 	movb @cvb_R,r0
     D3DE 208B     
6782 D3E0 0201  20 	li r1,3584   ; 14*256
     D3E2 0E00     
6783 D3E4 9040  18 	cb r0,r1
6784 D3E6 1402  14 	jhe cv525
6785 D3E8 0460  28 	b @cv524
     D3EA D3F0     
6786               cv525
6787 D3EC C03A  30 	mov *r10+,r0
6788 D3EE 0450  20 	b *r0
6789               cv524
6790               	; 	wf = 0
6791 D3F0 04C0  14 	clr r0
6792 D3F2 D800  38 	movb r0,@cvb_WF
     D3F4 20EA     
6793               	; 	RETURN
6794 D3F6 C03A  30 	mov *r10+,r0
6795 D3F8 0450  20 	b *r0
6796               	; ckgate:
6797               cvb_CKGATE
6798               	; 	IF gz = 0 THEN RETURN
6799 D3FA D020  34 	movb @cvb_GZ,r0
     D3FC 20D8     
6800 D3FE 1302  14 	jeq cv527
6801 D400 0460  28 	b @cv526
     D402 D408     
6802               cv527
6803 D404 C03A  30 	mov *r10+,r0
6804 D406 0450  20 	b *r0
6805               cv526
6806               	; 	IF gopn = 1 THEN RETURN
6807 D408 D020  34 	movb @cvb_GOPN,r0
     D40A 209D     
6808 D40C 0201  20 	li r1,256   ; 1*256
     D40E 0100     
6809 D410 9001  18 	cb r1,r0
6810 D412 1302  14 	jeq cv529
6811 D414 0460  28 	b @cv528
     D416 D41C     
6812               cv529
6813 D418 C03A  30 	mov *r10+,r0
6814 D41A 0450  20 	b *r0
6815               cv528
6816               	; 	IF r < 4 THEN RETURN
6817 D41C D020  34 	movb @cvb_R,r0
     D41E 208B     
6818 D420 0201  20 	li r1,1024   ; 4*256
     D422 0400     
6819 D424 9040  18 	cb r0,r1
6820 D426 1A02  14 	jl cv531
6821 D428 0460  28 	b @cv530
     D42A D430     
6822               cv531
6823 D42C C03A  30 	mov *r10+,r0
6824 D42E 0450  20 	b *r0
6825               cv530
6826               	; 	IF r > 7 THEN RETURN
6827 D430 D020  34 	movb @cvb_R,r0
     D432 208B     
6828 D434 0201  20 	li r1,2048   ; 8*256
     D436 0800     
6829 D438 9040  18 	cb r0,r1
6830 D43A 1402  14 	jhe cv533
6831 D43C 0460  28 	b @cv532
     D43E D444     
6832               cv533
6833 D440 C03A  30 	mov *r10+,r0
6834 D442 0450  20 	b *r0
6835               cv532
6836               	; 	IF c2 < 14 THEN RETURN
6837 D444 D020  34 	movb @cvb_C2,r0
     D446 20C8     
6838 D448 0201  20 	li r1,3584   ; 14*256
     D44A 0E00     
6839 D44C 9040  18 	cb r0,r1
6840 D44E 1A02  14 	jl cv535
6841 D450 0460  28 	b @cv534
     D452 D458     
6842               cv535
6843 D454 C03A  30 	mov *r10+,r0
6844 D456 0450  20 	b *r0
6845               cv534
6846               	; 	IF c2 > 17 THEN RETURN
6847 D458 D020  34 	movb @cvb_C2,r0
     D45A 20C8     
6848 D45C 0201  20 	li r1,4608   ; 18*256
     D45E 1200     
6849 D460 9040  18 	cb r0,r1
6850 D462 1402  14 	jhe cv537
6851 D464 0460  28 	b @cv536
     D466 D46C     
6852               cv537
6853 D468 C03A  30 	mov *r10+,r0
6854 D46A 0450  20 	b *r0
6855               cv536
6856               	; 	wf = 1
6857 D46C 0200  20 	li r0,256   ; 1*256
     D46E 0100     
6858 D470 D800  38 	movb r0,@cvb_WF
     D472 20EA     
6859               	; 	END
6860 D474 C03A  30 	mov *r10+,r0
6861 D476 0450  20 	b *r0
6862               	;
6863               	; chkbox: PROCEDURE
6864               	even
6865               cvb_CHKBOX
6866               	; 	' blocks are 16px and boxes are <=16px, so 4 corners suffice
6867               	; 	bf = 1
6868 D478 0200  20 	li r0,256   ; 1*256
     D47A 0100     
6869 D47C D800  38 	movb r0,@cvb_BF
     D47E 20CA     
6870               	; 	tx = x0 : ty = y0
6871 D480 D820  54 	movb @cvb_X0,@cvb_TX
     D482 20E9     
     D484 20E7     
6872 D486 D820  54 	movb @cvb_Y0,@cvb_TY
     D488 20EB     
     D48A 20E8     
6873               	; 	GOSUB chkpt
6874 D48C 06A0  32 	bl @jsr
     D48E A974     
6875 D490 D338     	data cvb_CHKPT
6876               	; 	IF wf > 0 THEN RETURN
6877 D492 D020  34 	movb @cvb_WF,r0
     D494 20EA     
6878 D496 0201  20 	li r1,256   ; 1*256
     D498 0100     
6879 D49A 9040  18 	cb r0,r1
6880 D49C 1402  14 	jhe cv539
6881 D49E 0460  28 	b @cv538
     D4A0 D4A6     
6882               cv539
6883 D4A2 C03A  30 	mov *r10+,r0
6884 D4A4 0450  20 	b *r0
6885               cv538
6886               	; 	tx = x0 + bw
6887 D4A6 D020  34 	movb @cvb_X0,r0
     D4A8 20E9     
6888 D4AA B020  34 	ab @cvb_BW,r0
     D4AC 20CF     
6889 D4AE D800  38 	movb r0,@cvb_TX
     D4B0 20E7     
6890               	; 	GOSUB chkpt
6891 D4B2 06A0  32 	bl @jsr
     D4B4 A974     
6892 D4B6 D338     	data cvb_CHKPT
6893               	; 	IF wf > 0 THEN RETURN
6894 D4B8 D020  34 	movb @cvb_WF,r0
     D4BA 20EA     
6895 D4BC 0201  20 	li r1,256   ; 1*256
     D4BE 0100     
6896 D4C0 9040  18 	cb r0,r1
6897 D4C2 1402  14 	jhe cv541
6898 D4C4 0460  28 	b @cv540
     D4C6 D4CC     
6899               cv541
6900 D4C8 C03A  30 	mov *r10+,r0
6901 D4CA 0450  20 	b *r0
6902               cv540
6903               	; 	ty = y0 + bh
6904 D4CC D020  34 	movb @cvb_Y0,r0
     D4CE 20EB     
6905 D4D0 B020  34 	ab @cvb_BH,r0
     D4D2 20CB     
6906 D4D4 D800  38 	movb r0,@cvb_TY
     D4D6 20E8     
6907               	; 	GOSUB chkpt
6908 D4D8 06A0  32 	bl @jsr
     D4DA A974     
6909 D4DC D338     	data cvb_CHKPT
6910               	; 	IF wf > 0 THEN RETURN
6911 D4DE D020  34 	movb @cvb_WF,r0
     D4E0 20EA     
6912 D4E2 0201  20 	li r1,256   ; 1*256
     D4E4 0100     
6913 D4E6 9040  18 	cb r0,r1
6914 D4E8 1402  14 	jhe cv543
6915 D4EA 0460  28 	b @cv542
     D4EC D4F2     
6916               cv543
6917 D4EE C03A  30 	mov *r10+,r0
6918 D4F0 0450  20 	b *r0
6919               cv542
6920               	; 	tx = x0
6921 D4F2 D820  54 	movb @cvb_X0,@cvb_TX
     D4F4 20E9     
     D4F6 20E7     
6922               	; 	GOSUB chkpt
6923 D4F8 06A0  32 	bl @jsr
     D4FA A974     
6924 D4FC D338     	data cvb_CHKPT
6925               	; 	IF wf > 0 THEN RETURN
6926 D4FE D020  34 	movb @cvb_WF,r0
     D500 20EA     
6927 D502 0201  20 	li r1,256   ; 1*256
     D504 0100     
6928 D506 9040  18 	cb r0,r1
6929 D508 1402  14 	jhe cv545
6930 D50A 0460  28 	b @cv544
     D50C D512     
6931               cv545
6932 D50E C03A  30 	mov *r10+,r0
6933 D510 0450  20 	b *r0
6934               cv544
6935               	; 	bf = 0
6936 D512 04C0  14 	clr r0
6937 D514 D800  38 	movb r0,@cvb_BF
     D516 20CA     
6938               	; 	END
6939 D518 C03A  30 	mov *r10+,r0
6940 D51A 0450  20 	b *r0
6941               	;
6942               	; 	' ------------------------------------------------------------
6943               	; 	' link + colour lookup: tables live in ROM, read on demand
6944               	; 	' (lkr in -> lkn/lke/lks/lkw). Game 1 = custom map table;
6945               	; 	' game 2 = small kingdom; games 3/4 = full kingdom.
6946               	; 	' ------------------------------------------------------------
6947               	; getlnk: PROCEDURE
6948               	even
6949               cvb_GETLNK
6950               	; 	IF gm = 1 THEN RESTORE lnkc
6951 D51C D020  34 	movb @cvb_GM,r0
     D51E 20D7     
6952 D520 0201  20 	li r1,256   ; 1*256
     D522 0100     
6953 D524 9001  18 	cb r1,r0
6954 D526 1302  14 	jeq cv547
6955 D528 0460  28 	b @cv546
     D52A D534     
6956               cv547
6957 D52C 0200  20 	li r0,cvb_LNKC
     D52E F19C     
6958 D530 C800  30 	mov r0,@read_pointer
     D532 8340     
6959               cv546
6960               	; 	IF gm = 2 THEN RESTORE lnkb
6961 D534 D020  34 	movb @cvb_GM,r0
     D536 20D7     
6962 D538 0201  20 	li r1,512   ; 2*256
     D53A 0200     
6963 D53C 9001  18 	cb r1,r0
6964 D53E 1302  14 	jeq cv549
6965 D540 0460  28 	b @cv548
     D542 D54C     
6966               cv549
6967 D544 0200  20 	li r0,cvb_LNKB
     D546 F1D0     
6968 D548 C800  30 	mov r0,@read_pointer
     D54A 8340     
6969               cv548
6970               	; 	IF gm > 2 THEN RESTORE lnka
6971 D54C D020  34 	movb @cvb_GM,r0
     D54E 20D7     
6972 D550 0201  20 	li r1,768   ; 3*256
     D552 0300     
6973 D554 9040  18 	cb r0,r1
6974 D556 1402  14 	jhe cv551
6975 D558 0460  28 	b @cv550
     D55A D564     
6976               cv551
6977 D55C 0200  20 	li r0,cvb_LNKA
     D55E F204     
6978 D560 C800  30 	mov r0,@read_pointer
     D562 8340     
6979               cv550
6980               	; 	i2 = lkr : IF gm > 1 THEN i2 = lkr - 13
6981 D564 D820  54 	movb @cvb_LKR,@cvb_I2
     D566 209A     
     D568 20D6     
6982 D56A D020  34 	movb @cvb_GM,r0
     D56C 20D7     
6983 D56E 0201  20 	li r1,512   ; 2*256
     D570 0200     
6984 D572 9040  18 	cb r0,r1
6985 D574 1402  14 	jhe cv553
6986 D576 0460  28 	b @cv552
     D578 D586     
6987               cv553
6988 D57A D020  34 	movb @cvb_LKR,r0
     D57C 209A     
6989 D57E 0220  22 	ai r0,62208	; -13
     D580 F300     
6990 D582 D800  38 	movb r0,@cvb_I2
     D584 20D6     
6991               cv552
6992               	; 	WHILE i2 > 0
6993               cv554
6994 D586 D020  34 	movb @cvb_I2,r0
     D588 20D6     
6995 D58A 0201  20 	li r1,256   ; 1*256
     D58C 0100     
6996 D58E 9040  18 	cb r0,r1
6997 D590 1402  14 	jhe cv556
6998 D592 0460  28 	b @cv555
     D594 D5DE     
6999               cv556
7000               	; 	READ BYTE t : READ BYTE t : READ BYTE t : READ BYTE t
7001 D596 C060  30 	mov @read_pointer,r1
     D598 8340     
7002 D59A D011  26 	movb *r1,r0
7003 D59C 05A0  26 	inc @read_pointer
     D59E 8340     
7004 D5A0 D800  38 	movb r0,@cvb_T
     D5A2 208C     
7005 D5A4 C060  30 	mov @read_pointer,r1
     D5A6 8340     
7006 D5A8 D011  26 	movb *r1,r0
7007 D5AA 05A0  26 	inc @read_pointer
     D5AC 8340     
7008 D5AE D800  38 	movb r0,@cvb_T
     D5B0 208C     
7009 D5B2 C060  30 	mov @read_pointer,r1
     D5B4 8340     
7010 D5B6 D011  26 	movb *r1,r0
7011 D5B8 05A0  26 	inc @read_pointer
     D5BA 8340     
7012 D5BC D800  38 	movb r0,@cvb_T
     D5BE 208C     
7013 D5C0 C060  30 	mov @read_pointer,r1
     D5C2 8340     
7014 D5C4 D011  26 	movb *r1,r0
7015 D5C6 05A0  26 	inc @read_pointer
     D5C8 8340     
7016 D5CA D800  38 	movb r0,@cvb_T
     D5CC 208C     
7017               	; 	i2 = i2 - 1
7018 D5CE D020  34 	movb @cvb_I2,r0
     D5D0 20D6     
7019 D5D2 0220  22 	ai r0,65280	; -1
     D5D4 FF00     
7020 D5D6 D800  38 	movb r0,@cvb_I2
     D5D8 20D6     
7021               	; 	WEND
7022 D5DA 0460  28 	b @cv554
     D5DC D586     
7023               cv555
7024               	; 	READ BYTE lkn : READ BYTE lke : READ BYTE lks : READ BYTE lkw
7025 D5DE C060  30 	mov @read_pointer,r1
     D5E0 8340     
7026 D5E2 D011  26 	movb *r1,r0
7027 D5E4 05A0  26 	inc @read_pointer
     D5E6 8340     
7028 D5E8 D800  38 	movb r0,@cvb_LKN
     D5EA 2097     
7029 D5EC C060  30 	mov @read_pointer,r1
     D5EE 8340     
7030 D5F0 D011  26 	movb *r1,r0
7031 D5F2 05A0  26 	inc @read_pointer
     D5F4 8340     
7032 D5F6 D800  38 	movb r0,@cvb_LKE
     D5F8 2095     
7033 D5FA C060  30 	mov @read_pointer,r1
     D5FC 8340     
7034 D5FE D011  26 	movb *r1,r0
7035 D600 05A0  26 	inc @read_pointer
     D602 8340     
7036 D604 D800  38 	movb r0,@cvb_LKS
     D606 209B     
7037 D608 C060  30 	mov @read_pointer,r1
     D60A 8340     
7038 D60C D011  26 	movb *r1,r0
7039 D60E 05A0  26 	inc @read_pointer
     D610 8340     
7040 D612 D800  38 	movb r0,@cvb_LKW
     D614 209C     
7041               	; 	END
7042 D616 C03A  30 	mov *r10+,r0
7043 D618 0450  20 	b *r0
7044               	;
7045               	; 	' ------------------------------------------------------------
7046               	; 	' room entry: load bitmap, colours (wall,bg,dark), redraw,
7047               	; 	' gate, fog window, secret-room text, dragons
7048               	; 	' ------------------------------------------------------------
7049               	; enterroom: PROCEDURE
7050               	even
7051               cvb_ENTERROOM
7052               	; 	FOR i = 1 TO 16 : SPRITE i, $d1, 0, 0, 0 : NEXT i
7053 D61A 0200  20 	li r0,256   ; 1*256
     D61C 0100     
7054 D61E D800  38 	movb r0,@cvb_I
     D620 2087     
7055               cv557
7056 D622 D120  34 	movb @cvb_I,r4
     D624 2087     
7057 D626 0205  20 	li r5,53504
     D628 D100     
7058 D62A 04C6  14 	clr r6
7059 D62C 04C7  14 	clr r7
7060 D62E 04C0  14 	clr r0
7061 D630 06A0  32 	bl @jsr
     D632 A974     
7062 D634 A24E     	data update_sprite
7063 D636 D020  34 	movb @cvb_I,r0
     D638 2087     
7064 D63A 0220  22 	ai r0,256	; 1
     D63C 0100     
7065 D63E D800  38 	movb r0,@cvb_I
     D640 2087     
7066 D642 0201  20 	li r1,4352   ; 17*256
     D644 1100     
7067 D646 9040  18 	cb r0,r1
7068 D648 1402  14 	jhe cv558
7069 D64A 0460  28 	b @cv557
     D64C D622     
7070               cv558
7071               	; 	' any live dragon in the room we just left will pursue
7072               	; 	IF prn < 255 THEN IF prn <> rn THEN GOSUB dchase
7073 D64E D020  34 	movb @cvb_PRN,r0
     D650 20C4     
7074 D652 0201  20 	li r1,65280   ; 255*256
     D654 FF00     
7075 D656 9040  18 	cb r0,r1
7076 D658 1A02  14 	jl cv560
7077 D65A 0460  28 	b @cv559
     D65C D672     
7078               cv560
7079 D65E D020  34 	movb @cvb_PRN,r0
     D660 20C4     
7080 D662 9020  34 	cb @cvb_RN,r0
     D664 20E3     
7081 D666 1602  14 	jne cv562
7082 D668 0460  28 	b @cv561
     D66A D672     
7083               cv562
7084 D66C 06A0  32 	bl @jsr
     D66E A974     
7085 D670 DE64     	data cvb_DCHASE
7086               cv561
7087               cv559
7088               	; 	prn = rn
7089 D672 D820  54 	movb @cvb_RN,@cvb_PRN
     D674 20E3     
     D676 20C4     
7090               	; 	' room bitmap: 96 bytes, dispatched by label (skip-reading
7091               	; 	' rn*96 bytes would stall room entry)
7092               	; 	' rooms 23-35 whose bitmap duplicates an earlier room jump
7093               	; 	' straight to that room's loader (no separate block) - see the
7094               	; 	' bitmap-dedup note in DESIGN.md
7095               	; 	ON rn GOTO rb0, rb1, rb2, rb3, rb4, rb5, rb6, rb7, rb8, rb9, rb10, rb11, rb12, rb13, rb14, rb15, rb16, rb17, rb18, rb19, rb20, rb21, rb22, rb21, rb13, rb25, rb19, rb20, rb28, rb21, rb20, rb19, rb32, rb25, rb19, rb28, rb36, rb37, rb38
7096 D678 D020  34 	movb @cvb_RN,r0
     D67A 20E3     
7097 D67C 0280  22 	ci r0,9984   ; 39*256
     D67E 2700     
7098 D680 1A02  14 	jl cv565
7099 D682 0460  28 	b @cv564
     D684 D6E0     
7100               cv565
7101 D686 0980  32 	srl r0,8
7102 D688 0A10  18 	sla r0,1
7103 D68A C040  18 	mov r0,r1
7104 D68C C021  34 	mov @cv563(r1),r0
     D68E D692     
7105 D690 0450  20 	b *r0
7106               cv563
7107 D692 D6E0     	data cvb_RB0
7108 D694 D6EC     	data cvb_RB1
7109 D696 D6F8     	data cvb_RB2
7110 D698 D704     	data cvb_RB3
7111 D69A D710     	data cvb_RB4
7112 D69C D71C     	data cvb_RB5
7113 D69E D728     	data cvb_RB6
7114 D6A0 D734     	data cvb_RB7
7115 D6A2 D740     	data cvb_RB8
7116 D6A4 D74C     	data cvb_RB9
7117 D6A6 D758     	data cvb_RB10
7118 D6A8 D764     	data cvb_RB11
7119 D6AA D770     	data cvb_RB12
7120 D6AC D77C     	data cvb_RB13
7121 D6AE D788     	data cvb_RB14
7122 D6B0 D794     	data cvb_RB15
7123 D6B2 D7A0     	data cvb_RB16
7124 D6B4 D7AC     	data cvb_RB17
7125 D6B6 D7B8     	data cvb_RB18
7126 D6B8 D7C4     	data cvb_RB19
7127 D6BA D7D0     	data cvb_RB20
7128 D6BC D7DC     	data cvb_RB21
7129 D6BE D7E8     	data cvb_RB22
7130 D6C0 D7DC     	data cvb_RB21
7131 D6C2 D77C     	data cvb_RB13
7132 D6C4 D7F4     	data cvb_RB25
7133 D6C6 D7C4     	data cvb_RB19
7134 D6C8 D7D0     	data cvb_RB20
7135 D6CA D800     	data cvb_RB28
7136 D6CC D7DC     	data cvb_RB21
7137 D6CE D7D0     	data cvb_RB20
7138 D6D0 D7C4     	data cvb_RB19
7139 D6D2 D80C     	data cvb_RB32
7140 D6D4 D7F4     	data cvb_RB25
7141 D6D6 D7C4     	data cvb_RB19
7142 D6D8 D800     	data cvb_RB28
7143 D6DA D818     	data cvb_RB36
7144 D6DC D824     	data cvb_RB37
7145 D6DE D830     	data cvb_RB38
7146               cv564
7147               	; rb0:	RESTORE rd0
7148               cvb_RB0
7149 D6E0 0200  20 	li r0,cvb_RD0
     D6E2 F433     
7150 D6E4 C800  30 	mov r0,@read_pointer
     D6E6 8340     
7151               	; 	GOTO rbl
7152 D6E8 0460  28 	b @cvb_RBL
     D6EA D838     
7153               	; rb1:	RESTORE rd1
7154               cvb_RB1
7155 D6EC 0200  20 	li r0,cvb_RD1
     D6EE F44B     
7156 D6F0 C800  30 	mov r0,@read_pointer
     D6F2 8340     
7157               	; 	GOTO rbl
7158 D6F4 0460  28 	b @cvb_RBL
     D6F6 D838     
7159               	; rb2:	RESTORE rd2
7160               cvb_RB2
7161 D6F8 0200  20 	li r0,cvb_RD2
     D6FA F463     
7162 D6FC C800  30 	mov r0,@read_pointer
     D6FE 8340     
7163               	; 	GOTO rbl
7164 D700 0460  28 	b @cvb_RBL
     D702 D838     
7165               	; rb3:	RESTORE rd3
7166               cvb_RB3
7167 D704 0200  20 	li r0,cvb_RD3
     D706 F47B     
7168 D708 C800  30 	mov r0,@read_pointer
     D70A 8340     
7169               	; 	GOTO rbl
7170 D70C 0460  28 	b @cvb_RBL
     D70E D838     
7171               	; rb4:	RESTORE rd4
7172               cvb_RB4
7173 D710 0200  20 	li r0,cvb_RD4
     D712 F493     
7174 D714 C800  30 	mov r0,@read_pointer
     D716 8340     
7175               	; 	GOTO rbl
7176 D718 0460  28 	b @cvb_RBL
     D71A D838     
7177               	; rb5:	RESTORE rd5
7178               cvb_RB5
7179 D71C 0200  20 	li r0,cvb_RD5
     D71E F4AB     
7180 D720 C800  30 	mov r0,@read_pointer
     D722 8340     
7181               	; 	GOTO rbl
7182 D724 0460  28 	b @cvb_RBL
     D726 D838     
7183               	; rb6:	RESTORE rd6
7184               cvb_RB6
7185 D728 0200  20 	li r0,cvb_RD6
     D72A F4C3     
7186 D72C C800  30 	mov r0,@read_pointer
     D72E 8340     
7187               	; 	GOTO rbl
7188 D730 0460  28 	b @cvb_RBL
     D732 D838     
7189               	; rb7:	RESTORE rd7
7190               cvb_RB7
7191 D734 0200  20 	li r0,cvb_RD7
     D736 F4DB     
7192 D738 C800  30 	mov r0,@read_pointer
     D73A 8340     
7193               	; 	GOTO rbl
7194 D73C 0460  28 	b @cvb_RBL
     D73E D838     
7195               	; rb8:	RESTORE rd8
7196               cvb_RB8
7197 D740 0200  20 	li r0,cvb_RD8
     D742 F4F3     
7198 D744 C800  30 	mov r0,@read_pointer
     D746 8340     
7199               	; 	GOTO rbl
7200 D748 0460  28 	b @cvb_RBL
     D74A D838     
7201               	; rb9:	RESTORE rd9
7202               cvb_RB9
7203 D74C 0200  20 	li r0,cvb_RD9
     D74E F50B     
7204 D750 C800  30 	mov r0,@read_pointer
     D752 8340     
7205               	; 	GOTO rbl
7206 D754 0460  28 	b @cvb_RBL
     D756 D838     
7207               	; rb10:	RESTORE rd10
7208               cvb_RB10
7209 D758 0200  20 	li r0,cvb_RD10
     D75A F523     
7210 D75C C800  30 	mov r0,@read_pointer
     D75E 8340     
7211               	; 	GOTO rbl
7212 D760 0460  28 	b @cvb_RBL
     D762 D838     
7213               	; rb11:	RESTORE rd11
7214               cvb_RB11
7215 D764 0200  20 	li r0,cvb_RD11
     D766 F53B     
7216 D768 C800  30 	mov r0,@read_pointer
     D76A 8340     
7217               	; 	GOTO rbl
7218 D76C 0460  28 	b @cvb_RBL
     D76E D838     
7219               	; rb12:	RESTORE rd12
7220               cvb_RB12
7221 D770 0200  20 	li r0,cvb_RD12
     D772 F553     
7222 D774 C800  30 	mov r0,@read_pointer
     D776 8340     
7223               	; 	GOTO rbl
7224 D778 0460  28 	b @cvb_RBL
     D77A D838     
7225               	; rb13:	RESTORE rd13
7226               cvb_RB13
7227 D77C 0200  20 	li r0,cvb_RD13
     D77E F56B     
7228 D780 C800  30 	mov r0,@read_pointer
     D782 8340     
7229               	; 	GOTO rbl
7230 D784 0460  28 	b @cvb_RBL
     D786 D838     
7231               	; rb14:	RESTORE rd14
7232               cvb_RB14
7233 D788 0200  20 	li r0,cvb_RD14
     D78A F583     
7234 D78C C800  30 	mov r0,@read_pointer
     D78E 8340     
7235               	; 	GOTO rbl
7236 D790 0460  28 	b @cvb_RBL
     D792 D838     
7237               	; rb15:	RESTORE rd15
7238               cvb_RB15
7239 D794 0200  20 	li r0,cvb_RD15
     D796 F59B     
7240 D798 C800  30 	mov r0,@read_pointer
     D79A 8340     
7241               	; 	GOTO rbl
7242 D79C 0460  28 	b @cvb_RBL
     D79E D838     
7243               	; rb16:	RESTORE rd16
7244               cvb_RB16
7245 D7A0 0200  20 	li r0,cvb_RD16
     D7A2 F5B3     
7246 D7A4 C800  30 	mov r0,@read_pointer
     D7A6 8340     
7247               	; 	GOTO rbl
7248 D7A8 0460  28 	b @cvb_RBL
     D7AA D838     
7249               	; rb17:	RESTORE rd17
7250               cvb_RB17
7251 D7AC 0200  20 	li r0,cvb_RD17
     D7AE F5CB     
7252 D7B0 C800  30 	mov r0,@read_pointer
     D7B2 8340     
7253               	; 	GOTO rbl
7254 D7B4 0460  28 	b @cvb_RBL
     D7B6 D838     
7255               	; rb18:	RESTORE rd18
7256               cvb_RB18
7257 D7B8 0200  20 	li r0,cvb_RD18
     D7BA F5E3     
7258 D7BC C800  30 	mov r0,@read_pointer
     D7BE 8340     
7259               	; 	GOTO rbl
7260 D7C0 0460  28 	b @cvb_RBL
     D7C2 D838     
7261               	; rb19:	RESTORE rd19
7262               cvb_RB19
7263 D7C4 0200  20 	li r0,cvb_RD19
     D7C6 F5FB     
7264 D7C8 C800  30 	mov r0,@read_pointer
     D7CA 8340     
7265               	; 	GOTO rbl
7266 D7CC 0460  28 	b @cvb_RBL
     D7CE D838     
7267               	; rb20:	RESTORE rd20
7268               cvb_RB20
7269 D7D0 0200  20 	li r0,cvb_RD20
     D7D2 F613     
7270 D7D4 C800  30 	mov r0,@read_pointer
     D7D6 8340     
7271               	; 	GOTO rbl
7272 D7D8 0460  28 	b @cvb_RBL
     D7DA D838     
7273               	; rb21:	RESTORE rd21
7274               cvb_RB21
7275 D7DC 0200  20 	li r0,cvb_RD21
     D7DE F62B     
7276 D7E0 C800  30 	mov r0,@read_pointer
     D7E2 8340     
7277               	; 	GOTO rbl
7278 D7E4 0460  28 	b @cvb_RBL
     D7E6 D838     
7279               	; rb22:	RESTORE rd22
7280               cvb_RB22
7281 D7E8 0200  20 	li r0,cvb_RD22
     D7EA F643     
7282 D7EC C800  30 	mov r0,@read_pointer
     D7EE 8340     
7283               	; 	GOTO rbl
7284 D7F0 0460  28 	b @cvb_RBL
     D7F2 D838     
7285               	; rb25:	RESTORE rd25
7286               cvb_RB25
7287 D7F4 0200  20 	li r0,cvb_RD25
     D7F6 F65B     
7288 D7F8 C800  30 	mov r0,@read_pointer
     D7FA 8340     
7289               	; 	GOTO rbl
7290 D7FC 0460  28 	b @cvb_RBL
     D7FE D838     
7291               	; rb28:	RESTORE rd28
7292               cvb_RB28
7293 D800 0200  20 	li r0,cvb_RD28
     D802 F673     
7294 D804 C800  30 	mov r0,@read_pointer
     D806 8340     
7295               	; 	GOTO rbl
7296 D808 0460  28 	b @cvb_RBL
     D80A D838     
7297               	; rb32:	RESTORE rd32
7298               cvb_RB32
7299 D80C 0200  20 	li r0,cvb_RD32
     D80E F68B     
7300 D810 C800  30 	mov r0,@read_pointer
     D812 8340     
7301               	; 	GOTO rbl
7302 D814 0460  28 	b @cvb_RBL
     D816 D838     
7303               	; rb36:	RESTORE rd36
7304               cvb_RB36
7305 D818 0200  20 	li r0,cvb_RD36
     D81A F6A3     
7306 D81C C800  30 	mov r0,@read_pointer
     D81E 8340     
7307               	; 	GOTO rbl
7308 D820 0460  28 	b @cvb_RBL
     D822 D838     
7309               	; rb37:	RESTORE rd37
7310               cvb_RB37
7311 D824 0200  20 	li r0,cvb_RD37
     D826 F6BB     
7312 D828 C800  30 	mov r0,@read_pointer
     D82A 8340     
7313               	; 	GOTO rbl
7314 D82C 0460  28 	b @cvb_RBL
     D82E D838     
7315               	; rb38:	RESTORE rd38
7316               cvb_RB38
7317 D830 0200  20 	li r0,cvb_RD38
     D832 F6D3     
7318 D834 C800  30 	mov r0,@read_pointer
     D836 8340     
7319               	; rbl:
7320               cvb_RBL
7321               	; 	' expand the room's 24 row-indices into rm() via the dictionary.
7322               	; 	' #o (16-bit) = index*4: an 8-bit t*4 wraps for indices >=64.
7323               	; 	FOR r = 0 TO 23
7324 D838 04C0  14 	clr r0
7325 D83A D800  38 	movb r0,@cvb_R
     D83C 208B     
7326               cv566
7327               	; 	READ BYTE t
7328 D83E C060  30 	mov @read_pointer,r1
     D840 8340     
7329 D842 D011  26 	movb *r1,r0
7330 D844 05A0  26 	inc @read_pointer
     D846 8340     
7331 D848 D800  38 	movb r0,@cvb_T
     D84A 208C     
7332               	; 	#o = t : #o = #o * 4 : t2 = r * 4
7333 D84C 0980  32 	srl r0,8
7334 D84E C800  38 	mov r0,@cvb__O
     D850 20A6     
7335 D852 0A20  20 	sla r0,2
7336 D854 C800  38 	mov r0,@cvb__O
     D856 20A6     
7337 D858 D020  34 	movb @cvb_R,r0
     D85A 208B     
7338 D85C 0240  22 	andi r0,>ff00
     D85E FF00     
7339 D860 0A20  20 	sla r0,2
7340 D862 D800  38 	movb r0,@cvb_T2
     D864 20E1     
7341               	; 	rm(t2) = rowd(#o) : rm(t2 + 1) = rowd(#o + 1) : rm(t2 + 2) = rowd(#o + 2) : rm(t2 + 3) = rowd(#o + 3)
7342 D866 C020  34 	mov @cvb__O,r0
     D868 20A6     
7343 D86A 0220  22 	ai r0,array_ROWD
     D86C 2132     
7344 D86E D050  26 	movb *r0,r1
7345 D870 D020  34 	movb @cvb_T2,r0
     D872 20E1     
7346 D874 0980  32 	srl r0,8
7347 D876 0220  22 	ai r0,array_RM
     D878 225A     
7348 D87A D401  30 	movb r1,*r0
7349 D87C C020  34 	mov @cvb__O,r0
     D87E 20A6     
7350 D880 0580  14 	inc r0
7351 D882 0220  22 	ai r0,array_ROWD
     D884 2132     
7352 D886 D050  26 	movb *r0,r1
7353 D888 D020  34 	movb @cvb_T2,r0
     D88A 20E1     
7354 D88C 0980  32 	srl r0,8
7355 D88E 0580  14 	inc r0
7356 D890 0220  22 	ai r0,array_RM
     D892 225A     
7357 D894 D401  30 	movb r1,*r0
7358 D896 C020  34 	mov @cvb__O,r0
     D898 20A6     
7359 D89A 05C0  14 	inct r0
7360 D89C 0220  22 	ai r0,array_ROWD
     D89E 2132     
7361 D8A0 D050  26 	movb *r0,r1
7362 D8A2 D020  34 	movb @cvb_T2,r0
     D8A4 20E1     
7363 D8A6 0980  32 	srl r0,8
7364 D8A8 05C0  14 	inct r0
7365 D8AA 0220  22 	ai r0,array_RM
     D8AC 225A     
7366 D8AE D401  30 	movb r1,*r0
7367 D8B0 C020  34 	mov @cvb__O,r0
     D8B2 20A6     
7368 D8B4 0220  22 	ai r0,3
     D8B6 0003     
7369 D8B8 0220  22 	ai r0,array_ROWD
     D8BA 2132     
7370 D8BC D050  26 	movb *r0,r1
7371 D8BE D020  34 	movb @cvb_T2,r0
     D8C0 20E1     
7372 D8C2 0980  32 	srl r0,8
7373 D8C4 0220  22 	ai r0,3
     D8C6 0003     
7374 D8C8 0220  22 	ai r0,array_RM
     D8CA 225A     
7375 D8CC D401  30 	movb r1,*r0
7376               	; 	NEXT r
7377 D8CE D020  34 	movb @cvb_R,r0
     D8D0 208B     
7378 D8D2 0220  22 	ai r0,256	; 1
     D8D4 0100     
7379 D8D6 D800  38 	movb r0,@cvb_R
     D8D8 208B     
7380 D8DA 0201  20 	li r1,6144   ; 24*256
     D8DC 1800     
7381 D8DE 9040  18 	cb r0,r1
7382 D8E0 1402  14 	jhe cv567
7383 D8E2 0460  28 	b @cv566
     D8E4 D83E     
7384               cv567
7385               	; 	' wall colour per room (1 byte); bg + dark are computed - every
7386               	; 	' room is on GRAY (14) in the light, and only the six contiguous
7387               	; 	' dark rooms 26-31 (games 3/4) use black bg + fog
7388               	; 	IF gm = 1 THEN RESTORE colc ELSE RESTORE cola
7389 D8E6 D020  34 	movb @cvb_GM,r0
     D8E8 20D7     
7390 D8EA 0201  20 	li r1,256   ; 1*256
     D8EC 0100     
7391 D8EE 9001  18 	cb r1,r0
7392 D8F0 1302  14 	jeq cv569
7393 D8F2 0460  28 	b @cv568
     D8F4 D902     
7394               cv569
7395 D8F6 0200  20 	li r0,cvb_COLC
     D8F8 F26C     
7396 D8FA C800  30 	mov r0,@read_pointer
     D8FC 8340     
7397 D8FE 0460  28 	b @cv570
     D900 D90A     
7398               cv568
7399 D902 0200  20 	li r0,cvb_COLA
     D904 F279     
7400 D906 C800  30 	mov r0,@read_pointer
     D908 8340     
7401               cv570
7402               	; 	i2 = rn : IF gm > 1 THEN i2 = rn - 13
7403 D90A D820  54 	movb @cvb_RN,@cvb_I2
     D90C 20E3     
     D90E 20D6     
7404 D910 D020  34 	movb @cvb_GM,r0
     D912 20D7     
7405 D914 0201  20 	li r1,512   ; 2*256
     D916 0200     
7406 D918 9040  18 	cb r0,r1
7407 D91A 1402  14 	jhe cv572
7408 D91C 0460  28 	b @cv571
     D91E D92C     
7409               cv572
7410 D920 D020  34 	movb @cvb_RN,r0
     D922 20E3     
7411 D924 0220  22 	ai r0,62208	; -13
     D926 F300     
7412 D928 D800  38 	movb r0,@cvb_I2
     D92A 20D6     
7413               cv571
7414               	; 	WHILE i2 > 0 : READ BYTE t : i2 = i2 - 1 : WEND
7415               cv573
7416 D92C D020  34 	movb @cvb_I2,r0
     D92E 20D6     
7417 D930 0201  20 	li r1,256   ; 1*256
     D932 0100     
7418 D934 9040  18 	cb r0,r1
7419 D936 1402  14 	jhe cv575
7420 D938 0460  28 	b @cv574
     D93A D95A     
7421               cv575
7422 D93C C060  30 	mov @read_pointer,r1
     D93E 8340     
7423 D940 D011  26 	movb *r1,r0
7424 D942 05A0  26 	inc @read_pointer
     D944 8340     
7425 D946 D800  38 	movb r0,@cvb_T
     D948 208C     
7426 D94A D020  34 	movb @cvb_I2,r0
     D94C 20D6     
7427 D94E 0220  22 	ai r0,65280	; -1
     D950 FF00     
7428 D952 D800  38 	movb r0,@cvb_I2
     D954 20D6     
7429 D956 0460  28 	b @cv573
     D958 D92C     
7430               cv574
7431               	; 	READ BYTE cw
7432 D95A C060  30 	mov @read_pointer,r1
     D95C 8340     
7433 D95E D011  26 	movb *r1,r0
7434 D960 05A0  26 	inc @read_pointer
     D962 8340     
7435 D964 D800  38 	movb r0,@cvb_CW
     D966 20D2     
7436               	; 	cb = 14 : drk = 0
7437 D968 0200  20 	li r0,3584   ; 14*256
     D96A 0E00     
7438 D96C D800  38 	movb r0,@cvb_CB
     D96E 20CD     
7439 D970 04C0  14 	clr r0
7440 D972 D800  38 	movb r0,@cvb_DRK
     D974 20A3     
7441               	; 	IF gm > 2 THEN IF rn > 25 THEN IF rn < 32 THEN cb = 1 : drk = 1
7442 D976 D020  34 	movb @cvb_GM,r0
     D978 20D7     
7443 D97A 0201  20 	li r1,768   ; 3*256
     D97C 0300     
7444 D97E 9040  18 	cb r0,r1
7445 D980 1402  14 	jhe cv577
7446 D982 0460  28 	b @cv576
     D984 D9B6     
7447               cv577
7448 D986 D020  34 	movb @cvb_RN,r0
     D988 20E3     
7449 D98A 0201  20 	li r1,6656   ; 26*256
     D98C 1A00     
7450 D98E 9040  18 	cb r0,r1
7451 D990 1402  14 	jhe cv579
7452 D992 0460  28 	b @cv578
     D994 D9B6     
7453               cv579
7454 D996 D020  34 	movb @cvb_RN,r0
     D998 20E3     
7455 D99A 0201  20 	li r1,8192   ; 32*256
     D99C 2000     
7456 D99E 9040  18 	cb r0,r1
7457 D9A0 1A02  14 	jl cv581
7458 D9A2 0460  28 	b @cv580
     D9A4 D9B6     
7459               cv581
7460 D9A6 0200  20 	li r0,256   ; 1*256
     D9A8 0100     
7461 D9AA D800  38 	movb r0,@cvb_CB
     D9AC 20CD     
7462 D9AE 0200  20 	li r0,256   ; 1*256
     D9B0 0100     
7463 D9B2 D800  38 	movb r0,@cvb_DRK
     D9B4 20A3     
7464               cv580
7465               cv578
7466               cv576
7467               	; 	' wall char 128: fg=wall, bg=room bg;
7468               	; 	' portcullis 129: castle doors are always BLACK
7469               	; 	t = cw * 16 + cb
7470 D9B6 D020  34 	movb @cvb_CB,r0
     D9B8 20CD     
7471 D9BA 0980  32 	srl r0,8
7472 D9BC C040  18 	mov r0,r1
7473 D9BE D020  34 	movb @cvb_CW,r0
     D9C0 20D2     
7474 D9C2 0980  32 	srl r0,8
7475 D9C4 0A40  24 	sla r0,4
7476 D9C6 A001  18 	a r1,r0
7477 D9C8 0A80  32 	sla r0,8
7478 D9CA D800  38 	movb r0,@cvb_T
     D9CC 208C     
7479               	; 	t2 = 16 + cb
7480 D9CE D020  34 	movb @cvb_CB,r0
     D9D0 20CD     
7481 D9D2 0220  22 	ai r0,4096	; 16
     D9D4 1000     
7482 D9D6 D800  38 	movb r0,@cvb_T2
     D9D8 20E1     
7483               	; 	FOR i = 0 TO 7
7484 D9DA 04C0  14 	clr r0
7485 D9DC D800  38 	movb r0,@cvb_I
     D9DE 2087     
7486               cv582
7487               	; 	VPOKE $2400 + i, t : VPOKE $2C00 + i, t : VPOKE $3400 + i, t
7488 D9E0 D020  34 	movb @cvb_T,r0
     D9E2 208C     
7489 D9E4 064A  14 	dect r10
7490 D9E6 C680  30 	mov r0,*r10
7491 D9E8 D020  34 	movb @cvb_I,r0
     D9EA 2087     
7492 D9EC 0980  32 	srl r0,8
7493 D9EE 0220  22 	ai r0,9216
     D9F0 2400     
7494 D9F2 C0BA  30 	mov *r10+,r2
7495 D9F4 0300  22 	limi 0
     D9F6 0000     
7496 D9F8 06A0  32 	bl @JSR
     D9FA A974     
7497 D9FC A018     	data WRTVRM
7498 D9FE 0300  22 	limi 2
     DA00 0002     
7499 DA02 D020  34 	movb @cvb_T,r0
     DA04 208C     
7500 DA06 064A  14 	dect r10
7501 DA08 C680  30 	mov r0,*r10
7502 DA0A D020  34 	movb @cvb_I,r0
     DA0C 2087     
7503 DA0E 0980  32 	srl r0,8
7504 DA10 0220  22 	ai r0,11264
     DA12 2C00     
7505 DA14 C0BA  30 	mov *r10+,r2
7506 DA16 0300  22 	limi 0
     DA18 0000     
7507 DA1A 06A0  32 	bl @JSR
     DA1C A974     
7508 DA1E A018     	data WRTVRM
7509 DA20 0300  22 	limi 2
     DA22 0002     
7510 DA24 D020  34 	movb @cvb_T,r0
     DA26 208C     
7511 DA28 064A  14 	dect r10
7512 DA2A C680  30 	mov r0,*r10
7513 DA2C D020  34 	movb @cvb_I,r0
     DA2E 2087     
7514 DA30 0980  32 	srl r0,8
7515 DA32 0220  22 	ai r0,13312
     DA34 3400     
7516 DA36 C0BA  30 	mov *r10+,r2
7517 DA38 0300  22 	limi 0
     DA3A 0000     
7518 DA3C 06A0  32 	bl @JSR
     DA3E A974     
7519 DA40 A018     	data WRTVRM
7520 DA42 0300  22 	limi 2
     DA44 0002     
7521               	; 	VPOKE $2408 + i, t2 : VPOKE $2C08 + i, t2 : VPOKE $3408 + i, t2
7522 DA46 D020  34 	movb @cvb_T2,r0
     DA48 20E1     
7523 DA4A 064A  14 	dect r10
7524 DA4C C680  30 	mov r0,*r10
7525 DA4E D020  34 	movb @cvb_I,r0
     DA50 2087     
7526 DA52 0980  32 	srl r0,8
7527 DA54 0220  22 	ai r0,9224
     DA56 2408     
7528 DA58 C0BA  30 	mov *r10+,r2
7529 DA5A 0300  22 	limi 0
     DA5C 0000     
7530 DA5E 06A0  32 	bl @JSR
     DA60 A974     
7531 DA62 A018     	data WRTVRM
7532 DA64 0300  22 	limi 2
     DA66 0002     
7533 DA68 D020  34 	movb @cvb_T2,r0
     DA6A 20E1     
7534 DA6C 064A  14 	dect r10
7535 DA6E C680  30 	mov r0,*r10
7536 DA70 D020  34 	movb @cvb_I,r0
     DA72 2087     
7537 DA74 0980  32 	srl r0,8
7538 DA76 0220  22 	ai r0,11272
     DA78 2C08     
7539 DA7A C0BA  30 	mov *r10+,r2
7540 DA7C 0300  22 	limi 0
     DA7E 0000     
7541 DA80 06A0  32 	bl @JSR
     DA82 A974     
7542 DA84 A018     	data WRTVRM
7543 DA86 0300  22 	limi 2
     DA88 0002     
7544 DA8A D020  34 	movb @cvb_T2,r0
     DA8C 20E1     
7545 DA8E 064A  14 	dect r10
7546 DA90 C680  30 	mov r0,*r10
7547 DA92 D020  34 	movb @cvb_I,r0
     DA94 2087     
7548 DA96 0980  32 	srl r0,8
7549 DA98 0220  22 	ai r0,13320
     DA9A 3408     
7550 DA9C C0BA  30 	mov *r10+,r2
7551 DA9E 0300  22 	limi 0
     DAA0 0000     
7552 DAA2 06A0  32 	bl @JSR
     DAA4 A974     
7553 DAA6 A018     	data WRTVRM
7554 DAA8 0300  22 	limi 2
     DAAA 0002     
7555               	; 	NEXT i
7556 DAAC D020  34 	movb @cvb_I,r0
     DAAE 2087     
7557 DAB0 0220  22 	ai r0,256	; 1
     DAB2 0100     
7558 DAB4 D800  38 	movb r0,@cvb_I
     DAB6 2087     
7559 DAB8 0201  20 	li r1,2048   ; 8*256
     DABA 0800     
7560 DABC 9040  18 	cb r0,r1
7561 DABE 1402  14 	jhe cv583
7562 DAC0 0460  28 	b @cv582
     DAC2 D9E0     
7563               cv583
7564               	; 	' the player square wears the room's wall colour, exactly
7565               	; 	' like the original avatar (walls always contrast with the
7566               	; 	' background, so it stays visible everywhere)
7567               	; 	pcol = cw
7568 DAC4 D820  54 	movb @cvb_CW,@cvb_PCOL
     DAC6 20D2     
     DAC8 20D1     
7569               	; 	' empty cells (char 32) show the background colour
7570               	; 	FOR i = 0 TO 7
7571 DACA 04C0  14 	clr r0
7572 DACC D800  38 	movb r0,@cvb_I
     DACE 2087     
7573               cv584
7574               	; 	VPOKE $2100 + i, cb : VPOKE $2900 + i, cb : VPOKE $3100 + i, cb
7575 DAD0 D020  34 	movb @cvb_CB,r0
     DAD2 20CD     
7576 DAD4 064A  14 	dect r10
7577 DAD6 C680  30 	mov r0,*r10
7578 DAD8 D020  34 	movb @cvb_I,r0
     DADA 2087     
7579 DADC 0980  32 	srl r0,8
7580 DADE 0220  22 	ai r0,8448
     DAE0 2100     
7581 DAE2 C0BA  30 	mov *r10+,r2
7582 DAE4 0300  22 	limi 0
     DAE6 0000     
7583 DAE8 06A0  32 	bl @JSR
     DAEA A974     
7584 DAEC A018     	data WRTVRM
7585 DAEE 0300  22 	limi 2
     DAF0 0002     
7586 DAF2 D020  34 	movb @cvb_CB,r0
     DAF4 20CD     
7587 DAF6 064A  14 	dect r10
7588 DAF8 C680  30 	mov r0,*r10
7589 DAFA D020  34 	movb @cvb_I,r0
     DAFC 2087     
7590 DAFE 0980  32 	srl r0,8
7591 DB00 0220  22 	ai r0,10496
     DB02 2900     
7592 DB04 C0BA  30 	mov *r10+,r2
7593 DB06 0300  22 	limi 0
     DB08 0000     
7594 DB0A 06A0  32 	bl @JSR
     DB0C A974     
7595 DB0E A018     	data WRTVRM
7596 DB10 0300  22 	limi 2
     DB12 0002     
7597 DB14 D020  34 	movb @cvb_CB,r0
     DB16 20CD     
7598 DB18 064A  14 	dect r10
7599 DB1A C680  30 	mov r0,*r10
7600 DB1C D020  34 	movb @cvb_I,r0
     DB1E 2087     
7601 DB20 0980  32 	srl r0,8
7602 DB22 0220  22 	ai r0,12544
     DB24 3100     
7603 DB26 C0BA  30 	mov *r10+,r2
7604 DB28 0300  22 	limi 0
     DB2A 0000     
7605 DB2C 06A0  32 	bl @JSR
     DB2E A974     
7606 DB30 A018     	data WRTVRM
7607 DB32 0300  22 	limi 2
     DB34 0002     
7608               	; 	NEXT i
7609 DB36 D020  34 	movb @cvb_I,r0
     DB38 2087     
7610 DB3A 0220  22 	ai r0,256	; 1
     DB3C 0100     
7611 DB3E D800  38 	movb r0,@cvb_I
     DB40 2087     
7612 DB42 0201  20 	li r1,2048   ; 8*256
     DB44 0800     
7613 DB46 9040  18 	cb r0,r1
7614 DB48 1402  14 	jhe cv585
7615 DB4A 0460  28 	b @cv584
     DB4C DAD0     
7616               cv585
7617               	; 	BORDER cb
7618 DB4E D020  34 	movb @cvb_CB,r0
     DB50 20CD     
7619 DB52 0980  32 	srl r0,8
7620 DB54 0260  22 	ori r0,>8700
     DB56 8700     
7621 DB58 06C0  14 	swpb r0
7622 DB5A 0300  22 	limi 0
     DB5C 0000     
7623 DB5E D800  30 	movb r0,@VDPWADR
     DB60 8C02     
7624 DB62 06C0  14 	swpb r0
7625 DB64 D800  30 	movb r0,@VDPWADR
     DB66 8C02     
7626 DB68 0300  22 	limi 2
     DB6A 0002     
7627               	; 	' player links cached for the exit routines
7628               	; 	lkr = rn
7629 DB6C D820  54 	movb @cvb_RN,@cvb_LKR
     DB6E 20E3     
     DB70 209A     
7630               	; 	GOSUB getlnk
7631 DB72 06A0  32 	bl @jsr
     DB74 A974     
7632 DB76 D51C     	data cvb_GETLNK
7633               	; 	pn = lkn : pe = lke : ps = lks : pw = lkw
7634 DB78 D820  54 	movb @cvb_LKN,@cvb_PN
     DB7A 2097     
     DB7C 20DC     
7635 DB7E D820  54 	movb @cvb_LKE,@cvb_PE
     DB80 2095     
     DB82 20D9     
7636 DB84 D820  54 	movb @cvb_LKS,@cvb_PS
     DB86 209B     
     DB88 20DD     
7637 DB8A D820  54 	movb @cvb_LKW,@cvb_PW
     DB8C 209C     
     DB8E 20DE     
7638               	; 	' seal any doorway whose exit leads nowhere in THIS game, so
7639               	; 	' collision and visuals agree (game 2 shares screens with the
7640               	; 	' full kingdom but links fewer of them)
7641               	; 	IF pn = 255 THEN rm(0) = 255 : rm(1) = 255 : rm(2) = 255 : rm(3) = 255
7642 DB90 D020  34 	movb @cvb_PN,r0
     DB92 20DC     
7643 DB94 0201  20 	li r1,65280   ; 255*256
     DB96 FF00     
7644 DB98 9001  18 	cb r1,r0
7645 DB9A 1302  14 	jeq cv587
7646 DB9C 0460  28 	b @cv586
     DB9E DBC0     
7647               cv587
7648 DBA0 0200  20 	li r0,65280   ; 255*256
     DBA2 FF00     
7649 DBA4 D800  38 	movb r0,@array_RM
     DBA6 225A     
7650 DBA8 0200  20 	li r0,65280   ; 255*256
     DBAA FF00     
7651 DBAC D800  38 	movb r0,@array_RM+1
     DBAE 225B     
7652 DBB0 0200  20 	li r0,65280   ; 255*256
     DBB2 FF00     
7653 DBB4 D800  38 	movb r0,@array_RM+2
     DBB6 225C     
7654 DBB8 0200  20 	li r0,65280   ; 255*256
     DBBA FF00     
7655 DBBC D800  38 	movb r0,@array_RM+3
     DBBE 225D     
7656               cv586
7657               	; 	IF ps = 255 THEN rm(92) = 255 : rm(93) = 255 : rm(94) = 255 : rm(95) = 255
7658 DBC0 D020  34 	movb @cvb_PS,r0
     DBC2 20DD     
7659 DBC4 0201  20 	li r1,65280   ; 255*256
     DBC6 FF00     
7660 DBC8 9001  18 	cb r1,r0
7661 DBCA 1302  14 	jeq cv589
7662 DBCC 0460  28 	b @cv588
     DBCE DBF0     
7663               cv589
7664 DBD0 0200  20 	li r0,65280   ; 255*256
     DBD2 FF00     
7665 DBD4 D800  38 	movb r0,@array_RM+92
     DBD6 22B6     
7666 DBD8 0200  20 	li r0,65280   ; 255*256
     DBDA FF00     
7667 DBDC D800  38 	movb r0,@array_RM+93
     DBDE 22B7     
7668 DBE0 0200  20 	li r0,65280   ; 255*256
     DBE2 FF00     
7669 DBE4 D800  38 	movb r0,@array_RM+94
     DBE6 22B8     
7670 DBE8 0200  20 	li r0,65280   ; 255*256
     DBEA FF00     
7671 DBEC D800  38 	movb r0,@array_RM+95
     DBEE 22B9     
7672               cv588
7673               	; 	IF pe = 255 THEN FOR i = 0 TO 23 : rm(i * 4 + 3) = rm(i * 4 + 3) OR 3 : NEXT i
7674 DBF0 D020  34 	movb @cvb_PE,r0
     DBF2 20D9     
7675 DBF4 0201  20 	li r1,65280   ; 255*256
     DBF6 FF00     
7676 DBF8 9001  18 	cb r1,r0
7677 DBFA 1302  14 	jeq cv591
7678 DBFC 0460  28 	b @cv590
     DBFE DC4A     
7679               cv591
7680 DC00 04C0  14 	clr r0
7681 DC02 D800  38 	movb r0,@cvb_I
     DC04 2087     
7682               cv592
7683 DC06 D020  34 	movb @cvb_I,r0
     DC08 2087     
7684 DC0A 0980  32 	srl r0,8
7685 DC0C 0A20  20 	sla r0,2
7686 DC0E 0220  22 	ai r0,3
     DC10 0003     
7687 DC12 0220  22 	ai r0,array_RM
     DC14 225A     
7688 DC16 D010  26 	movb *r0,r0
7689 DC18 0201  20 	li r1,768   ; 3*256
     DC1A 0300     
7690 DC1C F001  18 	socb r1,r0
7691 DC1E C040  18 	mov r0,r1
7692 DC20 D020  34 	movb @cvb_I,r0
     DC22 2087     
7693 DC24 0980  32 	srl r0,8
7694 DC26 0A20  20 	sla r0,2
7695 DC28 0220  22 	ai r0,3
     DC2A 0003     
7696 DC2C 0220  22 	ai r0,array_RM
     DC2E 225A     
7697 DC30 D401  30 	movb r1,*r0
7698 DC32 D020  34 	movb @cvb_I,r0
     DC34 2087     
7699 DC36 0220  22 	ai r0,256	; 1
     DC38 0100     
7700 DC3A D800  38 	movb r0,@cvb_I
     DC3C 2087     
7701 DC3E 0201  20 	li r1,6144   ; 24*256
     DC40 1800     
7702 DC42 9040  18 	cb r0,r1
7703 DC44 1402  14 	jhe cv593
7704 DC46 0460  28 	b @cv592
     DC48 DC06     
7705               cv593
7706               cv590
7707               	; 	IF pw = 255 THEN FOR i = 0 TO 23 : rm(i * 4) = rm(i * 4) OR $C0 : NEXT i
7708 DC4A D020  34 	movb @cvb_PW,r0
     DC4C 20DE     
7709 DC4E 0201  20 	li r1,65280   ; 255*256
     DC50 FF00     
7710 DC52 9001  18 	cb r1,r0
7711 DC54 1302  14 	jeq cv595
7712 DC56 0460  28 	b @cv594
     DC58 DC9C     
7713               cv595
7714 DC5A 04C0  14 	clr r0
7715 DC5C D800  38 	movb r0,@cvb_I
     DC5E 2087     
7716               cv596
7717 DC60 D020  34 	movb @cvb_I,r0
     DC62 2087     
7718 DC64 0980  32 	srl r0,8
7719 DC66 0A20  20 	sla r0,2
7720 DC68 0220  22 	ai r0,array_RM
     DC6A 225A     
7721 DC6C D010  26 	movb *r0,r0
7722 DC6E 0201  20 	li r1,49152   ; 192*256
     DC70 C000     
7723 DC72 F001  18 	socb r1,r0
7724 DC74 C040  18 	mov r0,r1
7725 DC76 D020  34 	movb @cvb_I,r0
     DC78 2087     
7726 DC7A 0980  32 	srl r0,8
7727 DC7C 0A20  20 	sla r0,2
7728 DC7E 0220  22 	ai r0,array_RM
     DC80 225A     
7729 DC82 D401  30 	movb r1,*r0
7730 DC84 D020  34 	movb @cvb_I,r0
     DC86 2087     
7731 DC88 0220  22 	ai r0,256	; 1
     DC8A 0100     
7732 DC8C D800  38 	movb r0,@cvb_I
     DC8E 2087     
7733 DC90 0201  20 	li r1,6144   ; 24*256
     DC92 1800     
7734 DC94 9040  18 	cb r0,r1
7735 DC96 1402  14 	jhe cv597
7736 DC98 0460  28 	b @cv596
     DC9A DC60     
7737               cv597
7738               cv594
7739               	; 	CLS
7740 DC9C 06A0  32 	bl @jsr
     DC9E A974     
7741 DCA0 A0FC     	data cls
7742               	; 	fon = 0
7743 DCA2 04C0  14 	clr r0
7744 DCA4 D800  38 	movb r0,@cvb_FON
     DCA6 20AF     
7745               	; 	IF drk = 1 THEN GOSUB fogenter ELSE GOSUB drawroom
7746 DCA8 D020  34 	movb @cvb_DRK,r0
     DCAA 20A3     
7747 DCAC 0201  20 	li r1,256   ; 1*256
     DCAE 0100     
7748 DCB0 9001  18 	cb r1,r0
7749 DCB2 1302  14 	jeq cv599
7750 DCB4 0460  28 	b @cv598
     DCB6 DCC2     
7751               cv599
7752 DCB8 06A0  32 	bl @jsr
     DCBA A974     
7753 DCBC E01E     	data cvb_FOGENTER
7754 DCBE 0460  28 	b @cv600
     DCC0 DCC8     
7755               cv598
7756 DCC2 06A0  32 	bl @jsr
     DCC4 A974     
7757 DCC6 DEE4     	data cvb_DRAWROOM
7758               cv600
7759               	; 	gz = 0 : gopn = 0
7760 DCC8 04C0  14 	clr r0
7761 DCCA D800  38 	movb r0,@cvb_GZ
     DCCC 20D8     
7762 DCCE 04C0  14 	clr r0
7763 DCD0 D800  38 	movb r0,@cvb_GOPN
     DCD2 209D     
7764               	; 	IF rn = 0 THEN gz = 1
7765 DCD4 D020  34 	movb @cvb_RN,r0
     DCD6 20E3     
7766 DCD8 1302  14 	jeq cv602
7767 DCDA 0460  28 	b @cv601
     DCDC DCE6     
7768               cv602
7769 DCDE 0200  20 	li r0,256   ; 1*256
     DCE0 0100     
7770 DCE2 D800  38 	movb r0,@cvb_GZ
     DCE4 20D8     
7771               cv601
7772               	; 	IF rn = 13 THEN gz = 1
7773 DCE6 D020  34 	movb @cvb_RN,r0
     DCE8 20E3     
7774 DCEA 0201  20 	li r1,3328   ; 13*256
     DCEC 0D00     
7775 DCEE 9001  18 	cb r1,r0
7776 DCF0 1302  14 	jeq cv604
7777 DCF2 0460  28 	b @cv603
     DCF4 DCFE     
7778               cv604
7779 DCF6 0200  20 	li r0,256   ; 1*256
     DCF8 0100     
7780 DCFA D800  38 	movb r0,@cvb_GZ
     DCFC 20D8     
7781               cv603
7782               	; 	IF rn = 8 THEN gz = 2
7783 DCFE D020  34 	movb @cvb_RN,r0
     DD00 20E3     
7784 DD02 0201  20 	li r1,2048   ; 8*256
     DD04 0800     
7785 DD06 9001  18 	cb r1,r0
7786 DD08 1302  14 	jeq cv606
7787 DD0A 0460  28 	b @cv605
     DD0C DD16     
7788               cv606
7789 DD0E 0200  20 	li r0,512   ; 2*256
     DD10 0200     
7790 DD12 D800  38 	movb r0,@cvb_GZ
     DD14 20D8     
7791               cv605
7792               	; 	IF rn = 24 THEN gz = 2
7793 DD16 D020  34 	movb @cvb_RN,r0
     DD18 20E3     
7794 DD1A 0201  20 	li r1,6144   ; 24*256
     DD1C 1800     
7795 DD1E 9001  18 	cb r1,r0
7796 DD20 1302  14 	jeq cv608
7797 DD22 0460  28 	b @cv607
     DD24 DD2E     
7798               cv608
7799 DD26 0200  20 	li r0,512   ; 2*256
     DD28 0200     
7800 DD2A D800  38 	movb r0,@cvb_GZ
     DD2C 20D8     
7801               cv607
7802               	; 	IF rn = 11 THEN gz = 3
7803 DD2E D020  34 	movb @cvb_RN,r0
     DD30 20E3     
7804 DD32 0201  20 	li r1,2816   ; 11*256
     DD34 0B00     
7805 DD36 9001  18 	cb r1,r0
7806 DD38 1302  14 	jeq cv610
7807 DD3A 0460  28 	b @cv609
     DD3C DD46     
7808               cv610
7809 DD3E 0200  20 	li r0,768   ; 3*256
     DD40 0300     
7810 DD42 D800  38 	movb r0,@cvb_GZ
     DD44 20D8     
7811               cv609
7812               	; 	IF rn = 32 THEN gz = 3
7813 DD46 D020  34 	movb @cvb_RN,r0
     DD48 20E3     
7814 DD4A 0201  20 	li r1,8192   ; 32*256
     DD4C 2000     
7815 DD4E 9001  18 	cb r1,r0
7816 DD50 1302  14 	jeq cv612
7817 DD52 0460  28 	b @cv611
     DD54 DD5E     
7818               cv612
7819 DD56 0200  20 	li r0,768   ; 3*256
     DD58 0300     
7820 DD5A D800  38 	movb r0,@cvb_GZ
     DD5C 20D8     
7821               cv611
7822               	; 	IF gz > 0 THEN gopn = gop(gz - 1) : IF gopn = 0 THEN GOSUB drawgate
7823 DD5E D020  34 	movb @cvb_GZ,r0
     DD60 20D8     
7824 DD62 0201  20 	li r1,256   ; 1*256
     DD64 0100     
7825 DD66 9040  18 	cb r0,r1
7826 DD68 1402  14 	jhe cv614
7827 DD6A 0460  28 	b @cv613
     DD6C DD8E     
7828               cv614
7829 DD6E D020  34 	movb @cvb_GZ,r0
     DD70 20D8     
7830 DD72 0980  32 	srl r0,8
7831 DD74 0600  14 	dec r0
7832 DD76 0220  22 	ai r0,array_GOP
     DD78 2256     
7833 DD7A D810  46 	movb *r0,@cvb_GOPN
     DD7C 209D     
7834 DD7E D020  34 	movb @cvb_GOPN,r0
     DD80 209D     
7835 DD82 1302  14 	jeq cv616
7836 DD84 0460  28 	b @cv615
     DD86 DD8E     
7837               cv616
7838 DD88 06A0  32 	bl @jsr
     DD8A A974     
7839 DD8C DFAC     	data cvb_DRAWGATE
7840               cv615
7841               cv613
7842               	; 	IF rn = 18 THEN PRINT AT 32 * 10 + 11, "ADVENTIRE" : PRINT AT 32 * 13 + 4, "2026 UNHUMAN AND CLAUDE"
7843 DD8E D020  34 	movb @cvb_RN,r0
     DD90 20E3     
7844 DD92 0201  20 	li r1,4608   ; 18*256
     DD94 1200     
7845 DD96 9001  18 	cb r1,r0
7846 DD98 1302  14 	jeq cv618
7847 DD9A 0460  28 	b @cv617
     DD9C DDF4     
7848               cv618
7849 DD9E 0200  20 	li r0,331
     DDA0 014B     
7850 DDA2 C800  30 	mov r0,@cursor
     DDA4 8342     
7851 DDA6 0202  20 	li r2,cv619
     DDA8 DDB8     
7852 DDAA 0203  20 	li r3,9
     DDAC 0009     
7853 DDAE 06A0  32 	bl @jsr
     DDB0 A974     
7854 DDB2 A11C     	data print_string
7855 DDB4 0460  28 	b @cv620
     DDB6 DDC2     
7856               cv619
7857 DDB8 4144     	byte >41,>44,>56,>45,>4e,>54,>49,>52
     DDBA 5645     
     DDBC 4E54     
     DDBE 4952     
7858 DDC0 45       	byte >45
7859               	even
7860               cv620
7861 DDC2 0200  20 	li r0,420
     DDC4 01A4     
7862 DDC6 C800  30 	mov r0,@cursor
     DDC8 8342     
7863 DDCA 0202  20 	li r2,cv621
     DDCC DDDC     
7864 DDCE 0203  20 	li r3,23
     DDD0 0017     
7865 DDD2 06A0  32 	bl @jsr
     DDD4 A974     
7866 DDD6 A11C     	data print_string
7867 DDD8 0460  28 	b @cv622
     DDDA DDF4     
7868               cv621
7869 DDDC 3230     	byte >32,>30,>32,>36,>20,>55,>4e,>48
     DDDE 3236     
     DDE0 2055     
     DDE2 4E48     
7870 DDE4 554D     	byte >55,>4d,>41,>4e,>20,>41,>4e,>44
     DDE6 414E     
     DDE8 2041     
     DDEA 4E44     
7871 DDEC 2043     	byte >20,>43,>4c,>41,>55,>44,>45
     DDEE 4C41     
     DDF0 5544     
     DDF2 45       
7872               	even
7873               cv622
7874               cv617
7875               	; 	FOR d = 0 TO 2
7876 DDF4 04C0  14 	clr r0
7877 DDF6 D800  38 	movb r0,@cvb_D
     DDF8 2084     
7878               cv623
7879               	; 	IF drm(d) = rn THEN IF dst(d) = 0 THEN GOSUB dsafe : drc(d) = 12 : sfx = 5 : sfc = 20
7880 DDFA D020  34 	movb @cvb_D,r0
     DDFC 2084     
7881 DDFE 0980  32 	srl r0,8
7882 DE00 0220  22 	ai r0,array_DRM
     DE02 210A     
7883 DE04 D010  26 	movb *r0,r0
7884 DE06 9020  34 	cb @cvb_RN,r0
     DE08 20E3     
7885 DE0A 1302  14 	jeq cv625
7886 DE0C 0460  28 	b @cv624
     DE0E DE48     
7887               cv625
7888 DE10 D020  34 	movb @cvb_D,r0
     DE12 2084     
7889 DE14 0980  32 	srl r0,8
7890 DE16 0220  22 	ai r0,array_DST
     DE18 2112     
7891 DE1A D010  26 	movb *r0,r0
7892 DE1C 1302  14 	jeq cv627
7893 DE1E 0460  28 	b @cv626
     DE20 DE48     
7894               cv627
7895 DE22 06A0  32 	bl @jsr
     DE24 A974     
7896 DE26 E6B2     	data cvb_DSAFE
7897 DE28 0201  20 	li r1,3072
     DE2A 0C00     
7898 DE2C D020  34 	movb @cvb_D,r0
     DE2E 2084     
7899 DE30 0980  32 	srl r0,8
7900 DE32 0220  22 	ai r0,array_DRC
     DE34 20FE     
7901 DE36 D401  30 	movb r1,*r0
7902 DE38 0200  20 	li r0,1280   ; 5*256
     DE3A 0500     
7903 DE3C D800  38 	movb r0,@cvb_SFX
     DE3E 20E2     
7904 DE40 0200  20 	li r0,5120   ; 20*256
     DE42 1400     
7905 DE44 D800  38 	movb r0,@cvb_SFC
     DE46 20DA     
7906               cv626
7907               cv624
7908               	; 	NEXT d
7909 DE48 D020  34 	movb @cvb_D,r0
     DE4A 2084     
7910 DE4C 0220  22 	ai r0,256	; 1
     DE4E 0100     
7911 DE50 D800  38 	movb r0,@cvb_D
     DE52 2084     
7912 DE54 0201  20 	li r1,768   ; 3*256
     DE56 0300     
7913 DE58 9040  18 	cb r0,r1
7914 DE5A 1402  14 	jhe cv628
7915 DE5C 0460  28 	b @cv623
     DE5E DDFA     
7916               cv628
7917               	; 	END
7918 DE60 C03A  30 	mov *r10+,r0
7919 DE62 0450  20 	b *r0
7920               	;
7921               	; dchase: PROCEDURE
7922               	even
7923               cvb_DCHASE
7924               	; 	' schedule pursuit for live dragons in the room just left, but
7925               	; 	' scale the catch-up delay by how far the dragon was BEHIND the
7926               	; 	' door you used - lead one far enough (~half a screen) and it
7927               	; 	' gives up (you escaped), instead of every dragon teleporting to
7928               	; 	' your heels a fixed beat later
7929               	; 	FOR d = 0 TO 2
7930 DE64 04C0  14 	clr r0
7931 DE66 D800  38 	movb r0,@cvb_D
     DE68 2084     
7932               cv629
7933               	; 	IF drm(d) = prn THEN IF dst(d) = 0 THEN GOSUB dsched
7934 DE6A D020  34 	movb @cvb_D,r0
     DE6C 2084     
7935 DE6E 0980  32 	srl r0,8
7936 DE70 0220  22 	ai r0,array_DRM
     DE72 210A     
7937 DE74 D010  26 	movb *r0,r0
7938 DE76 9020  34 	cb @cvb_PRN,r0
     DE78 20C4     
7939 DE7A 1302  14 	jeq cv631
7940 DE7C 0460  28 	b @cv630
     DE7E DE98     
7941               cv631
7942 DE80 D020  34 	movb @cvb_D,r0
     DE82 2084     
7943 DE84 0980  32 	srl r0,8
7944 DE86 0220  22 	ai r0,array_DST
     DE88 2112     
7945 DE8A D010  26 	movb *r0,r0
7946 DE8C 1302  14 	jeq cv633
7947 DE8E 0460  28 	b @cv632
     DE90 DE98     
7948               cv633
7949 DE92 06A0  32 	bl @jsr
     DE94 A974     
7950 DE96 DEB4     	data cvb_DSCHED
7951               cv632
7952               cv630
7953               	; 	NEXT d
7954 DE98 D020  34 	movb @cvb_D,r0
     DE9A 2084     
7955 DE9C 0220  22 	ai r0,256	; 1
     DE9E 0100     
7956 DEA0 D800  38 	movb r0,@cvb_D
     DEA2 2084     
7957 DEA4 0201  20 	li r1,768   ; 3*256
     DEA6 0300     
7958 DEA8 9040  18 	cb r0,r1
7959 DEAA 1402  14 	jhe cv634
7960 DEAC 0460  28 	b @cv629
     DEAE DE6A     
7961               cv634
7962               	; 	END
7963 DEB0 C03A  30 	mov *r10+,r0
7964 DEB2 0450  20 	b *r0
7965               	;
7966               	; dsched: PROCEDURE
7967               	even
7968               cvb_DSCHED
7969               	; 	' dpd = how far this dragon was from you on its last chase frame
7970               	; 	' (set in dragondo). Lead it more than ~half a screen (Manhattan)
7971               	; 	' and it GIVES UP - no pursuit, you escaped. Otherwise it follows
7972               	; 	' after a short beat (fdl) and re-enters at the doorway you used.
7973               	; 	IF dpd(d) > 120 THEN RETURN
7974 DEB4 D020  34 	movb @cvb_D,r0
     DEB6 2084     
7975 DEB8 0980  32 	srl r0,8
7976 DEBA 0220  22 	ai r0,array_DPD
     DEBC 20FA     
7977 DEBE D010  26 	movb *r0,r0
7978 DEC0 0201  20 	li r1,30976   ; 121*256
     DEC2 7900     
7979 DEC4 9040  18 	cb r0,r1
7980 DEC6 1402  14 	jhe cv636
7981 DEC8 0460  28 	b @cv635
     DECA DED0     
7982               cv636
7983 DECC C03A  30 	mov *r10+,r0
7984 DECE 0450  20 	b *r0
7985               cv635
7986               	; 	fdl(d) = 32
7987 DED0 0201  20 	li r1,8192
     DED2 2000     
7988 DED4 D020  34 	movb @cvb_D,r0
     DED6 2084     
7989 DED8 0980  32 	srl r0,8
7990 DEDA 0220  22 	ai r0,array_FDL
     DEDC 212E     
7991 DEDE D401  30 	movb r1,*r0
7992               	; 	END
7993 DEE0 C03A  30 	mov *r10+,r0
7994 DEE2 0450  20 	b *r0
7995               	;
7996               	; drawroom: PROCEDURE
7997               	even
7998               cvb_DRAWROOM
7999               	; 	' one char per 8px cell (CLS already blanked the screen)
8000               	; 	FOR r = 0 TO 23
8001 DEE4 04C0  14 	clr r0
8002 DEE6 D800  38 	movb r0,@cvb_R
     DEE8 208B     
8003               cv637
8004               	; 	#ad = $1800 + r * 32
8005 DEEA D020  34 	movb @cvb_R,r0
     DEEC 208B     
8006 DEEE 0980  32 	srl r0,8
8007 DEF0 0A50  26 	sla r0,5
8008 DEF2 0220  22 	ai r0,6144
     DEF4 1800     
8009 DEF6 C800  38 	mov r0,@cvb__AD
     DEF8 20B2     
8010               	; 	FOR t2 = 0 TO 3
8011 DEFA 04C0  14 	clr r0
8012 DEFC D800  38 	movb r0,@cvb_T2
     DEFE 20E1     
8013               cv638
8014               	; 	t = rm(r * 4 + t2)
8015 DF00 D020  34 	movb @cvb_T2,r0
     DF02 20E1     
8016 DF04 0980  32 	srl r0,8
8017 DF06 C040  18 	mov r0,r1
8018 DF08 D020  34 	movb @cvb_R,r0
     DF0A 208B     
8019 DF0C 0980  32 	srl r0,8
8020 DF0E 0A20  20 	sla r0,2
8021 DF10 A001  18 	a r1,r0
8022 DF12 0220  22 	ai r0,array_RM
     DF14 225A     
8023 DF16 D810  46 	movb *r0,@cvb_T
     DF18 208C     
8024               	; 	FOR i = 0 TO 7
8025 DF1A 04C0  14 	clr r0
8026 DF1C D800  38 	movb r0,@cvb_I
     DF1E 2087     
8027               cv639
8028               	; 	IF (t AND msk(i)) > 0 THEN VPOKE #ad, 128
8029 DF20 D020  34 	movb @cvb_I,r0
     DF22 2087     
8030 DF24 0980  32 	srl r0,8
8031 DF26 0220  22 	ai r0,array_MSK
     DF28 2102     
8032 DF2A D050  26 	movb *r0,r1
8033 DF2C D020  34 	movb @cvb_T,r0
     DF2E 208C     
8034 DF30 0541  14 	inv r1
8035 DF32 5001  18 	szcb r1,r0
8036 DF34 0201  20 	li r1,256   ; 1*256
     DF36 0100     
8037 DF38 9040  18 	cb r0,r1
8038 DF3A 1402  14 	jhe cv641
8039 DF3C 0460  28 	b @cv640
     DF3E DF5C     
8040               cv641
8041 DF40 0200  20 	li r0,32768   ; 128*256
     DF42 8000     
8042 DF44 064A  14 	dect r10
8043 DF46 C680  30 	mov r0,*r10
8044 DF48 C020  34 	mov @cvb__AD,r0
     DF4A 20B2     
8045 DF4C C0BA  30 	mov *r10+,r2
8046 DF4E 0300  22 	limi 0
     DF50 0000     
8047 DF52 06A0  32 	bl @JSR
     DF54 A974     
8048 DF56 A018     	data WRTVRM
8049 DF58 0300  22 	limi 2
     DF5A 0002     
8050               cv640
8051               	; 	#ad = #ad + 1
8052 DF5C 05A0  34 	inc @cvb__AD
     DF5E 20B2     
8053               	; 	NEXT i
8054 DF60 D020  34 	movb @cvb_I,r0
     DF62 2087     
8055 DF64 0220  22 	ai r0,256	; 1
     DF66 0100     
8056 DF68 D800  38 	movb r0,@cvb_I
     DF6A 2087     
8057 DF6C 0201  20 	li r1,2048   ; 8*256
     DF6E 0800     
8058 DF70 9040  18 	cb r0,r1
8059 DF72 1402  14 	jhe cv642
8060 DF74 0460  28 	b @cv639
     DF76 DF20     
8061               cv642
8062               	; 	NEXT t2
8063 DF78 D020  34 	movb @cvb_T2,r0
     DF7A 20E1     
8064 DF7C 0220  22 	ai r0,256	; 1
     DF7E 0100     
8065 DF80 D800  38 	movb r0,@cvb_T2
     DF82 20E1     
8066 DF84 0201  20 	li r1,1024   ; 4*256
     DF86 0400     
8067 DF88 9040  18 	cb r0,r1
8068 DF8A 1402  14 	jhe cv643
8069 DF8C 0460  28 	b @cv638
     DF8E DF00     
8070               cv643
8071               	; 	NEXT r
8072 DF90 D020  34 	movb @cvb_R,r0
     DF92 208B     
8073 DF94 0220  22 	ai r0,256	; 1
     DF96 0100     
8074 DF98 D800  38 	movb r0,@cvb_R
     DF9A 208B     
8075 DF9C 0201  20 	li r1,6144   ; 24*256
     DF9E 1800     
8076 DFA0 9040  18 	cb r0,r1
8077 DFA2 1402  14 	jhe cv644
8078 DFA4 0460  28 	b @cv637
     DFA6 DEEA     
8079               cv644
8080               	; 	END
8081 DFA8 C03A  30 	mov *r10+,r0
8082 DFAA 0450  20 	b *r0
8083               	;
8084               	; drawgate: PROCEDURE
8085               	even
8086               cvb_DRAWGATE
8087               	; 	FOR r = 4 TO 7
8088 DFAC 0200  20 	li r0,1024   ; 4*256
     DFAE 0400     
8089 DFB0 D800  38 	movb r0,@cvb_R
     DFB2 208B     
8090               cv645
8091               	; 	FOR c2 = 14 TO 17 : VPOKE $1800 + r * 32 + c2, 129 : NEXT c2
8092 DFB4 0200  20 	li r0,3584   ; 14*256
     DFB6 0E00     
8093 DFB8 D800  38 	movb r0,@cvb_C2
     DFBA 20C8     
8094               cv646
8095 DFBC 0200  20 	li r0,33024   ; 129*256
     DFBE 8100     
8096 DFC0 064A  14 	dect r10
8097 DFC2 C680  30 	mov r0,*r10
8098 DFC4 D020  34 	movb @cvb_C2,r0
     DFC6 20C8     
8099 DFC8 0980  32 	srl r0,8
8100 DFCA C040  18 	mov r0,r1
8101 DFCC D020  34 	movb @cvb_R,r0
     DFCE 208B     
8102 DFD0 0980  32 	srl r0,8
8103 DFD2 0A50  26 	sla r0,5
8104 DFD4 0220  22 	ai r0,6144
     DFD6 1800     
8105 DFD8 A001  18 	a r1,r0
8106 DFDA C0BA  30 	mov *r10+,r2
8107 DFDC 0300  22 	limi 0
     DFDE 0000     
8108 DFE0 06A0  32 	bl @JSR
     DFE2 A974     
8109 DFE4 A018     	data WRTVRM
8110 DFE6 0300  22 	limi 2
     DFE8 0002     
8111 DFEA D020  34 	movb @cvb_C2,r0
     DFEC 20C8     
8112 DFEE 0220  22 	ai r0,256	; 1
     DFF0 0100     
8113 DFF2 D800  38 	movb r0,@cvb_C2
     DFF4 20C8     
8114 DFF6 0201  20 	li r1,4608   ; 18*256
     DFF8 1200     
8115 DFFA 9040  18 	cb r0,r1
8116 DFFC 1402  14 	jhe cv647
8117 DFFE 0460  28 	b @cv646
     E000 DFBC     
8118               cv647
8119               	; 	NEXT r
8120 E002 D020  34 	movb @cvb_R,r0
     E004 208B     
8121 E006 0220  22 	ai r0,256	; 1
     E008 0100     
8122 E00A D800  38 	movb r0,@cvb_R
     E00C 208B     
8123 E00E 0201  20 	li r1,2048   ; 8*256
     E010 0800     
8124 E012 9040  18 	cb r0,r1
8125 E014 1402  14 	jhe cv648
8126 E016 0460  28 	b @cv645
     E018 DFB4     
8127               cv648
8128               	; 	END
8129 E01A C03A  30 	mov *r10+,r0
8130 E01C 0450  20 	b *r0
8131               	;
8132               	; 	' ------------------------------------------------------------
8133               	; 	' fog of war (dark rooms): only wall blocks within 2 blocks
8134               	; 	' of the player are drawn; window is redrawn when the player
8135               	; 	' crosses a block boundary
8136               	; 	' ------------------------------------------------------------
8137               	; fogenter: PROCEDURE
8138               	even
8139               cvb_FOGENTER
8140               	; 	fon = 1
8141 E01E 0200  20 	li r0,256   ; 1*256
     E020 0100     
8142 E022 D800  38 	movb r0,@cvb_FON
     E024 20AF     
8143               	; 	fpr = (py + 4) / 8 : fpc = (px + 4) / 8
8144 E026 D020  34 	movb @cvb_PY,r0
     E028 20E0     
8145 E02A 0980  32 	srl r0,8
8146 E02C 0220  22 	ai r0,4
     E02E 0004     
8147 E030 0930  22 	srl r0,3
8148 E032 0A80  32 	sla r0,8
8149 E034 D800  38 	movb r0,@cvb_FPR
     E036 20B4     
8150 E038 D020  34 	movb @cvb_PX,r0
     E03A 20DF     
8151 E03C 0980  32 	srl r0,8
8152 E03E 0220  22 	ai r0,4
     E040 0004     
8153 E042 0930  22 	srl r0,3
8154 E044 0A80  32 	sla r0,8
8155 E046 D800  38 	movb r0,@cvb_FPC
     E048 20AE     
8156               	; 	GOSUB fogdraw
8157 E04A 06A0  32 	bl @jsr
     E04C A974     
8158 E04E E562     	data cvb_FOGDRAW
8159               	; 	END
8160 E050 C03A  30 	mov *r10+,r0
8161 E052 0450  20 	b *r0
8162               	;
8163               	; fogupd: PROCEDURE
8164               	even
8165               cvb_FOGUPD
8166               	; 	' differential update: the player crosses at most one cell
8167               	; 	' boundary per axis per tick, so only the trailing edge is
8168               	; 	' erased and the leading edge drawn (a full window wipe+draw
8169               	; 	' every crossing dragged the TI-99 below 30Hz in dark rooms)
8170               	; 	t = (py + 4) / 8 : t2 = (px + 4) / 8
8171 E054 D020  34 	movb @cvb_PY,r0
     E056 20E0     
8172 E058 0980  32 	srl r0,8
8173 E05A 0220  22 	ai r0,4
     E05C 0004     
8174 E05E 0930  22 	srl r0,3
8175 E060 0A80  32 	sla r0,8
8176 E062 D800  38 	movb r0,@cvb_T
     E064 208C     
8177 E066 D020  34 	movb @cvb_PX,r0
     E068 20DF     
8178 E06A 0980  32 	srl r0,8
8179 E06C 0220  22 	ai r0,4
     E06E 0004     
8180 E070 0930  22 	srl r0,3
8181 E072 0A80  32 	sla r0,8
8182 E074 D800  38 	movb r0,@cvb_T2
     E076 20E1     
8183               	; 	IF t2 <> fpc THEN GOSUB foghz
8184 E078 9020  34 	cb @cvb_FPC,r0
     E07A 20AE     
8185 E07C 1602  14 	jne cv650
8186 E07E 0460  28 	b @cv649
     E080 E088     
8187               cv650
8188 E082 06A0  32 	bl @jsr
     E084 A974     
8189 E086 E0A0     	data cvb_FOGHZ
8190               cv649
8191               	; 	IF t <> fpr THEN GOSUB fogvt
8192 E088 D020  34 	movb @cvb_T,r0
     E08A 208C     
8193 E08C 9020  34 	cb @cvb_FPR,r0
     E08E 20B4     
8194 E090 1602  14 	jne cv652
8195 E092 0460  28 	b @cv651
     E094 E09C     
8196               cv652
8197 E096 06A0  32 	bl @jsr
     E098 A974     
8198 E09A E0FE     	data cvb_FOGVT
8199               cv651
8200               	; 	END
8201 E09C C03A  30 	mov *r10+,r0
8202 E09E 0450  20 	b *r0
8203               	;
8204               	; foghz: PROCEDURE
8205               	even
8206               cvb_FOGHZ
8207               	; 	IF t2 > fpc THEN fc = fpc - 5 : fl = t2 + 5 ELSE fc = fpc + 5 : fl = t2 - 5
8208 E0A0 D020  34 	movb @cvb_FPC,r0
     E0A2 20AE     
8209 E0A4 9800  34 	cb r0,@cvb_T2
     E0A6 20E1     
8210 E0A8 1A02  14 	jl cv654
8211 E0AA 0460  28 	b @cv653
     E0AC E0CA     
8212               cv654
8213 E0AE D020  34 	movb @cvb_FPC,r0
     E0B0 20AE     
8214 E0B2 0220  22 	ai r0,64256	; -5
     E0B4 FB00     
8215 E0B6 D800  38 	movb r0,@cvb_FC
     E0B8 20D4     
8216 E0BA D020  34 	movb @cvb_T2,r0
     E0BC 20E1     
8217 E0BE 0220  22 	ai r0,1280	; 5
     E0C0 0500     
8218 E0C2 D800  38 	movb r0,@cvb_FL
     E0C4 20D5     
8219 E0C6 0460  28 	b @cv655
     E0C8 E0E2     
8220               cv653
8221 E0CA D020  34 	movb @cvb_FPC,r0
     E0CC 20AE     
8222 E0CE 0220  22 	ai r0,1280	; 5
     E0D0 0500     
8223 E0D2 D800  38 	movb r0,@cvb_FC
     E0D4 20D4     
8224 E0D6 D020  34 	movb @cvb_T2,r0
     E0D8 20E1     
8225 E0DA 0220  22 	ai r0,64256	; -5
     E0DC FB00     
8226 E0DE D800  38 	movb r0,@cvb_FL
     E0E0 20D5     
8227               cv655
8228               	; 	GOSUB fogecol
8229 E0E2 06A0  32 	bl @jsr
     E0E4 A974     
8230 E0E6 E15C     	data cvb_FOGECOL
8231               	; 	fpc = t2
8232 E0E8 D820  54 	movb @cvb_T2,@cvb_FPC
     E0EA 20E1     
     E0EC 20AE     
8233               	; 	fc = fl
8234 E0EE D820  54 	movb @cvb_FL,@cvb_FC
     E0F0 20D5     
     E0F2 20D4     
8235               	; 	GOSUB fogdcol
8236 E0F4 06A0  32 	bl @jsr
     E0F6 A974     
8237 E0F8 E218     	data cvb_FOGDCOL
8238               	; 	END
8239 E0FA C03A  30 	mov *r10+,r0
8240 E0FC 0450  20 	b *r0
8241               	;
8242               	; fogvt: PROCEDURE
8243               	even
8244               cvb_FOGVT
8245               	; 	IF t > fpr THEN fc = fpr - 5 : fl = t + 5 ELSE fc = fpr + 5 : fl = t - 5
8246 E0FE D020  34 	movb @cvb_FPR,r0
     E100 20B4     
8247 E102 9800  34 	cb r0,@cvb_T
     E104 208C     
8248 E106 1A02  14 	jl cv657
8249 E108 0460  28 	b @cv656
     E10A E128     
8250               cv657
8251 E10C D020  34 	movb @cvb_FPR,r0
     E10E 20B4     
8252 E110 0220  22 	ai r0,64256	; -5
     E112 FB00     
8253 E114 D800  38 	movb r0,@cvb_FC
     E116 20D4     
8254 E118 D020  34 	movb @cvb_T,r0
     E11A 208C     
8255 E11C 0220  22 	ai r0,1280	; 5
     E11E 0500     
8256 E120 D800  38 	movb r0,@cvb_FL
     E122 20D5     
8257 E124 0460  28 	b @cv658
     E126 E140     
8258               cv656
8259 E128 D020  34 	movb @cvb_FPR,r0
     E12A 20B4     
8260 E12C 0220  22 	ai r0,1280	; 5
     E12E 0500     
8261 E130 D800  38 	movb r0,@cvb_FC
     E132 20D4     
8262 E134 D020  34 	movb @cvb_T,r0
     E136 208C     
8263 E138 0220  22 	ai r0,64256	; -5
     E13A FB00     
8264 E13C D800  38 	movb r0,@cvb_FL
     E13E 20D5     
8265               cv658
8266               	; 	GOSUB fogerow
8267 E140 06A0  32 	bl @jsr
     E142 A974     
8268 E144 E326     	data cvb_FOGEROW
8269               	; 	fpr = t
8270 E146 D820  54 	movb @cvb_T,@cvb_FPR
     E148 208C     
     E14A 20B4     
8271               	; 	fc = fl
8272 E14C D820  54 	movb @cvb_FL,@cvb_FC
     E14E 20D5     
     E150 20D4     
8273               	; 	GOSUB fogdrow
8274 E152 06A0  32 	bl @jsr
     E154 A974     
8275 E156 E3DA     	data cvb_FOGDROW
8276               	; 	END
8277 E158 C03A  30 	mov *r10+,r0
8278 E15A 0450  20 	b *r0
8279               	;
8280               	; fogecol: PROCEDURE
8281               	even
8282               cvb_FOGECOL
8283               	; 	IF fc > 31 THEN RETURN
8284 E15C D020  34 	movb @cvb_FC,r0
     E15E 20D4     
8285 E160 0201  20 	li r1,8192   ; 32*256
     E162 2000     
8286 E164 9040  18 	cb r0,r1
8287 E166 1402  14 	jhe cv660
8288 E168 0460  28 	b @cv659
     E16A E170     
8289               cv660
8290 E16C C03A  30 	mov *r10+,r0
8291 E16E 0450  20 	b *r0
8292               cv659
8293               	; 	r0f = 0 : IF fpr > 5 THEN r0f = fpr - 5
8294 E170 04C0  14 	clr r0
8295 E172 D800  38 	movb r0,@cvb_R0F
     E174 20AD     
8296 E176 D020  34 	movb @cvb_FPR,r0
     E178 20B4     
8297 E17A 0201  20 	li r1,1536   ; 6*256
     E17C 0600     
8298 E17E 9040  18 	cb r0,r1
8299 E180 1402  14 	jhe cv662
8300 E182 0460  28 	b @cv661
     E184 E192     
8301               cv662
8302 E186 D020  34 	movb @cvb_FPR,r0
     E188 20B4     
8303 E18A 0220  22 	ai r0,64256	; -5
     E18C FB00     
8304 E18E D800  38 	movb r0,@cvb_R0F
     E190 20AD     
8305               cv661
8306               	; 	r1f = fpr + 5 : IF r1f > 23 THEN r1f = 23
8307 E192 D020  34 	movb @cvb_FPR,r0
     E194 20B4     
8308 E196 0220  22 	ai r0,1280	; 5
     E198 0500     
8309 E19A D800  38 	movb r0,@cvb_R1F
     E19C 20B0     
8310 E19E 0201  20 	li r1,6144   ; 24*256
     E1A0 1800     
8311 E1A2 9040  18 	cb r0,r1
8312 E1A4 1402  14 	jhe cv664
8313 E1A6 0460  28 	b @cv663
     E1A8 E1B2     
8314               cv664
8315 E1AA 0200  20 	li r0,5888   ; 23*256
     E1AC 1700     
8316 E1AE D800  38 	movb r0,@cvb_R1F
     E1B0 20B0     
8317               cv663
8318               	; 	#ad = $1800 + r0f * 32 + fc
8319 E1B2 D020  34 	movb @cvb_FC,r0
     E1B4 20D4     
8320 E1B6 0980  32 	srl r0,8
8321 E1B8 C040  18 	mov r0,r1
8322 E1BA D020  34 	movb @cvb_R0F,r0
     E1BC 20AD     
8323 E1BE 0980  32 	srl r0,8
8324 E1C0 0A50  26 	sla r0,5
8325 E1C2 0220  22 	ai r0,6144
     E1C4 1800     
8326 E1C6 A001  18 	a r1,r0
8327 E1C8 C800  38 	mov r0,@cvb__AD
     E1CA 20B2     
8328               	; 	FOR r = r0f TO r1f
8329 E1CC D820  54 	movb @cvb_R0F,@cvb_R
     E1CE 20AD     
     E1D0 208B     
8330               cv665
8331               	; 	VPOKE #ad, 32
8332 E1D2 0200  20 	li r0,8192   ; 32*256
     E1D4 2000     
8333 E1D6 064A  14 	dect r10
8334 E1D8 C680  30 	mov r0,*r10
8335 E1DA C020  34 	mov @cvb__AD,r0
     E1DC 20B2     
8336 E1DE C0BA  30 	mov *r10+,r2
8337 E1E0 0300  22 	limi 0
     E1E2 0000     
8338 E1E4 06A0  32 	bl @JSR
     E1E6 A974     
8339 E1E8 A018     	data WRTVRM
8340 E1EA 0300  22 	limi 2
     E1EC 0002     
8341               	; 	#ad = #ad + 32
8342 E1EE C020  34 	mov @cvb__AD,r0
     E1F0 20B2     
8343 E1F2 0220  22 	ai r0,32
     E1F4 0020     
8344 E1F6 C800  38 	mov r0,@cvb__AD
     E1F8 20B2     
8345               	; 	NEXT r
8346 E1FA D020  34 	movb @cvb_R,r0
     E1FC 208B     
8347 E1FE 0220  22 	ai r0,256	; 1
     E200 0100     
8348 E202 D800  38 	movb r0,@cvb_R
     E204 208B     
8349 E206 D020  34 	movb @cvb_R1F,r0
     E208 20B0     
8350 E20A 9800  34 	cb r0,@cvb_R
     E20C 208B     
8351 E20E 1A02  14 	jl cv666
8352 E210 0460  28 	b @cv665
     E212 E1D2     
8353               cv666
8354               	; 	END
8355 E214 C03A  30 	mov *r10+,r0
8356 E216 0450  20 	b *r0
8357               	;
8358               	; fogdcol: PROCEDURE
8359               	even
8360               cvb_FOGDCOL
8361               	; 	IF fc > 31 THEN RETURN
8362 E218 D020  34 	movb @cvb_FC,r0
     E21A 20D4     
8363 E21C 0201  20 	li r1,8192   ; 32*256
     E21E 2000     
8364 E220 9040  18 	cb r0,r1
8365 E222 1402  14 	jhe cv668
8366 E224 0460  28 	b @cv667
     E226 E22C     
8367               cv668
8368 E228 C03A  30 	mov *r10+,r0
8369 E22A 0450  20 	b *r0
8370               cv667
8371               	; 	r0f = 0 : IF fpr > 5 THEN r0f = fpr - 5
8372 E22C 04C0  14 	clr r0
8373 E22E D800  38 	movb r0,@cvb_R0F
     E230 20AD     
8374 E232 D020  34 	movb @cvb_FPR,r0
     E234 20B4     
8375 E236 0201  20 	li r1,1536   ; 6*256
     E238 0600     
8376 E23A 9040  18 	cb r0,r1
8377 E23C 1402  14 	jhe cv670
8378 E23E 0460  28 	b @cv669
     E240 E24E     
8379               cv670
8380 E242 D020  34 	movb @cvb_FPR,r0
     E244 20B4     
8381 E246 0220  22 	ai r0,64256	; -5
     E248 FB00     
8382 E24A D800  38 	movb r0,@cvb_R0F
     E24C 20AD     
8383               cv669
8384               	; 	r1f = fpr + 5 : IF r1f > 23 THEN r1f = 23
8385 E24E D020  34 	movb @cvb_FPR,r0
     E250 20B4     
8386 E252 0220  22 	ai r0,1280	; 5
     E254 0500     
8387 E256 D800  38 	movb r0,@cvb_R1F
     E258 20B0     
8388 E25A 0201  20 	li r1,6144   ; 24*256
     E25C 1800     
8389 E25E 9040  18 	cb r0,r1
8390 E260 1402  14 	jhe cv672
8391 E262 0460  28 	b @cv671
     E264 E26E     
8392               cv672
8393 E266 0200  20 	li r0,5888   ; 23*256
     E268 1700     
8394 E26A D800  38 	movb r0,@cvb_R1F
     E26C 20B0     
8395               cv671
8396               	; 	i2 = fc / 8 : f = msk(fc AND 7)
8397 E26E D020  34 	movb @cvb_FC,r0
     E270 20D4     
8398 E272 0930  22 	srl r0,3
8399 E274 D800  38 	movb r0,@cvb_I2
     E276 20D6     
8400 E278 D020  34 	movb @cvb_FC,r0
     E27A 20D4     
8401 E27C 0201  20 	li r1,1792   ; 7*256
     E27E 0700     
8402 E280 0541  14 	inv r1
8403 E282 5001  18 	szcb r1,r0
8404 E284 0980  32 	srl r0,8
8405 E286 0220  22 	ai r0,array_MSK
     E288 2102     
8406 E28A D810  46 	movb *r0,@cvb_F
     E28C 2086     
8407               	; 	#ad = $1800 + r0f * 32 + fc
8408 E28E D020  34 	movb @cvb_FC,r0
     E290 20D4     
8409 E292 0980  32 	srl r0,8
8410 E294 C040  18 	mov r0,r1
8411 E296 D020  34 	movb @cvb_R0F,r0
     E298 20AD     
8412 E29A 0980  32 	srl r0,8
8413 E29C 0A50  26 	sla r0,5
8414 E29E 0220  22 	ai r0,6144
     E2A0 1800     
8415 E2A2 A001  18 	a r1,r0
8416 E2A4 C800  38 	mov r0,@cvb__AD
     E2A6 20B2     
8417               	; 	FOR r = r0f TO r1f
8418 E2A8 D820  54 	movb @cvb_R0F,@cvb_R
     E2AA 20AD     
     E2AC 208B     
8419               cv673
8420               	; 	IF (rm(r * 4 + i2) AND f) > 0 THEN VPOKE #ad, 128
8421 E2AE D020  34 	movb @cvb_F,r0
     E2B0 2086     
8422 E2B2 064A  14 	dect r10
8423 E2B4 C680  30 	mov r0,*r10
8424 E2B6 D020  34 	movb @cvb_I2,r0
     E2B8 20D6     
8425 E2BA 0980  32 	srl r0,8
8426 E2BC C040  18 	mov r0,r1
8427 E2BE D020  34 	movb @cvb_R,r0
     E2C0 208B     
8428 E2C2 0980  32 	srl r0,8
8429 E2C4 0A20  20 	sla r0,2
8430 E2C6 A001  18 	a r1,r0
8431 E2C8 0220  22 	ai r0,array_RM
     E2CA 225A     
8432 E2CC D010  26 	movb *r0,r0
8433 E2CE C07A  30 	mov *r10+,r1
8434 E2D0 0541  14 	inv r1
8435 E2D2 5001  18 	szcb r1,r0
8436 E2D4 0201  20 	li r1,256   ; 1*256
     E2D6 0100     
8437 E2D8 9040  18 	cb r0,r1
8438 E2DA 1402  14 	jhe cv675
8439 E2DC 0460  28 	b @cv674
     E2DE E2FC     
8440               cv675
8441 E2E0 0200  20 	li r0,32768   ; 128*256
     E2E2 8000     
8442 E2E4 064A  14 	dect r10
8443 E2E6 C680  30 	mov r0,*r10
8444 E2E8 C020  34 	mov @cvb__AD,r0
     E2EA 20B2     
8445 E2EC C0BA  30 	mov *r10+,r2
8446 E2EE 0300  22 	limi 0
     E2F0 0000     
8447 E2F2 06A0  32 	bl @JSR
     E2F4 A974     
8448 E2F6 A018     	data WRTVRM
8449 E2F8 0300  22 	limi 2
     E2FA 0002     
8450               cv674
8451               	; 	#ad = #ad + 32
8452 E2FC C020  34 	mov @cvb__AD,r0
     E2FE 20B2     
8453 E300 0220  22 	ai r0,32
     E302 0020     
8454 E304 C800  38 	mov r0,@cvb__AD
     E306 20B2     
8455               	; 	NEXT r
8456 E308 D020  34 	movb @cvb_R,r0
     E30A 208B     
8457 E30C 0220  22 	ai r0,256	; 1
     E30E 0100     
8458 E310 D800  38 	movb r0,@cvb_R
     E312 208B     
8459 E314 D020  34 	movb @cvb_R1F,r0
     E316 20B0     
8460 E318 9800  34 	cb r0,@cvb_R
     E31A 208B     
8461 E31C 1A02  14 	jl cv676
8462 E31E 0460  28 	b @cv673
     E320 E2AE     
8463               cv676
8464               	; 	END
8465 E322 C03A  30 	mov *r10+,r0
8466 E324 0450  20 	b *r0
8467               	;
8468               	; fogerow: PROCEDURE
8469               	even
8470               cvb_FOGEROW
8471               	; 	IF fc > 23 THEN RETURN
8472 E326 D020  34 	movb @cvb_FC,r0
     E328 20D4     
8473 E32A 0201  20 	li r1,6144   ; 24*256
     E32C 1800     
8474 E32E 9040  18 	cb r0,r1
8475 E330 1402  14 	jhe cv678
8476 E332 0460  28 	b @cv677
     E334 E33A     
8477               cv678
8478 E336 C03A  30 	mov *r10+,r0
8479 E338 0450  20 	b *r0
8480               cv677
8481               	; 	c0f = 0 : IF fpc > 5 THEN c0f = fpc - 5
8482 E33A 04C0  14 	clr r0
8483 E33C D800  38 	movb r0,@cvb_C0F
     E33E 20E4     
8484 E340 D020  34 	movb @cvb_FPC,r0
     E342 20AE     
8485 E344 0201  20 	li r1,1536   ; 6*256
     E346 0600     
8486 E348 9040  18 	cb r0,r1
8487 E34A 1402  14 	jhe cv680
8488 E34C 0460  28 	b @cv679
     E34E E35C     
8489               cv680
8490 E350 D020  34 	movb @cvb_FPC,r0
     E352 20AE     
8491 E354 0220  22 	ai r0,64256	; -5
     E356 FB00     
8492 E358 D800  38 	movb r0,@cvb_C0F
     E35A 20E4     
8493               cv679
8494               	; 	c1f = fpc + 5 : IF c1f > 31 THEN c1f = 31
8495 E35C D020  34 	movb @cvb_FPC,r0
     E35E 20AE     
8496 E360 0220  22 	ai r0,1280	; 5
     E362 0500     
8497 E364 D800  38 	movb r0,@cvb_C1F
     E366 20E5     
8498 E368 0201  20 	li r1,8192   ; 32*256
     E36A 2000     
8499 E36C 9040  18 	cb r0,r1
8500 E36E 1402  14 	jhe cv682
8501 E370 0460  28 	b @cv681
     E372 E37C     
8502               cv682
8503 E374 0200  20 	li r0,7936   ; 31*256
     E376 1F00     
8504 E378 D800  38 	movb r0,@cvb_C1F
     E37A 20E5     
8505               cv681
8506               	; 	#ad = $1800 + fc * 32 + c0f
8507 E37C D020  34 	movb @cvb_C0F,r0
     E37E 20E4     
8508 E380 0980  32 	srl r0,8
8509 E382 C040  18 	mov r0,r1
8510 E384 D020  34 	movb @cvb_FC,r0
     E386 20D4     
8511 E388 0980  32 	srl r0,8
8512 E38A 0A50  26 	sla r0,5
8513 E38C 0220  22 	ai r0,6144
     E38E 1800     
8514 E390 A001  18 	a r1,r0
8515 E392 C800  38 	mov r0,@cvb__AD
     E394 20B2     
8516               	; 	FOR c2 = c0f TO c1f
8517 E396 D820  54 	movb @cvb_C0F,@cvb_C2
     E398 20E4     
     E39A 20C8     
8518               cv683
8519               	; 	VPOKE #ad, 32
8520 E39C 0200  20 	li r0,8192   ; 32*256
     E39E 2000     
8521 E3A0 064A  14 	dect r10
8522 E3A2 C680  30 	mov r0,*r10
8523 E3A4 C020  34 	mov @cvb__AD,r0
     E3A6 20B2     
8524 E3A8 C0BA  30 	mov *r10+,r2
8525 E3AA 0300  22 	limi 0
     E3AC 0000     
8526 E3AE 06A0  32 	bl @JSR
     E3B0 A974     
8527 E3B2 A018     	data WRTVRM
8528 E3B4 0300  22 	limi 2
     E3B6 0002     
8529               	; 	#ad = #ad + 1
8530 E3B8 05A0  34 	inc @cvb__AD
     E3BA 20B2     
8531               	; 	NEXT c2
8532 E3BC D020  34 	movb @cvb_C2,r0
     E3BE 20C8     
8533 E3C0 0220  22 	ai r0,256	; 1
     E3C2 0100     
8534 E3C4 D800  38 	movb r0,@cvb_C2
     E3C6 20C8     
8535 E3C8 D020  34 	movb @cvb_C1F,r0
     E3CA 20E5     
8536 E3CC 9800  34 	cb r0,@cvb_C2
     E3CE 20C8     
8537 E3D0 1A02  14 	jl cv684
8538 E3D2 0460  28 	b @cv683
     E3D4 E39C     
8539               cv684
8540               	; 	END
8541 E3D6 C03A  30 	mov *r10+,r0
8542 E3D8 0450  20 	b *r0
8543               	;
8544               	; fogdrow: PROCEDURE
8545               	even
8546               cvb_FOGDROW
8547               	; 	IF fc > 23 THEN RETURN
8548 E3DA D020  34 	movb @cvb_FC,r0
     E3DC 20D4     
8549 E3DE 0201  20 	li r1,6144   ; 24*256
     E3E0 1800     
8550 E3E2 9040  18 	cb r0,r1
8551 E3E4 1402  14 	jhe cv686
8552 E3E6 0460  28 	b @cv685
     E3E8 E3EE     
8553               cv686
8554 E3EA C03A  30 	mov *r10+,r0
8555 E3EC 0450  20 	b *r0
8556               cv685
8557               	; 	c0f = 0 : IF fpc > 5 THEN c0f = fpc - 5
8558 E3EE 04C0  14 	clr r0
8559 E3F0 D800  38 	movb r0,@cvb_C0F
     E3F2 20E4     
8560 E3F4 D020  34 	movb @cvb_FPC,r0
     E3F6 20AE     
8561 E3F8 0201  20 	li r1,1536   ; 6*256
     E3FA 0600     
8562 E3FC 9040  18 	cb r0,r1
8563 E3FE 1402  14 	jhe cv688
8564 E400 0460  28 	b @cv687
     E402 E410     
8565               cv688
8566 E404 D020  34 	movb @cvb_FPC,r0
     E406 20AE     
8567 E408 0220  22 	ai r0,64256	; -5
     E40A FB00     
8568 E40C D800  38 	movb r0,@cvb_C0F
     E40E 20E4     
8569               cv687
8570               	; 	c1f = fpc + 5 : IF c1f > 31 THEN c1f = 31
8571 E410 D020  34 	movb @cvb_FPC,r0
     E412 20AE     
8572 E414 0220  22 	ai r0,1280	; 5
     E416 0500     
8573 E418 D800  38 	movb r0,@cvb_C1F
     E41A 20E5     
8574 E41C 0201  20 	li r1,8192   ; 32*256
     E41E 2000     
8575 E420 9040  18 	cb r0,r1
8576 E422 1402  14 	jhe cv690
8577 E424 0460  28 	b @cv689
     E426 E430     
8578               cv690
8579 E428 0200  20 	li r0,7936   ; 31*256
     E42A 1F00     
8580 E42C D800  38 	movb r0,@cvb_C1F
     E42E 20E5     
8581               cv689
8582               	; 	i2 = fc * 4
8583 E430 D020  34 	movb @cvb_FC,r0
     E432 20D4     
8584 E434 0240  22 	andi r0,>ff00
     E436 FF00     
8585 E438 0A20  20 	sla r0,2
8586 E43A D800  38 	movb r0,@cvb_I2
     E43C 20D6     
8587               	; 	#ad = $1800 + fc * 32 + c0f
8588 E43E D020  34 	movb @cvb_C0F,r0
     E440 20E4     
8589 E442 0980  32 	srl r0,8
8590 E444 C040  18 	mov r0,r1
8591 E446 D020  34 	movb @cvb_FC,r0
     E448 20D4     
8592 E44A 0980  32 	srl r0,8
8593 E44C 0A50  26 	sla r0,5
8594 E44E 0220  22 	ai r0,6144
     E450 1800     
8595 E452 A001  18 	a r1,r0
8596 E454 C800  38 	mov r0,@cvb__AD
     E456 20B2     
8597               	; 	FOR c2 = c0f TO c1f
8598 E458 D820  54 	movb @cvb_C0F,@cvb_C2
     E45A 20E4     
     E45C 20C8     
8599               cv691
8600               	; 	IF (rm(i2 + (c2 / 8)) AND msk(c2 AND 7)) > 0 THEN VPOKE #ad, 128
8601 E45E D020  34 	movb @cvb_C2,r0
     E460 20C8     
8602 E462 0201  20 	li r1,1792   ; 7*256
     E464 0700     
8603 E466 0541  14 	inv r1
8604 E468 5001  18 	szcb r1,r0
8605 E46A 0980  32 	srl r0,8
8606 E46C 0220  22 	ai r0,array_MSK
     E46E 2102     
8607 E470 D010  26 	movb *r0,r0
8608 E472 064A  14 	dect r10
8609 E474 C680  30 	mov r0,*r10
8610 E476 D020  34 	movb @cvb_C2,r0
     E478 20C8     
8611 E47A 0980  32 	srl r0,8
8612 E47C 0930  22 	srl r0,3
8613 E47E C040  18 	mov r0,r1
8614 E480 D020  34 	movb @cvb_I2,r0
     E482 20D6     
8615 E484 0980  32 	srl r0,8
8616 E486 A001  18 	a r1,r0
8617 E488 0220  22 	ai r0,array_RM
     E48A 225A     
8618 E48C D010  26 	movb *r0,r0
8619 E48E C07A  30 	mov *r10+,r1
8620 E490 0541  14 	inv r1
8621 E492 5001  18 	szcb r1,r0
8622 E494 0201  20 	li r1,256   ; 1*256
     E496 0100     
8623 E498 9040  18 	cb r0,r1
8624 E49A 1402  14 	jhe cv693
8625 E49C 0460  28 	b @cv692
     E49E E4BC     
8626               cv693
8627 E4A0 0200  20 	li r0,32768   ; 128*256
     E4A2 8000     
8628 E4A4 064A  14 	dect r10
8629 E4A6 C680  30 	mov r0,*r10
8630 E4A8 C020  34 	mov @cvb__AD,r0
     E4AA 20B2     
8631 E4AC C0BA  30 	mov *r10+,r2
8632 E4AE 0300  22 	limi 0
     E4B0 0000     
8633 E4B2 06A0  32 	bl @JSR
     E4B4 A974     
8634 E4B6 A018     	data WRTVRM
8635 E4B8 0300  22 	limi 2
     E4BA 0002     
8636               cv692
8637               	; 	#ad = #ad + 1
8638 E4BC 05A0  34 	inc @cvb__AD
     E4BE 20B2     
8639               	; 	NEXT c2
8640 E4C0 D020  34 	movb @cvb_C2,r0
     E4C2 20C8     
8641 E4C4 0220  22 	ai r0,256	; 1
     E4C6 0100     
8642 E4C8 D800  38 	movb r0,@cvb_C2
     E4CA 20C8     
8643 E4CC D020  34 	movb @cvb_C1F,r0
     E4CE 20E5     
8644 E4D0 9800  34 	cb r0,@cvb_C2
     E4D2 20C8     
8645 E4D4 1A02  14 	jl cv694
8646 E4D6 0460  28 	b @cv691
     E4D8 E45E     
8647               cv694
8648               	; 	END
8649 E4DA C03A  30 	mov *r10+,r0
8650 E4DC 0450  20 	b *r0
8651               	;
8652               	; fogwipe: PROCEDURE
8653               	even
8654               cvb_FOGWIPE
8655               	; 	' blank the whole window (room entry / arrival snaps only)
8656               	; 	GOSUB fogbnd
8657 E4DE 06A0  32 	bl @jsr
     E4E0 A974     
8658 E4E2 E62A     	data cvb_FOGBND
8659               	; 	FOR r = r0f TO r1f
8660 E4E4 D820  54 	movb @cvb_R0F,@cvb_R
     E4E6 20AD     
     E4E8 208B     
8661               cv695
8662               	; 	#ad = $1800 + r * 32 + c0f
8663 E4EA D020  34 	movb @cvb_C0F,r0
     E4EC 20E4     
8664 E4EE 0980  32 	srl r0,8
8665 E4F0 C040  18 	mov r0,r1
8666 E4F2 D020  34 	movb @cvb_R,r0
     E4F4 208B     
8667 E4F6 0980  32 	srl r0,8
8668 E4F8 0A50  26 	sla r0,5
8669 E4FA 0220  22 	ai r0,6144
     E4FC 1800     
8670 E4FE A001  18 	a r1,r0
8671 E500 C800  38 	mov r0,@cvb__AD
     E502 20B2     
8672               	; 	FOR c2 = c0f TO c1f
8673 E504 D820  54 	movb @cvb_C0F,@cvb_C2
     E506 20E4     
     E508 20C8     
8674               cv696
8675               	; 	VPOKE #ad, 32
8676 E50A 0200  20 	li r0,8192   ; 32*256
     E50C 2000     
8677 E50E 064A  14 	dect r10
8678 E510 C680  30 	mov r0,*r10
8679 E512 C020  34 	mov @cvb__AD,r0
     E514 20B2     
8680 E516 C0BA  30 	mov *r10+,r2
8681 E518 0300  22 	limi 0
     E51A 0000     
8682 E51C 06A0  32 	bl @JSR
     E51E A974     
8683 E520 A018     	data WRTVRM
8684 E522 0300  22 	limi 2
     E524 0002     
8685               	; 	#ad = #ad + 1
8686 E526 05A0  34 	inc @cvb__AD
     E528 20B2     
8687               	; 	NEXT c2
8688 E52A D020  34 	movb @cvb_C2,r0
     E52C 20C8     
8689 E52E 0220  22 	ai r0,256	; 1
     E530 0100     
8690 E532 D800  38 	movb r0,@cvb_C2
     E534 20C8     
8691 E536 D020  34 	movb @cvb_C1F,r0
     E538 20E5     
8692 E53A 9800  34 	cb r0,@cvb_C2
     E53C 20C8     
8693 E53E 1A02  14 	jl cv697
8694 E540 0460  28 	b @cv696
     E542 E50A     
8695               cv697
8696               	; 	NEXT r
8697 E544 D020  34 	movb @cvb_R,r0
     E546 208B     
8698 E548 0220  22 	ai r0,256	; 1
     E54A 0100     
8699 E54C D800  38 	movb r0,@cvb_R
     E54E 208B     
8700 E550 D020  34 	movb @cvb_R1F,r0
     E552 20B0     
8701 E554 9800  34 	cb r0,@cvb_R
     E556 208B     
8702 E558 1A02  14 	jl cv698
8703 E55A 0460  28 	b @cv695
     E55C E4EA     
8704               cv698
8705               	; 	END
8706 E55E C03A  30 	mov *r10+,r0
8707 E560 0450  20 	b *r0
8708               	;
8709               	; fogdraw: PROCEDURE
8710               	even
8711               cvb_FOGDRAW
8712               	; 	GOSUB fogbnd
8713 E562 06A0  32 	bl @jsr
     E564 A974     
8714 E566 E62A     	data cvb_FOGBND
8715               	; 	FOR r = r0f TO r1f
8716 E568 D820  54 	movb @cvb_R0F,@cvb_R
     E56A 20AD     
     E56C 208B     
8717               cv699
8718               	; 	#ad = $1800 + r * 32 + c0f
8719 E56E D020  34 	movb @cvb_C0F,r0
     E570 20E4     
8720 E572 0980  32 	srl r0,8
8721 E574 C040  18 	mov r0,r1
8722 E576 D020  34 	movb @cvb_R,r0
     E578 208B     
8723 E57A 0980  32 	srl r0,8
8724 E57C 0A50  26 	sla r0,5
8725 E57E 0220  22 	ai r0,6144
     E580 1800     
8726 E582 A001  18 	a r1,r0
8727 E584 C800  38 	mov r0,@cvb__AD
     E586 20B2     
8728               	; 	FOR c2 = c0f TO c1f
8729 E588 D820  54 	movb @cvb_C0F,@cvb_C2
     E58A 20E4     
     E58C 20C8     
8730               cv700
8731               	; 	IF (rm(r * 4 + (c2 / 8)) AND msk(c2 AND 7)) > 0 THEN VPOKE #ad, 128
8732 E58E D020  34 	movb @cvb_C2,r0
     E590 20C8     
8733 E592 0201  20 	li r1,1792   ; 7*256
     E594 0700     
8734 E596 0541  14 	inv r1
8735 E598 5001  18 	szcb r1,r0
8736 E59A 0980  32 	srl r0,8
8737 E59C 0220  22 	ai r0,array_MSK
     E59E 2102     
8738 E5A0 D010  26 	movb *r0,r0
8739 E5A2 064A  14 	dect r10
8740 E5A4 C680  30 	mov r0,*r10
8741 E5A6 D020  34 	movb @cvb_C2,r0
     E5A8 20C8     
8742 E5AA 0980  32 	srl r0,8
8743 E5AC 0930  22 	srl r0,3
8744 E5AE C040  18 	mov r0,r1
8745 E5B0 D020  34 	movb @cvb_R,r0
     E5B2 208B     
8746 E5B4 0980  32 	srl r0,8
8747 E5B6 0A20  20 	sla r0,2
8748 E5B8 A001  18 	a r1,r0
8749 E5BA 0220  22 	ai r0,array_RM
     E5BC 225A     
8750 E5BE D010  26 	movb *r0,r0
8751 E5C0 C07A  30 	mov *r10+,r1
8752 E5C2 0541  14 	inv r1
8753 E5C4 5001  18 	szcb r1,r0
8754 E5C6 0201  20 	li r1,256   ; 1*256
     E5C8 0100     
8755 E5CA 9040  18 	cb r0,r1
8756 E5CC 1402  14 	jhe cv702
8757 E5CE 0460  28 	b @cv701
     E5D0 E5EE     
8758               cv702
8759 E5D2 0200  20 	li r0,32768   ; 128*256
     E5D4 8000     
8760 E5D6 064A  14 	dect r10
8761 E5D8 C680  30 	mov r0,*r10
8762 E5DA C020  34 	mov @cvb__AD,r0
     E5DC 20B2     
8763 E5DE C0BA  30 	mov *r10+,r2
8764 E5E0 0300  22 	limi 0
     E5E2 0000     
8765 E5E4 06A0  32 	bl @JSR
     E5E6 A974     
8766 E5E8 A018     	data WRTVRM
8767 E5EA 0300  22 	limi 2
     E5EC 0002     
8768               cv701
8769               	; 	#ad = #ad + 1
8770 E5EE 05A0  34 	inc @cvb__AD
     E5F0 20B2     
8771               	; 	NEXT c2
8772 E5F2 D020  34 	movb @cvb_C2,r0
     E5F4 20C8     
8773 E5F6 0220  22 	ai r0,256	; 1
     E5F8 0100     
8774 E5FA D800  38 	movb r0,@cvb_C2
     E5FC 20C8     
8775 E5FE D020  34 	movb @cvb_C1F,r0
     E600 20E5     
8776 E602 9800  34 	cb r0,@cvb_C2
     E604 20C8     
8777 E606 1A02  14 	jl cv703
8778 E608 0460  28 	b @cv700
     E60A E58E     
8779               cv703
8780               	; 	NEXT r
8781 E60C D020  34 	movb @cvb_R,r0
     E60E 208B     
8782 E610 0220  22 	ai r0,256	; 1
     E612 0100     
8783 E614 D800  38 	movb r0,@cvb_R
     E616 208B     
8784 E618 D020  34 	movb @cvb_R1F,r0
     E61A 20B0     
8785 E61C 9800  34 	cb r0,@cvb_R
     E61E 208B     
8786 E620 1A02  14 	jl cv704
8787 E622 0460  28 	b @cv699
     E624 E56E     
8788               cv704
8789               	; 	END
8790 E626 C03A  30 	mov *r10+,r0
8791 E628 0450  20 	b *r0
8792               	;
8793               	; fogbnd: PROCEDURE
8794               	even
8795               cvb_FOGBND
8796               	; 	' 5-cell radius = 40px lamplight
8797               	; 	r0f = 0 : IF fpr > 5 THEN r0f = fpr - 5
8798 E62A 04C0  14 	clr r0
8799 E62C D800  38 	movb r0,@cvb_R0F
     E62E 20AD     
8800 E630 D020  34 	movb @cvb_FPR,r0
     E632 20B4     
8801 E634 0201  20 	li r1,1536   ; 6*256
     E636 0600     
8802 E638 9040  18 	cb r0,r1
8803 E63A 1402  14 	jhe cv706
8804 E63C 0460  28 	b @cv705
     E63E E64C     
8805               cv706
8806 E640 D020  34 	movb @cvb_FPR,r0
     E642 20B4     
8807 E644 0220  22 	ai r0,64256	; -5
     E646 FB00     
8808 E648 D800  38 	movb r0,@cvb_R0F
     E64A 20AD     
8809               cv705
8810               	; 	r1f = fpr + 5 : IF r1f > 23 THEN r1f = 23
8811 E64C D020  34 	movb @cvb_FPR,r0
     E64E 20B4     
8812 E650 0220  22 	ai r0,1280	; 5
     E652 0500     
8813 E654 D800  38 	movb r0,@cvb_R1F
     E656 20B0     
8814 E658 0201  20 	li r1,6144   ; 24*256
     E65A 1800     
8815 E65C 9040  18 	cb r0,r1
8816 E65E 1402  14 	jhe cv708
8817 E660 0460  28 	b @cv707
     E662 E66C     
8818               cv708
8819 E664 0200  20 	li r0,5888   ; 23*256
     E666 1700     
8820 E668 D800  38 	movb r0,@cvb_R1F
     E66A 20B0     
8821               cv707
8822               	; 	c0f = 0 : IF fpc > 5 THEN c0f = fpc - 5
8823 E66C 04C0  14 	clr r0
8824 E66E D800  38 	movb r0,@cvb_C0F
     E670 20E4     
8825 E672 D020  34 	movb @cvb_FPC,r0
     E674 20AE     
8826 E676 0201  20 	li r1,1536   ; 6*256
     E678 0600     
8827 E67A 9040  18 	cb r0,r1
8828 E67C 1402  14 	jhe cv710
8829 E67E 0460  28 	b @cv709
     E680 E68E     
8830               cv710
8831 E682 D020  34 	movb @cvb_FPC,r0
     E684 20AE     
8832 E686 0220  22 	ai r0,64256	; -5
     E688 FB00     
8833 E68A D800  38 	movb r0,@cvb_C0F
     E68C 20E4     
8834               cv709
8835               	; 	c1f = fpc + 5 : IF c1f > 31 THEN c1f = 31
8836 E68E D020  34 	movb @cvb_FPC,r0
     E690 20AE     
8837 E692 0220  22 	ai r0,1280	; 5
     E694 0500     
8838 E696 D800  38 	movb r0,@cvb_C1F
     E698 20E5     
8839 E69A 0201  20 	li r1,8192   ; 32*256
     E69C 2000     
8840 E69E 9040  18 	cb r0,r1
8841 E6A0 1402  14 	jhe cv712
8842 E6A2 0460  28 	b @cv711
     E6A4 E6AE     
8843               cv712
8844 E6A6 0200  20 	li r0,7936   ; 31*256
     E6A8 1F00     
8845 E6AA D800  38 	movb r0,@cvb_C1F
     E6AC 20E5     
8846               cv711
8847               	; 	END
8848 E6AE C03A  30 	mov *r10+,r0
8849 E6B0 0450  20 	b *r0
8850               	;
8851               	; dsafe: PROCEDURE
8852               	even
8853               cvb_DSAFE
8854               	; 	' never let a dragon camp the doorway you enter through
8855               	; 	#ax = ddx(d) : #bx = px
8856 E6B2 D020  34 	movb @cvb_D,r0
     E6B4 2084     
8857 E6B6 0980  32 	srl r0,8
8858 E6B8 0220  22 	ai r0,array_DDX
     E6BA 20F2     
8859 E6BC D010  26 	movb *r0,r0
8860 E6BE 0980  32 	srl r0,8
8861 E6C0 C800  38 	mov r0,@cvb__AX
     E6C2 20B8     
8862 E6C4 D020  34 	movb @cvb_PX,r0
     E6C6 20DF     
8863 E6C8 0980  32 	srl r0,8
8864 E6CA C800  38 	mov r0,@cvb__BX
     E6CC 20BA     
8865               	; 	GOSUB adiff
8866 E6CE 06A0  32 	bl @jsr
     E6D0 A974     
8867 E6D2 C342     	data cvb_ADIFF
8868               	; 	IF #cx > 40 THEN RETURN
8869 E6D4 C020  34 	mov @cvb__CX,r0
     E6D6 20BE     
8870 E6D8 0201  20 	li r1,41
     E6DA 0029     
8871 E6DC 8040  18 	c r0,r1
8872 E6DE 1402  14 	jhe cv714
8873 E6E0 0460  28 	b @cv713
     E6E2 E6E8     
8874               cv714
8875 E6E4 C03A  30 	mov *r10+,r0
8876 E6E6 0450  20 	b *r0
8877               cv713
8878               	; 	#ax = ddy(d) : #bx = py
8879 E6E8 D020  34 	movb @cvb_D,r0
     E6EA 2084     
8880 E6EC 0980  32 	srl r0,8
8881 E6EE 0220  22 	ai r0,array_DDY
     E6F0 20F6     
8882 E6F2 D010  26 	movb *r0,r0
8883 E6F4 0980  32 	srl r0,8
8884 E6F6 C800  38 	mov r0,@cvb__AX
     E6F8 20B8     
8885 E6FA D020  34 	movb @cvb_PY,r0
     E6FC 20E0     
8886 E6FE 0980  32 	srl r0,8
8887 E700 C800  38 	mov r0,@cvb__BX
     E702 20BA     
8888               	; 	GOSUB adiff
8889 E704 06A0  32 	bl @jsr
     E706 A974     
8890 E708 C342     	data cvb_ADIFF
8891               	; 	IF #cx > 40 THEN RETURN
8892 E70A C020  34 	mov @cvb__CX,r0
     E70C 20BE     
8893 E70E 0201  20 	li r1,41
     E710 0029     
8894 E712 8040  18 	c r0,r1
8895 E714 1402  14 	jhe cv716
8896 E716 0460  28 	b @cv715
     E718 E71E     
8897               cv716
8898 E71A C03A  30 	mov *r10+,r0
8899 E71C 0450  20 	b *r0
8900               cv715
8901               	; 	ddx(d) = 108 : ddy(d) = 64
8902 E71E 0201  20 	li r1,27648
     E720 6C00     
8903 E722 D020  34 	movb @cvb_D,r0
     E724 2084     
8904 E726 0980  32 	srl r0,8
8905 E728 0220  22 	ai r0,array_DDX
     E72A 20F2     
8906 E72C D401  30 	movb r1,*r0
8907 E72E 0201  20 	li r1,16384
     E730 4000     
8908 E732 D020  34 	movb @cvb_D,r0
     E734 2084     
8909 E736 0980  32 	srl r0,8
8910 E738 0220  22 	ai r0,array_DDY
     E73A 20F6     
8911 E73C D401  30 	movb r1,*r0
8912               	; 	END
8913 E73E C03A  30 	mov *r10+,r0
8914 E740 0450  20 	b *r0
8915               	;
8916               	; 	' ------------------------------------------------------------
8917               	; 	' game 4: scramble the objects across the open kingdom.
8918               	; 	' The white key must not land inside the white castle's own
8919               	; 	' red maze (rooms 34/35) - that would seal it away. The BLACK
8920               	; 	' key (o=1) is never scrambled: it stays sealed in the red-maze
8921               	; 	' chamber so the bridge is always required.
8922               	; 	' ------------------------------------------------------------
8923               	; rndobj: PROCEDURE
8924               	even
8925               cvb_RNDOBJ
8926               	; 	FOR o = 0 TO 6
8927 E742 04C0  14 	clr r0
8928 E744 D800  38 	movb r0,@cvb_O
     E746 208A     
8929               cv717
8930               	; 	IF o = 1 THEN GOTO rnxt
8931 E748 D020  34 	movb @cvb_O,r0
     E74A 208A     
8932 E74C 0201  20 	li r1,256   ; 1*256
     E74E 0100     
8933 E750 9001  18 	cb r1,r0
8934 E752 1302  14 	jeq cv719
8935 E754 0460  28 	b @cv718
     E756 E75C     
8936               cv719
8937 E758 0460  28 	b @cvb_RNXT
     E75A E836     
8938               cv718
8939               	; rrty:	t2 = RANDOM(16)
8940               cvb_RRTY
8941 E75C 06A0  32 	bl @jsr
     E75E A974     
8942 E760 A2A6     	data random
8943 E762 0A80  32 	sla r0,8
8944 E764 0201  20 	li r1,3840   ; 15*256
     E766 0F00     
8945 E768 0541  14 	inv r1
8946 E76A 5001  18 	szcb r1,r0
8947 E76C D800  38 	movb r0,@cvb_T2
     E76E 20E1     
8948               	; 	RESTORE rndrm
8949 E770 0200  20 	li r0,cvb_RNDRM
     E772 F18C     
8950 E774 C800  30 	mov r0,@read_pointer
     E776 8340     
8951               	; 	WHILE t2 > 0 : READ BYTE t : t2 = t2 - 1 : WEND
8952               cv720
8953 E778 D020  34 	movb @cvb_T2,r0
     E77A 20E1     
8954 E77C 0201  20 	li r1,256   ; 1*256
     E77E 0100     
8955 E780 9040  18 	cb r0,r1
8956 E782 1402  14 	jhe cv722
8957 E784 0460  28 	b @cv721
     E786 E7A6     
8958               cv722
8959 E788 C060  30 	mov @read_pointer,r1
     E78A 8340     
8960 E78C D011  26 	movb *r1,r0
8961 E78E 05A0  26 	inc @read_pointer
     E790 8340     
8962 E792 D800  38 	movb r0,@cvb_T
     E794 208C     
8963 E796 D020  34 	movb @cvb_T2,r0
     E798 20E1     
8964 E79A 0220  22 	ai r0,65280	; -1
     E79C FF00     
8965 E79E D800  38 	movb r0,@cvb_T2
     E7A0 20E1     
8966 E7A2 0460  28 	b @cv720
     E7A4 E778     
8967               cv721
8968               	; 	READ BYTE t
8969 E7A6 C060  30 	mov @read_pointer,r1
     E7A8 8340     
8970 E7AA D011  26 	movb *r1,r0
8971 E7AC 05A0  26 	inc @read_pointer
     E7AE 8340     
8972 E7B0 D800  38 	movb r0,@cvb_T
     E7B2 208C     
8973               	; 	IF o = 2 THEN IF (t = 34) OR (t = 35) THEN GOTO rrty
8974 E7B4 D020  34 	movb @cvb_O,r0
     E7B6 208A     
8975 E7B8 0201  20 	li r1,512   ; 2*256
     E7BA 0200     
8976 E7BC 9001  18 	cb r1,r0
8977 E7BE 1302  14 	jeq cv724
8978 E7C0 0460  28 	b @cv723
     E7C2 E7FA     
8979               cv724
8980 E7C4 D020  34 	movb @cvb_T,r0
     E7C6 208C     
8981 E7C8 0201  20 	li r1,8960   ; 35*256
     E7CA 2300     
8982 E7CC 9001  18 	cb r1,r0
8983 E7CE 1302  14 	jeq cv726
8984 E7D0 04C0  14 	clr r0
8985 E7D2 1001  14 	jmp $+4
8986               cv726
8987 E7D4 0700  14 	seto r0
8988 E7D6 064A  14 	dect r10
8989 E7D8 C680  30 	mov r0,*r10
8990 E7DA D020  34 	movb @cvb_T,r0
     E7DC 208C     
8991 E7DE 0201  20 	li r1,8704   ; 34*256
     E7E0 2200     
8992 E7E2 9001  18 	cb r1,r0
8993 E7E4 1302  14 	jeq cv727
8994 E7E6 04C0  14 	clr r0
8995 E7E8 1001  14 	jmp $+4
8996               cv727
8997 E7EA 0700  14 	seto r0
8998 E7EC C07A  30 	mov *r10+,r1
8999 E7EE F001  18 	socb r1,r0
9000 E7F0 1602  14 	jne cv728
9001 E7F2 0460  28 	b @cv725
     E7F4 E7FA     
9002               cv728
9003 E7F6 0460  28 	b @cvb_RRTY
     E7F8 E75C     
9004               cv725
9005               cv723
9006               	; 	orm(o) = t : obx(o) = 96 + o * 8 : oby(o) = 88
9007 E7FA D060  34 	movb @cvb_T,r1
     E7FC 208C     
9008 E7FE D020  34 	movb @cvb_O,r0
     E800 208A     
9009 E802 0980  32 	srl r0,8
9010 E804 0220  22 	ai r0,array_ORM
     E806 224E     
9011 E808 D401  30 	movb r1,*r0
9012 E80A D020  34 	movb @cvb_O,r0
     E80C 208A     
9013 E80E 0240  22 	andi r0,>ff00
     E810 FF00     
9014 E812 0A30  22 	sla r0,3
9015 E814 0220  22 	ai r0,24576	; 96
     E816 6000     
9016 E818 C040  18 	mov r0,r1
9017 E81A D020  34 	movb @cvb_O,r0
     E81C 208A     
9018 E81E 0980  32 	srl r0,8
9019 E820 0220  22 	ai r0,array_OBX
     E822 211E     
9020 E824 D401  30 	movb r1,*r0
9021 E826 0201  20 	li r1,22528
     E828 5800     
9022 E82A D020  34 	movb @cvb_O,r0
     E82C 208A     
9023 E82E 0980  32 	srl r0,8
9024 E830 0220  22 	ai r0,array_OBY
     E832 2126     
9025 E834 D401  30 	movb r1,*r0
9026               	; rnxt:
9027               cvb_RNXT
9028               	; 	NEXT o
9029 E836 D020  34 	movb @cvb_O,r0
     E838 208A     
9030 E83A 0220  22 	ai r0,256	; 1
     E83C 0100     
9031 E83E D800  38 	movb r0,@cvb_O
     E840 208A     
9032 E842 0201  20 	li r1,1792   ; 7*256
     E844 0700     
9033 E846 9040  18 	cb r0,r1
9034 E848 1402  14 	jhe cv729
9035 E84A 0460  28 	b @cv717
     E84C E748     
9036               cv729
9037               	; 	END
9038 E84E C03A  30 	mov *r10+,r0
9039 E850 0450  20 	b *r0
9040               	;
9041               	; 	' ------------------------------------------------------------
9042               	; 	' one-channel sound effect driver (1=pickup 2=drop 3=gate
9043               	; 	' 4=slay-noise 5=dragon roar 6=bat squeak); swallow/win inline
9044               	; 	' ------------------------------------------------------------
9045               	; dosfx: PROCEDURE
9046               	even
9047               cvb_DOSFX
9048               	; 	IF sfx = 0 THEN RETURN
9049 E852 D020  34 	movb @cvb_SFX,r0
     E854 20E2     
9050 E856 1302  14 	jeq cv731
9051 E858 0460  28 	b @cv730
     E85A E860     
9052               cv731
9053 E85C C03A  30 	mov *r10+,r0
9054 E85E 0450  20 	b *r0
9055               cv730
9056               	; 	IF sfx = 1 THEN SOUND 0, 90, 12
9057 E860 D020  34 	movb @cvb_SFX,r0
     E862 20E2     
9058 E864 0201  20 	li r1,256   ; 1*256
     E866 0100     
9059 E868 9001  18 	cb r1,r0
9060 E86A 1302  14 	jeq cv733
9061 E86C 0460  28 	b @cv732
     E86E E88C     
9062               cv733
9063 E870 0200  20 	li r0,90
     E872 005A     
9064 E874 0202  20 	li r2,>8000
     E876 8000     
9065 E878 06A0  32 	bl @jsr
     E87A A974     
9066 E87C A2BA     	data sn76489_freq
9067 E87E 0200  20 	li r0,3072   ; 12*256
     E880 0C00     
9068 E882 0202  20 	li r2,>9000
     E884 9000     
9069 E886 06A0  32 	bl @jsr
     E888 A974     
9070 E88A A2D6     	data sn76489_vol
9071               cv732
9072               	; 	IF sfx = 2 THEN SOUND 0, 320, 10
9073 E88C D020  34 	movb @cvb_SFX,r0
     E88E 20E2     
9074 E890 0201  20 	li r1,512   ; 2*256
     E892 0200     
9075 E894 9001  18 	cb r1,r0
9076 E896 1302  14 	jeq cv735
9077 E898 0460  28 	b @cv734
     E89A E8B8     
9078               cv735
9079 E89C 0200  20 	li r0,320
     E89E 0140     
9080 E8A0 0202  20 	li r2,>8000
     E8A2 8000     
9081 E8A4 06A0  32 	bl @jsr
     E8A6 A974     
9082 E8A8 A2BA     	data sn76489_freq
9083 E8AA 0200  20 	li r0,2560   ; 10*256
     E8AC 0A00     
9084 E8AE 0202  20 	li r2,>9000
     E8B0 9000     
9085 E8B2 06A0  32 	bl @jsr
     E8B4 A974     
9086 E8B6 A2D6     	data sn76489_vol
9087               cv734
9088               	; 	IF sfx = 3 THEN SOUND 0, #sfq, 11 : #sfq = #sfq - 25
9089 E8B8 D020  34 	movb @cvb_SFX,r0
     E8BA 20E2     
9090 E8BC 0201  20 	li r1,768   ; 3*256
     E8BE 0300     
9091 E8C0 9001  18 	cb r1,r0
9092 E8C2 1302  14 	jeq cv737
9093 E8C4 0460  28 	b @cv736
     E8C6 E8F0     
9094               cv737
9095 E8C8 C020  34 	mov @cvb__SFQ,r0
     E8CA 2090     
9096 E8CC 0202  20 	li r2,>8000
     E8CE 8000     
9097 E8D0 06A0  32 	bl @jsr
     E8D2 A974     
9098 E8D4 A2BA     	data sn76489_freq
9099 E8D6 0200  20 	li r0,2816   ; 11*256
     E8D8 0B00     
9100 E8DA 0202  20 	li r2,>9000
     E8DC 9000     
9101 E8DE 06A0  32 	bl @jsr
     E8E0 A974     
9102 E8E2 A2D6     	data sn76489_vol
9103 E8E4 C020  34 	mov @cvb__SFQ,r0
     E8E6 2090     
9104 E8E8 0220  22 	ai r0,-25
     E8EA FFE7     
9105 E8EC C800  38 	mov r0,@cvb__SFQ
     E8EE 2090     
9106               cv736
9107               	; 	IF sfx = 4 THEN SOUND 3, 5, sfc
9108 E8F0 D020  34 	movb @cvb_SFX,r0
     E8F2 20E2     
9109 E8F4 0201  20 	li r1,1024   ; 4*256
     E8F6 0400     
9110 E8F8 9001  18 	cb r1,r0
9111 E8FA 1302  14 	jeq cv739
9112 E8FC 0460  28 	b @cv738
     E8FE E918     
9113               cv739
9114 E900 0200  20 	li r0,1280   ; 5*256
     E902 0500     
9115 E904 06A0  32 	bl @jsr
     E906 A974     
9116 E908 A2E4     	data sn76489_control
9117 E90A D020  34 	movb @cvb_SFC,r0
     E90C 20DA     
9118 E90E 0202  20 	li r2,>f000
     E910 F000     
9119 E912 06A0  32 	bl @jsr
     E914 A974     
9120 E916 A2D6     	data sn76489_vol
9121               cv738
9122               	; 	IF sfx = 5 THEN SOUND 0, 880 + ((sfc AND 2) * 30), 10
9123 E918 D020  34 	movb @cvb_SFX,r0
     E91A 20E2     
9124 E91C 0201  20 	li r1,1280   ; 5*256
     E91E 0500     
9125 E920 9001  18 	cb r1,r0
9126 E922 1302  14 	jeq cv741
9127 E924 0460  28 	b @cv740
     E926 E95A     
9128               cv741
9129 E928 D020  34 	movb @cvb_SFC,r0
     E92A 20DA     
9130 E92C 0201  20 	li r1,512   ; 2*256
     E92E 0200     
9131 E930 0541  14 	inv r1
9132 E932 5001  18 	szcb r1,r0
9133 E934 0980  32 	srl r0,8
9134 E936 0201  20 	li r1,30
     E938 001E     
9135 E93A 3801  58 	mpy r1,r0
9136 E93C C001  18 	mov r1,r0
9137 E93E 0220  22 	ai r0,880
     E940 0370     
9138 E942 0202  20 	li r2,>8000
     E944 8000     
9139 E946 06A0  32 	bl @jsr
     E948 A974     
9140 E94A A2BA     	data sn76489_freq
9141 E94C 0200  20 	li r0,2560   ; 10*256
     E94E 0A00     
9142 E950 0202  20 	li r2,>9000
     E952 9000     
9143 E954 06A0  32 	bl @jsr
     E956 A974     
9144 E958 A2D6     	data sn76489_vol
9145               cv740
9146               	; 	IF sfx = 6 THEN SOUND 0, 60 + ((sfc AND 2) * 6), 9
9147 E95A D020  34 	movb @cvb_SFX,r0
     E95C 20E2     
9148 E95E 0201  20 	li r1,1536   ; 6*256
     E960 0600     
9149 E962 9001  18 	cb r1,r0
9150 E964 1302  14 	jeq cv743
9151 E966 0460  28 	b @cv742
     E968 E99C     
9152               cv743
9153 E96A D020  34 	movb @cvb_SFC,r0
     E96C 20DA     
9154 E96E 0201  20 	li r1,512   ; 2*256
     E970 0200     
9155 E972 0541  14 	inv r1
9156 E974 5001  18 	szcb r1,r0
9157 E976 0980  32 	srl r0,8
9158 E978 0201  20 	li r1,6
     E97A 0006     
9159 E97C 3801  58 	mpy r1,r0
9160 E97E C001  18 	mov r1,r0
9161 E980 0220  22 	ai r0,60
     E982 003C     
9162 E984 0202  20 	li r2,>8000
     E986 8000     
9163 E988 06A0  32 	bl @jsr
     E98A A974     
9164 E98C A2BA     	data sn76489_freq
9165 E98E 0200  20 	li r0,2304   ; 9*256
     E990 0900     
9166 E992 0202  20 	li r2,>9000
     E994 9000     
9167 E996 06A0  32 	bl @jsr
     E998 A974     
9168 E99A A2D6     	data sn76489_vol
9169               cv742
9170               	; 	sfc = sfc - 1
9171 E99C D020  34 	movb @cvb_SFC,r0
     E99E 20DA     
9172 E9A0 0220  22 	ai r0,65280	; -1
     E9A2 FF00     
9173 E9A4 D800  38 	movb r0,@cvb_SFC
     E9A6 20DA     
9174               	; 	IF sfc = 0 THEN sfx = 0 : SOUND 0, , 0 : SOUND 3, , 0
9175 E9A8 04C1  14 	clr r1
9176 E9AA 9001  18 	cb r1,r0
9177 E9AC 1302  14 	jeq cv745
9178 E9AE 0460  28 	b @cv744
     E9B0 E9D0     
9179               cv745
9180 E9B2 04C0  14 	clr r0
9181 E9B4 D800  38 	movb r0,@cvb_SFX
     E9B6 20E2     
9182 E9B8 04C0  14 	clr r0
9183 E9BA 0202  20 	li r2,>9000
     E9BC 9000     
9184 E9BE 06A0  32 	bl @jsr
     E9C0 A974     
9185 E9C2 A2D6     	data sn76489_vol
9186 E9C4 04C0  14 	clr r0
9187 E9C6 0202  20 	li r2,>f000
     E9C8 F000     
9188 E9CA 06A0  32 	bl @jsr
     E9CC A974     
9189 E9CE A2D6     	data sn76489_vol
9190               cv744
9191               	; 	END
9192 E9D0 C03A  30 	mov *r10+,r0
9193 E9D2 0450  20 	b *r0
9194               	;
9195               	; 	' ------------------------------------------------------------
9196               	; 	' win: colour-cycling walls + fanfare, then back to the title
9197               	; 	' ------------------------------------------------------------
9198               	; winseq:
9199               cvb_WINSEQ
9200               	; 	FOR i = 0 TO 95
9201 E9D4 04C0  14 	clr r0
9202 E9D6 D800  38 	movb r0,@cvb_I
     E9D8 2087     
9203               cv746
9204               	; 	WAIT
9205 E9DA 06A0  32 	bl @jsr
     E9DC A974     
9206 E9DE A64A     	data wait
9207               	; 	t = (i AND 15) * 16 + cb
9208 E9E0 D020  34 	movb @cvb_CB,r0
     E9E2 20CD     
9209 E9E4 0980  32 	srl r0,8
9210 E9E6 064A  14 	dect r10
9211 E9E8 C680  30 	mov r0,*r10
9212 E9EA D020  34 	movb @cvb_I,r0
     E9EC 2087     
9213 E9EE 0201  20 	li r1,3840   ; 15*256
     E9F0 0F00     
9214 E9F2 0541  14 	inv r1
9215 E9F4 5001  18 	szcb r1,r0
9216 E9F6 0980  32 	srl r0,8
9217 E9F8 0A40  24 	sla r0,4
9218 E9FA C07A  30 	mov *r10+,r1
9219 E9FC A001  18 	a r1,r0
9220 E9FE 0A80  32 	sla r0,8
9221 EA00 D800  38 	movb r0,@cvb_T
     EA02 208C     
9222               	; 	FOR r = 0 TO 7
9223 EA04 04C0  14 	clr r0
9224 EA06 D800  38 	movb r0,@cvb_R
     EA08 208B     
9225               cv747
9226               	; 	VPOKE $2400 + r, t : VPOKE $2C00 + r, t : VPOKE $3400 + r, t
9227 EA0A D020  34 	movb @cvb_T,r0
     EA0C 208C     
9228 EA0E 064A  14 	dect r10
9229 EA10 C680  30 	mov r0,*r10
9230 EA12 D020  34 	movb @cvb_R,r0
     EA14 208B     
9231 EA16 0980  32 	srl r0,8
9232 EA18 0220  22 	ai r0,9216
     EA1A 2400     
9233 EA1C C0BA  30 	mov *r10+,r2
9234 EA1E 0300  22 	limi 0
     EA20 0000     
9235 EA22 06A0  32 	bl @JSR
     EA24 A974     
9236 EA26 A018     	data WRTVRM
9237 EA28 0300  22 	limi 2
     EA2A 0002     
9238 EA2C D020  34 	movb @cvb_T,r0
     EA2E 208C     
9239 EA30 064A  14 	dect r10
9240 EA32 C680  30 	mov r0,*r10
9241 EA34 D020  34 	movb @cvb_R,r0
     EA36 208B     
9242 EA38 0980  32 	srl r0,8
9243 EA3A 0220  22 	ai r0,11264
     EA3C 2C00     
9244 EA3E C0BA  30 	mov *r10+,r2
9245 EA40 0300  22 	limi 0
     EA42 0000     
9246 EA44 06A0  32 	bl @JSR
     EA46 A974     
9247 EA48 A018     	data WRTVRM
9248 EA4A 0300  22 	limi 2
     EA4C 0002     
9249 EA4E D020  34 	movb @cvb_T,r0
     EA50 208C     
9250 EA52 064A  14 	dect r10
9251 EA54 C680  30 	mov r0,*r10
9252 EA56 D020  34 	movb @cvb_R,r0
     EA58 208B     
9253 EA5A 0980  32 	srl r0,8
9254 EA5C 0220  22 	ai r0,13312
     EA5E 3400     
9255 EA60 C0BA  30 	mov *r10+,r2
9256 EA62 0300  22 	limi 0
     EA64 0000     
9257 EA66 06A0  32 	bl @JSR
     EA68 A974     
9258 EA6A A018     	data WRTVRM
9259 EA6C 0300  22 	limi 2
     EA6E 0002     
9260               	; 	NEXT r
9261 EA70 D020  34 	movb @cvb_R,r0
     EA72 208B     
9262 EA74 0220  22 	ai r0,256	; 1
     EA76 0100     
9263 EA78 D800  38 	movb r0,@cvb_R
     EA7A 208B     
9264 EA7C 0201  20 	li r1,2048   ; 8*256
     EA7E 0800     
9265 EA80 9040  18 	cb r0,r1
9266 EA82 1402  14 	jhe cv748
9267 EA84 0460  28 	b @cv747
     EA86 EA0A     
9268               cv748
9269               	; 	t = i AND 3
9270 EA88 D020  34 	movb @cvb_I,r0
     EA8A 2087     
9271 EA8C 0201  20 	li r1,768   ; 3*256
     EA8E 0300     
9272 EA90 0541  14 	inv r1
9273 EA92 5001  18 	szcb r1,r0
9274 EA94 D800  38 	movb r0,@cvb_T
     EA96 208C     
9275               	; 	IF t = 0 THEN SOUND 0, 214, 12
9276 EA98 04C1  14 	clr r1
9277 EA9A 9001  18 	cb r1,r0
9278 EA9C 1302  14 	jeq cv750
9279 EA9E 0460  28 	b @cv749
     EAA0 EABE     
9280               cv750
9281 EAA2 0200  20 	li r0,214
     EAA4 00D6     
9282 EAA6 0202  20 	li r2,>8000
     EAA8 8000     
9283 EAAA 06A0  32 	bl @jsr
     EAAC A974     
9284 EAAE A2BA     	data sn76489_freq
9285 EAB0 0200  20 	li r0,3072   ; 12*256
     EAB2 0C00     
9286 EAB4 0202  20 	li r2,>9000
     EAB6 9000     
9287 EAB8 06A0  32 	bl @jsr
     EABA A974     
9288 EABC A2D6     	data sn76489_vol
9289               cv749
9290               	; 	IF t = 1 THEN SOUND 0, 170, 12
9291 EABE D020  34 	movb @cvb_T,r0
     EAC0 208C     
9292 EAC2 0201  20 	li r1,256   ; 1*256
     EAC4 0100     
9293 EAC6 9001  18 	cb r1,r0
9294 EAC8 1302  14 	jeq cv752
9295 EACA 0460  28 	b @cv751
     EACC EAEA     
9296               cv752
9297 EACE 0200  20 	li r0,170
     EAD0 00AA     
9298 EAD2 0202  20 	li r2,>8000
     EAD4 8000     
9299 EAD6 06A0  32 	bl @jsr
     EAD8 A974     
9300 EADA A2BA     	data sn76489_freq
9301 EADC 0200  20 	li r0,3072   ; 12*256
     EADE 0C00     
9302 EAE0 0202  20 	li r2,>9000
     EAE2 9000     
9303 EAE4 06A0  32 	bl @jsr
     EAE6 A974     
9304 EAE8 A2D6     	data sn76489_vol
9305               cv751
9306               	; 	IF t = 2 THEN SOUND 0, 143, 12
9307 EAEA D020  34 	movb @cvb_T,r0
     EAEC 208C     
9308 EAEE 0201  20 	li r1,512   ; 2*256
     EAF0 0200     
9309 EAF2 9001  18 	cb r1,r0
9310 EAF4 1302  14 	jeq cv754
9311 EAF6 0460  28 	b @cv753
     EAF8 EB16     
9312               cv754
9313 EAFA 0200  20 	li r0,143
     EAFC 008F     
9314 EAFE 0202  20 	li r2,>8000
     EB00 8000     
9315 EB02 06A0  32 	bl @jsr
     EB04 A974     
9316 EB06 A2BA     	data sn76489_freq
9317 EB08 0200  20 	li r0,3072   ; 12*256
     EB0A 0C00     
9318 EB0C 0202  20 	li r2,>9000
     EB0E 9000     
9319 EB10 06A0  32 	bl @jsr
     EB12 A974     
9320 EB14 A2D6     	data sn76489_vol
9321               cv753
9322               	; 	IF t = 3 THEN SOUND 0, 107, 12
9323 EB16 D020  34 	movb @cvb_T,r0
     EB18 208C     
9324 EB1A 0201  20 	li r1,768   ; 3*256
     EB1C 0300     
9325 EB1E 9001  18 	cb r1,r0
9326 EB20 1302  14 	jeq cv756
9327 EB22 0460  28 	b @cv755
     EB24 EB42     
9328               cv756
9329 EB26 0200  20 	li r0,107
     EB28 006B     
9330 EB2A 0202  20 	li r2,>8000
     EB2C 8000     
9331 EB2E 06A0  32 	bl @jsr
     EB30 A974     
9332 EB32 A2BA     	data sn76489_freq
9333 EB34 0200  20 	li r0,3072   ; 12*256
     EB36 0C00     
9334 EB38 0202  20 	li r2,>9000
     EB3A 9000     
9335 EB3C 06A0  32 	bl @jsr
     EB3E A974     
9336 EB40 A2D6     	data sn76489_vol
9337               cv755
9338               	; 	NEXT i
9339 EB42 D020  34 	movb @cvb_I,r0
     EB44 2087     
9340 EB46 0220  22 	ai r0,256	; 1
     EB48 0100     
9341 EB4A D800  38 	movb r0,@cvb_I
     EB4C 2087     
9342 EB4E 0201  20 	li r1,24576   ; 96*256
     EB50 6000     
9343 EB52 9040  18 	cb r0,r1
9344 EB54 1402  14 	jhe cv757
9345 EB56 0460  28 	b @cv746
     EB58 E9DA     
9346               cv757
9347               	; 	SOUND 0, , 0
9348 EB5A 04C0  14 	clr r0
9349 EB5C 0202  20 	li r2,>9000
     EB5E 9000     
9350 EB60 06A0  32 	bl @jsr
     EB62 A974     
9351 EB64 A2D6     	data sn76489_vol
9352               	; 	PRINT AT 32 * 13 + 10, "THE CHALICE"
9353 EB66 0200  20 	li r0,426
     EB68 01AA     
9354 EB6A C800  30 	mov r0,@cursor
     EB6C 8342     
9355 EB6E 0202  20 	li r2,cv758
     EB70 EB80     
9356 EB72 0203  20 	li r3,11
     EB74 000B     
9357 EB76 06A0  32 	bl @jsr
     EB78 A974     
9358 EB7A A11C     	data print_string
9359 EB7C 0460  28 	b @cv759
     EB7E EB8C     
9360               cv758
9361 EB80 5448     	byte >54,>48,>45,>20,>43,>48,>41,>4c
     EB82 4520     
     EB84 4348     
     EB86 414C     
9362 EB88 4943     	byte >49,>43,>45
     EB8A 45       
9363               	even
9364               cv759
9365               	; 	PRINT AT 32 * 14 + 10, "  IS HOME! "
9366 EB8C 0200  20 	li r0,458
     EB8E 01CA     
9367 EB90 C800  30 	mov r0,@cursor
     EB92 8342     
9368 EB94 0202  20 	li r2,cv760
     EB96 EBA6     
9369 EB98 0203  20 	li r3,11
     EB9A 000B     
9370 EB9C 06A0  32 	bl @jsr
     EB9E A974     
9371 EBA0 A11C     	data print_string
9372 EBA2 0460  28 	b @cv761
     EBA4 EBB2     
9373               cv760
9374 EBA6 2020     	byte >20,>20,>49,>53,>20,>48,>4f,>4d
     EBA8 4953     
     EBAA 2048     
     EBAC 4F4D     
9375 EBAE 4521     	byte >45,>21,>20
     EBB0 20       
9376               	even
9377               cv761
9378               	; 	PRINT AT 32 * 16 + 7, "PRESS FIRE TO PLAY"
9379 EBB2 0200  20 	li r0,519
     EBB4 0207     
9380 EBB6 C800  30 	mov r0,@cursor
     EBB8 8342     
9381 EBBA 0202  20 	li r2,cv762
     EBBC EBCC     
9382 EBBE 0203  20 	li r3,18
     EBC0 0012     
9383 EBC2 06A0  32 	bl @jsr
     EBC4 A974     
9384 EBC6 A11C     	data print_string
9385 EBC8 0460  28 	b @cv763
     EBCA EBDE     
9386               cv762
9387 EBCC 5052     	byte >50,>52,>45,>53,>53,>20,>46,>49
     EBCE 4553     
     EBD0 5320     
     EBD2 4649     
9388 EBD4 5245     	byte >52,>45,>20,>54,>4f,>20,>50,>4c
     EBD6 2054     
     EBD8 4F20     
     EBDA 504C     
9389 EBDC 4159     	byte >41,>59
9390               	even
9391               cv763
9392               	; ww1:	WAIT : IF cont1.button > 0 THEN GOTO ww1
9393               cvb_WW1
9394 EBDE 06A0  32 	bl @jsr
     EBE0 A974     
9395 EBE2 A64A     	data wait
9396 EBE4 D020  30 	movb @joy1_data,r0
     EBE6 8346     
9397 EBE8 0201  20 	li r1,16384   ; 64*256
     EBEA 4000     
9398 EBEC 0541  14 	inv r1
9399 EBEE 5001  18 	szcb r1,r0
9400 EBF0 0201  20 	li r1,256   ; 1*256
     EBF2 0100     
9401 EBF4 9040  18 	cb r0,r1
9402 EBF6 1402  14 	jhe cv765
9403 EBF8 0460  28 	b @cv764
     EBFA EC00     
9404               cv765
9405 EBFC 0460  28 	b @cvb_WW1
     EBFE EBDE     
9406               cv764
9407               	; ww2:	WAIT : IF cont1.button = 0 THEN GOTO ww2
9408               cvb_WW2
9409 EC00 06A0  32 	bl @jsr
     EC02 A974     
9410 EC04 A64A     	data wait
9411 EC06 D020  30 	movb @joy1_data,r0
     EC08 8346     
9412 EC0A 0201  20 	li r1,16384   ; 64*256
     EC0C 4000     
9413 EC0E 0541  14 	inv r1
9414 EC10 5001  18 	szcb r1,r0
9415 EC12 04C1  14 	clr r1
9416 EC14 9001  18 	cb r1,r0
9417 EC16 1302  14 	jeq cv767
9418 EC18 0460  28 	b @cv766
     EC1A EC20     
9419               cv767
9420 EC1C 0460  28 	b @cvb_WW2
     EC1E EC00     
9421               cv766
9422               	; 	GOTO restart
9423 EC20 0460  28 	b @cvb_RESTART
     EC22 AACC     
9424               	;
9425               	; 	' ------------------------------------------------------------
9426               	; 	' title + game select (UP/DOWN choose, FIRE start)
9427               	; 	' ------------------------------------------------------------
9428               	; title: PROCEDURE
9429               	even
9430               cvb_TITLE
9431               	; 	CLS
9432 EC24 06A0  32 	bl @jsr
     EC26 A974     
9433 EC28 A0FC     	data cls
9434               	; 	' clear every sprite left over from the game just played
9435               	; 	FOR i = 0 TO 16 : SPRITE i, $d1, 0, 0, 0 : NEXT i
9436 EC2A 04C0  14 	clr r0
9437 EC2C D800  38 	movb r0,@cvb_I
     EC2E 2087     
9438               cv768
9439 EC30 D120  34 	movb @cvb_I,r4
     EC32 2087     
9440 EC34 0205  20 	li r5,53504
     EC36 D100     
9441 EC38 04C6  14 	clr r6
9442 EC3A 04C7  14 	clr r7
9443 EC3C 04C0  14 	clr r0
9444 EC3E 06A0  32 	bl @jsr
     EC40 A974     
9445 EC42 A24E     	data update_sprite
9446 EC44 D020  34 	movb @cvb_I,r0
     EC46 2087     
9447 EC48 0220  22 	ai r0,256	; 1
     EC4A 0100     
9448 EC4C D800  38 	movb r0,@cvb_I
     EC4E 2087     
9449 EC50 0201  20 	li r1,4352   ; 17*256
     EC52 1100     
9450 EC54 9040  18 	cb r0,r1
9451 EC56 1402  14 	jhe cv769
9452 EC58 0460  28 	b @cv768
     EC5A EC30     
9453               cv769
9454               	; 	BORDER 1
9455 EC5C 0200  20 	li r0,256   ; 1*256
     EC5E 0100     
9456 EC60 0980  32 	srl r0,8
9457 EC62 0260  22 	ori r0,>8700
     EC64 8700     
9458 EC66 06C0  14 	swpb r0
9459 EC68 0300  22 	limi 0
     EC6A 0000     
9460 EC6C D800  30 	movb r0,@VDPWADR
     EC6E 8C02     
9461 EC70 06C0  14 	swpb r0
9462 EC72 D800  30 	movb r0,@VDPWADR
     EC74 8C02     
9463 EC76 0300  22 	limi 2
     EC78 0002     
9464               	; 	t = 11 * 16 + 1
9465 EC7A 0200  20 	li r0,45312   ; 177*256
     EC7C B100     
9466 EC7E D800  38 	movb r0,@cvb_T
     EC80 208C     
9467               	; 	FOR i = 0 TO 7
9468 EC82 04C0  14 	clr r0
9469 EC84 D800  38 	movb r0,@cvb_I
     EC86 2087     
9470               cv770
9471               	; 	VPOKE $2400 + i, t : VPOKE $2C00 + i, t : VPOKE $3400 + i, t
9472 EC88 D020  34 	movb @cvb_T,r0
     EC8A 208C     
9473 EC8C 064A  14 	dect r10
9474 EC8E C680  30 	mov r0,*r10
9475 EC90 D020  34 	movb @cvb_I,r0
     EC92 2087     
9476 EC94 0980  32 	srl r0,8
9477 EC96 0220  22 	ai r0,9216
     EC98 2400     
9478 EC9A C0BA  30 	mov *r10+,r2
9479 EC9C 0300  22 	limi 0
     EC9E 0000     
9480 ECA0 06A0  32 	bl @JSR
     ECA2 A974     
9481 ECA4 A018     	data WRTVRM
9482 ECA6 0300  22 	limi 2
     ECA8 0002     
9483 ECAA D020  34 	movb @cvb_T,r0
     ECAC 208C     
9484 ECAE 064A  14 	dect r10
9485 ECB0 C680  30 	mov r0,*r10
9486 ECB2 D020  34 	movb @cvb_I,r0
     ECB4 2087     
9487 ECB6 0980  32 	srl r0,8
9488 ECB8 0220  22 	ai r0,11264
     ECBA 2C00     
9489 ECBC C0BA  30 	mov *r10+,r2
9490 ECBE 0300  22 	limi 0
     ECC0 0000     
9491 ECC2 06A0  32 	bl @JSR
     ECC4 A974     
9492 ECC6 A018     	data WRTVRM
9493 ECC8 0300  22 	limi 2
     ECCA 0002     
9494 ECCC D020  34 	movb @cvb_T,r0
     ECCE 208C     
9495 ECD0 064A  14 	dect r10
9496 ECD2 C680  30 	mov r0,*r10
9497 ECD4 D020  34 	movb @cvb_I,r0
     ECD6 2087     
9498 ECD8 0980  32 	srl r0,8
9499 ECDA 0220  22 	ai r0,13312
     ECDC 3400     
9500 ECDE C0BA  30 	mov *r10+,r2
9501 ECE0 0300  22 	limi 0
     ECE2 0000     
9502 ECE4 06A0  32 	bl @JSR
     ECE6 A974     
9503 ECE8 A018     	data WRTVRM
9504 ECEA 0300  22 	limi 2
     ECEC 0002     
9505               	; 	VPOKE $2100 + i, 1 : VPOKE $2900 + i, 1 : VPOKE $3100 + i, 1
9506 ECEE 0200  20 	li r0,256   ; 1*256
     ECF0 0100     
9507 ECF2 064A  14 	dect r10
9508 ECF4 C680  30 	mov r0,*r10
9509 ECF6 D020  34 	movb @cvb_I,r0
     ECF8 2087     
9510 ECFA 0980  32 	srl r0,8
9511 ECFC 0220  22 	ai r0,8448
     ECFE 2100     
9512 ED00 C0BA  30 	mov *r10+,r2
9513 ED02 0300  22 	limi 0
     ED04 0000     
9514 ED06 06A0  32 	bl @JSR
     ED08 A974     
9515 ED0A A018     	data WRTVRM
9516 ED0C 0300  22 	limi 2
     ED0E 0002     
9517 ED10 0200  20 	li r0,256   ; 1*256
     ED12 0100     
9518 ED14 064A  14 	dect r10
9519 ED16 C680  30 	mov r0,*r10
9520 ED18 D020  34 	movb @cvb_I,r0
     ED1A 2087     
9521 ED1C 0980  32 	srl r0,8
9522 ED1E 0220  22 	ai r0,10496
     ED20 2900     
9523 ED22 C0BA  30 	mov *r10+,r2
9524 ED24 0300  22 	limi 0
     ED26 0000     
9525 ED28 06A0  32 	bl @JSR
     ED2A A974     
9526 ED2C A018     	data WRTVRM
9527 ED2E 0300  22 	limi 2
     ED30 0002     
9528 ED32 0200  20 	li r0,256   ; 1*256
     ED34 0100     
9529 ED36 064A  14 	dect r10
9530 ED38 C680  30 	mov r0,*r10
9531 ED3A D020  34 	movb @cvb_I,r0
     ED3C 2087     
9532 ED3E 0980  32 	srl r0,8
9533 ED40 0220  22 	ai r0,12544
     ED42 3100     
9534 ED44 C0BA  30 	mov *r10+,r2
9535 ED46 0300  22 	limi 0
     ED48 0000     
9536 ED4A 06A0  32 	bl @JSR
     ED4C A974     
9537 ED4E A018     	data WRTVRM
9538 ED50 0300  22 	limi 2
     ED52 0002     
9539               	; 	NEXT i
9540 ED54 D020  34 	movb @cvb_I,r0
     ED56 2087     
9541 ED58 0220  22 	ai r0,256	; 1
     ED5A 0100     
9542 ED5C D800  38 	movb r0,@cvb_I
     ED5E 2087     
9543 ED60 0201  20 	li r1,2048   ; 8*256
     ED62 0800     
9544 ED64 9040  18 	cb r0,r1
9545 ED66 1402  14 	jhe cv771
9546 ED68 0460  28 	b @cv770
     ED6A EC88     
9547               cv771
9548               	; 	' undo any secret-room glyph colour cycling (middle third)
9549               	; 	RESTORE eggch
9550 ED6C 0200  20 	li r0,cvb_EGGCH
     ED6E F17C     
9551 ED70 C800  30 	mov r0,@read_pointer
     ED72 8340     
9552               	; 	FOR i2 = 0 TO 15
9553 ED74 04C0  14 	clr r0
9554 ED76 D800  38 	movb r0,@cvb_I2
     ED78 20D6     
9555               cv772
9556               	; 	READ BYTE t
9557 ED7A C060  30 	mov @read_pointer,r1
     ED7C 8340     
9558 ED7E D011  26 	movb *r1,r0
9559 ED80 05A0  26 	inc @read_pointer
     ED82 8340     
9560 ED84 D800  38 	movb r0,@cvb_T
     ED86 208C     
9561               	; 	#ad = $2800 + t * 8
9562 ED88 0980  32 	srl r0,8
9563 ED8A 0A30  22 	sla r0,3
9564 ED8C 0220  22 	ai r0,10240
     ED8E 2800     
9565 ED90 C800  38 	mov r0,@cvb__AD
     ED92 20B2     
9566               	; 	FOR i = 0 TO 7 : VPOKE #ad + i, $F0 : NEXT i
9567 ED94 04C0  14 	clr r0
9568 ED96 D800  38 	movb r0,@cvb_I
     ED98 2087     
9569               cv773
9570 ED9A 0200  20 	li r0,61440   ; 240*256
     ED9C F000     
9571 ED9E 064A  14 	dect r10
9572 EDA0 C680  30 	mov r0,*r10
9573 EDA2 D020  34 	movb @cvb_I,r0
     EDA4 2087     
9574 EDA6 0980  32 	srl r0,8
9575 EDA8 C040  18 	mov r0,r1
9576 EDAA C020  34 	mov @cvb__AD,r0
     EDAC 20B2     
9577 EDAE A001  18 	a r1,r0
9578 EDB0 C0BA  30 	mov *r10+,r2
9579 EDB2 0300  22 	limi 0
     EDB4 0000     
9580 EDB6 06A0  32 	bl @JSR
     EDB8 A974     
9581 EDBA A018     	data WRTVRM
9582 EDBC 0300  22 	limi 2
     EDBE 0002     
9583 EDC0 D020  34 	movb @cvb_I,r0
     EDC2 2087     
9584 EDC4 0220  22 	ai r0,256	; 1
     EDC6 0100     
9585 EDC8 D800  38 	movb r0,@cvb_I
     EDCA 2087     
9586 EDCC 0201  20 	li r1,2048   ; 8*256
     EDCE 0800     
9587 EDD0 9040  18 	cb r0,r1
9588 EDD2 1402  14 	jhe cv774
9589 EDD4 0460  28 	b @cv773
     EDD6 ED9A     
9590               cv774
9591               	; 	NEXT i2
9592 EDD8 D020  34 	movb @cvb_I2,r0
     EDDA 20D6     
9593 EDDC 0220  22 	ai r0,256	; 1
     EDDE 0100     
9594 EDE0 D800  38 	movb r0,@cvb_I2
     EDE2 20D6     
9595 EDE4 0201  20 	li r1,4096   ; 16*256
     EDE6 1000     
9596 EDE8 9040  18 	cb r0,r1
9597 EDEA 1402  14 	jhe cv775
9598 EDEC 0460  28 	b @cv772
     EDEE ED7A     
9599               cv775
9600               	; 	PRINT AT 32 * 2 + 7, "A D V E N T I R E"
9601 EDF0 0200  20 	li r0,71
     EDF2 0047     
9602 EDF4 C800  30 	mov r0,@cursor
     EDF6 8342     
9603 EDF8 0202  20 	li r2,cv776
     EDFA EE0A     
9604 EDFC 0203  20 	li r3,17
     EDFE 0011     
9605 EE00 06A0  32 	bl @jsr
     EE02 A974     
9606 EE04 A11C     	data print_string
9607 EE06 0460  28 	b @cv777
     EE08 EE1C     
9608               cv776
9609 EE0A 4120     	byte >41,>20,>44,>20,>56,>20,>45,>20
     EE0C 4420     
     EE0E 5620     
     EE10 4520     
9610 EE12 4E20     	byte >4e,>20,>54,>20,>49,>20,>52,>20
     EE14 5420     
     EE16 4920     
     EE18 5220     
9611 EE1A 45       	byte >45
9612               	even
9613               cv777
9614               	; 	PRINT AT 32 * 5 + 10, "\128\128 \128\128 \128\128 \128\128"
9615 EE1C 0200  20 	li r0,170
     EE1E 00AA     
9616 EE20 C800  30 	mov r0,@cursor
     EE22 8342     
9617 EE24 0202  20 	li r2,cv778
     EE26 EE36     
9618 EE28 0203  20 	li r3,11
     EE2A 000B     
9619 EE2C 06A0  32 	bl @jsr
     EE2E A974     
9620 EE30 A11C     	data print_string
9621 EE32 0460  28 	b @cv779
     EE34 EE42     
9622               cv778
9623 EE36 8080     	byte >80,>80,>20,>80,>80,>20,>80,>80
     EE38 2080     
     EE3A 8020     
     EE3C 8080     
9624 EE3E 2080     	byte >20,>80,>80
     EE40 80       
9625               	even
9626               cv779
9627               	; 	PRINT AT 32 * 6 + 10, "\128\128\128\128\128\128\128\128\128\128\128"
9628 EE42 0200  20 	li r0,202
     EE44 00CA     
9629 EE46 C800  30 	mov r0,@cursor
     EE48 8342     
9630 EE4A 0202  20 	li r2,cv780
     EE4C EE5C     
9631 EE4E 0203  20 	li r3,11
     EE50 000B     
9632 EE52 06A0  32 	bl @jsr
     EE54 A974     
9633 EE56 A11C     	data print_string
9634 EE58 0460  28 	b @cv781
     EE5A EE68     
9635               cv780
9636 EE5C 8080     	byte >80,>80,>80,>80,>80,>80,>80,>80
     EE5E 8080     
     EE60 8080     
     EE62 8080     
9637 EE64 8080     	byte >80,>80,>80
     EE66 80       
9638               	even
9639               cv781
9640               	; 	PRINT AT 32 * 7 + 10, "\128\128\128\128\129\129\129\128\128\128\128"
9641 EE68 0200  20 	li r0,234
     EE6A 00EA     
9642 EE6C C800  30 	mov r0,@cursor
     EE6E 8342     
9643 EE70 0202  20 	li r2,cv782
     EE72 EE82     
9644 EE74 0203  20 	li r3,11
     EE76 000B     
9645 EE78 06A0  32 	bl @jsr
     EE7A A974     
9646 EE7C A11C     	data print_string
9647 EE7E 0460  28 	b @cv783
     EE80 EE8E     
9648               cv782
9649 EE82 8080     	byte >80,>80,>80,>80,>81,>81,>81,>80
     EE84 8080     
     EE86 8181     
     EE88 8180     
9650 EE8A 8080     	byte >80,>80,>80
     EE8C 80       
9651               	even
9652               cv783
9653               	; 	PRINT AT 32 * 8 + 10, "\128\128\128\128\129\129\129\128\128\128\128"
9654 EE8E 0200  20 	li r0,266
     EE90 010A     
9655 EE92 C800  30 	mov r0,@cursor
     EE94 8342     
9656 EE96 0202  20 	li r2,cv784
     EE98 EEA8     
9657 EE9A 0203  20 	li r3,11
     EE9C 000B     
9658 EE9E 06A0  32 	bl @jsr
     EEA0 A974     
9659 EEA2 A11C     	data print_string
9660 EEA4 0460  28 	b @cv785
     EEA6 EEB4     
9661               cv784
9662 EEA8 8080     	byte >80,>80,>80,>80,>81,>81,>81,>80
     EEAA 8080     
     EEAC 8181     
     EEAE 8180     
9663 EEB0 8080     	byte >80,>80,>80
     EEB2 80       
9664               	even
9665               cv785
9666               	; 	PRINT AT 32 * 11 + 7, "GAME 1  INTRO KINGDOM"
9667 EEB4 0200  20 	li r0,359
     EEB6 0167     
9668 EEB8 C800  30 	mov r0,@cursor
     EEBA 8342     
9669 EEBC 0202  20 	li r2,cv786
     EEBE EECE     
9670 EEC0 0203  20 	li r3,21
     EEC2 0015     
9671 EEC4 06A0  32 	bl @jsr
     EEC6 A974     
9672 EEC8 A11C     	data print_string
9673 EECA 0460  28 	b @cv787
     EECC EEE4     
9674               cv786
9675 EECE 4741     	byte >47,>41,>4d,>45,>20,>31,>20,>20
     EED0 4D45     
     EED2 2031     
     EED4 2020     
9676 EED6 494E     	byte >49,>4e,>54,>52,>4f,>20,>4b,>49
     EED8 5452     
     EEDA 4F20     
     EEDC 4B49     
9677 EEDE 4E47     	byte >4e,>47,>44,>4f,>4d
     EEE0 444F     
     EEE2 4D       
9678               	even
9679               cv787
9680               	; 	PRINT AT 32 * 13 + 7, "GAME 2  SMALL KINGDOM"
9681 EEE4 0200  20 	li r0,423
     EEE6 01A7     
9682 EEE8 C800  30 	mov r0,@cursor
     EEEA 8342     
9683 EEEC 0202  20 	li r2,cv788
     EEEE EEFE     
9684 EEF0 0203  20 	li r3,21
     EEF2 0015     
9685 EEF4 06A0  32 	bl @jsr
     EEF6 A974     
9686 EEF8 A11C     	data print_string
9687 EEFA 0460  28 	b @cv789
     EEFC EF14     
9688               cv788
9689 EEFE 4741     	byte >47,>41,>4d,>45,>20,>32,>20,>20
     EF00 4D45     
     EF02 2032     
     EF04 2020     
9690 EF06 534D     	byte >53,>4d,>41,>4c,>4c,>20,>4b,>49
     EF08 414C     
     EF0A 4C20     
     EF0C 4B49     
9691 EF0E 4E47     	byte >4e,>47,>44,>4f,>4d
     EF10 444F     
     EF12 4D       
9692               	even
9693               cv789
9694               	; 	PRINT AT 32 * 15 + 7, "GAME 3  FULL KINGDOM"
9695 EF14 0200  20 	li r0,487
     EF16 01E7     
9696 EF18 C800  30 	mov r0,@cursor
     EF1A 8342     
9697 EF1C 0202  20 	li r2,cv790
     EF1E EF2E     
9698 EF20 0203  20 	li r3,20
     EF22 0014     
9699 EF24 06A0  32 	bl @jsr
     EF26 A974     
9700 EF28 A11C     	data print_string
9701 EF2A 0460  28 	b @cv791
     EF2C EF42     
9702               cv790
9703 EF2E 4741     	byte >47,>41,>4d,>45,>20,>33,>20,>20
     EF30 4D45     
     EF32 2033     
     EF34 2020     
9704 EF36 4655     	byte >46,>55,>4c,>4c,>20,>4b,>49,>4e
     EF38 4C4C     
     EF3A 204B     
     EF3C 494E     
9705 EF3E 4744     	byte >47,>44,>4f,>4d
     EF40 4F4D     
9706               	even
9707               cv791
9708               	; 	PRINT AT 32 * 17 + 7, "GAME 4  RANDOM KINGDOM"
9709 EF42 0200  20 	li r0,551
     EF44 0227     
9710 EF46 C800  30 	mov r0,@cursor
     EF48 8342     
9711 EF4A 0202  20 	li r2,cv792
     EF4C EF5C     
9712 EF4E 0203  20 	li r3,22
     EF50 0016     
9713 EF52 06A0  32 	bl @jsr
     EF54 A974     
9714 EF56 A11C     	data print_string
9715 EF58 0460  28 	b @cv793
     EF5A EF72     
9716               cv792
9717 EF5C 4741     	byte >47,>41,>4d,>45,>20,>34,>20,>20
     EF5E 4D45     
     EF60 2034     
     EF62 2020     
9718 EF64 5241     	byte >52,>41,>4e,>44,>4f,>4d,>20,>4b
     EF66 4E44     
     EF68 4F4D     
     EF6A 204B     
9719 EF6C 494E     	byte >49,>4e,>47,>44,>4f,>4d
     EF6E 4744     
     EF70 4F4D     
9720               	even
9721               cv793
9722               	; 	PRINT AT 32 * 21 + 6, "PRESS FIRE TO START"
9723 EF72 0200  20 	li r0,678
     EF74 02A6     
9724 EF76 C800  30 	mov r0,@cursor
     EF78 8342     
9725 EF7A 0202  20 	li r2,cv794
     EF7C EF8C     
9726 EF7E 0203  20 	li r3,19
     EF80 0013     
9727 EF82 06A0  32 	bl @jsr
     EF84 A974     
9728 EF86 A11C     	data print_string
9729 EF88 0460  28 	b @cv795
     EF8A EFA0     
9730               cv794
9731 EF8C 5052     	byte >50,>52,>45,>53,>53,>20,>46,>49
     EF8E 4553     
     EF90 5320     
     EF92 4649     
9732 EF94 5245     	byte >52,>45,>20,>54,>4f,>20,>53,>54
     EF96 2054     
     EF98 4F20     
     EF9A 5354     
9733 EF9C 4152     	byte >41,>52,>54
     EF9E 54       
9734               	even
9735               cv795
9736               	; 	' debounce: the press that ended the last game must not start
9737               	; 	' the next one - require the button quiet for ~2/3 second
9738               	; 	udl = 0 : t2 = 20
9739 EFA0 04C0  14 	clr r0
9740 EFA2 D800  38 	movb r0,@cvb_UDL
     EFA4 2089     
9741 EFA6 0200  20 	li r0,5120   ; 20*256
     EFA8 1400     
9742 EFAA D800  38 	movb r0,@cvb_T2
     EFAC 20E1     
9743               	; tdb:	WAIT
9744               cvb_TDB
9745 EFAE 06A0  32 	bl @jsr
     EFB0 A974     
9746 EFB2 A64A     	data wait
9747               	; 	IF cont1.button > 0 THEN t2 = 20 : GOTO tdb
9748 EFB4 D020  30 	movb @joy1_data,r0
     EFB6 8346     
9749 EFB8 0201  20 	li r1,16384   ; 64*256
     EFBA 4000     
9750 EFBC 0541  14 	inv r1
9751 EFBE 5001  18 	szcb r1,r0
9752 EFC0 0201  20 	li r1,256   ; 1*256
     EFC2 0100     
9753 EFC4 9040  18 	cb r0,r1
9754 EFC6 1402  14 	jhe cv797
9755 EFC8 0460  28 	b @cv796
     EFCA EFD8     
9756               cv797
9757 EFCC 0200  20 	li r0,5120   ; 20*256
     EFCE 1400     
9758 EFD0 D800  38 	movb r0,@cvb_T2
     EFD2 20E1     
9759 EFD4 0460  28 	b @cvb_TDB
     EFD6 EFAE     
9760               cv796
9761               	; 	t2 = t2 - 1
9762 EFD8 D020  34 	movb @cvb_T2,r0
     EFDA 20E1     
9763 EFDC 0220  22 	ai r0,65280	; -1
     EFDE FF00     
9764 EFE0 D800  38 	movb r0,@cvb_T2
     EFE2 20E1     
9765               	; 	IF t2 > 0 THEN GOTO tdb
9766 EFE4 0201  20 	li r1,256   ; 1*256
     EFE6 0100     
9767 EFE8 9040  18 	cb r0,r1
9768 EFEA 1402  14 	jhe cv799
9769 EFEC 0460  28 	b @cv798
     EFEE EFF4     
9770               cv799
9771 EFF0 0460  28 	b @cvb_TDB
     EFF2 EFAE     
9772               cv798
9773               	; tsel:
9774               cvb_TSEL
9775               	; 	WAIT
9776 EFF4 06A0  32 	bl @jsr
     EFF6 A974     
9777 EFF8 A64A     	data wait
9778               	; 	IF udl > 0 THEN udl = udl - 1
9779 EFFA D020  34 	movb @cvb_UDL,r0
     EFFC 2089     
9780 EFFE 0201  20 	li r1,256   ; 1*256
     F000 0100     
9781 F002 9040  18 	cb r0,r1
9782 F004 1402  14 	jhe cv801
9783 F006 0460  28 	b @cv800
     F008 F016     
9784               cv801
9785 F00A D020  34 	movb @cvb_UDL,r0
     F00C 2089     
9786 F00E 0220  22 	ai r0,65280	; -1
     F010 FF00     
9787 F012 D800  38 	movb r0,@cvb_UDL
     F014 2089     
9788               cv800
9789               	; 	FOR i = 0 TO 3
9790 F016 04C0  14 	clr r0
9791 F018 D800  38 	movb r0,@cvb_I
     F01A 2087     
9792               cv802
9793               	; 	IF i = gm - 1 THEN PRINT AT 32 * (11 + i * 2) + 5, ">" ELSE PRINT AT 32 * (11 + i * 2) + 5, " "
9794 F01C D020  34 	movb @cvb_GM,r0
     F01E 20D7     
9795 F020 0980  32 	srl r0,8
9796 F022 0600  14 	dec r0
9797 F024 C040  18 	mov r0,r1
9798 F026 D020  34 	movb @cvb_I,r0
     F028 2087     
9799 F02A 0980  32 	srl r0,8
9800 F02C 8040  18 	c r0,r1
9801 F02E 1302  14 	jeq cv804
9802 F030 0460  28 	b @cv803
     F032 F062     
9803               cv804
9804 F034 D020  34 	movb @cvb_I,r0
     F036 2087     
9805 F038 0980  32 	srl r0,8
9806 F03A 0A10  18 	sla r0,1
9807 F03C 0220  22 	ai r0,11
     F03E 000B     
9808 F040 0A50  26 	sla r0,5
9809 F042 0220  22 	ai r0,5
     F044 0005     
9810 F046 C800  30 	mov r0,@cursor
     F048 8342     
9811 F04A 0202  20 	li r2,cv805
     F04C F05C     
9812 F04E 0203  20 	li r3,1
     F050 0001     
9813 F052 06A0  32 	bl @jsr
     F054 A974     
9814 F056 A11C     	data print_string
9815 F058 0460  28 	b @cv806
     F05A F05E     
9816               cv805
9817 F05C 3E       	byte >3e
9818               	even
9819               cv806
9820 F05E 0460  28 	b @cv807
     F060 F08C     
9821               cv803
9822 F062 D020  34 	movb @cvb_I,r0
     F064 2087     
9823 F066 0980  32 	srl r0,8
9824 F068 0A10  18 	sla r0,1
9825 F06A 0220  22 	ai r0,11
     F06C 000B     
9826 F06E 0A50  26 	sla r0,5
9827 F070 0220  22 	ai r0,5
     F072 0005     
9828 F074 C800  30 	mov r0,@cursor
     F076 8342     
9829 F078 0202  20 	li r2,cv808
     F07A F08A     
9830 F07C 0203  20 	li r3,1
     F07E 0001     
9831 F080 06A0  32 	bl @jsr
     F082 A974     
9832 F084 A11C     	data print_string
9833 F086 0460  28 	b @cv809
     F088 F08C     
9834               cv808
9835 F08A 20       	byte >20
9836               	even
9837               cv809
9838               cv807
9839               	; 	NEXT i
9840 F08C D020  34 	movb @cvb_I,r0
     F08E 2087     
9841 F090 0220  22 	ai r0,256	; 1
     F092 0100     
9842 F094 D800  38 	movb r0,@cvb_I
     F096 2087     
9843 F098 0201  20 	li r1,1024   ; 4*256
     F09A 0400     
9844 F09C 9040  18 	cb r0,r1
9845 F09E 1402  14 	jhe cv810
9846 F0A0 0460  28 	b @cv802
     F0A2 F01C     
9847               cv810
9848               	; 	IF udl = 0 THEN IF cont1.up THEN IF gm > 1 THEN gm = gm - 1 : udl = 8
9849 F0A4 D020  34 	movb @cvb_UDL,r0
     F0A6 2089     
9850 F0A8 1302  14 	jeq cv812
9851 F0AA 0460  28 	b @cv811
     F0AC F0E4     
9852               cv812
9853 F0AE D020  30 	movb @joy1_data,r0
     F0B0 8346     
9854 F0B2 0201  20 	li r1,256   ; 1*256
     F0B4 0100     
9855 F0B6 0541  14 	inv r1
9856 F0B8 5001  18 	szcb r1,r0
9857 F0BA 1602  14 	jne cv814
9858 F0BC 0460  28 	b @cv813
     F0BE F0E4     
9859               cv814
9860 F0C0 D020  34 	movb @cvb_GM,r0
     F0C2 20D7     
9861 F0C4 0201  20 	li r1,512   ; 2*256
     F0C6 0200     
9862 F0C8 9040  18 	cb r0,r1
9863 F0CA 1402  14 	jhe cv816
9864 F0CC 0460  28 	b @cv815
     F0CE F0E4     
9865               cv816
9866 F0D0 D020  34 	movb @cvb_GM,r0
     F0D2 20D7     
9867 F0D4 0220  22 	ai r0,65280	; -1
     F0D6 FF00     
9868 F0D8 D800  38 	movb r0,@cvb_GM
     F0DA 20D7     
9869 F0DC 0200  20 	li r0,2048   ; 8*256
     F0DE 0800     
9870 F0E0 D800  38 	movb r0,@cvb_UDL
     F0E2 2089     
9871               cv815
9872               cv813
9873               cv811
9874               	; 	IF udl = 0 THEN IF cont1.down THEN IF gm < 4 THEN gm = gm + 1 : udl = 8
9875 F0E4 D020  34 	movb @cvb_UDL,r0
     F0E6 2089     
9876 F0E8 1302  14 	jeq cv818
9877 F0EA 0460  28 	b @cv817
     F0EC F124     
9878               cv818
9879 F0EE D020  30 	movb @joy1_data,r0
     F0F0 8346     
9880 F0F2 0201  20 	li r1,1024   ; 4*256
     F0F4 0400     
9881 F0F6 0541  14 	inv r1
9882 F0F8 5001  18 	szcb r1,r0
9883 F0FA 1602  14 	jne cv820
9884 F0FC 0460  28 	b @cv819
     F0FE F124     
9885               cv820
9886 F100 D020  34 	movb @cvb_GM,r0
     F102 20D7     
9887 F104 0201  20 	li r1,1024   ; 4*256
     F106 0400     
9888 F108 9040  18 	cb r0,r1
9889 F10A 1A02  14 	jl cv822
9890 F10C 0460  28 	b @cv821
     F10E F124     
9891               cv822
9892 F110 D020  34 	movb @cvb_GM,r0
     F112 20D7     
9893 F114 0220  22 	ai r0,256	; 1
     F116 0100     
9894 F118 D800  38 	movb r0,@cvb_GM
     F11A 20D7     
9895 F11C 0200  20 	li r0,2048   ; 8*256
     F11E 0800     
9896 F120 D800  38 	movb r0,@cvb_UDL
     F122 2089     
9897               cv821
9898               cv819
9899               cv817
9900               	; 	IF cont1.button = 0 THEN GOTO tsel
9901 F124 D020  30 	movb @joy1_data,r0
     F126 8346     
9902 F128 0201  20 	li r1,16384   ; 64*256
     F12A 4000     
9903 F12C 0541  14 	inv r1
9904 F12E 5001  18 	szcb r1,r0
9905 F130 04C1  14 	clr r1
9906 F132 9001  18 	cb r1,r0
9907 F134 1302  14 	jeq cv824
9908 F136 0460  28 	b @cv823
     F138 F13E     
9909               cv824
9910 F13A 0460  28 	b @cvb_TSEL
     F13C EFF4     
9911               cv823
9912               	; tw2:	WAIT : IF cont1.button > 0 THEN GOTO tw2
9913               cvb_TW2
9914 F13E 06A0  32 	bl @jsr
     F140 A974     
9915 F142 A64A     	data wait
9916 F144 D020  30 	movb @joy1_data,r0
     F146 8346     
9917 F148 0201  20 	li r1,16384   ; 64*256
     F14A 4000     
9918 F14C 0541  14 	inv r1
9919 F14E 5001  18 	szcb r1,r0
9920 F150 0201  20 	li r1,256   ; 1*256
     F152 0100     
9921 F154 9040  18 	cb r0,r1
9922 F156 1402  14 	jhe cv826
9923 F158 0460  28 	b @cv825
     F15A F160     
9924               cv826
9925 F15C 0460  28 	b @cvb_TW2
     F15E F13E     
9926               cv825
9927               	; 	btnp = 1
9928 F160 0200  20 	li r0,256   ; 1*256
     F162 0100     
9929 F164 D800  38 	movb r0,@cvb_BTNP
     F166 20C7     
9930               	; 	END
9931 F168 C03A  30 	mov *r10+,r0
9932 F16A 0450  20 	b *r0
9933               	;
9934               	; 	' ============================================================
9935               	; 	' DATA
9936               	; 	' ============================================================
9937               	;
9938               	; mskdat:
9939               cvb_MSKDAT
9940               	; 	DATA BYTE $80, $40, $20, $10, $08, $04, $02, $01
9941 F16C 8040     	byte >80,>40,>20,>10,>08,>04,>02,>01
     F16E 2010     
     F170 0804     
     F172 0201     
9942               	;
9943               	; 	' object sprite colours (gold key..dot), loaded per game
9944               	; ocldat:
9945               cvb_OCLDAT
9946               	; 	DATA BYTE 11, 1, 15, 7, 13, 15, 6, 0
9947 F174 0B01     	byte >0b,>01,>0f,>07,>0d,>0f,>06,>00
     F176 0F07     
     F178 0D0F     
     F17A 0600     
9948               	;
9949               	; 	' secret-room glyphs whose colours ripple (16 codes)
9950               	; eggch:
9951               cvb_EGGCH
9952               	; 	DATA BYTE 65, 68, 86, 69, 78, 84, 73, 82
9953 F17C 4144     	byte >41,>44,>56,>45,>4e,>54,>49,>52
     F17E 5645     
     F180 4E54     
     F182 4952     
9954               	; 	DATA BYTE 50, 48, 54, 85, 72, 77, 67, 76
9955 F184 3230     	byte >32,>30,>36,>55,>48,>4d,>43,>4c
     F186 3655     
     F188 484D     
     F18A 434C     
9956               	;
9957               	; 	' game 4 scatter rooms (16 open/maze/corridor rooms)
9958               	; rndrm:
9959               cvb_RNDRM
9960               	; 	DATA BYTE 15, 16, 17, 19, 20, 21, 22, 23
9961 F18C 0F10     	byte >0f,>10,>11,>13,>14,>15,>16,>17
     F18E 1113     
     F190 1415     
     F192 1617     
9962               	; 	DATA BYTE 29, 30, 31, 34, 35, 36, 37, 38
9963 F194 1D1E     	byte >1d,>1e,>1f,>22,>23,>24,>25,>26
     F196 1F22     
     F198 2324     
     F19A 2526     
9964               	;
9965               	; 	' ------------------------------------------------------------
9966               	; 	' links: N,E,S,W per room (255 = none). Castle halls have no
9967               	; 	' inbound edge links (gate warps only), so the bat can never
9968               	; 	' carry loot into a locked castle.
9969               	; 	' ------------------------------------------------------------
9970               	; lnkc:	' game 1 - custom intro map, rooms 0-12
9971               cvb_LNKC
9972               	; 	DATA BYTE 255, 255, 1, 255
9973 F19C FFFF     	byte >ff,>ff,>01,>ff
     F19E 01FF     
9974               	; 	DATA BYTE 0, 3, 4, 11
9975 F1A0 0003     	byte >00,>03,>04,>0b
     F1A2 040B     
9976               	; 	DATA BYTE 255, 255, 0, 255
9977 F1A4 FFFF     	byte >ff,>ff,>00,>ff
     F1A6 00FF     
9978               	; 	DATA BYTE 255, 5, 255, 1
9979 F1A8 FF05     	byte >ff,>05,>ff,>01
     F1AA FF01     
9980               	; 	DATA BYTE 1, 6, 255, 255
9981 F1AC 0106     	byte >01,>06,>ff,>ff
     F1AE FFFF     
9982               	; 	DATA BYTE 255, 255, 7, 3
9983 F1B0 FFFF     	byte >ff,>ff,>07,>03
     F1B2 0703     
9984               	; 	DATA BYTE 255, 7, 255, 4
9985 F1B4 FF07     	byte >ff,>07,>ff,>04
     F1B6 FF04     
9986               	; 	DATA BYTE 5, 8, 255, 6
9987 F1B8 0508     	byte >05,>08,>ff,>06
     F1BA FF06     
9988               	; 	DATA BYTE 255, 255, 255, 7
9989 F1BC FFFF     	byte >ff,>ff,>ff,>07
     F1BE FF07     
9990               	; 	DATA BYTE 255, 10, 8, 255
9991 F1C0 FF0A     	byte >ff,>0a,>08,>ff
     F1C2 08FF     
9992               	; 	DATA BYTE 255, 255, 255, 9
9993 F1C4 FFFF     	byte >ff,>ff,>ff,>09
     F1C6 FF09     
9994               	; 	DATA BYTE 255, 1, 255, 255
9995 F1C8 FF01     	byte >ff,>01,>ff,>ff
     F1CA FFFF     
9996               	; 	DATA BYTE 255, 255, 11, 255
9997 F1CC FFFF     	byte >ff,>ff,>0b,>ff
     F1CE 0BFF     
9998               	;
9999               	; lnkb:	' game 2 - small kingdom (rooms 13-38; sealed = 255)
10000               cvb_LNKB
10001               	; 	DATA BYTE 255, 255, 16, 255	' 13 gold grounds
10002 F1D0 FFFF     	byte >ff,>ff,>10,>ff
     F1D2 10FF     
10003               	; 	DATA BYTE 255, 255, 13, 255	' 14 gold hall
10004 F1D4 FFFF     	byte >ff,>ff,>0d,>ff
     F1D6 0DFF     
10005               	; 	DATA BYTE 255, 16, 255, 19	' 15 corridor W
10006 F1D8 FF10     	byte >ff,>10,>ff,>13
     F1DA FF13     
10007               	; 	DATA BYTE 13, 17, 255, 15	' 16 corridor mid
10008 F1DC 0D11     	byte >0d,>11,>ff,>0f
     F1DE FF0F     
10009               	; 	DATA BYTE 255, 255, 255, 16	' 17 corridor E (dead end here)
10010 F1E0 FFFF     	byte >ff,>ff,>ff,>10
     F1E2 FF10     
10011               	; 	DATA BYTE 255, 255, 255, 255	' 18 secret (absent)
10012 F1E4 FFFF     	byte >ff,>ff,>ff,>ff
     F1E6 FFFF     
10013               	; 	DATA BYTE 20, 15, 255, 21	' 19 blue maze
10014 F1E8 140F     	byte >14,>0f,>ff,>15
     F1EA FF15     
10015               	; 	DATA BYTE 23, 21, 19, 21	' 20 blue maze
10016 F1EC 1715     	byte >17,>15,>13,>15
     F1EE 1315     
10017               	; 	DATA BYTE 22, 20, 19, 20	' 21 blue maze
10018 F1F0 1614     	byte >16,>14,>13,>14
     F1F2 1314     
10019               	; 	DATA BYTE 23, 23, 21, 255	' 22 blue maze
10020 F1F4 1717     	byte >17,>17,>15,>ff
     F1F6 15FF     
10021               	; 	DATA BYTE 24, 20, 20, 22	' 23 blue maze top
10022 F1F8 1814     	byte >18,>14,>14,>16
     F1FA 1416     
10023               	; 	DATA BYTE 255, 255, 23, 255	' 24 black grounds
10024 F1FC FFFF     	byte >ff,>ff,>17,>ff
     F1FE 17FF     
10025               	; 	DATA BYTE 255, 255, 24, 255	' 25 black hall (chalice+magnet)
10026 F200 FFFF     	byte >ff,>ff,>18,>ff
     F202 18FF     
10027               	; 	' game 2 never leaves rooms 13-25 (no bat; dragons in 23/24; 25
10028               	; 	' is a dead-end hall), so entries for 26-38 are omitted - getlnk
10029               	; 	' is only ever called with lkr <= 25 here
10030               	;
10031               	; lnka:	' games 3/4 - full kingdom (rooms 13-38)
10032               cvb_LNKA
10033               	; 	DATA BYTE 255, 255, 16, 255	' 13 gold grounds
10034 F204 FFFF     	byte >ff,>ff,>10,>ff
     F206 10FF     
10035               	; 	DATA BYTE 255, 255, 13, 255	' 14 gold hall (WIN)
10036 F208 FFFF     	byte >ff,>ff,>0d,>ff
     F20A 0DFF     
10037               	; 	DATA BYTE 255, 16, 255, 19	' 15 corridor W -> blue maze
10038 F20C FF10     	byte >ff,>10,>ff,>13
     F20E FF13     
10039               	; 	DATA BYTE 13, 17, 255, 15	' 16 corridor mid (N to castle)
10040 F210 0D11     	byte >0d,>11,>ff,>0f
     F212 FF0F     
10041               	; 	DATA BYTE 255, 18, 29, 16	' 17 corridor E (egg wall E, catacombs S)
10042 F214 FF12     	byte >ff,>12,>1d,>10
     F216 1D10     
10043               	; 	DATA BYTE 255, 255, 255, 17	' 18 SECRET room
10044 F218 FFFF     	byte >ff,>ff,>ff,>11
     F21A FF11     
10045               	; 	DATA BYTE 20, 15, 255, 21	' 19 blue maze
10046 F21C 140F     	byte >14,>0f,>ff,>15
     F21E FF15     
10047               	; 	DATA BYTE 23, 21, 19, 21	' 20 blue maze (hyperspace W)
10048 F220 1715     	byte >17,>15,>13,>15
     F222 1315     
10049               	; 	DATA BYTE 22, 20, 19, 20	' 21 blue maze
10050 F224 1614     	byte >16,>14,>13,>14
     F226 1314     
10051               	; 	DATA BYTE 23, 23, 21, 255	' 22 blue maze (hyperspace E)
10052 F228 1717     	byte >17,>17,>15,>ff
     F22A 15FF     
10053               	; 	DATA BYTE 24, 20, 20, 22	' 23 blue maze top -> black castle
10054 F22C 1814     	byte >18,>14,>14,>16
     F22E 1416     
10055               	; 	'   (23 E goes to 20, whose west edge is open; 22's west
10056               	; 	'   edge is walled, so an E-link into it would trap you)
10057               	; 	DATA BYTE 255, 255, 23, 255	' 24 black grounds
10058 F230 FFFF     	byte >ff,>ff,>17,>ff
     F232 17FF     
10059               	; 	DATA BYTE 255, 26, 24, 255	' 25 black hall -> dark maze
10060 F234 FF1A     	byte >ff,>1a,>18,>ff
     F236 18FF     
10061               	; 	DATA BYTE 27, 27, 255, 25	' 26 black maze (dark)
10062 F238 1B1B     	byte >1b,>1b,>ff,>19
     F23A FF19     
10063               	; 	DATA BYTE 28, 26, 26, 26	' 27 black maze (dark)
10064 F23C 1C1A     	byte >1c,>1a,>1a,>1a
     F23E 1A1A     
10065               	; 	DATA BYTE 255, 255, 27, 27	' 28 black maze + dot chamber (dark)
10066 F240 FFFF     	byte >ff,>ff,>1b,>1b
     F242 1B1B     
10067               	; 	DATA BYTE 17, 30, 30, 31	' 29 catacombs (dark)
10068 F244 111E     	byte >11,>1e,>1e,>1f
     F246 1E1F     
10069               	; 	DATA BYTE 29, 31, 31, 29	' 30 catacombs (dark)
10070 F248 1D1F     	byte >1d,>1f,>1f,>1d
     F24A 1F1D     
10071               	; 	DATA BYTE 30, 36, 255, 32	' 31 catacombs (dark)
10072 F24C 1E24     	byte >1e,>24,>ff,>20
     F24E FF20     
10073               	; 	DATA BYTE 255, 31, 255, 255	' 32 white grounds
10074 F250 FF1F     	byte >ff,>1f,>ff,>ff
     F252 FFFF     
10075               	; 	DATA BYTE 255, 34, 32, 255	' 33 white hall -> red maze
10076 F254 FF22     	byte >ff,>22,>20,>ff
     F256 20FF     
10077               	; 	DATA BYTE 35, 35, 255, 33	' 34 red maze
10078 F258 2323     	byte >23,>23,>ff,>21
     F25A FF21     
10079               	; 	DATA BYTE 255, 255, 34, 34	' 35 red maze end (black key)
10080 F25C FFFF     	byte >ff,>ff,>22,>22
     F25E 2222     
10081               	; 	DATA BYTE 255, 255, 37, 31	' 36 purple side room
10082 F260 FFFF     	byte >ff,>ff,>25,>1f
     F262 251F     
10083               	; 	DATA BYTE 36, 255, 38, 255	' 37 cyan side room
10084 F264 24FF     	byte >24,>ff,>26,>ff
     F266 26FF     
10085               	; 	DATA BYTE 37, 255, 255, 255	' 38 rose side room
10086 F268 25FF     	byte >25,>ff,>ff,>ff
     F26A FFFF     
10087               	;
10088               	; 	' ------------------------------------------------------------
10089               	; 	' colours: (wall, background, dark) per room
10090               	; 	' ------------------------------------------------------------
10091               	; 	' wall colour per room (bg=14/dark=0 everywhere except the six
10092               	; 	' computed dark rooms 26-31 - see the rbl colour read)
10093               	; colc:	' game 1 custom map: coloured walls on GRAY (so the black
10094               cvb_COLC
10095               	; 	' bat reads everywhere); its black castle is black too
10096               	; 	DATA BYTE 11, 2, 10, 8, 3, 5, 13, 4, 1, 1, 6, 15, 15
10097 F26C 0B02     	byte >0b,>02,>0a,>08,>03,>05,>0d,>04
     F26E 0A08     
     F270 0305     
     F272 0D04     
10098 F274 0101     	byte >01,>01,>06,>0f,>0f
     F276 060F     
     F278 0F       
10099               	;
10100               	; cola:	' rooms 13-38: coloured walls (dark rooms 26-31 use wall 14)
10101               cvb_COLA
10102               	; 	DATA BYTE 11, 10, 12, 2, 11, 13	' 13-18 gold/corridors/secret
10103 F279   0B     	byte >0b,>0a,>0c,>02,>0b,>0d
     F27A 0A0C     
     F27C 020B     
     F27E 0D       
10104               	; 	DATA BYTE 4, 4, 4, 4, 4		' 19-23 blue maze
10105 F27F   04     	byte >04,>04,>04,>04,>04
     F280 0404     
     F282 0404     
10106               	; 	DATA BYTE 1, 1			' 24-25 black castle/hall
10107 F284 0101     	byte >01,>01
10108               	; 	DATA BYTE 14, 14, 14, 14, 14, 14	' 26-31 dark maze/catacombs
10109 F286 0E0E     	byte >0e,>0e,>0e,>0e,>0e,>0e
     F288 0E0E     
     F28A 0E0E     
10110               	; 	DATA BYTE 15, 15, 8, 8		' 32-35 white castle/hall/red maze
10111 F28C 0F0F     	byte >0f,>0f,>08,>08
     F28E 0808     
10112               	; 	DATA BYTE 13, 7, 9		' 36-38 purple/cyan/rose rooms
10113 F290 0D07     	byte >0d,>07,>09
     F292 09       
10114               	;
10115               	; 	' ------------------------------------------------------------
10116               	; 	' per-game world: 8 objects (room,x,y) in order gold key,
10117               	; 	' black key, white key, sword, bridge, chalice, magnet, dot;
10118               	; 	' then 3 dragons (room,x,y,colour,fast); bat (room,x,y);
10119               	; 	' start room; win room. room 255 = not in this game.
10120               	; 	' ------------------------------------------------------------
10121               	; objd1:	' GAME 1 custom intro map
10122               cvb_OBJD1
10123               	; 	DATA BYTE 4, 180, 120
10124 F293   04     	byte >04,>b4,>78
     F294 B478     
10125               	; 	DATA BYTE 6, 180, 20
10126 F296 06B4     	byte >06,>b4,>14
     F298 14       
10127               	; 	DATA BYTE 7, 120, 88
10128 F299   07     	byte >07,>78,>58
     F29A 7858     
10129               	; 	DATA BYTE 3, 120, 24
10130 F29C 0378     	byte >03,>78,>18
     F29E 18       
10131               	; 	DATA BYTE 12, 96, 80
10132 F29F   0C     	byte >0c,>60,>50
     F2A0 6050     
10133               	; 	DATA BYTE 10, 120, 88
10134 F2A2 0A78     	byte >0a,>78,>58
     F2A4 58       
10135               	; 	DATA BYTE 255, 0, 0
10136 F2A5   FF     	byte >ff,>00,>00
     F2A6 0000     
10137               	; 	DATA BYTE 255, 0, 0
10138 F2A8 FF00     	byte >ff,>00,>00
     F2AA 00       
10139               	; 	DATA BYTE 8, 36, 80, 11, 0
10140 F2AB   08     	byte >08,>24,>50,>0b,>00
     F2AC 2450     
     F2AE 0B00     
10141               	; 	DATA BYTE 6, 140, 72, 2, 0
10142 F2B0 068C     	byte >06,>8c,>48,>02,>00
     F2B2 4802     
     F2B4 00       
10143               	; 	DATA BYTE 7, 104, 40, 8, 1
10144 F2B5   07     	byte >07,>68,>28,>08,>01
     F2B6 6828     
     F2B8 0801     
10145               	; 	DATA BYTE 5, 120, 60
10146 F2BA 0578     	byte >05,>78,>3c
     F2BC 3C       
10147               	; 	DATA BYTE 0, 2
10148 F2BD   00     	byte >00,>02
     F2BE 02       
10149               	;
10150               	; objd2:	' GAME 2 small kingdom: two castles, two dragons, no bat
10151               cvb_OBJD2
10152               	; 	DATA BYTE 15, 60, 88
10153 F2BF   0F     	byte >0f,>3c,>58
     F2C0 3C58     
10154               	; 	DATA BYTE 21, 180, 108
10155 F2C2 15B4     	byte >15,>b4,>6c
     F2C4 6C       
10156               	; 	DATA BYTE 255, 0, 0
10157 F2C5   FF     	byte >ff,>00,>00
     F2C6 0000     
10158               	; 	DATA BYTE 14, 120, 120
10159 F2C8 0E78     	byte >0e,>78,>78
     F2CA 78       
10160               	; 	DATA BYTE 255, 0, 0
10161 F2CB   FF     	byte >ff,>00,>00
     F2CC 0000     
10162               	; 	DATA BYTE 25, 180, 120
10163 F2CE 19B4     	byte >19,>b4,>78
     F2D0 78       
10164               	; 	DATA BYTE 25, 60, 120
10165 F2D1   19     	byte >19,>3c,>78
     F2D2 3C78     
10166               	; 	DATA BYTE 255, 0, 0
10167 F2D4 FF00     	byte >ff,>00,>00
     F2D6 00       
10168               	; 	DATA BYTE 23, 104, 72, 11, 0
10169 F2D7   17     	byte >17,>68,>48,>0b,>00
     F2D8 6848     
     F2DA 0B00     
10170               	; 	DATA BYTE 24, 48, 88, 2, 0
10171 F2DC 1830     	byte >18,>30,>58,>02,>00
     F2DE 5802     
     F2E0 00       
10172               	; 	DATA BYTE 255, 0, 0, 8, 1
10173 F2E1   FF     	byte >ff,>00,>00,>08,>01
     F2E2 0000     
     F2E4 0801     
10174               	; 	DATA BYTE 255, 0, 0
10175 F2E6 FF00     	byte >ff,>00,>00
     F2E8 00       
10176               	; 	DATA BYTE 13, 14
10177 F2E9   0D     	byte >0d,>0e
     F2EA 0E       
10178               	;
10179               	; objd3:	' GAMES 3/4 full kingdom
10180               cvb_OBJD3
10181               	; 	DATA BYTE 30, 116, 88
10182 F2EB   1E     	byte >1e,>74,>58
     F2EC 7458     
10183               	; 	DATA BYTE 35, 184, 32
10184 F2EE 23B8     	byte >23,>b8,>20
     F2F0 20       
10185               	; 	DATA BYTE 21, 36, 40
10186 F2F1   15     	byte >15,>24,>28
     F2F2 2428     
10187               	; 	DATA BYTE 16, 60, 88
10188 F2F4 103C     	byte >10,>3c,>58
     F2F6 58       
10189               	; 	DATA BYTE 31, 180, 88
10190 F2F7   1F     	byte >1f,>b4,>58
     F2F8 B458     
10191               	; 	DATA BYTE 28, 60, 88
10192 F2FA 1C3C     	byte >1c,>3c,>58
     F2FC 58       
10193               	; 	DATA BYTE 27, 116, 152
10194 F2FD   1B     	byte >1b,>74,>98
     F2FE 7498     
10195               	; 	DATA BYTE 28, 184, 24
10196 F300 1CB8     	byte >1c,>b8,>18
     F302 18       
10197               	; 	DATA BYTE 17, 48, 88, 11, 0
10198 F303   11     	byte >11,>30,>58,>0b,>00
     F304 3058     
     F306 0B00     
10199               	; 	DATA BYTE 29, 104, 64, 2, 0
10200 F308 1D68     	byte >1d,>68,>40,>02,>00
     F30A 4002     
     F30C 00       
10201               	; 	DATA BYTE 20, 104, 60, 8, 1
10202 F30D   14     	byte >14,>68,>3c,>08,>01
     F30E 683C     
     F310 0801     
10203               	; 	DATA BYTE 19, 120, 60
10204 F312 1378     	byte >13,>78,>3c
     F314 3C       
10205               	; 	DATA BYTE 13, 14
10206 F315   0D     	byte >0d,>0e
     F316 0E       
10207               	;
10208               	; 	' ------------------------------------------------------------
10209               	; 	' room bitmaps, row-dictionary compressed: 71 distinct 4-byte
10210               	; 	' rows live once in rowdd (loaded into rowd() at startup); each
10211               	; 	' room below is just 24 indices into it. rbl expands them.
10212               	; 	' ------------------------------------------------------------
10213               	; rowdd:
10214               cvb_ROWDD
10215               	; 	DATA BYTE $FF, $FF, $FF, $FF	' 0
10216 F317   FF     	byte >ff,>ff,>ff,>ff
     F318 FFFF     
     F31A FF       
10217               	; 	DATA BYTE $CF, $00, $00, $F3	' 1
10218 F31B   CF     	byte >cf,>00,>00,>f3
     F31C 0000     
     F31E F3       
10219               	; 	DATA BYTE $FF, $FC, $3F, $FF	' 2
10220 F31F   FF     	byte >ff,>fc,>3f,>ff
     F320 FC3F     
     F322 FF       
10221               	; 	DATA BYTE $C0, $00, $00, $03	' 3
10222 F323   C0     	byte >c0,>00,>00,>03
     F324 0000     
     F326 03       
10223               	; 	DATA BYTE $00, $00, $00, $00	' 4
10224 F327   00     	byte >00,>00,>00,>00
     F328 0000     
     F32A 00       
10225               	; 	DATA BYTE $C3, $C0, $03, $C3	' 5
10226 F32B   C3     	byte >c3,>c0,>03,>c3
     F32C C003     
     F32E C3       
10227               	; 	DATA BYTE $C0, $FF, $FF, $03	' 6
10228 F32F   C0     	byte >c0,>ff,>ff,>03
     F330 FFFF     
     F332 03       
10229               	; 	DATA BYTE $C0, $00, $00, $00	' 7
10230 F333   C0     	byte >c0,>00,>00,>00
     F334 0000     
     F336 00       
10231               	; 	DATA BYTE $C0, $3F, $FC, $03	' 8
10232 F337   C0     	byte >c0,>3f,>fc,>03
     F338 3FFC     
     F33A 03       
10233               	; 	DATA BYTE $CF, $FC, $3F, $F3	' 9
10234 F33B   CF     	byte >cf,>fc,>3f,>f3
     F33C FC3F     
     F33E F3       
10235               	; 	DATA BYTE $C0, $0C, $30, $03	' 10
10236 F33F   C0     	byte >c0,>0c,>30,>03
     F340 0C30     
     F342 03       
10237               	; 	DATA BYTE $CF, $0C, $30, $F3	' 11
10238 F343   CF     	byte >cf,>0c,>30,>f3
     F344 0C30     
     F346 F3       
10239               	; 	DATA BYTE $00, $0C, $30, $03	' 12
10240 F347   00     	byte >00,>0c,>30,>03
     F348 0C30     
     F34A 03       
10241               	; 	DATA BYTE $C0, $00, $0C, $33	' 13
10242 F34B   C0     	byte >c0,>00,>0c,>33
     F34C 000C     
     F34E 33       
10243               	; 	DATA BYTE $C0, $00, $0F, $F3	' 14
10244 F34F   C0     	byte >c0,>00,>0f,>f3
     F350 000F     
     F352 F3       
10245               	; 	DATA BYTE $C3, $FC, $3F, $C3	' 15
10246 F353   C3     	byte >c3,>fc,>3f,>c3
     F354 FC3F     
     F356 C3       
10247               	; 	DATA BYTE $C3, $0C, $30, $C3	' 16
10248 F357   C3     	byte >c3,>0c,>30,>c3
     F358 0C30     
     F35A C3       
10249               	; 	DATA BYTE $03, $0C, $30, $C0	' 17
10250 F35B   03     	byte >03,>0c,>30,>c0
     F35C 0C30     
     F35E C0       
10251               	; 	DATA BYTE $00, $00, $00, $03	' 18
10252 F35F   00     	byte >00,>00,>00,>03
     F360 0000     
     F362 03       
10253               	; 	DATA BYTE $CF, $C0, $03, $F3	' 19
10254 F363   CF     	byte >cf,>c0,>03,>f3
     F364 C003     
     F366 F3       
10255               	; 	DATA BYTE $C0, $C0, $03, $03	' 20
10256 F367   C0     	byte >c0,>c0,>03,>03
     F368 C003     
     F36A 03       
10257               	; 	DATA BYTE $80, $00, $00, $01	' 21
10258 F36B   80     	byte >80,>00,>00,>01
     F36C 0000     
     F36E 01       
10259               	; 	DATA BYTE $9B, $6C, $36, $D9	' 22
10260 F36F   9B     	byte >9b,>6c,>36,>d9
     F370 6C36     
     F372 D9       
10261               	; 	DATA BYTE $9F, $FF, $FF, $F9	' 23
10262 F373   9F     	byte >9f,>ff,>ff,>f9
     F374 FFFF     
     F376 F9       
10263               	; 	DATA BYTE $9F, $FC, $3F, $F9	' 24
10264 F377   9F     	byte >9f,>fc,>3f,>f9
     F378 FC3F     
     F37A F9       
10265               	; 	DATA BYTE $83, $C0, $03, $C1	' 25
10266 F37B   83     	byte >83,>c0,>03,>c1
     F37C C003     
     F37E C1       
10267               	; 	DATA BYTE $00, $00, $00, $01	' 26
10268 F37F   00     	byte >00,>00,>00,>01
     F380 0000     
     F382 01       
10269               	; 	DATA BYTE $FC, $FF, $FF, $F3	' 27
10270 F383   FC     	byte >fc,>ff,>ff,>f3
     F384 FFFF     
     F386 F3       
10271               	; 	DATA BYTE $FF, $F3, $F3, $FF	' 28
10272 F387   FF     	byte >ff,>f3,>f3,>ff
     F388 F3F3     
     F38A FF       
10273               	; 	DATA BYTE $84, $00, $00, $01	' 29
10274 F38B   84     	byte >84,>00,>00,>01
     F38C 0000     
     F38E 01       
10275               	; 	DATA BYTE $CF, $CF, $FF, $FF	' 30
10276 F38F   CF     	byte >cf,>cf,>ff,>ff
     F390 CFFF     
     F392 FF       
10277               	; 	DATA BYTE $80, $00, $00, $00	' 31
10278 F393   80     	byte >80,>00,>00,>00
     F394 0000     
     F396 00       
10279               	; 	DATA BYTE $FF, $FF, $FC, $FF	' 32
10280 F397   FF     	byte >ff,>ff,>fc,>ff
     F398 FFFC     
     F39A FF       
10281               	; 	DATA BYTE $FF, $3F, $FF, $FF	' 33
10282 F39B   FF     	byte >ff,>3f,>ff,>ff
     F39C 3FFF     
     F39E FF       
10283               	; 	DATA BYTE $80, $10, $40, $01	' 34
10284 F39F   80     	byte >80,>10,>40,>01
     F3A0 1040     
     F3A2 01       
10285               	; 	DATA BYTE $FF, $FC, $FF, $FF	' 35
10286 F3A3   FF     	byte >ff,>fc,>ff,>ff
     F3A4 FCFF     
     F3A6 FF       
10287               	; 	DATA BYTE $F3, $FF, $FF, $CF	' 36
10288 F3A7   F3     	byte >f3,>ff,>ff,>cf
     F3A8 FFFF     
     F3AA CF       
10289               	; 	DATA BYTE $80, $40, $01, $01	' 37
10290 F3AB   80     	byte >80,>40,>01,>01
     F3AC 4001     
     F3AE 01       
10291               	; 	DATA BYTE $FF, $CF, $FF, $FF	' 38
10292 F3AF   FF     	byte >ff,>cf,>ff,>ff
     F3B0 CFFF     
     F3B2 FF       
10293               	; 	DATA BYTE $FC, $FF, $FF, $3F	' 39
10294 F3B3   FC     	byte >fc,>ff,>ff,>3f
     F3B4 FFFF     
     F3B6 3F       
10295               	; 	DATA BYTE $80, $00, $00, $09	' 40
10296 F3B7   80     	byte >80,>00,>00,>09
     F3B8 0000     
     F3BA 09       
10297               	; 	DATA BYTE $CF, $FF, $FF, $F3	' 41
10298 F3BB   CF     	byte >cf,>ff,>ff,>f3
     F3BC FFFF     
     F3BE F3       
10299               	; 	DATA BYTE $81, $00, $00, $81	' 42
10300 F3BF   81     	byte >81,>00,>00,>81
     F3C0 0000     
     F3C2 81       
10301               	; 	DATA BYTE $F3, $FF, $FF, $FF	' 43
10302 F3C3   F3     	byte >f3,>ff,>ff,>ff
     F3C4 FFFF     
     F3C6 FF       
10303               	; 	DATA BYTE $80, $00, $00, $21	' 44
10304 F3C7   80     	byte >80,>00,>00,>21
     F3C8 0000     
     F3CA 21       
10305               	; 	DATA BYTE $FF, $FF, $F3, $F3	' 45
10306 F3CB   FF     	byte >ff,>ff,>f3,>f3
     F3CC FFF3     
     F3CE F3       
10307               	; 	DATA BYTE $81, $80, $03, $01	' 46
10308 F3CF   81     	byte >81,>80,>03,>01
     F3D0 8003     
     F3D2 01       
10309               	; 	DATA BYTE $FC, $FF, $FF, $CF	' 47
10310 F3D3   FC     	byte >fc,>ff,>ff,>cf
     F3D4 FFFF     
     F3D6 CF       
10311               	; 	DATA BYTE $F3, $FF, $FF, $3F	' 48
10312 F3D7   F3     	byte >f3,>ff,>ff,>3f
     F3D8 FFFF     
     F3DA 3F       
10313               	; 	DATA BYTE $FF, $3F, $F3, $FF	' 49
10314 F3DB   FF     	byte >ff,>3f,>f3,>ff
     F3DC 3FF3     
     F3DE FF       
10315               	; 	DATA BYTE $80, $02, $00, $01	' 50
10316 F3DF   80     	byte >80,>02,>00,>01
     F3E0 0200     
     F3E2 01       
10317               	; 	DATA BYTE $CF, $FF, $FF, $CF	' 51
10318 F3E3   CF     	byte >cf,>ff,>ff,>cf
     F3E4 FFFF     
     F3E6 CF       
10319               	; 	DATA BYTE $FF, $F3, $FC, $FF	' 52
10320 F3E7   FF     	byte >ff,>f3,>fc,>ff
     F3E8 F3FC     
     F3EA FF       
10321               	; 	DATA BYTE $F3, $FF, $FF, $F3	' 53
10322 F3EB   F3     	byte >f3,>ff,>ff,>f3
     F3EC FFFF     
     F3EE F3       
10323               	; 	DATA BYTE $FF, $CF, $CF, $FF	' 54
10324 F3EF   FF     	byte >ff,>cf,>cf,>ff
     F3F0 CFCF     
     F3F2 FF       
10325               	; 	DATA BYTE $FC, $FF, $FF, $FF	' 55
10326 F3F3   FC     	byte >fc,>ff,>ff,>ff
     F3F4 FFFF     
     F3F6 FF       
10327               	; 	DATA BYTE $80, $20, $08, $01	' 56
10328 F3F7   80     	byte >80,>20,>08,>01
     F3F8 2008     
     F3FA 01       
10329               	; 	DATA BYTE $FF, $FF, $CF, $FF	' 57
10330 F3FB   FF     	byte >ff,>ff,>cf,>ff
     F3FC FFCF     
     F3FE FF       
10331               	; 	DATA BYTE $FF, $3F, $FC, $FF	' 58
10332 F3FF   FF     	byte >ff,>3f,>fc,>ff
     F400 3FFC     
     F402 FF       
10333               	; 	DATA BYTE $80, $00, $08, $01	' 59
10334 F403   80     	byte >80,>00,>08,>01
     F404 0008     
     F406 01       
10335               	; 	DATA BYTE $FF, $FC, $FF, $3F	' 60
10336 F407   FF     	byte >ff,>fc,>ff,>3f
     F408 FCFF     
     F40A 3F       
10337               	; 	DATA BYTE $CF, $FF, $FF, $FF	' 61
10338 F40B   CF     	byte >cf,>ff,>ff,>ff
     F40C FFFF     
     F40E FF       
10339               	; 	DATA BYTE $FF, $F3, $FF, $FF	' 62
10340 F40F   FF     	byte >ff,>f3,>ff,>ff
     F410 F3FF     
     F412 FF       
10341               	; 	DATA BYTE $80, $00, $02, $01	' 63
10342 F413   80     	byte >80,>00,>02,>01
     F414 0002     
     F416 01       
10343               	; 	DATA BYTE $83, $C0, $03, $C0	' 64
10344 F417   83     	byte >83,>c0,>03,>c0
     F418 C003     
     F41A C0       
10345               	; 	DATA BYTE $80, $00, $0F, $F1	' 65
10346 F41B   80     	byte >80,>00,>0f,>f1
     F41C 000F     
     F41E F1       
10347               	; 	DATA BYTE $80, $00, $08, $11	' 66
10348 F41F   80     	byte >80,>00,>08,>11
     F420 0008     
     F422 11       
10349               	; 	DATA BYTE $90, $00, $08, $11	' 67
10350 F423   90     	byte >90,>00,>08,>11
     F424 0008     
     F426 11       
10351               	; 	DATA BYTE $82, $00, $00, $41	' 68
10352 F427   82     	byte >82,>00,>00,>41
     F428 0000     
     F42A 41       
10353               	; 	DATA BYTE $FF, $F3, $FF, $3F	' 69
10354 F42B   FF     	byte >ff,>f3,>ff,>3f
     F42C F3FF     
     F42E 3F       
10355               	; 	DATA BYTE $80, $3F, $FC, $01	' 70
10356 F42F   80     	byte >80,>3f,>fc,>01
     F430 3FFC     
     F432 01       
10357               	;
10358               	; rd0:	' --- 0 gold castle grounds ---
10359               cvb_RD0
10360               	; 	DATA BYTE 0, 0, 1, 1, 2, 2, 2, 2, 3, 3, 3, 3
10361 F433   00     	byte >00,>00,>01,>01,>02,>02,>02,>02
     F434 0001     
     F436 0102     
     F438 0202     
     F43A 02       
10362 F43B   03     	byte >03,>03,>03,>03
     F43C 0303     
     F43E 03       
10363               	; 	DATA BYTE 3, 3, 3, 3, 3, 3, 3, 3, 3, 3, 2, 2
10364 F43F   03     	byte >03,>03,>03,>03,>03,>03,>03,>03
     F440 0303     
     F442 0303     
     F444 0303     
     F446 03       
10365 F447   03     	byte >03,>03,>02,>02
     F448 0302     
     F44A 02       
10366               	; rd1:	' --- 1 north meadow ---
10367               cvb_RD1
10368               	; 	DATA BYTE 2, 2, 3, 3, 3, 3, 3, 3, 3, 3, 4, 4
10369 F44B   02     	byte >02,>02,>03,>03,>03,>03,>03,>03
     F44C 0203     
     F44E 0303     
     F450 0303     
     F452 03       
10370 F453   03     	byte >03,>03,>04,>04
     F454 0304     
     F456 04       
10371               	; 	DATA BYTE 4, 4, 3, 3, 3, 3, 3, 3, 3, 3, 2, 2
10372 F457   04     	byte >04,>04,>03,>03,>03,>03,>03,>03
     F458 0403     
     F45A 0303     
     F45C 0303     
     F45E 03       
10373 F45F   03     	byte >03,>03,>02,>02
     F460 0302     
     F462 02       
10374               	; rd2:	' --- 2 gold castle hall (custom WIN) ---
10375               cvb_RD2
10376               	; 	DATA BYTE 0, 0, 3, 3, 3, 3, 3, 3, 5, 5, 5, 5
10377 F463   00     	byte >00,>00,>03,>03,>03,>03,>03,>03
     F464 0003     
     F466 0303     
     F468 0303     
     F46A 03       
10378 F46B   05     	byte >05,>05,>05,>05
     F46C 0505     
     F46E 05       
10379               	; 	DATA BYTE 3, 3, 3, 3, 3, 3, 3, 3, 3, 3, 2, 2
10380 F46F   03     	byte >03,>03,>03,>03,>03,>03,>03,>03
     F470 0303     
     F472 0303     
     F474 0303     
     F476 03       
10381 F477   03     	byte >03,>03,>02,>02
     F478 0302     
     F47A 02       
10382               	; rd3:	' --- 3 red corridor ---
10383               cvb_RD3
10384               	; 	DATA BYTE 0, 0, 3, 3, 3, 3, 6, 6, 3, 3, 4, 4
10385 F47B   00     	byte >00,>00,>03,>03,>03,>03,>06,>06
     F47C 0003     
     F47E 0303     
     F480 0306     
     F482 06       
10386 F483   03     	byte >03,>03,>04,>04
     F484 0304     
     F486 04       
10387               	; 	DATA BYTE 4, 4, 3, 3, 6, 6, 3, 3, 3, 3, 0, 0
10388 F487   04     	byte >04,>04,>03,>03,>06,>06,>03,>03
     F488 0403     
     F48A 0306     
     F48C 0603     
     F48E 03       
10389 F48F   03     	byte >03,>03,>00,>00
     F490 0300     
     F492 00       
10390               	; rd4:	' --- 4 south meadow ---
10391               cvb_RD4
10392               	; 	DATA BYTE 2, 2, 3, 3, 3, 3, 3, 3, 3, 3, 7, 7
10393 F493   02     	byte >02,>02,>03,>03,>03,>03,>03,>03
     F494 0203     
     F496 0303     
     F498 0303     
     F49A 03       
10394 F49B   03     	byte >03,>03,>07,>07
     F49C 0307     
     F49E 07       
10395               	; 	DATA BYTE 7, 7, 3, 3, 8, 8, 3, 3, 3, 3, 0, 0
10396 F49F   07     	byte >07,>07,>03,>03,>08,>08,>03,>03
     F4A0 0703     
     F4A2 0308     
     F4A4 0803     
     F4A6 03       
10397 F4A7   03     	byte >03,>03,>00,>00
     F4A8 0300     
     F4AA 00       
10398               	; rd5:	' --- 5 blue maze north ---
10399               cvb_RD5
10400               	; 	DATA BYTE 0, 0, 3, 3, 9, 9, 10, 10, 11, 11, 12, 12
10401 F4AB   00     	byte >00,>00,>03,>03,>09,>09,>0a,>0a
     F4AC 0003     
     F4AE 0309     
     F4B0 090A     
     F4B2 0A       
10402 F4B3   0B     	byte >0b,>0b,>0c,>0c
     F4B4 0B0C     
     F4B6 0C       
10403               	; 	DATA BYTE 12, 12, 11, 11, 10, 10, 9, 9, 3, 3, 2, 2
10404 F4B7   0C     	byte >0c,>0c,>0b,>0b,>0a,>0a,>09,>09
     F4B8 0C0B     
     F4BA 0B0A     
     F4BC 0A09     
     F4BE 09       
10405 F4BF   03     	byte >03,>03,>02,>02
     F4C0 0302     
     F4C2 02       
10406               	; rd6:	' --- 6 purple cave + sealed chamber ---
10407               cvb_RD6
10408               	; 	DATA BYTE 0, 0, 13, 13, 13, 13, 14, 14, 3, 3, 4, 4
10409 F4C3   00     	byte >00,>00,>0d,>0d,>0d,>0d,>0e,>0e
     F4C4 000D     
     F4C6 0D0D     
     F4C8 0D0E     
     F4CA 0E       
10410 F4CB   03     	byte >03,>03,>04,>04
     F4CC 0304     
     F4CE 04       
10411               	; 	DATA BYTE 4, 4, 3, 3, 8, 8, 3, 3, 3, 3, 0, 0
10412 F4CF   04     	byte >04,>04,>03,>03,>08,>08,>03,>03
     F4D0 0403     
     F4D2 0308     
     F4D4 0803     
     F4D6 03       
10413 F4D7   03     	byte >03,>03,>00,>00
     F4D8 0300     
     F4DA 00       
10414               	; rd7:	' --- 7 blue maze south ---
10415               cvb_RD7
10416               	; 	DATA BYTE 2, 2, 3, 3, 15, 15, 16, 16, 16, 16, 17, 17
10417 F4DB   02     	byte >02,>02,>03,>03,>0f,>0f,>10,>10
     F4DC 0203     
     F4DE 030F     
     F4E0 0F10     
     F4E2 10       
10418 F4E3   10     	byte >10,>10,>11,>11
     F4E4 1011     
     F4E6 11       
10419               	; 	DATA BYTE 17, 17, 16, 16, 16, 16, 15, 15, 3, 3, 0, 0
10420 F4E7   11     	byte >11,>11,>10,>10,>10,>10,>0f,>0f
     F4E8 1110     
     F4EA 1010     
     F4EC 100F     
     F4EE 0F       
10421 F4EF   03     	byte >03,>03,>00,>00
     F4F0 0300     
     F4F2 00       
10422               	; rd8:	' --- 8 black castle grounds (custom) ---
10423               cvb_RD8
10424               	; 	DATA BYTE 0, 0, 1, 1, 2, 2, 2, 2, 3, 3, 18, 18
10425 F4F3   00     	byte >00,>00,>01,>01,>02,>02,>02,>02
     F4F4 0001     
     F4F6 0102     
     F4F8 0202     
     F4FA 02       
10426 F4FB   03     	byte >03,>03,>12,>12
     F4FC 0312     
     F4FE 12       
10427               	; 	DATA BYTE 18, 18, 3, 3, 3, 3, 3, 3, 3, 3, 0, 0
10428 F4FF   12     	byte >12,>12,>03,>03,>03,>03,>03,>03
     F500 1203     
     F502 0303     
     F504 0303     
     F506 03       
10429 F507   03     	byte >03,>03,>00,>00
     F508 0300     
     F50A 00       
10430               	; rd9:	' --- 9 black castle hall (custom) ---
10431               cvb_RD9
10432               	; 	DATA BYTE 0, 0, 3, 3, 3, 3, 5, 5, 5, 5, 7, 7
10433 F50B   00     	byte >00,>00,>03,>03,>03,>03,>05,>05
     F50C 0003     
     F50E 0303     
     F510 0305     
     F512 05       
10434 F513   05     	byte >05,>05,>07,>07
     F514 0507     
     F516 07       
10435               	; 	DATA BYTE 7, 7, 3, 3, 3, 3, 3, 3, 3, 3, 2, 2
10436 F517   07     	byte >07,>07,>03,>03,>03,>03,>03,>03
     F518 0703     
     F51A 0303     
     F51C 0303     
     F51E 03       
10437 F51F   03     	byte >03,>03,>02,>02
     F520 0302     
     F522 02       
10438               	; rd10:	' --- 10 dungeon (custom) ---
10439               cvb_RD10
10440               	; 	DATA BYTE 0, 0, 3, 3, 19, 19, 20, 20, 3, 3, 18, 18
10441 F523   00     	byte >00,>00,>03,>03,>13,>13,>14,>14
     F524 0003     
     F526 0313     
     F528 1314     
     F52A 14       
10442 F52B   03     	byte >03,>03,>12,>12
     F52C 0312     
     F52E 12       
10443               	; 	DATA BYTE 18, 18, 3, 3, 20, 20, 19, 19, 3, 3, 0, 0
10444 F52F   12     	byte >12,>12,>03,>03,>14,>14,>13,>13
     F530 1203     
     F532 0314     
     F534 1413     
     F536 13       
10445 F537   03     	byte >03,>03,>00,>00
     F538 0300     
     F53A 00       
10446               	; rd11:	' --- 11 white castle grounds (custom) ---
10447               cvb_RD11
10448               	; 	DATA BYTE 0, 0, 1, 1, 2, 2, 2, 2, 3, 3, 7, 7
10449 F53B   00     	byte >00,>00,>01,>01,>02,>02,>02,>02
     F53C 0001     
     F53E 0102     
     F540 0202     
     F542 02       
10450 F543   03     	byte >03,>03,>07,>07
     F544 0307     
     F546 07       
10451               	; 	DATA BYTE 7, 7, 3, 3, 3, 3, 3, 3, 3, 3, 0, 0
10452 F547   07     	byte >07,>07,>03,>03,>03,>03,>03,>03
     F548 0703     
     F54A 0303     
     F54C 0303     
     F54E 03       
10453 F54F   03     	byte >03,>03,>00,>00
     F550 0300     
     F552 00       
10454               	; rd12:	' --- 12 white castle hall (custom) ---
10455               cvb_RD12
10456               	; 	DATA BYTE 0, 0, 3, 3, 3, 3, 5, 5, 5, 5, 3, 3
10457 F553   00     	byte >00,>00,>03,>03,>03,>03,>05,>05
     F554 0003     
     F556 0303     
     F558 0305     
     F55A 05       
10458 F55B   05     	byte >05,>05,>03,>03
     F55C 0503     
     F55E 03       
10459               	; 	DATA BYTE 3, 3, 3, 3, 3, 3, 3, 3, 3, 3, 2, 2
10460 F55F   03     	byte >03,>03,>03,>03,>03,>03,>03,>03
     F560 0303     
     F562 0303     
     F564 0303     
     F566 03       
10461 F567   03     	byte >03,>03,>02,>02
     F568 0302     
     F56A 02       
10462               	; rd13:	' --- 13 gold castle grounds (kingdom): crenellated keep ---
10463               cvb_RD13
10464               	; 	DATA BYTE 0, 21, 22, 23, 24, 24, 24, 24, 21, 21, 21, 21
10465 F56B   00     	byte >00,>15,>16,>17,>18,>18,>18,>18
     F56C 1516     
     F56E 1718     
     F570 1818     
     F572 18       
10466 F573   15     	byte >15,>15,>15,>15
     F574 1515     
     F576 15       
10467               	; 	DATA BYTE 21, 21, 21, 21, 21, 21, 21, 21, 21, 21, 2, 2
10468 F577   15     	byte >15,>15,>15,>15,>15,>15,>15,>15
     F578 1515     
     F57A 1515     
     F57C 1515     
     F57E 15       
10469 F57F   15     	byte >15,>15,>02,>02
     F580 1502     
     F582 02       
10470               	; rd14:	' --- 14 gold castle hall (kingdom WIN) ---
10471               cvb_RD14
10472               	; 	DATA BYTE 0, 21, 21, 21, 21, 21, 21, 21, 25, 25, 25, 25
10473 F583   00     	byte >00,>15,>15,>15,>15,>15,>15,>15
     F584 1515     
     F586 1515     
     F588 1515     
     F58A 15       
10474 F58B   19     	byte >19,>19,>19,>19
     F58C 1919     
     F58E 19       
10475               	; 	DATA BYTE 21, 21, 21, 21, 21, 21, 21, 21, 21, 21, 2, 2
10476 F58F   15     	byte >15,>15,>15,>15,>15,>15,>15,>15
     F590 1515     
     F592 1515     
     F594 1515     
     F596 15       
10477 F597   15     	byte >15,>15,>02,>02
     F598 1502     
     F59A 02       
10478               	; rd15:	' --- 15 corridor west (open E/W) ---
10479               cvb_RD15
10480               	; 	DATA BYTE 0, 0, 0, 4, 4, 4, 4, 4, 4, 4, 4, 4
10481 F59B   00     	byte >00,>00,>00,>04,>04,>04,>04,>04
     F59C 0000     
     F59E 0404     
     F5A0 0404     
     F5A2 04       
10482 F5A3   04     	byte >04,>04,>04,>04
     F5A4 0404     
     F5A6 04       
10483               	; 	DATA BYTE 4, 4, 4, 4, 4, 4, 4, 4, 4, 0, 0, 0
10484 F5A7   04     	byte >04,>04,>04,>04,>04,>04,>04,>04
     F5A8 0404     
     F5AA 0404     
     F5AC 0404     
     F5AE 04       
10485 F5AF   04     	byte >04,>00,>00,>00
     F5B0 0000     
     F5B2 00       
10486               	; rd16:	' --- 16 corridor mid (N gap to the gold castle) ---
10487               cvb_RD16
10488               	; 	DATA BYTE 2, 2, 2, 4, 4, 4, 4, 4, 4, 4, 4, 4
10489 F5B3   02     	byte >02,>02,>02,>04,>04,>04,>04,>04
     F5B4 0202     
     F5B6 0404     
     F5B8 0404     
     F5BA 04       
10490 F5BB   04     	byte >04,>04,>04,>04
     F5BC 0404     
     F5BE 04       
10491               	; 	DATA BYTE 4, 4, 4, 4, 4, 4, 4, 4, 4, 0, 0, 0
10492 F5BF   04     	byte >04,>04,>04,>04,>04,>04,>04,>04
     F5C0 0404     
     F5C2 0404     
     F5C4 0404     
     F5C6 04       
10493 F5C7   04     	byte >04,>00,>00,>00
     F5C8 0000     
     F5CA 00       
10494               	; rd17:	' --- 17 corridor east (secret wall E, catacombs S) ---
10495               cvb_RD17
10496               	; 	DATA BYTE 0, 0, 0, 18, 18, 18, 18, 18, 18, 18, 18, 18
10497 F5CB   00     	byte >00,>00,>00,>12,>12,>12,>12,>12
     F5CC 0000     
     F5CE 1212     
     F5D0 1212     
     F5D2 12       
10498 F5D3   12     	byte >12,>12,>12,>12
     F5D4 1212     
     F5D6 12       
10499               	; 	DATA BYTE 18, 18, 18, 18, 18, 18, 18, 18, 18, 2, 2, 2
10500 F5D7   12     	byte >12,>12,>12,>12,>12,>12,>12,>12
     F5D8 1212     
     F5DA 1212     
     F5DC 1212     
     F5DE 12       
10501 F5DF   12     	byte >12,>02,>02,>02
     F5E0 0202     
     F5E2 02       
10502               	; rd18:	' --- 18 SECRET room ---
10503               cvb_RD18
10504               	; 	DATA BYTE 0, 21, 21, 21, 21, 21, 21, 21, 21, 21, 26, 26
10505 F5E3   00     	byte >00,>15,>15,>15,>15,>15,>15,>15
     F5E4 1515     
     F5E6 1515     
     F5E8 1515     
     F5EA 15       
10506 F5EB   15     	byte >15,>15,>1a,>1a
     F5EC 151A     
     F5EE 1A       
10507               	; 	DATA BYTE 26, 26, 21, 21, 21, 21, 21, 21, 21, 21, 0, 0
10508 F5EF   1A     	byte >1a,>1a,>15,>15,>15,>15,>15,>15
     F5F0 1A15     
     F5F2 1515     
     F5F4 1515     
     F5F6 15       
10509 F5F7   15     	byte >15,>15,>00,>00
     F5F8 1500     
     F5FA 00       
10510               	; rd19:	' --- 19 blue maze SE (N/E/W; twin N gaps, dead-end nook) ---
10511               cvb_RD19
10512               	; 	DATA BYTE 27, 21, 21, 28, 29, 29, 30, 31, 31, 32, 26, 26
10513 F5FB   1B     	byte >1b,>15,>15,>1c,>1d,>1d,>1e,>1f
     F5FC 1515     
     F5FE 1C1D     
     F600 1D1E     
     F602 1F       
10514 F603   1F     	byte >1f,>20,>1a,>1a
     F604 201A     
     F606 1A       
10515               	; 	DATA BYTE 33, 21, 34, 34, 35, 21, 21, 36, 21, 37, 37, 0
10516 F607   21     	byte >21,>15,>22,>22,>23,>15,>15,>24
     F608 1522     
     F60A 2223     
     F60C 1515     
     F60E 24       
10517 F60F   15     	byte >15,>25,>25,>00
     F610 2525     
     F612 00       
10518               	; rd20:	' --- 20 blue maze mid (all sides; twin W doors, twin S gaps) ---
10519               cvb_RD20
10520               	; 	DATA BYTE 38, 21, 21, 39, 26, 26, 35, 40, 40, 41, 21, 42
10521 F613   26     	byte >26,>15,>15,>27,>1a,>1a,>23,>28
     F614 1515     
     F616 271A     
     F618 1A23     
     F61A 28       
10522 F61B   28     	byte >28,>29,>15,>2a
     F61C 2915     
     F61E 2A       
10523               	; 	DATA BYTE 28, 26, 26, 43, 44, 44, 45, 31, 31, 46, 21, 47
10524 F61F   1C     	byte >1c,>1a,>1a,>2b,>2c,>2c,>2d,>1f
     F620 1A1A     
     F622 2B2C     
     F624 2C2D     
     F626 1F       
10525 F627   1F     	byte >1f,>2e,>15,>2f
     F628 2E15     
     F62A 2F       
10526               	; rd21:	' --- 21 blue maze cross (all sides; twin N gaps, twin E doors) ---
10527               cvb_RD21
10528               	; 	DATA BYTE 48, 21, 21, 49, 50, 50, 51, 31, 31, 52, 26, 26
10529 F62B   30     	byte >30,>15,>15,>31,>32,>32,>33,>1f
     F62C 1515     
     F62E 3132     
     F630 3233     
     F632 1F       
10530 F633   1F     	byte >1f,>34,>1a,>1a
     F634 341A     
     F636 1A       
10531               	; 	DATA BYTE 53, 21, 21, 54, 31, 31, 55, 21, 56, 56, 56, 57
10532 F637   35     	byte >35,>15,>15,>36,>1f,>1f,>37,>15
     F638 1515     
     F63A 361F     
     F63C 1F37     
     F63E 15       
10533 F63F   38     	byte >38,>38,>38,>39
     F640 3838     
     F642 39       
10534               	; rd22:	' --- 22 blue maze W branch (N/E/S; twin N gaps, pockets) ---
10535               cvb_RD22
10536               	; 	DATA BYTE 58, 21, 21, 36, 21, 21, 38, 59, 59, 60, 31, 31
10537 F643   3A     	byte >3a,>15,>15,>24,>15,>15,>26,>3b
     F644 1515     
     F646 2415     
     F648 1526     
     F64A 3B       
10538 F64B   3B     	byte >3b,>3c,>1f,>1f
     F64C 3C1F     
     F64E 1F       
10539               	; 	DATA BYTE 61, 21, 21, 62, 63, 63, 47, 21, 21, 21, 21, 62
10540 F64F   3D     	byte >3d,>15,>15,>3e,>3f,>3f,>2f,>15
     F650 1515     
     F652 3E3F     
     F654 3F2F     
     F656 15       
10541 F657   15     	byte >15,>15,>15,>3e
     F658 1515     
     F65A 3E       
10542               	; rd25:	' --- 25 black castle hall (E to the dark maze) ---
10543               cvb_RD25
10544               	; 	DATA BYTE 0, 21, 21, 21, 21, 21, 21, 21, 25, 25, 64, 64
10545 F65B   00     	byte >00,>15,>15,>15,>15,>15,>15,>15
     F65C 1515     
     F65E 1515     
     F660 1515     
     F662 15       
10546 F663   19     	byte >19,>19,>40,>40
     F664 1940     
     F666 40       
10547               	; 	DATA BYTE 31, 31, 21, 21, 21, 21, 21, 21, 21, 21, 2, 2
10548 F667   1F     	byte >1f,>1f,>15,>15,>15,>15,>15,>15
     F668 1F15     
     F66A 1515     
     F66C 1515     
     F66E 15       
10549 F66F   15     	byte >15,>15,>02,>02
     F670 1502     
     F672 02       
10550               	; rd28:	' --- 28 black maze end: sealed DOT chamber (dark; S/W) ---
10551               cvb_RD28
10552               	; 	DATA BYTE 0, 21, 65, 66, 67, 67, 67, 65, 21, 49, 26, 26
10553 F673   00     	byte >00,>15,>41,>42,>43,>43,>43,>41
     F674 1541     
     F676 4243     
     F678 4343     
     F67A 41       
10554 F67B   15     	byte >15,>31,>1a,>1a
     F67C 311A     
     F67E 1A       
10555               	; 	DATA BYTE 60, 21, 68, 68, 36, 21, 21, 69, 63, 63, 63, 55
10556 F67F   3C     	byte >3c,>15,>44,>44,>24,>15,>15,>45
     F680 1544     
     F682 4424     
     F684 1515     
     F686 45       
10557 F687   3F     	byte >3f,>3f,>3f,>37
     F688 3F3F     
     F68A 37       
10558               	; rd32:	' --- 32 white castle grounds (E to catacombs) ---
10559               cvb_RD32
10560               	; 	DATA BYTE 0, 21, 22, 23, 24, 24, 24, 24, 21, 21, 31, 31
10561 F68B   00     	byte >00,>15,>16,>17,>18,>18,>18,>18
     F68C 1516     
     F68E 1718     
     F690 1818     
     F692 18       
10562 F693   15     	byte >15,>15,>1f,>1f
     F694 151F     
     F696 1F       
10563               	; 	DATA BYTE 31, 31, 21, 21, 21, 21, 21, 21, 21, 21, 0, 0
10564 F697   1F     	byte >1f,>1f,>15,>15,>15,>15,>15,>15
     F698 1F15     
     F69A 1515     
     F69C 1515     
     F69E 15       
10565 F69F   15     	byte >15,>15,>00,>00
     F6A0 1500     
     F6A2 00       
10566               	; rd36:	' --- 36 purple side room ---
10567               cvb_RD36
10568               	; 	DATA BYTE 0, 21, 21, 21, 21, 21, 21, 21, 21, 21, 26, 26
10569 F6A3   00     	byte >00,>15,>15,>15,>15,>15,>15,>15
     F6A4 1515     
     F6A6 1515     
     F6A8 1515     
     F6AA 15       
10570 F6AB   15     	byte >15,>15,>1a,>1a
     F6AC 151A     
     F6AE 1A       
10571               	; 	DATA BYTE 26, 26, 21, 21, 21, 21, 21, 21, 21, 21, 2, 2
10572 F6AF   1A     	byte >1a,>1a,>15,>15,>15,>15,>15,>15
     F6B0 1A15     
     F6B2 1515     
     F6B4 1515     
     F6B6 15       
10573 F6B7   15     	byte >15,>15,>02,>02
     F6B8 1502     
     F6BA 02       
10574               	; rd37:	' --- 37 cyan side room ---
10575               cvb_RD37
10576               	; 	DATA BYTE 2, 21, 21, 21, 21, 21, 21, 21, 25, 25, 25, 25
10577 F6BB   02     	byte >02,>15,>15,>15,>15,>15,>15,>15
     F6BC 1515     
     F6BE 1515     
     F6C0 1515     
     F6C2 15       
10578 F6C3   19     	byte >19,>19,>19,>19
     F6C4 1919     
     F6C6 19       
10579               	; 	DATA BYTE 21, 21, 21, 21, 21, 21, 21, 21, 21, 21, 2, 2
10580 F6C7   15     	byte >15,>15,>15,>15,>15,>15,>15,>15
     F6C8 1515     
     F6CA 1515     
     F6CC 1515     
     F6CE 15       
10581 F6CF   15     	byte >15,>15,>02,>02
     F6D0 1502     
     F6D2 02       
10582               	; rd38:	' --- 38 rose side room ---
10583               cvb_RD38
10584               	; 	DATA BYTE 2, 21, 21, 21, 21, 21, 21, 21, 21, 21, 21, 21
10585 F6D3   02     	byte >02,>15,>15,>15,>15,>15,>15,>15
     F6D4 1515     
     F6D6 1515     
     F6D8 1515     
     F6DA 15       
10586 F6DB   15     	byte >15,>15,>15,>15
     F6DC 1515     
     F6DE 15       
10587               	; 	DATA BYTE 21, 21, 70, 70, 70, 70, 21, 21, 21, 21, 0, 0
10588 F6DF   15     	byte >15,>15,>46,>46,>46,>46,>15,>15
     F6E0 1546     
     F6E2 4646     
     F6E4 4615     
     F6E6 15       
10589 F6E7   15     	byte >15,>15,>00,>00
     F6E8 1500     
     F6EA 00       
10590               	;
10591               	; 	' ------------------------------------------------------------
10592               	; 	' characters 128 (solid wall) and 129 (portcullis)
10593               	; 	' ------------------------------------------------------------
10594               	; wallchar:
10595               cvb_WALLCHAR
10596               	; 	BITMAP "XXXXXXXX"
10597               	; 	BITMAP "XXXXXXXX"
10598               	; 	BITMAP "XXXXXXXX"
10599               	; 	BITMAP "XXXXXXXX"
10600               	; 	BITMAP "XXXXXXXX"
10601               	; 	BITMAP "XXXXXXXX"
10602               	; 	BITMAP "XXXXXXXX"
10603               	; 	BITMAP "XXXXXXXX"
10604 F6EB   FF     	byte >ff,>ff,>ff,>ff,>ff,>ff,>ff,>ff
     F6EC FFFF     
     F6EE FFFF     
     F6F0 FFFF     
     F6F2 FF       
10605               	; 	BITMAP "XXXXXXXX"
10606               	; 	BITMAP "X_X_X_X_"
10607               	; 	BITMAP "X_X_X_X_"
10608               	; 	BITMAP "XXXXXXXX"
10609               	; 	BITMAP "X_X_X_X_"
10610               	; 	BITMAP "X_X_X_X_"
10611               	; 	BITMAP "XXXXXXXX"
10612               	; 	BITMAP "X_X_X_X_"
10613 F6F3   FF     	byte >ff,>aa,>aa,>ff,>aa,>aa,>ff,>aa
     F6F4 AAAA     
     F6F6 FFAA     
     F6F8 AAFF     
     F6FA AA       
10614               	;
10615               	; wallcol:
10616               cvb_WALLCOL
10617               	; 	DATA BYTE $B1, $B1, $B1, $B1, $B1, $B1, $B1, $B1
10618 F6FB   B1     	byte >b1,>b1,>b1,>b1,>b1,>b1,>b1,>b1
     F6FC B1B1     
     F6FE B1B1     
     F700 B1B1     
     F702 B1       
10619               	; 	DATA BYTE $E1, $E1, $E1, $E1, $E1, $E1, $E1, $E1
10620 F703   E1     	byte >e1,>e1,>e1,>e1,>e1,>e1,>e1,>e1
     F704 E1E1     
     F706 E1E1     
     F708 E1E1     
     F70A E1       
10621               	;
10622               	; 	' ------------------------------------------------------------
10623               	; 	' sprites (16x16 art, shown 32x32 = 4x4 characters):
10624               	; 	' 0 player (kept 8x8 on screen), 1 dragon top half (head/
10625               	; 	' neck), 2 dragon bottom half (body/legs) - together 32x64,
10626               	; 	' 3 slain dragon, 4 key, 5 sword, 6 chalice, 7 bridge,
10627               	; 	' 8 bat A, 9 bat B, 10 bridge channel fill, 11 magnet, 12 dot
10628               	; 	' ------------------------------------------------------------
10629               	; gsprites:
10630               cvb_GSPRITES
10631               	; 	BITMAP "XXXX____________"
10632               	; 	BITMAP "XXXX____________"
10633               	; 	BITMAP "XXXX____________"
10634               	; 	BITMAP "XXXX____________"
10635               	; 	BITMAP "________________"
10636               	; 	BITMAP "________________"
10637               	; 	BITMAP "________________"
10638               	; 	BITMAP "________________"
10639               	; 	BITMAP "________________"
10640               	; 	BITMAP "________________"
10641               	; 	BITMAP "________________"
10642               	; 	BITMAP "________________"
10643               	; 	BITMAP "________________"
10644               	; 	BITMAP "________________"
10645               	; 	BITMAP "________________"
10646               	; 	BITMAP "________________"
10647 F70B   F0     	byte >f0,>f0,>f0,>f0,>00,>00,>00,>00
     F70C F0F0     
     F70E F000     
     F710 0000     
     F712 00       
10648 F713   00     	byte >00,>00,>00,>00,>00,>00,>00,>00
     F714 0000     
     F716 0000     
     F718 0000     
     F71A 00       
10649 F71B   00     	byte >00,>00,>00,>00,>00,>00,>00,>00
     F71C 0000     
     F71E 0000     
     F720 0000     
     F722 00       
10650 F723   00     	byte >00,>00,>00,>00,>00,>00,>00,>00
     F724 0000     
     F726 0000     
     F728 0000     
     F72A 00       
10651               	;
10652               	; 	BITMAP "_____XXX________"
10653               	; 	BITMAP "____XXXXX_______"
10654               	; 	BITMAP "____XX_XX_______"
10655               	; 	BITMAP "____XXXXX_______"
10656               	; 	BITMAP "____XXX_________"
10657               	; 	BITMAP "_____XX_________"
10658               	; 	BITMAP "_____XX_________"
10659               	; 	BITMAP "_____XXX________"
10660               	; 	BITMAP "_____XXX________"
10661               	; 	BITMAP "____XXXX____X___"
10662               	; 	BITMAP "____XXXX___XX___"
10663               	; 	BITMAP "___XXXXX__XXX___"
10664               	; 	BITMAP "___XXXXXX_XX____"
10665               	; 	BITMAP "__XXXXXXXXXX____"
10666               	; 	BITMAP "__XXXXXXXXXX____"
10667               	; 	BITMAP "_XXXXXXXXXXX____"
10668 F72B   07     	byte >07,>0f,>0d,>0f,>0e,>06,>06,>07
     F72C 0F0D     
     F72E 0F0E     
     F730 0606     
     F732 07       
10669 F733   07     	byte >07,>0f,>0f,>1f,>1f,>3f,>3f,>7f
     F734 0F0F     
     F736 1F1F     
     F738 3F3F     
     F73A 7F       
10670 F73B   00     	byte >00,>80,>80,>80,>00,>00,>00,>00
     F73C 8080     
     F73E 8000     
     F740 0000     
     F742 00       
10671 F743   00     	byte >00,>08,>18,>38,>b0,>f0,>f0,>f0
     F744 0818     
     F746 38B0     
     F748 F0F0     
     F74A F0       
10672               	;
10673               	; 	BITMAP "_XXXXXXXXXX_____"
10674               	; 	BITMAP "XXXXXXXXXXX_____"
10675               	; 	BITMAP "XX_XXXXXXXX_____"
10676               	; 	BITMAP "X__XXXXXXX______"
10677               	; 	BITMAP "___XXXXXXX______"
10678               	; 	BITMAP "___XXXXXXX______"
10679               	; 	BITMAP "__XXXXXXXX______"
10680               	; 	BITMAP "__XXX__XXXX_____"
10681               	; 	BITMAP "__XX____XX______"
10682               	; 	BITMAP "__XX____XX______"
10683               	; 	BITMAP "__XX____XX______"
10684               	; 	BITMAP "_XXX____XXX_____"
10685               	; 	BITMAP "_XX______XX_____"
10686               	; 	BITMAP "XXX______XXX____"
10687               	; 	BITMAP "________________"
10688               	; 	BITMAP "________________"
10689 F74B   7F     	byte >7f,>ff,>df,>9f,>1f,>1f,>3f,>39
     F74C FFDF     
     F74E 9F1F     
     F750 1F3F     
     F752 39       
10690 F753   30     	byte >30,>30,>30,>70,>60,>e0,>00,>00
     F754 3030     
     F756 7060     
     F758 E000     
     F75A 00       
10691 F75B   E0     	byte >e0,>e0,>e0,>c0,>c0,>c0,>c0,>e0
     F75C E0E0     
     F75E C0C0     
     F760 C0C0     
     F762 E0       
10692 F763   C0     	byte >c0,>c0,>c0,>e0,>60,>70,>00,>00
     F764 C0C0     
     F766 E060     
     F768 7000     
     F76A 00       
10693               	;
10694               	; 	BITMAP "________________"
10695               	; 	BITMAP "________________"
10696               	; 	BITMAP "________________"
10697               	; 	BITMAP "________________"
10698               	; 	BITMAP "________________"
10699               	; 	BITMAP "________________"
10700               	; 	BITMAP "________________"
10701               	; 	BITMAP "________________"
10702               	; 	BITMAP "________________"
10703               	; 	BITMAP "________________"
10704               	; 	BITMAP "__XX___XX___XX__"
10705               	; 	BITMAP "__XX___XX___XX__"
10706               	; 	BITMAP "__X____X_____X__"
10707               	; 	BITMAP "_XXXXXXXXXXXXXX_"
10708               	; 	BITMAP "XXXXXXXXXXXXXXXX"
10709               	; 	BITMAP "XX_XXXXXXXXXX_XX"
10710 F76B   00     	byte >00,>00,>00,>00,>00,>00,>00,>00
     F76C 0000     
     F76E 0000     
     F770 0000     
     F772 00       
10711 F773   00     	byte >00,>00,>31,>31,>21,>7f,>ff,>df
     F774 0031     
     F776 3121     
     F778 7FFF     
     F77A DF       
10712 F77B   00     	byte >00,>00,>00,>00,>00,>00,>00,>00
     F77C 0000     
     F77E 0000     
     F780 0000     
     F782 00       
10713 F783   00     	byte >00,>00,>8c,>8c,>04,>fe,>ff,>fb
     F784 008C     
     F786 8C04     
     F788 FEFF     
     F78A FB       
10714               	;
10715               	; 	BITMAP "________________"
10716               	; 	BITMAP "________________"
10717               	; 	BITMAP "_XX_____________"
10718               	; 	BITMAP "X_XXXXXX________"
10719               	; 	BITMAP "_XX__X_X________"
10720               	; 	BITMAP "________________"
10721               	; 	BITMAP "________________"
10722               	; 	BITMAP "________________"
10723               	; 	BITMAP "________________"
10724               	; 	BITMAP "________________"
10725               	; 	BITMAP "________________"
10726               	; 	BITMAP "________________"
10727               	; 	BITMAP "________________"
10728               	; 	BITMAP "________________"
10729               	; 	BITMAP "________________"
10730               	; 	BITMAP "________________"
10731 F78B   00     	byte >00,>00,>60,>bf,>65,>00,>00,>00
     F78C 0060     
     F78E BF65     
     F790 0000     
     F792 00       
10732 F793   00     	byte >00,>00,>00,>00,>00,>00,>00,>00
     F794 0000     
     F796 0000     
     F798 0000     
     F79A 00       
10733 F79B   00     	byte >00,>00,>00,>00,>00,>00,>00,>00
     F79C 0000     
     F79E 0000     
     F7A0 0000     
     F7A2 00       
10734 F7A3   00     	byte >00,>00,>00,>00,>00,>00,>00,>00
     F7A4 0000     
     F7A6 0000     
     F7A8 0000     
     F7AA 00       
10735               	;
10736               	; 	BITMAP "________________"
10737               	; 	BITMAP "________________"
10738               	; 	BITMAP "__X_____________"
10739               	; 	BITMAP "XXXXXXXXXXXX____"
10740               	; 	BITMAP "__X_____________"
10741               	; 	BITMAP "________________"
10742               	; 	BITMAP "________________"
10743               	; 	BITMAP "________________"
10744               	; 	BITMAP "________________"
10745               	; 	BITMAP "________________"
10746               	; 	BITMAP "________________"
10747               	; 	BITMAP "________________"
10748               	; 	BITMAP "________________"
10749               	; 	BITMAP "________________"
10750               	; 	BITMAP "________________"
10751               	; 	BITMAP "________________"
10752 F7AB   00     	byte >00,>00,>20,>ff,>20,>00,>00,>00
     F7AC 0020     
     F7AE FF20     
     F7B0 0000     
     F7B2 00       
10753 F7B3   00     	byte >00,>00,>00,>00,>00,>00,>00,>00
     F7B4 0000     
     F7B6 0000     
     F7B8 0000     
     F7BA 00       
10754 F7BB   00     	byte >00,>00,>00,>f0,>00,>00,>00,>00
     F7BC 0000     
     F7BE F000     
     F7C0 0000     
     F7C2 00       
10755 F7C3   00     	byte >00,>00,>00,>00,>00,>00,>00,>00
     F7C4 0000     
     F7C6 0000     
     F7C8 0000     
     F7CA 00       
10756               	;
10757               	; 	BITMAP "_XX__________XX_"
10758               	; 	BITMAP "_XX__________XX_"
10759               	; 	BITMAP "_XX__________XX_"
10760               	; 	BITMAP "_XX__________XX_"
10761               	; 	BITMAP "___XX______XX___"
10762               	; 	BITMAP "___XX______XX___"
10763               	; 	BITMAP "_____XXXXXX_____"
10764               	; 	BITMAP "_____XXXXXX_____"
10765               	; 	BITMAP "_______XX_______"
10766               	; 	BITMAP "_______XX_______"
10767               	; 	BITMAP "_______XX_______"
10768               	; 	BITMAP "_______XX_______"
10769               	; 	BITMAP "___XXXXXXXXXX___"
10770               	; 	BITMAP "___XXXXXXXXXX___"
10771               	; 	BITMAP "________________"
10772               	; 	BITMAP "________________"
10773 F7CB   60     	byte >60,>60,>60,>60,>18,>18,>07,>07
     F7CC 6060     
     F7CE 6018     
     F7D0 1807     
     F7D2 07       
10774 F7D3   01     	byte >01,>01,>01,>01,>1f,>1f,>00,>00
     F7D4 0101     
     F7D6 011F     
     F7D8 1F00     
     F7DA 00       
10775 F7DB   06     	byte >06,>06,>06,>06,>18,>18,>e0,>e0
     F7DC 0606     
     F7DE 0618     
     F7E0 18E0     
     F7E2 E0       
10776 F7E3   80     	byte >80,>80,>80,>80,>f8,>f8,>00,>00
     F7E4 8080     
     F7E6 80F8     
     F7E8 F800     
     F7EA 00       
10777               	;
10778               	; 	BITMAP "XXX__________XXX"
10779               	; 	BITMAP "XX____________XX"
10780               	; 	BITMAP "XX____________XX"
10781               	; 	BITMAP "XX____________XX"
10782               	; 	BITMAP "XX____________XX"
10783               	; 	BITMAP "XX____________XX"
10784               	; 	BITMAP "XX____________XX"
10785               	; 	BITMAP "XX____________XX"
10786               	; 	BITMAP "XX____________XX"
10787               	; 	BITMAP "XX____________XX"
10788               	; 	BITMAP "XX____________XX"
10789               	; 	BITMAP "XX____________XX"
10790               	; 	BITMAP "XX____________XX"
10791               	; 	BITMAP "XX____________XX"
10792               	; 	BITMAP "XX____________XX"
10793               	; 	BITMAP "XXX__________XXX"
10794 F7EB   E0     	byte >e0,>c0,>c0,>c0,>c0,>c0,>c0,>c0
     F7EC C0C0     
     F7EE C0C0     
     F7F0 C0C0     
     F7F2 C0       
10795 F7F3   C0     	byte >c0,>c0,>c0,>c0,>c0,>c0,>c0,>e0
     F7F4 C0C0     
     F7F6 C0C0     
     F7F8 C0C0     
     F7FA E0       
10796 F7FB   07     	byte >07,>03,>03,>03,>03,>03,>03,>03
     F7FC 0303     
     F7FE 0303     
     F800 0303     
     F802 03       
10797 F803   03     	byte >03,>03,>03,>03,>03,>03,>03,>07
     F804 0303     
     F806 0303     
     F808 0303     
     F80A 07       
10798               	;
10799               	; 	BITMAP "________________"
10800               	; 	BITMAP "________________"
10801               	; 	BITMAP "X______XX______X"
10802               	; 	BITMAP "XX_____XX_____XX"
10803               	; 	BITMAP "_XXX__XXXX__XXX_"
10804               	; 	BITMAP "__XXXXXXXXXXXX__"
10805               	; 	BITMAP "____XX_XX_XX____"
10806               	; 	BITMAP "________________"
10807               	; 	BITMAP "________________"
10808               	; 	BITMAP "________________"
10809               	; 	BITMAP "________________"
10810               	; 	BITMAP "________________"
10811               	; 	BITMAP "________________"
10812               	; 	BITMAP "________________"
10813               	; 	BITMAP "________________"
10814               	; 	BITMAP "________________"
10815 F80B   00     	byte >00,>00,>81,>c1,>73,>3f,>0d,>00
     F80C 0081     
     F80E C173     
     F810 3F0D     
     F812 00       
10816 F813   00     	byte >00,>00,>00,>00,>00,>00,>00,>00
     F814 0000     
     F816 0000     
     F818 0000     
     F81A 00       
10817 F81B   00     	byte >00,>00,>81,>83,>ce,>fc,>b0,>00
     F81C 0081     
     F81E 83CE     
     F820 FCB0     
     F822 00       
10818 F823   00     	byte >00,>00,>00,>00,>00,>00,>00,>00
     F824 0000     
     F826 0000     
     F828 0000     
     F82A 00       
10819               	;
10820               	; 	BITMAP "________________"
10821               	; 	BITMAP "________________"
10822               	; 	BITMAP "________________"
10823               	; 	BITMAP "____X_XXXX_X____"
10824               	; 	BITMAP "__XXXXXXXXXXXX__"
10825               	; 	BITMAP "_XXX__XXXX__XXX_"
10826               	; 	BITMAP "X______XX______X"
10827               	; 	BITMAP "________________"
10828               	; 	BITMAP "________________"
10829               	; 	BITMAP "________________"
10830               	; 	BITMAP "________________"
10831               	; 	BITMAP "________________"
10832               	; 	BITMAP "________________"
10833               	; 	BITMAP "________________"
10834               	; 	BITMAP "________________"
10835               	; 	BITMAP "________________"
10836 F82B   00     	byte >00,>00,>00,>0b,>3f,>73,>81,>00
     F82C 0000     
     F82E 0B3F     
     F830 7381     
     F832 00       
10837 F833   00     	byte >00,>00,>00,>00,>00,>00,>00,>00
     F834 0000     
     F836 0000     
     F838 0000     
     F83A 00       
10838 F83B   00     	byte >00,>00,>00,>d0,>fc,>ce,>81,>00
     F83C 0000     
     F83E D0FC     
     F840 CE81     
     F842 00       
10839 F843   00     	byte >00,>00,>00,>00,>00,>00,>00,>00
     F844 0000     
     F846 0000     
     F848 0000     
     F84A 00       
10840               	;
10841               	; 	BITMAP "__XXXXXXXXXXXX__"
10842               	; 	BITMAP "__XXXXXXXXXXXX__"
10843               	; 	BITMAP "__XXXXXXXXXXXX__"
10844               	; 	BITMAP "__XXXXXXXXXXXX__"
10845               	; 	BITMAP "__XXXXXXXXXXXX__"
10846               	; 	BITMAP "__XXXXXXXXXXXX__"
10847               	; 	BITMAP "__XXXXXXXXXXXX__"
10848               	; 	BITMAP "__XXXXXXXXXXXX__"
10849               	; 	BITMAP "__XXXXXXXXXXXX__"
10850               	; 	BITMAP "__XXXXXXXXXXXX__"
10851               	; 	BITMAP "__XXXXXXXXXXXX__"
10852               	; 	BITMAP "__XXXXXXXXXXXX__"
10853               	; 	BITMAP "__XXXXXXXXXXXX__"
10854               	; 	BITMAP "__XXXXXXXXXXXX__"
10855               	; 	BITMAP "__XXXXXXXXXXXX__"
10856               	; 	BITMAP "__XXXXXXXXXXXX__"
10857 F84B   3F     	byte >3f,>3f,>3f,>3f,>3f,>3f,>3f,>3f
     F84C 3F3F     
     F84E 3F3F     
     F850 3F3F     
     F852 3F       
10858 F853   3F     	byte >3f,>3f,>3f,>3f,>3f,>3f,>3f,>3f
     F854 3F3F     
     F856 3F3F     
     F858 3F3F     
     F85A 3F       
10859 F85B   FC     	byte >fc,>fc,>fc,>fc,>fc,>fc,>fc,>fc
     F85C FCFC     
     F85E FCFC     
     F860 FCFC     
     F862 FC       
10860 F863   FC     	byte >fc,>fc,>fc,>fc,>fc,>fc,>fc,>fc
     F864 FCFC     
     F866 FCFC     
     F868 FCFC     
     F86A FC       
10861               	;
10862               	; 	BITMAP "_XXX______XXX___"
10863               	; 	BITMAP "_XXX______XXX___"
10864               	; 	BITMAP "_XXX______XXX___"
10865               	; 	BITMAP "_XXX______XXX___"
10866               	; 	BITMAP "_XXX______XXX___"
10867               	; 	BITMAP "_XXXX____XXXX___"
10868               	; 	BITMAP "__XXXXXXXXXX____"
10869               	; 	BITMAP "___XXXXXXXX_____"
10870               	; 	BITMAP "________________"
10871               	; 	BITMAP "________________"
10872               	; 	BITMAP "________________"
10873               	; 	BITMAP "________________"
10874               	; 	BITMAP "________________"
10875               	; 	BITMAP "________________"
10876               	; 	BITMAP "________________"
10877               	; 	BITMAP "________________"
10878 F86B   70     	byte >70,>70,>70,>70,>70,>78,>3f,>1f
     F86C 7070     
     F86E 7070     
     F870 783F     
     F872 1F       
10879 F873   00     	byte >00,>00,>00,>00,>00,>00,>00,>00
     F874 0000     
     F876 0000     
     F878 0000     
     F87A 00       
10880 F87B   38     	byte >38,>38,>38,>38,>38,>78,>f0,>e0
     F87C 3838     
     F87E 3838     
     F880 78F0     
     F882 E0       
10881 F883   00     	byte >00,>00,>00,>00,>00,>00,>00,>00
     F884 0000     
     F886 0000     
     F888 0000     
     F88A 00       
10882               	;
10883               	; 	BITMAP "X_______________"
10884               	; 	BITMAP "________________"
10885               	; 	BITMAP "________________"
10886               	; 	BITMAP "________________"
10887               	; 	BITMAP "________________"
10888               	; 	BITMAP "________________"
10889               	; 	BITMAP "________________"
10890               	; 	BITMAP "________________"
10891               	; 	BITMAP "________________"
10892               	; 	BITMAP "________________"
10893               	; 	BITMAP "________________"
10894               	; 	BITMAP "________________"
10895               	; 	BITMAP "________________"
10896               	; 	BITMAP "________________"
10897               	; 	BITMAP "________________"
10898               	; 	BITMAP "________________"
10899 F88B   80     	byte >80,>00,>00,>00,>00,>00,>00,>00
     F88C 0000     
     F88E 0000     
     F890 0000     
     F892 00       
10900 F893   00     	byte >00,>00,>00,>00,>00,>00,>00,>00
     F894 0000     
     F896 0000     
     F898 0000     
     F89A 00       
10901 F89B   00     	byte >00,>00,>00,>00,>00,>00,>00,>00
     F89C 0000     
     F89E 0000     
     F8A0 0000     
     F8A2 00       
10902 F8A3   00     	byte >00,>00,>00,>00,>00,>00,>00,>00
     F8A4 0000     
     F8A6 0000     
     F8A8 0000     
     F8AA 00       
10903               SLAST
10904               
10905               ;;; CV BASIC Epilogue
10906               
10907               ; data in low RAM
10908                   dorg >2000
10909               
10910               ; must be even aligned
10911               ; mirror for sprite table
10912 2000          sprites	    bss 128
10913               
10914               ; Vars can start at >2080
10915                   dorg >2080
10916               
10917               cvb_BFX:
10918 2080          	bss 1
10919               cvb_BFY:
10920 2081          	bss 1
10921               cvb_PSTEP:
10922 2082          	bss 1
10923               cvb_B:
10924 2083          	bss 1
10925               cvb_D:
10926 2084          	bss 1
10927               cvb_E:
10928 2085          	bss 1
10929               cvb_F:
10930 2086          	bss 1
10931               cvb_I:
10932 2087          	bss 1
10933               cvb_M:
10934 2088          	bss 1
10935               cvb_UDL:
10936 2089          	bss 1
10937               cvb_O:
10938 208A          	bss 1
10939               cvb_R:
10940 208B          	bss 1
10941               cvb_T:
10942 208C          	bss 1
10943               cvb_TPX:
10944 208D          	bss 1
10945               cvb_TPY:
10946 208E          	bss 1
10947               	even
10948               cvb__SFQ:
10949 2090          	bss 2
10950               cvb_BRF:
10951 2092          	bss 1
10952               cvb_RMCH:
10953 2093          	bss 1
10954               cvb_BTC:
10955 2094          	bss 1
10956               cvb_LKE:
10957 2095          	bss 1
10958               cvb_BTR:
10959 2096          	bss 1
10960               cvb_LKN:
10961 2097          	bss 1
10962               cvb_BTX:
10963 2098          	bss 1
10964               cvb_BTY:
10965 2099          	bss 1
10966               cvb_LKR:
10967 209A          	bss 1
10968               cvb_LKS:
10969 209B          	bss 1
10970               cvb_LKW:
10971 209C          	bss 1
10972               cvb_GOPN:
10973 209D          	bss 1
10974               cvb_EGGON:
10975 209E          	bss 1
10976               cvb_DEX:
10977 209F          	bss 1
10978               cvb_DEY:
10979 20A0          	bss 1
10980               cvb_DHI:
10981 20A1          	bss 1
10982               cvb_DPC:
10983 20A2          	bss 1
10984               cvb_DRK:
10985 20A3          	bss 1
10986               cvb_WINRM:
10987 20A4          	bss 1
10988               cvb_EFLAG:
10989 20A5          	bss 1
10990               cvb__O:
10991 20A6          	bss 2
10992               cvb__CRX:
10993 20A8          	bss 2
10994               cvb__CRY:
10995 20AA          	bss 2
10996               cvb_PKCD:
10997 20AC          	bss 1
10998               cvb_R0F:
10999 20AD          	bss 1
11000               cvb_FPC:
11001 20AE          	bss 1
11002               cvb_FON:
11003 20AF          	bss 1
11004               cvb_R1F:
11005 20B0          	bss 1
11006               	even
11007               cvb__AD:
11008 20B2          	bss 2
11009               cvb_FPR:
11010 20B4          	bss 1
11011               	even
11012               cvb__AW:
11013 20B6          	bss 2
11014               cvb__AX:
11015 20B8          	bss 2
11016               cvb__BX:
11017 20BA          	bss 2
11018               cvb__DI:
11019 20BC          	bss 2
11020               cvb__CX:
11021 20BE          	bss 2
11022               cvb_BTCD:
11023 20C0          	bss 1
11024               	even
11025               cvb__DX:
11026 20C2          	bss 2
11027               cvb_PRN:
11028 20C4          	bss 1
11029               cvb_QHT:
11030 20C5          	bss 1
11031               cvb_HIT:
11032 20C6          	bss 1
11033               cvb_BTNP:
11034 20C7          	bss 1
11035               cvb_C2:
11036 20C8          	bss 1
11037               cvb_C3:
11038 20C9          	bss 1
11039               cvb_BF:
11040 20CA          	bss 1
11041               cvb_BH:
11042 20CB          	bss 1
11043               cvb_AX:
11044 20CC          	bss 1
11045               cvb_CB:
11046 20CD          	bss 1
11047               cvb_E2:
11048 20CE          	bss 1
11049               cvb_BW:
11050 20CF          	bss 1
11051               cvb_CR:
11052 20D0          	bss 1
11053               cvb_PCOL:
11054 20D1          	bss 1
11055               cvb_CW:
11056 20D2          	bss 1
11057               cvb_DS:
11058 20D3          	bss 1
11059               cvb_FC:
11060 20D4          	bss 1
11061               cvb_FL:
11062 20D5          	bss 1
11063               cvb_I2:
11064 20D6          	bss 1
11065               cvb_GM:
11066 20D7          	bss 1
11067               cvb_GZ:
11068 20D8          	bss 1
11069               cvb_PE:
11070 20D9          	bss 1
11071               cvb_SFC:
11072 20DA          	bss 1
11073               cvb_SFD:
11074 20DB          	bss 1
11075               cvb_PN:
11076 20DC          	bss 1
11077               cvb_PS:
11078 20DD          	bss 1
11079               cvb_PW:
11080 20DE          	bss 1
11081               cvb_PX:
11082 20DF          	bss 1
11083               cvb_PY:
11084 20E0          	bss 1
11085               cvb_T2:
11086 20E1          	bss 1
11087               cvb_SFX:
11088 20E2          	bss 1
11089               cvb_RN:
11090 20E3          	bss 1
11091               cvb_C0F:
11092 20E4          	bss 1
11093               cvb_C1F:
11094 20E5          	bss 1
11095               cvb_TK:
11096 20E6          	bss 1
11097               cvb_TX:
11098 20E7          	bss 1
11099               cvb_TY:
11100 20E8          	bss 1
11101               cvb_X0:
11102 20E9          	bss 1
11103               cvb_WF:
11104 20EA          	bss 1
11105               cvb_Y0:
11106 20EB          	bss 1
11107               cvb_GDIR:
11108 20EC          	bss 1
11109               cvb_SNB:
11110 20ED          	bss 1
11111               array_DCL:
11112 20EE          	bss 3
11113               	even
11114               array_DDX:
11115 20F2          	bss 3
11116               	even
11117               array_DDY:
11118 20F6          	bss 3
11119               	even
11120               array_DPD:
11121 20FA          	bss 3
11122               	even
11123               array_DRC:
11124 20FE          	bss 3
11125               	even
11126               array_MSK:
11127 2102          	bss 8
11128               array_DRM:
11129 210A          	bss 3
11130               	even
11131               array_DSP:
11132 210E          	bss 3
11133               	even
11134               array_DST:
11135 2112          	bss 3
11136               	even
11137               array_OCL:
11138 2116          	bss 8
11139               array_OBX:
11140 211E          	bss 8
11141               array_OBY:
11142 2126          	bss 8
11143               array_FDL:
11144 212E          	bss 3
11145               	even
11146               array_ROWD:
11147 2132          	bss 284
11148               array_ORM:
11149 224E          	bss 8
11150               array_GOP:
11151 2256          	bss 3
11152               	even
11153               array_RM:
11154 225A          	bss 96
11155               ram_end:
