XAS99 CROSS-ASSEMBLER   VERSION 3.6.5
     **** ****     > adventire.a99
0001               	; CVBasic compiler v0.9.2 Mar/12/2026
0002               	; Command: /cygdrive/c/Users/Howie/github.git/nanochess/CVBasic/cvbasic --ti994a adventire.bas adventire.a99 C:/Users/Howie/github.git/nanochess/CVBasic/
0003               	; Created: Sat Jul  4 19:41:18 2026
0004               
0005      0000     COLECO:	equ 0
0006      0000     SG1000:	equ 0
0007      0000     MSX:	equ 0
0008      0000     FM_SUPPORT:	equ 0
0009      0000     SGM:	equ 0
0010      0000     SVI:	equ 0
0011      0000     SORD:	equ 0
0012      0000     MEMOTECH:	equ 0
0013      0000     EINSTEIN:	equ 0
0014      0000     CPM:	equ 0
0015      0000     PENCIL:	equ 0
0016      0000     PV2000:	equ 0
0017      0001     TI99:	equ 1
0018      0000     NABU:	equ 0
0019      0000     SMS:	equ 0
0020               
0021      0000     CVBASIC_MUSIC_PLAYER:	equ 0
0022      0000     CVBASIC_COMPRESSION:	equ 0
0023      0000     CVBASIC_BANK_SWITCHING:	equ 0
0024      0000     CVBASIC_BANK_ROM_SIZE:	equ 0
0025      0000     COLECO_SPINNER:	equ 0
0026               
0027      2080     BASE_RAM:	equ >2080	; Base of RAM
0028      1F80     RAM_SIZE:	equ >1f80	; Base of RAM
0029      4000     STACK:	equ >4000	; Base stack pointer
0030      8800     VDP:	equ >8800	; VDP port (write)
0031      8C00     VDPR:	equ >8c00	; VDP port (read)
0032               
0033               ;
0034               ; CVBasic prologue (BASIC compiler, 9900 target)
0035               ;
0036               ; by Tursi
0037               ; https//harmlesslion.com
0038               ;
0039               ; based on code by
0040               ;
0041               ; by Oscar Toledo G.
0042               ; https//nanochess.org/
0043               ;
0044               ; Creation date Aug/05/2024.
0045               ; Revision date Aug/06/2024. Ported music player from Z80 CVBasic.
0046               ; Revision date Aug/07/2024. Ported Pletter decompressor from Z80 CVBasic.
0047               ;                            Added VDP delays.
0048               ; Revision date Aug/12/2024. Rewrite started for TMS9900 cpu
0049               ; Revision date Aug/16/2024. Corrected bug in define_char_unpack.
0050               ; Revision date Aug/18/2024. Ported bugfixes to TMS9900 version
0051               ; Revision date Aug/30/2024. All samples except pletter and banking working on TMS9900 version
0052               ; Revision date Oct/15/2024. Added LDIRMV.
0053               ; Revision date May/03/2025. Fix for unpack3 which was using the stack pointer as a temp register
0054               
0055               ;
0056               ; Platforms supported:
0057               ; o TI-99/4A with 32k Memory Expansion
0058               
0059               ; this is intended to be assembled by xdt99, no console ROM dependencies
0060               ;   cvbasic --ti994a test1.bas test1.a99
0061               ;   xas99.py -R test1.a99
0062               
0063               ; When looking at this - remember that JUMP and BRANCH have the /opposite/
0064               ; meanings to the 6502 - JUMP is the short relative one, and BRANCH is absolute.
0065               
0066               ;
0067               ; CVBasic variables in scratchpad.
0068               ;
0069               
0070               ; don't warn on branch/jump optimizations or unused variables
0071               ;: warn-opts = off
0072               ;: warn-symbols = off
0073               
0074               ; use original (possibly incorrectly ported) random
0075      0000     OLD_RND equ 0
0076               
0077               ; We have to use our own workspace, not GPLWS, because the interrupt routine makes it unsafe to
0078               ; use r11, which we kind of need! So that eats 32 bytes of RAM but means most of the register
0079               ; restrictions I wrote this code on (avoid R1, avoid R6, avoid R13-R15) are lifted.
0080      8300     mywp      equ >8300
0081      8320     myintwp   equ >8320
0082               
0083               ; data storage in scratchpad
0084                   dorg >8340
0085               
0086               ; used to track scratchpad variables
0087      8340     firstsp         equ $
0088               
0089 8340          read_pointer    bss 2       ; for data/read statements
0090 8342          cursor		    bss 2       ; screen position
0091 8344          pletter_off	    bss 2       ; Used by Pletter
0092               
0093               ; joystick bytes
0094 8346          joy1_data	    bss 1       ; keep these bytes together and even aligned
0095 8347          joy2_data	    bss 1
0096               
0097 8348          key1_data	    bss 1       ; byte - keyboard - keep these bytes together and even aligned
0098 8349          key2_data	    bss 1       ; byte - keyboard (not used)
0099               
0100 834A          frame	        bss 2       ; word
0101 834C          lfsr		    bss 2       ; word MUST BE EVEN ALIGNED
0102               
0103 834E          mode            bss 1
0104 834F          flicker         bss 1
0105               
0106 8350          ntsc            bss 1
0107               
0148               
0154               
0155               ; used to track scratchpad variables
0156                   even
0157      8352     lastsp              equ $
0158               
0159               ; While we don't mean to USE the console ROM, for interrupts we
0160               ; are forced to interface with some of it. We need these addresses
0161               ; to minimize what it does so we can maximize our use of scratchpad.
0162               ; While I'd like to use the cassette hook - requires only 10 instructions
0163               ; and only uses 6 words of scratchpad, we can't here because it
0164               ; loses the return address, meaning you can only use it if you
0165               ; know where your LIMI 2 is and interrupts are otherwise disabled. So
0166               ; we have to use the longer but more standard interrupt hook, which also
0167               ; reads VDP status for us (no choice).
0168               
0169      8379     intcnt              equ >8379   ; interrupt counter byte, adds 1 (from GPLWS r14) every frame
0170      837B     vdp_status          equ >837B   ; VDP status byte mirror
0171      83C2     intwsr1             equ >83c2   ; INT WS R1  - interrupt control flags - must be >8000
0172      83C4     intwsr2             equ >83c4   ; INT WS R2  - address of user interrupt routine (point to int_handler)
0173      83D6     intwsr11            equ >83d6   ; screen timeout counter - must be odd (init to 1, is inct every frame)
0174      83DA     intwsr13            equ >83da   ; INT WS R13 - used for interrupt call (word)
0175      83DC     intwsr14            equ >83dc   ; INT WS R14 - used for interrupt call (word)
0176      83DE     intwsr15            equ >83de   ; INT WS R15 - used for interrupt call (word)
0177      83F6     gplwsr11            equ >83f6   ; GPL WS R11 - return address to interrupt ROM (not used, but overwritten each int)
0178      83F8     gplwsr12            equ >83f8   ; GPL WS R12 - used for cassette test and interrupt hook test (zeroed each int)
0179      83FA     gplwsr13            equ >83fa   ; GPL WS R13 - used in my interrupt handler
0180      83FC     gplwsr14            equ >83fc   ; GPL WS R14 - flags used to detect cassette - must be >0108 (or at least >0020 clear)
0181      83FE     gplwsr15            equ >83fe   ; GPL WS R15 - base address of VDP for status read - must be >8C02
0182               
0183               ; Some hardware equates
0184      83C0     INTWS     equ >83C0     ; interrupt calling Workspace
0185      83E0     GPLWP     equ >83E0     ; we use this one
0186      8400     SOUND     equ >8400
0187      8800     VDPDATA   equ >8800
0188      8802     VDPSTATUS equ >8802
0189      8C00     VDPWDATA  equ >8c00
0190      8C02     VDPWADR   equ >8c02
0191               
0192               ; cartridge header for all ROM pages
0193               ; this might do weird things to bank 0 but we have to chop it up anyway...
0194                   bank all,>6000
0195               
0196 6000 AA01         data >aa01,>0100,>0000,proglist,>0000,>0000
     6002 0100     
     6004 0000     
     6006 600C     
     6008 0000     
     600A 0000     
0197               proglist
0198 600C 0000         data >0000,SFIRST
     600E 6026     
0199 6010 14           byte 20
0200 6011   43         text 'CVBASIC GAME        *'    ; 20 characters to allow name to be hex edited
     6012 5642     
     6014 4153     
     6016 4943     
     6018 2047     
     601A 414D     
     601C 4520     
     601E 2020     
     6020 2020     
     6022 2020     
     6024 202A     
0201               
0202               ; startup code copies the first three banks to 24k RAM (always) and jumps there
0203               SFIRST
0204 6026 04E0  34     clr @>6000      ; set bank 0 - last shared instruction
     6028 6000     
0205               
0206                   bank 0
0207               
0208 602A 0203  20     li r3,3         ; how many banks
     602C 0003     
0209 602E 0204  20     li r4,>6000     ; from bank
     6030 6000     
0210 6032 0200  20     li r0,>a000     ; target in RAM
     6034 A000     
0211               SFLP
0212 6036 04F4  30     clr *r4+        ; set the bank
0213 6038 0201  20     li r1,>6050     ; from address
     603A 6050     
0214 603C 0202  20     li r2,>1FB0     ; count
     603E 1FB0     
0215               SFLP2
0216 6040 CC31  46     mov *r1+,*r0+   ; move words
0217 6042 0642  14     dect r2         ; count down
0218 6044 16FD  14     jne SFLP2
0219 6046 0603  14     dec r3          ; count down pages
0220 6048 16F6  14     jne SFLP
0221               CODEST
0222 604A 0460  28     b @START        ; jump to startup code in RAM
     604C A980     
0223               
0224               ; fixed program in high RAM - magic bank number higher than normally legal
0225               ; this will be chopped up and inserted into the first three banks
0226               ; we're still in bank 0 - this will result in a gap in the output binary
0227               ; that we can use to put the pieces together more easily.
0228                   aorg >a000
0229               
0230               ; Utility functions
0231               
0232               ; Write register to VDP - R0 = reg in MSB, data in LSB
0233               WRTVDP
0234 A000 0260  22     ori r0,>8000
     A002 8000     
0235 A004 1002  14     jmp SETRD
0236               
0237               ; Set VDP for write address - address in R0
0238               SETWRT
0239 A006 0260  22     ori r0,>4000
     A008 4000     
0240               ; fall through
0241               
0242               ; Set VDP for read address - address in R0
0243               SETRD
0244 A00A 06C0  14     swpb r0
0245 A00C D800  30     movb r0,@VDPWADR
     A00E 8C02     
0246 A010 06C0  14     swpb r0
0247 A012 D800  30     movb r0,@VDPWADR
     A014 8C02     
0248 A016 045B  20     b *r11
0249               
0250               ; Write byte to VDP - address in R0, data in MSB R2
0251               ; Inline address set to avoid needing to cache r11
0252               WRTVRM
0253 A018 0260  22     ori r0,>4000
     A01A 4000     
0254 A01C 06C0  14     swpb r0
0255 A01E D800  30     movb r0,@VDPWADR
     A020 8C02     
0256 A022 06C0  14     swpb r0
0257 A024 D800  30     movb r0,@VDPWADR
     A026 8C02     
0258               ; No need to delay after setting a write address - there's no VRAM access
0259 A028 D802  30     movb r2,@VDPWDATA
     A02A 8C00     
0260 A02C 045B  20     b *r11
0261               
0262               ; Read byte from VDP - address in R0, data returned in MSB R0
0263               ; Inline address set to avoid needing to cache r11
0264               RDVRM
0265 A02E 06C0  14     swpb r0
0266 A030 D800  30     movb r0,@VDPWADR
     A032 8C02     
0267 A034 06C0  14     swpb r0
0268 A036 D800  30     movb r0,@VDPWADR
     A038 8C02     
0269 A03A 1000  14     nop
0270 A03C D020  30     movb @VDPDATA,r0
     A03E 8800     
0271 A040 045B  20     b *r11
0272               
0273               ; Fill VRAM - address in R0, byte in R2, count in R3
0274               ; Original: address in pointer, byte in temp, count in temp2 (ZP)
0275               ; Inline address set to avoid needing to cache r11
0276               FILVRM
0277 A042 0260  22     ori r0,>4000
     A044 4000     
0278 A046 06C0  14     swpb r0
0279 A048 D800  30     movb r0,@VDPWADR
     A04A 8C02     
0280 A04C 06C0  14     swpb r0
0281 A04E D800  30     movb r0,@VDPWADR
     A050 8C02     
0282               ; No need to delay after setting a write address - there's no VRAM access
0283               !1
0284 A052 D802  30     movb r2,@VDPWDATA
     A054 8C00     
0285 A056 0603  14     dec r3
0286 A058 16FC  14     jne -!1
0287 A05A 045B  20     b *r11
0288               
0289               ; Read VRAM - address in R0, CPU data at R2, count in R3
0290               ; Inline address set to avoid needing to cache r11
0291               LDIRMV
0292 A05C 06C0  14     swpb r0
0293 A05E D800  30     movb r0,@VDPWADR
     A060 8C02     
0294 A062 06C0  14     swpb r0
0295 A064 D800  30     movb r0,@VDPWADR
     A066 8C02     
0296 A068 06C0  14     swpb r0
0297 A06A 06C0  14     swpb r0
0298               !1
0299 A06C DCA0  44     movb @VDPDATA,*r2+
     A06E 8800     
0300 A070 0603  14     dec r3
0301 A072 16FC  14     jne -!1
0302 A074 045B  20     b *r11
0303               
0304               ; Load VRAM - address in R0, CPU data at R2, count in R3
0305               ; Original: address in pointer, CPU address at temp, count in temp2
0306               ; Inline address set to avoid needing to cache r11
0307               LDIRVM
0308 A076 0260  22     ori r0,>4000
     A078 4000     
0309 A07A 06C0  14     swpb r0
0310 A07C D800  30     movb r0,@VDPWADR
     A07E 8C02     
0311 A080 06C0  14     swpb r0
0312 A082 D800  30     movb r0,@VDPWADR
     A084 8C02     
0313               ; No need to delay after setting a write address - there's no VRAM access
0314               !1
0315 A086 D832  40     movb *r2+,@VDPWDATA
     A088 8C00     
0316 A08A 0603  14     dec r3
0317 A08C 16FC  14     jne -!1
0318 A08E 045B  20     b *r11
0319               
0320               ; Define a pattern three times with 2k offsets - used for bitmap color and pattern tables
0321               ; Load VRAM 3 times with offset - address in R0, CPU data at R2, count in R3
0322               ; Original: address in pointer, CPU address at temp, count in temp2
0323               LDIRVM3
0324 A090 C10B  18     mov r11,r4      ; save return address
0325 A092 C142  18     mov r2,r5       ; save CPU address
0326 A094 C1C3  18     mov r3,r7       ; save count
0327 A096 06A0  32     bl @LDIRVM
     A098 A076     
0328 A09A 0220  22     ai r0,>0800     ; the OR'd mask doesn't matter
     A09C 0800     
0329 A09E C085  18     mov r5,r2       ; restore CPU
0330 A0A0 C0C7  18     mov r7,r3       ; restore count
0331 A0A2 06A0  32     bl @LDIRVM
     A0A4 A076     
0332 A0A6 0220  22     ai r0,>0800     ; the OR'd mask doesn't matter
     A0A8 0800     
0333 A0AA C085  18     mov r5,r2
0334 A0AC C0C7  18     mov r7,r3
0335 A0AE C2C4  18     mov r4,r11      ; for tail recursion
0336 A0B0 10E2  14     jmp LDIRVM
0337               
0338               ; Disable screen by setting VDP register 1 to >a2
0339               DISSCR
0340 A0B2 0300  22     limi 0
     A0B4 0000     
0341 A0B6 0200  20     li r0,>81a2
     A0B8 81A2     
0342               DISSCR2
0343 A0BA 06C0  14     swpb r0
0344 A0BC D800  30     movb r0,@VDPWADR
     A0BE 8C02     
0345 A0C0 06C0  14     swpb r0
0346 A0C2 D800  30     movb r0,@VDPWADR
     A0C4 8C02     
0347 A0C6 0300  22     limi 2
     A0C8 0002     
0348 A0CA 045B  20     b *r11
0349               
0350               ; enable screen by setting VDP register 1 to >E2
0351               ENASCR
0352 A0CC 0300  22     limi 0
     A0CE 0000     
0353 A0D0 0200  20     li r0,>81e2
     A0D2 81E2     
0354 A0D4 10F2  14     jmp DISSCR2
0355               
0356               ; copy a set of blocks of data to VDP, offset by 32 bytes each
0357               ; address in R8, CPU data at R9, count per row in R6 (MSB), number rows in R4 (MSB), CPU stride in R5 (MSB) (VDP stride fixed at 32)
0358               ; original: address in pointer, CPU address at temp, count per row in temp2, num rows in temp2+1, stride in YYXX
0359               CPYBLK
0360 A0D6 C1CB  18     mov r11,r7      ; save return
0361 A0D8 0986  32     srl r6,8
0362 A0DA 0984  32     srl r4,8
0363 A0DC 0985  32     srl r5,8        ; bytes to words
0364 A0DE 0300  22     limi 0
     A0E0 0000     
0365               !1
0366 A0E2 C008  18     mov r8,r0       ; get vdp address
0367 A0E4 C089  18     mov r9,r2       ; get cpu address
0368 A0E6 C0C6  18     mov r6,r3       ; get count
0369 A0E8 06A0  32     bl @LDIRVM      ; copy one row
     A0EA A076     
0370 A0EC A245  18     a r5,r9         ; add stride to CPU address
0371 A0EE 0228  22     ai r8,32        ; add 32 to VDP
     A0F0 0020     
0372 A0F2 0604  14     dec r4          ; count down rows
0373 A0F4 16F6  14     jne -!1         ; loop till done
0374 A0F6 0300  22     limi 2
     A0F8 0002     
0375 A0FA 0457  20     b *r7           ; back to caller
0376               
0377               ; clear screen and reset cursor to >1800
0378               cls
0379 A0FC C10B  18     mov r11,r4      ; save return
0380 A0FE 0200  20     li r0,>1800     ; SIT address
     A100 1800     
0381 A102 C800  30     mov r0,@cursor  ; save cursor
     A104 8342     
0382 A106 0202  20     li r2,>2000     ; byte to write
     A108 2000     
0383 A10A 0203  20     li r3,768       ; number of bytes
     A10C 0300     
0384 A10E 0300  22     limi 0          ; ints off
     A110 0000     
0385 A112 06A0  32     bl @FILVRM      ; write them
     A114 A042     
0386 A116 0300  22     limi 2          ; ints back on
     A118 0002     
0387 A11A 0454  20     b *r4           ; back to caller
0388               
0389               ; copy a string to screen at cursor - address enforced
0390               ; CPU address in R2, length in R3
0391               print_string
0392 A11C C10B  18     mov r11,r4      ; save return
0393 A11E C020  30     mov @cursor,r0  ; get cursor pos
     A120 8342     
0394 A122 0240  22     andi r0,>07ff   ; enforce position - pretty large range though? 80 column support maybe?
     A124 07FF     
0395 A126 0220  22     ai r0,>1800     ; add is safer than OR, and we have that option
     A128 1800     
0396 A12A A803  30     a r3,@cursor    ; add the count to cursor (might as well do it now!)
     A12C 8342     
0397 A12E 0300  22     limi 0
     A130 0000     
0398 A132 06A0  32     bl @LDIRVM      ; do the write
     A134 A076     
0399 A136 0300  22     limi 2
     A138 0002     
0400 A13A 0454  20     b *r4           ; back to caller
0401               
0402               ; emit a 16-bit number as decimal with leading zero masking at cursor
0403               ; R0 - number to print
0404               ; original number in YYAA?
0405               print_number
0406 A13C 0300  22     limi 0              ; interrupts off so we can hold the VDP address
     A13E 0000     
0407 A140 04C5  14     clr r5              ; leading zero flag
0408               print_number5
0409 A142 0201  20     li r1,10000         ; divisor
     A144 2710     
0410 A146 C10B  18     mov r11,r4
0411 A148 06A0  32     bl @print_digit
     A14A A18A     
0412 A14C C2C4  18     mov r4,r11
0413               print_number4
0414 A14E 0201  20     li r1,1000          ; divisor
     A150 03E8     
0415 A152 C10B  18     mov r11,r4
0416 A154 06A0  32     bl @print_digit
     A156 A18A     
0417 A158 C2C4  18     mov r4,r11
0418               print_number3
0419 A15A 0201  20     li r1,100           ; divisor
     A15C 0064     
0420 A15E C10B  18     mov r11,r4
0421 A160 06A0  32     bl @print_digit
     A162 A18A     
0422 A164 C2C4  18     mov r4,r11
0423               print_number2
0424 A166 0201  20     li r1,10
     A168 000A     
0425 A16A C10B  18     mov r11,r4
0426 A16C 06A0  32     bl @print_digit
     A16E A18A     
0427 A170 C2C4  18     mov r4,r11
0428               print_number1
0429 A172 0201  20     li r1,1
     A174 0001     
0430 A176 0245  22     andi r5,>00ff
     A178 00FF     
0431 A17A 0265  22     ori r5,>0100
     A17C 0100     
0432 A17E C10B  18     mov r11,r4
0433 A180 06A0  32     bl @print_digit
     A182 A18A     
0434 A184 0300  22     limi 2              ; ints on
     A186 0002     
0435 A188 0454  20     b *r4               ; back to caller
0436               
0437               print_digit
0438 A18A C18B  18     mov r11,r6
0439 A18C 04C2  14     clr r2
0440 A18E 3C81 128     div r1,r2
0441 A190 0222  22     ai r2,>30
     A192 0030     
0442 A194 0282  22     ci r2,>30
     A196 0030     
0443 A198 160B  14     jne !3
0444 A19A 0285  22     ci r5,>0100
     A19C 0100     
0445 A19E 1401  14     jhe !4
0446 A1A0 0456  20     b *r6
0447               !4
0448 A1A2 0285  22     ci r5,>0200
     A1A4 0200     
0449 A1A6 1A02  14     jl !6
0450 A1A8 C085  18     mov r5,r2
0451 A1AA 1606  14     jne print_char2
0452               !6
0453 A1AC 0202  20     li r2,>30
     A1AE 0030     
0454               !3
0455 A1B0 0245  22     andi r5,>00ff
     A1B2 00FF     
0456 A1B4 0265  22     ori r5,>0100
     A1B6 0100     
0457               print_char2
0458 A1B8 C020  30     mov @cursor,r0      ; get cursor
     A1BA 8342     
0459 A1BC 0240  22     andi r0,>07ff       ; enforce position - large range for two screen pages
     A1BE 07FF     
0460 A1C0 0220  22     ai r0,>1800         ; add is safer than OR, and we have that option
     A1C2 1800     
0461 A1C4 06A0  32     bl @SETWRT          ; set write address
     A1C6 A006     
0462 A1C8 06C2  14     swpb r2
0463 A1CA D802  30     movb r2,@VDPWDATA
     A1CC 8C00     
0464 A1CE 05A0  26     inc @cursor         ; track it
     A1D0 8342     
0465 A1D2 0456  20     b *r6
0466               print_char
0467 A1D4 C18B  18     mov r11,r6
0468 A1D6 0460  28     b @print_char2
     A1D8 A1B8     
0469               
0470               ; Load sprite definitions: Sprite number in R4, CPU data in R0, count of sprites in R5 (MSB)
0471               ; Original: pointer = sprite number, temp = CPU address, a = number sprites
0472               ; Note: sprites are all expected to be double-size 16x16, 32 bytes each, so sprite char 1 is character 4
0473               ; Sprite pattern table at >3800
0474               define_sprite
0475 A1DA C20B  18     mov r11,r8          ; save return
0476 A1DC C080  18     mov r0,r2           ; Source data.
0477 A1DE C004  18     mov r4,r0           ; VRAM target.
0478 A1E0 0A50  26     sla r0,5            ; sprite number times 32 for bytes
0479 A1E2 0220  22     ai r0,>3800         ; add VDP base
     A1E4 3800     
0480 A1E6 C0C5  18     mov r5,r3		; Length.
0481 A1E8 0983  32     srl r3,8            ; make int
0482 A1EA 0A53  26     sla r3,5            ; count times 32
0483 A1EC 0300  22     limi 0              ; ints off
     A1EE 0000     
0484 A1F0 06A0  32     bl @LDIRVM          ; do the copy
     A1F2 A076     
0485 A1F4 0300  22     limi 2              ; ints on
     A1F6 0002     
0486 A1F8 0458  20     b *r8               ; back to caller
0487               
0488               ; Load character definitions: Char number in R1, CPU data in R2, count in R3 (MSB)
0489               ; Original: pointer = char number, temp = CPU address, a = number chars
0490               ; Note this loads the pattern three times if in bitmap mode (MODE&0x04)
0491               ; Pattern table at >0000
0492               define_char
0493 A1FA C20B  18     mov r11,r8          ; save return
0494 A1FC C080  18     mov r0,r2           ; source data
0495 A1FE C004  18     mov r4,r0           ; move input to scratch
0496 A200 0A30  22     sla r0,3            ; char number times 8 (VDP base is 0, so already there)
0497 A202 C0C5  18     mov r5,r3
0498 A204 0983  32     srl r3,8            ; make word
0499 A206 0A33  22     sla r3,3            ; count times 8
0500 A208 D160  30     movb @mode,r5       ; get mode flags
     A20A 834E     
0501 A20C 0245  22     andi r5,>0800
     A20E 0800     
0502 A210 1607  14     jne !1              ; not in bitmap mode, do a single copy
0503               
0504 A212 0300  22     limi 0              ; ints off
     A214 0000     
0505 A216 06A0  32     bl @LDIRVM3         ; do the triple copy
     A218 A090     
0506 A21A 0300  22     limi 2              ; ints on
     A21C 0002     
0507 A21E 0458  20     b *r8               ; back to caller
0508               
0509               !1
0510 A220 0300  22     limi 0              ; ints off
     A222 0000     
0511 A224 06A0  32     bl @LDIRVM          ; do the single copy
     A226 A076     
0512 A228 0300  22     limi 2              ; ints on
     A22A 0002     
0513 A22C 0458  20     b *r8               ; back to caller
0514               
0515               ; Load bitmap color definitions: Char number in R1, CPU data in R2, count in R3 (MSB)
0516               ; Original: pointer = char number, temp = CPU address, a = number chars
0517               ; Note: always does the triple copy. Color table at >2000
0518               define_color
0519 A22E C20B  18     mov r11,r8          ; save return
0520 A230 C080  18     mov r0,r2           ; source data
0521 A232 C004  18     mov r4,r0           ; move input to scratch
0522 A234 0A30  22     sla r0,3            ; char number times 8
0523 A236 0220  22     ai r0,>2000         ; add base address
     A238 2000     
0524 A23A C0C5  18     mov r5,r3
0525 A23C 0983  32     srl r3,8            ; make word
0526 A23E 0A33  22     sla r3,3            ; count times 8
0527 A240 0300  22     limi 0              ; ints off
     A242 0000     
0528 A244 06A0  32     bl @LDIRVM3         ; do the triple copy
     A246 A090     
0529 A248 0300  22     limi 2              ; ints on
     A24A 0002     
0530 A24C 0458  20     b *r8               ; back to caller
0531               
0532               ; Update sprite entry - copy data (4 bytes) to sprite table mirror at sprites
0533               ; R4 = sprite number, R5 = byte 1, r6 = byte 2, r7 = byte 3, r0 = byte 4 (all MSB)
0534               ; Original: A = sprite number, source data at sprite_data
0535               update_sprite
0536 A24E 0984  32     srl r4,8            ; make word
0537 A250 0A24  20     sla r4,2            ; x4 for address
0538 A252 0224  22     ai r4,sprites       ; sprite mirror address
     A254 2000     
0539 A256 DD05  32     movb r5,*r4+        ; move bytes
0540 A258 DD06  32     movb r6,*r4+        ; move bytes
0541 A25A DD07  32     movb r7,*r4+        ; move bytes
0542 A25C DD00  32     movb r0,*r4+        ; move bytes
0543 A25E 045B  20     b *r11
0544               
0545               ; SGN R0 - return 1, -1 or 0 as 16 bit
0546               _sgn16
0547 A260 C000  18     mov r0,r0       ; check for zero
0548 A262 1306  14     jeq !1          ; if yes, we're done
0549 A264 0240  22     andi r0,>8000   ; check for negative
     A266 8000     
0550 A268 1302  14     jeq !2          ; was not
0551 A26A 0700  14     seto r0         ; was negative, make it -1
0552 A26C 045B  20     b *r11          ; back to caller
0553               !2
0554 A26E 0580  14     inc r0          ; we know it was zero, and we want 1
0555               !1
0556 A270 045B  20     b *r11          ; back to caller
0557               
0558               ; 16-bit signed modulo. R1 % R2 = R0 - 9900 doesn't do signed divide
0559               ; original was stack%stack=YYAA
0560               ; Remainder is negative if the dividend was negative
0561               _mod16s
0562 A272 04C0  14     clr r0          ; make dividend 32-bit
0563 A274 C082  18     mov r2,r2       ; check divisor for zero
0564 A276 130A  14     jeq !1
0565 A278 0742  18     abs r2          ; make sure divisor is positive
0566 A27A C041  18     mov r1,r1       ; check sign of dividend
0567 A27C 1505  14     jgt !2          ; go do the faster positive version
0568               
0569 A27E 0741  18     abs r1          ; was negative, make it positive
0570 A280 3C02 128     div r2,r0       ; do the division => r2=quotient, r3=remainder
0571 A282 0501  14     neg r1          ; make remainder negative
0572 A284 C001  18     mov r1,r0       ; into r0
0573 A286 045B  20     b *r11
0574               
0575               !2
0576 A288 3C02 128     div r2,r0       ; do the division => r2=quotient, r3=remainder
0577 A28A C001  18     mov r1,r0       ; into r0
0578               !1
0579 A28C 045B  20     b *r11
0580               
0581               ; 16-bit signed divide. R1 / R2 = R0 - 9900 doesn't do signed divide
0582               ; original was stack/stack=YYAA
0583               ; Remainder is negative if the signs differ
0584               _div16s
0585 A28E 04C0  14     clr r0          ; make dividend 32-bit
0586 A290 C0C2  18     mov r2,r3       ; check divisor for zero
0587 A292 1308  14     jeq !1          ;
0588 A294 28C1  18     xor r1,r3
0589 A296 0742  18     abs r2
0590 A298 0741  18     abs r1          ; might as well make them positive now that we have copies
0591 A29A 3C02 128     div r2,r0       ; do the divide => r0=quotient, r1=remainder
0592 A29C 0243  22     andi r3,>8000   ; mask out sign bit
     A29E 8000     
0593 A2A0 1301  14     jeq !1          ; skip ahead to positive version
0594               
0595 A2A2 0500  14     neg r0          ; negate the result
0596               !1
0597 A2A4 045B  20     b *r11
0598               
0599               ; Random number generator - return in R0, (complex one uses R3,R4, simpler one only R0)
0600               ; Original output into YYAA
0601               random
0628               ; simpler one from dreamcast days...
0629 A2A6 C020  30     mov @lfsr,r0        ; get seed
     A2A8 834C     
0630 A2AA 0910  18     srl r0,1            ; shift
0631 A2AC 1702  14     jnc .rand1          ; jump if no 1
0632 A2AE 2820  34     xor @rmask,r0       ; xor new bits
     A2B0 A2B8     
0633               .rand1
0634 A2B2 C800  30     mov r0,@lfsr        ; save the output
     A2B4 834C     
0635 A2B6 045B  20     b *r11
0636               rmask
0637 A2B8 B400         data >b400          ; mask for 16 bit
0639               
0640               ; Set SN Frequency: R0=frequency code, R2=channel command (MSB)
0641               ; Original: A=least significant byte  X=channel command  Y=most significant byte
0642               sn76489_freq
0643 A2BA C0C0  18     mov r0,r3
0644 A2BC 0243  22     andi r3,>000f
     A2BE 000F     
0645 A2C0 06C3  14     swpb r3
0646 A2C2 F083  18     socb r3,r2
0647 A2C4 D802  30     movb r2,@SOUND  ; cmd and least significant nibble
     A2C6 8400     
0648 A2C8 0940  24     srl r0,4
0649 A2CA 0240  22     andi r0,>003f
     A2CC 003F     
0650 A2CE 06C0  14     swpb r0
0651 A2D0 D800  30     movb r0,@SOUND  ; most significant byte
     A2D2 8400     
0652 A2D4 045B  20     b *r11
0653               
0654               ; Set SN volume: R0=volume (MSB, inverse of attenuation), R2=channel command (MSB)
0655               ; Original: A=volume (inverse of attenuation), X=channel command
0656               sn76489_vol
0657 A2D6 0540  14     inv r0
0658 A2D8 0240  22     andi r0,>0f00
     A2DA 0F00     
0659 A2DC F002  18     socb r2,r0
0660 A2DE D800  30     movb r0,@SOUND
     A2E0 8400     
0661 A2E2 045B  20     b *r11
0662               
0663               ; Set noise type: R0=Noise type (MSB)
0664               ; original: A=noise command
0665               sn76489_control
0666 A2E4 0240  22     andi r0,>0f00
     A2E6 0F00     
0667 A2E8 0260  22     ori r0,>e000
     A2EA E000     
0668 A2EC D800  30     movb r0,@SOUND
     A2EE 8400     
0669 A2F0 045B  20     b *r11
0670               
0671               ; Set up vdp generic settings - R0 should be preloaded with a register in MSB, data in LSB
0672               ; R2 should contain the color table entry (in MSB), R3 the bitmap table (in MSB). Rest is
0673               ; hard coded. WARNING: Disables interrupts but does not re-enable them.
0674               vdp_generic_mode
0675 A2F2 C10B  18     mov r11,r4      ; save return
0676 A2F4 0300  22     limi 0          ; ints off
     A2F6 0000     
0677               
0678 A2F8 06A0  32     bl @WRTVDP      ; caller must set up this one
     A2FA A000     
0679 A2FC 0200  20     li r0,>01a2     ; VDP mode, screen off
     A2FE 01A2     
0680 A300 06A0  32     bl @WRTVDP
     A302 A000     
0681 A304 0200  20     li r0,>0206     ; >1800 pattern table
     A306 0206     
0682 A308 06A0  32     bl @WRTVDP
     A30A A000     
0683 A30C 0200  20     li r0,>0003     ; for color table
     A30E 0003     
0684 A310 F002  18     socb r2,r0
0685 A312 06C0  14     swpb r0
0686 A314 06A0  32     bl @WRTVDP
     A316 A000     
0687 A318 0200  20     li r0,>0004     ; for pattern table
     A31A 0004     
0688 A31C F003  18     socb r3,r0
0689 A31E 06C0  14     swpb r0
0690 A320 06A0  32     bl @WRTVDP
     A322 A000     
0691 A324 0200  20     li r0,>0536     ; >1b00 for sprite attribute table
     A326 0536     
0692 A328 06A0  32     bl @WRTVDP
     A32A A000     
0693 A32C 0200  20     li r0,>0607     ; >3800 for sprite pattern table
     A32E 0607     
0694 A330 06A0  32     bl @WRTVDP
     A332 A000     
0695 A334 0200  20     li r0,>0701     ; default screen color
     A336 0701     
0696 A338 06A0  32     bl @WRTVDP
     A33A A000     
0697 A33C 0454  20     b *r4
0698               
0699               ; set up VDP mode 0
0700               mode_0
0701 A33E C20B  18     mov r11,r8      ; careful - we call vdp_generic_mode and LDIRVM3
0702 A340 0200  20     li r0,>0800     ; bit we want to clear
     A342 0800     
0703 A344 5800  30     szcb r0,@mode
     A346 834E     
0704               
0705 A348 0202  20     li r2,>ff00	    ; $2000 for color table.
     A34A FF00     
0706 A34C 0203  20     li r3,>0300	    ; $0000 for bitmaps
     A34E 0300     
0707 A350 0200  20     li r0,>0002     ; r0 setting
     A352 0002     
0708 A354 06A0  32     bl @vdp_generic_mode    ; interrupts are now off
     A356 A2F2     
0709               
0710 A358 0200  20     li r0,>0100     ; target in VDP memory
     A35A 0100     
0711 A35C 0202  20     li r2,font_bitmaps  ; CPU memory source
     A35E A674     
0712 A360 0203  20     li r3,>0300     ; number of bytes
     A362 0300     
0713 A364 06A0  32     bl @LDIRVM3
     A366 A090     
0714               
0715 A368 0300  22     limi 2
     A36A 0002     
0716 A36C 0300  22     limi 0
     A36E 0000     
0717               
0718 A370 0200  20     li r0,>2000
     A372 2000     
0719 A374 0202  20     li r2,>f000
     A376 F000     
0720 A378 0203  20     li r3,>1800     ; fill color table with white on transparent
     A37A 1800     
0721 A37C 06A0  32     bl @FILVRM
     A37E A042     
0722               
0723 A380 0300  22     limi 2
     A382 0002     
0724 A384 06A0  32     bl @cls
     A386 A0FC     
0725 A388 C2C8  18     mov r8,r11      ; restore return address, and fall through to vdp_generic_sprites
0726               
0727               ; Initialize sprite table
0728               vdp_generic_sprites
0729 A38A C20B  18     mov r11,r8      ; save return address
0730 A38C 0200  20     li r0,>1b00     ; sprite attribute table in VDP
     A38E 1B00     
0731 A390 0202  20     li r2,>d100     ; off screen, and otherwise unimportant
     A392 D100     
0732 A394 0203  20     li r3,128       ; number of bytes
     A396 0080     
0733               
0734 A398 0300  22     limi 0
     A39A 0000     
0735 A39C 06A0  32     bl @FILVRM
     A39E A042     
0736               
0737 A3A0 0200  20     li r0,sprites
     A3A2 2000     
0738 A3A4 0202  20     li r2,>d1d1     ; write 2 bytes at a time
     A3A6 D1D1     
0739 A3A8 0203  20     li r3,128
     A3AA 0080     
0740               !1
0741 A3AC CC02  34     mov r2,*r0+     ; initialize CPU mirror
0742 A3AE 0643  14     dect r3
0743 A3B0 16FD  14     jne -!1
0744               
0745 A3B2 0200  20     li r0,>01e2     ; screen on
     A3B4 01E2     
0746 A3B6 06A0  32     bl @WRTVDP
     A3B8 A000     
0747               
0748 A3BA 0300  22     limi 2
     A3BC 0002     
0749 A3BE 0458  20     b *r8
0750               
0751               ; set up VDP mode 1
0752               mode_1
0753 A3C0 C20B  18     mov r11,r8      ; careful - we call vdp_generic_mode and LDIRVM3
0754 A3C2 0200  20     li r0,>0800     ; bit we want to clear
     A3C4 0800     
0755 A3C6 5800  30     szcb r0,@mode
     A3C8 834E     
0756               
0757 A3CA 0202  20     li r2,>ff00	    ; $2000 for color table.
     A3CC FF00     
0758 A3CE 0203  20     li r3,>0300	    ; $0000 for bitmaps
     A3D0 0300     
0759 A3D2 0200  20     li r0,>0002     ; r0 setting
     A3D4 0002     
0760 A3D6 06A0  32     bl @vdp_generic_mode    ; interrupts are now off
     A3D8 A2F2     
0761               
0762 A3DA 0200  20     li r0,>0000
     A3DC 0000     
0763 A3DE 0202  20     li r2,>0000
     A3E0 0000     
0764 A3E2 0203  20     li r3,>1800
     A3E4 1800     
0765 A3E6 06A0  32     bl @FILVRM      ; clear pattern table
     A3E8 A042     
0766               
0767 A3EA 0300  22     limi 2
     A3EC 0002     
0768               
0769 A3EE 0200  20     li r0,>2000
     A3F0 2000     
0770 A3F2 0202  20     li r2,>f000
     A3F4 F000     
0771 A3F6 0203  20     li r3,>1800
     A3F8 1800     
0772               
0773 A3FA 0300  22     limi 0
     A3FC 0000     
0774 A3FE 06A0  32     bl @FILVRM      ; init color table
     A400 A042     
0775 A402 0300  22     limi 2
     A404 0002     
0776               
0777 A406 0200  20     li r0,>5800     ; >1800 with the write bit set
     A408 5800     
0778 A40A 04C3  14     clr r3          ; value to write
0779               
0780               !1
0781 A40C 0300  22     limi 0          ; write the screen image table, but pause every 32 bytes for interrupts
     A40E 0000     
0782               
0783 A410 06C0  14     swpb r0
0784 A412 D800  30     movb r0,@VDPWADR
     A414 8C02     
0785 A416 06C0  14     swpb r0
0786 A418 D800  30     movb r0,@VDPWADR
     A41A 8C02     
0787               
0788 A41C 0202  20     li r2,32
     A41E 0020     
0789               
0790               !2
0791 A420 D803  30     movb r3,@VDPWDATA
     A422 8C00     
0792 A424 0223  22     ai r3,>0100
     A426 0100     
0793 A428 0602  14     dec r2
0794 A42A 16FA  14     jne -!2
0795               
0796 A42C 0300  22     limi 2
     A42E 0002     
0797 A430 0220  22     ai r0,32
     A432 0020     
0798 A434 0280  22     ci r0,>5b00
     A436 5B00     
0799 A438 1AE9  14     jl -!1
0800               
0801 A43A C2C8  18     mov r8,r11      ; restore return address
0802 A43C 10A6  14     jmp vdp_generic_sprites     ; using tail recursion
0803               
0804               ; Set up VDP mode 2
0805               mode_2
0806 A43E C20B  18     mov r11,r8      ; careful - we call vdp_generic_mode and LDIRVM3
0807 A440 0200  20     li r0,>0800     ; bit we want to set
     A442 0800     
0808 A444 F800  30     socb r0,@mode
     A446 834E     
0809               
0810 A448 0202  20     li r2,>8000	    ; $2000 for color table.
     A44A 8000     
0811 A44C 0203  20     li r3,>0000	    ; $0000 for bitmaps
     A44E 0000     
0812 A450 0200  20     li r0,>0000     ; r0 setting
     A452 0000     
0813 A454 06A0  32     bl @vdp_generic_mode    ; interrupts are now off
     A456 A2F2     
0814               
0815 A458 0200  20     li r0,>0100
     A45A 0100     
0816 A45C 0202  20     li r2,font_bitmaps
     A45E A674     
0817 A460 0203  20     li r3,>0300
     A462 0300     
0818 A464 06A0  32     bl @LDIRVM      ; load character set
     A466 A076     
0819               
0820 A468 0300  22     limi 2
     A46A 0002     
0821 A46C 0300  22     limi 0
     A46E 0000     
0822               
0823 A470 0200  20     li r0,>2000
     A472 2000     
0824 A474 0202  20     li r2,>f000
     A476 F000     
0825 A478 0203  20     li r3,>0020
     A47A 0020     
0826 A47C 06A0  32     bl @FILVRM      ; init color table
     A47E A042     
0827               
0828 A480 0300  22     limi 2
     A482 0002     
0829 A484 06A0  32     bl @cls         ; clear screen
     A486 A0FC     
0830 A488 C2C8  18     mov r8,r11      ; restore return
0831 A48A 0460  28     b @vdp_generic_sprites
     A48C A38A     
0832               
0833               ; this is where interrupts happen every frame
0834               ; Unlike a normal TI application, this one runs with interrupts ON,
0835               ; so all operations need to be sure to protect VDP address with LIMI 0,
0836               ; as well as any operations that might need to manipulate data managed
0837               ; by this interrupt. We enter via the normal user hook, so WP is on
0838               ; GPLWS, interrupts are off, and the VDP is already reset and status
0839               ; stashed on vdp_status (>837b). Our return address to the ROM is in
0840               ; r11, but we are NOT going to use it so that we don't need to reserve
0841               ; r8 for whatever nonsense it does. That means we need to load intws
0842               ; and RTWP ourselves at the end. We are on our own workspace so we
0843               ; don't have to worry about the main app's workspace.
0844               int_handler
0845               ; first copy the sprite table
0846 A48E 02E0  18     lwpi myintwp        ; separate safe workspace
     A490 8320     
0847               
0851               
0852 A492 020B  20     li r11,>005b        ; >1b00 with the write bit added, and byte flipped
     A494 005B     
0853 A496 D80B  30     movb r11,@VDPWADR   ; SAL address
     A498 8C02     
0854 A49A 06CB  14     swpb r11
0855 A49C D80B  30     movb r11,@VDPWADR   ; going to copy the sprite table to VDP
     A49E 8C02     
0856               
0857 A4A0 D2E0  30     movb @mode,r11
     A4A2 834E     
0858 A4A4 024B  22     andi r11,>0400      ; if bit >04 (inhibit flicker) is cleared, jump ahead to rotate
     A4A6 0400     
0859 A4A8 130A  14     jeq !4
0860               
0861 A4AA 04CB  14     clr r11             ; else we're going to just write it straight across
0862 A4AC 020C  20     li r12,128
     A4AE 0080     
0863 A4B0 020D  20     li r13,sprites
     A4B2 2000     
0864               !7
0865 A4B4 D83D  40     movb *r13+,@VDPWDATA
     A4B6 8C00     
0866 A4B8 060C  14     dec r12
0867 A4BA 16FC  14     jne -!7
0868 A4BC 101B  14     jmp !5
0869               
0870               !4
0871 A4BE D2E0  30     movb @flicker,r11   ; here we write it rotated every frame
     A4C0 834F     
0872 A4C2 022B  22     ai r11,>0400
     A4C4 0400     
0873 A4C6 024B  22     andi r11,>7f00
     A4C8 7F00     
0874 A4CA D80B  30     movb r11,@flicker
     A4CC 834F     
0875 A4CE 06CB  14     swpb r11            ; make count
0876 A4D0 020C  20     li r12,32           ; count
     A4D2 0020     
0877               
0878               !6
0879 A4D4 022B  22     ai r11,sprites        ; this is still faster than separate incs
     A4D6 2000     
0880 A4D8 D83B  40     movb *r11+,@VDPWDATA  ; copy one sprite
     A4DA 8C00     
0881 A4DC D83B  40     movb *r11+,@VDPWDATA  ; no delay needed
     A4DE 8C00     
0882 A4E0 D83B  40     movb *r11+,@VDPWDATA
     A4E2 8C00     
0883 A4E4 D81B  38     movb *r11,@VDPWDATA   ; small optimization, since we have an add coming anyway
     A4E6 8C00     
0884 A4E8 022B  22     ai r11,-(sprites-1)   ; remove address and add the rest of the increment
     A4EA E001     
0885 A4EC 024B  22     andi r11,>007F        ; clamp it in range
     A4EE 007F     
0886 A4F0 060C  14     dec r12
0887 A4F2 16F0  14     jne -!6
0888               !5
0889               
0890               ; next read the joysticks - output needs to be 21xxLDRU - 1 and 2 are button and button2 respectively
0891               ; We don't have a button 2. We also need to read the keyboard and fill in key1_data. key2_data we
0892               ; will leave unused. Note key1_data expects Coleco-style 0-9,10-*,11-#,15=not pressed, but we can throw
0893               ; everything else as ASCII. We could do a split keyboard for 2 players, but I guess we'll leave it for now.
0894               ; joy1
0895 A4F4 020C  20     li r12,>0024    ; CRU base of select output
     A4F6 0024     
0896 A4F8 020D  20     li r13,>0600    ; joystick 1 column
     A4FA 0600     
0897 A4FC 30CD  30     ldcr r13,3      ; select it
0898 A4FE 0B7C  30     src r12,7       ; delay
0899 A500 020C  20     li r12,>0006    ; CRU base of return read
     A502 0006     
0900 A504 360D  48     stcr r13,8      ; read 8 bits (we could get away with fewer, but be consistent)
0901 A506 06A0  32     bl @convert_joystick
     A508 A5C8     
0902 A50A D80C  30     movb r12,@joy1_data
     A50C 8346     
0903               
0904               ; joy2
0905 A50E 020C  20     li r12,>0024    ; CRU base of select output
     A510 0024     
0906 A512 020D  20     li r13,>0700    ; joystick 2 column
     A514 0700     
0907 A516 30CD  30     ldcr r13,3      ; select it
0908 A518 0B7C  30     src r12,7       ; delay
0909 A51A 020C  20     li r12,>0006    ; CRU base of return read
     A51C 0006     
0910 A51E 360D  48     stcr r13,8      ; read 8 bits (we could get away with fewer, but be consistent)
0911 A520 06A0  32     bl @convert_joystick
     A522 A5C8     
0912 A524 D80C  30     movb r12,@joy2_data
     A526 8347     
0913               
0914               ; do a quick modifier read for button 2 (control and fctn for joy 1 and 2 respectively)
0915 A528 020C  20     li r12,>0024    ; CRU base of select output
     A52A 0024     
0916 A52C 04CD  14     clr r13         ; modifiers
0917 A52E 30CD  30     ldcr r13,3      ; select it
0918 A530 0B7C  30     src r12,7       ; delay
0919 A532 020C  20     li r12,>0006    ; CRU base of return read
     A534 0006     
0920 A536 360D  48     stcr r13,8      ; read 8 bits (we could get away with fewer, but be consistent)
0921 A538 020C  20     li r12,>4000    ; control
     A53A 4000     
0922 A53C 020B  20     li r11,>8000    ; button 2 bit
     A53E 8000     
0923 A540 274C  18     czc r12,r13
0924 A542 1602  14     jne .noc1b2
0925 A544 F80B  30     socb r11,@joy1_data
     A546 8346     
0926               .noc1b2
0927 A548 020C  20     li r12,>1000    ; fctn
     A54A 1000     
0928 A54C 274C  18     czc r12,r13
0929 A54E 1602  14     jne .noc2b2
0930 A550 F80B  30     socb r11,@joy2_data
     A552 8347     
0931               .noc2b2
0932               
0933               ; key1 - this is a very simple read with no modifiers, it just gives access to the letters and numbers
0934 A554 04CB  14     clr r11         ; column
0935               !key1
0936 A556 020C  20     li r12,>0024    ; CRU base of select output
     A558 0024     
0937 A55A 30CB  30     ldcr r11,3      ; select column
0938 A55C 0B7C  30     src r12,7       ; delay
0939 A55E 020C  20     li r12,>0006    ; CRU base of return read
     A560 0006     
0940 A562 360D  48     stcr r13,8      ; get the bits
0941 A564 020C  20     li r12,7        ; bit search
     A566 0007     
0942               !key2
0943 A568 0A1C  18     sla r12,1
0944 A56A 276C  34     czc @masktable(r12),r13    ; bit set?
     A56C A638     
0945 A56E 1607  14     jne !key3       ; continue
0946 A570 091C  18     srl r12,1
0947 A572 095B  26     srl r11,5
0948 A574 A2CC  18     a r12,r11       ; calculate table offset
0949 A576 D82B  46     movb @keyboard_table(r11),@key1_data    ; might be a dead key, but that's okay
     A578 A608     
     A57A 8348     
0950 A57C 100D  14     jmp !key4
0951               
0952               !key3
0953 A57E 091C  18     srl r12,1
0954 A580 060C  14     dec r12
0955 A582 15F2  14     jgt -!key2
0956 A584 13F1  14     jeq -!key2      ; we don't have a jump if not negative
0957               
0958 A586 022B  22     ai r11,>0100
     A588 0100     
0959 A58A 028B  22     ci r11,>0600
     A58C 0600     
0960 A58E 16E3  14     jne -!key1
0961               
0962 A590 020B  20     li r11,>0f00
     A592 0F00     
0963 A594 D80B  30     movb r11,@key1_data     ; no key was pressed
     A596 8348     
0964               !key4
0965               
0966               ; check for quit - attempts to work it into the above were not working
0967               ; borrowed from console ROM
0968 A598 020C  20     li r12,>0024
     A59A 0024     
0969 A59C 30CC  30     ldcr r12,3
0970 A59E 0B7C  30     src r12,7
0971 A5A0 020C  20     li r12,>0006
     A5A2 0006     
0972 A5A4 360B  48     stcr r11,8
0973 A5A6 020C  20     li r12,>1100
     A5A8 1100     
0974 A5AA 26CC  18     czc r12,r11
0975 A5AC 1604  14     jne .noquit
0976 A5AE 04E0  26     clr @intwsr2
     A5B0 83C4     
0977 A5B2 0420  42     blwp @>0000
     A5B4 0000     
0978               .noquit
0979               
0986               
0987 A5B6 05A0  26     inc @frame
     A5B8 834A     
0988 A5BA 0200  20     li r0,3
     A5BC 0003     
0989 A5BE A800  30     a r0,@lfsr  ; Make LFSR more random
     A5C0 834C     
0990               
1006               
1007               
1008               ; restore the saved bank
1013               
1014               ; get back the interrupt workspace and return
1015 A5C2 02E0  18     lwpi INTWS
     A5C4 83C0     
1016 A5C6 0380  18     RTWP
1017               
1018               ; given a joystick read in r13, return bits in r12
1019               ; The final output is 8 bits:
1020               ; 21xxLDRU - 1 and 2 are button and button2 respectively
1021               ; NOTE: if called by the compiler, this won't act as expected
1022               convert_joystick
1023 A5C8 04CC  14     clr r12
1024 A5CA 2760  34     czc @joystick_table,r13
     A5CC A5FE     
1025 A5CE 1602  14     jne !j1
1026 A5D0 026C  22     ori r12,>0800
     A5D2 0800     
1027               !j1
1028 A5D4 2760  34     czc @joystick_table+2,r13
     A5D6 A600     
1029 A5D8 1602  14     jne !j2
1030 A5DA 026C  22     ori r12,>0400
     A5DC 0400     
1031               !j2
1032 A5DE 2760  34     czc @joystick_table+4,r13
     A5E0 A602     
1033 A5E2 1602  14     jne !j3
1034 A5E4 026C  22     ori r12,>0200
     A5E6 0200     
1035               !j3
1036 A5E8 2760  34     czc @joystick_table+6,r13
     A5EA A604     
1037 A5EC 1602  14     jne !j4
1038 A5EE 026C  22     ori r12,>0100
     A5F0 0100     
1039               !j4
1040 A5F2 2760  34     czc @joystick_table+8,r13
     A5F4 A606     
1041 A5F6 1602  14     jne !j5
1042 A5F8 026C  22     ori r12,>4000
     A5FA 4000     
1043               !j5
1044 A5FC 045B  20     b *r11
1045               
1046               joystick_table
1047 A5FE 0200         data >0200,>0800,>0400,>1000,>0100    ; LDRU1
     A600 0800     
     A602 0400     
     A604 1000     
     A606 0100     
1048               
1049               ; By columns, then rows. 8 Rows per column. No shift states - converted to the Coleco returns
1050               ; for numbers, , and . become ; and #. Control is control1 button2, and Fctn is control2 button2
1051               keyboard_table
1052 A608 3D20         byte 61,32,11,15,254,15,255,15  ; '=',' ',enter,n/a,fctn,shift,ctrl,n/a
     A60A 0B0F     
     A60C FE0F     
     A60E FF0F     
1053 A610 2E4C         byte 46,76,79,9,2,83,87,88      ; '.','L','O','9','2','S','W','X'
     A612 4F09     
     A614 0253     
     A616 5758     
1054 A618 2C4B         byte 44,75,73,8,3,68,69,67      ; ',','K','I','8','3','D','E','C'
     A61A 4908     
     A61C 0344     
     A61E 4543     
1055 A620 4D4A         byte 77,74,85,7,4,70,82,86      ; 'M','J','U','7','4','F','R','V'
     A622 5507     
     A624 0446     
     A626 5256     
1056 A628 4E48         byte 78,72,89,6,5,71,84,66      ; 'N','H','Y','6','5','G','T','B'
     A62A 5906     
     A62C 0547     
     A62E 5442     
1057 A630 0A3B         byte 10,59,80,0,1,65,81,90      ; '/',';','P','0','1','A','Q','Z'
     A632 5000     
     A634 0141     
     A636 515A     
1058               
1059               masktable
1060 A638 0100         data >0100,>0200,>0400,>0800,>1000,>2000,>4000,>8000
     A63A 0200     
     A63C 0400     
     A63E 0800     
     A640 1000     
     A642 2000     
     A644 4000     
     A646 8000     
1061 A648 0F00         data >0f00
1062               
1063               ; wait for frame to increment
1064               wait
1065 A64A C020  30     mov @frame,r0
     A64C 834A     
1066               !1
1067 A64E 8800  30     c r0,@frame
     A650 834A     
1068 A652 13FD  14     jeq -!1
1069 A654 045B  20     b *r11
1070               
1071               ; initialize music system
1072               music_init
1073               ; mute sound chip
1074 A656 0200  20     li r0,>9fbf
     A658 9FBF     
1075 A65A D800  30     movb r0,@SOUND
     A65C 8400     
1076 A65E 06C0  14     swpb r0
1077 A660 D800  30     movb r0,@SOUND
     A662 8400     
1078 A664 0200  20     li r0,>dfff
     A666 DFFF     
1079 A668 D800  30     movb r0,@SOUND
     A66A 8400     
1080 A66C 06C0  14     swpb r0
1081 A66E D800  30     movb r0,@SOUND
     A670 8400     
1082               
1084               ; return if we don't have the player compiled in
1085 A672 045B  20     b *r11
1087               
1088               ; all the rest of the player is under this if
1525               
1526               
1819               
1820               ; Required for Creativision because it doesn't provide an ASCII charset.
1821               ; Kept for TI to reduce dependence on the console and because it looks
1822               ; better than the caps.
1823               ;
1824               ; My personal font for TMS9928.
1825               ;
1826               ; Patterned after the TMS9928 programming manual 6x8 letters
1827               ; with better lowercase letters, also I made a proper
1828               ; AT sign.
1829               ;
1830               font_bitmaps
1831 A674 0000         byte >00,>00,>00,>00,>00,>00,>00,>00      ; >20 space
     A676 0000     
     A678 0000     
     A67A 0000     
1832 A67C 2020         byte >20,>20,>20,>20,>20,>00,>20,>00      ; >21 !
     A67E 2020     
     A680 2000     
     A682 2000     
1833 A684 5050         byte >50,>50,>50,>00,>00,>00,>00,>00      ; >22 "
     A686 5000     
     A688 0000     
     A68A 0000     
1834 A68C 5050         byte >50,>50,>f8,>50,>f8,>50,>50,>00      ; >23 #
     A68E F850     
     A690 F850     
     A692 5000     
1835 A694 2078         byte >20,>78,>a0,>70,>28,>f0,>20,>00      ; >24 >
     A696 A070     
     A698 28F0     
     A69A 2000     
1836 A69C C0C8         byte >c0,>c8,>10,>20,>40,>98,>18,>00      ; >25 %
     A69E 1020     
     A6A0 4098     
     A6A2 1800     
1837 A6A4 40A0         byte >40,>a0,>40,>a0,>a8,>90,>68,>00      ; >26 &
     A6A6 40A0     
     A6A8 A890     
     A6AA 6800     
1838 A6AC 6020         byte >60,>20,>40,>00,>00,>00,>00,>00      ; >27 '
     A6AE 4000     
     A6B0 0000     
     A6B2 0000     
1839 A6B4 1020         byte >10,>20,>40,>40,>40,>20,>10,>00      ; >28 (
     A6B6 4040     
     A6B8 4020     
     A6BA 1000     
1840 A6BC 4020         byte >40,>20,>10,>10,>10,>20,>40,>00      ; >29 )
     A6BE 1010     
     A6C0 1020     
     A6C2 4000     
1841 A6C4 00A8         byte >00,>a8,>70,>20,>70,>a8,>00,>00      ; >2a *
     A6C6 7020     
     A6C8 70A8     
     A6CA 0000     
1842 A6CC 0020         byte >00,>20,>20,>f8,>20,>20,>00,>00      ; >2b +
     A6CE 20F8     
     A6D0 2020     
     A6D2 0000     
1843 A6D4 0000         byte >00,>00,>00,>00,>00,>60,>20,>40      ; >2c ,
     A6D6 0000     
     A6D8 0060     
     A6DA 2040     
1844 A6DC 0000         byte >00,>00,>00,>fc,>00,>00,>00,>00      ; >2d -
     A6DE 00FC     
     A6E0 0000     
     A6E2 0000     
1845 A6E4 0000         byte >00,>00,>00,>00,>00,>00,>60,>00      ; >2e .
     A6E6 0000     
     A6E8 0000     
     A6EA 6000     
1846 A6EC 0008         byte >00,>08,>10,>20,>40,>80,>00,>00      ; >2f /
     A6EE 1020     
     A6F0 4080     
     A6F2 0000     
1847 A6F4 7088         byte >70,>88,>98,>a8,>c8,>88,>70,>00      ; >30 0
     A6F6 98A8     
     A6F8 C888     
     A6FA 7000     
1848 A6FC 2060         byte >20,>60,>20,>20,>20,>20,>f8,>00      ; >31 1
     A6FE 2020     
     A700 2020     
     A702 F800     
1849 A704 7088         byte >70,>88,>08,>10,>60,>80,>f8,>00      ; >32 2
     A706 0810     
     A708 6080     
     A70A F800     
1850 A70C 7088         byte >70,>88,>08,>30,>08,>88,>70,>00      ; >33 3
     A70E 0830     
     A710 0888     
     A712 7000     
1851 A714 3050         byte >30,>50,>90,>90,>f8,>10,>10,>00      ; >34 4
     A716 9090     
     A718 F810     
     A71A 1000     
1852 A71C F880         byte >f8,>80,>f0,>08,>08,>08,>f0,>00      ; >35 5
     A71E F008     
     A720 0808     
     A722 F000     
1853 A724 3040         byte >30,>40,>80,>f0,>88,>88,>70,>00      ; >36 6
     A726 80F0     
     A728 8888     
     A72A 7000     
1854 A72C F808         byte >f8,>08,>10,>20,>20,>20,>20,>00      ; >37 7
     A72E 1020     
     A730 2020     
     A732 2000     
1855 A734 7088         byte >70,>88,>88,>70,>88,>88,>70,>00      ; >38 8
     A736 8870     
     A738 8888     
     A73A 7000     
1856 A73C 7088         byte >70,>88,>88,>78,>08,>10,>60,>00      ; >39 9
     A73E 8878     
     A740 0810     
     A742 6000     
1857 A744 0000         byte >00,>00,>00,>60,>00,>60,>00,>00      ; >3a
     A746 0060     
     A748 0060     
     A74A 0000     
1858 A74C 0000         byte >00,>00,>00,>60,>00,>60,>20,>40      ; >3b *
     A74E 0060     
     A750 0060     
     A752 2040     
1859 A754 1020         byte >10,>20,>40,>80,>40,>20,>10,>00      ; >3c <
     A756 4080     
     A758 4020     
     A75A 1000     
1860 A75C 0000         byte >00,>00,>f8,>00,>f8,>00,>00,>00      ; >3d =
     A75E F800     
     A760 F800     
     A762 0000     
1861 A764 0804         byte >08,>04,>02,>01,>02,>04,>08,>00      ; >3e >
     A766 0201     
     A768 0204     
     A76A 0800     
1862 A76C 7088         byte >70,>88,>08,>10,>20,>00,>20,>00      ; >3f ?
     A76E 0810     
     A770 2000     
     A772 2000     
1863 A774 7088         byte >70,>88,>98,>a8,>98,>80,>70,>00      ; >40 @
     A776 98A8     
     A778 9880     
     A77A 7000     
1864 A77C 2050         byte >20,>50,>88,>88,>f8,>88,>88,>00      ; >41 A
     A77E 8888     
     A780 F888     
     A782 8800     
1865 A784 F088         byte >f0,>88,>88,>f0,>88,>88,>f0,>00      ; >42 B
     A786 88F0     
     A788 8888     
     A78A F000     
1866 A78C 7088         byte >70,>88,>80,>80,>80,>88,>70,>00      ; >43 C
     A78E 8080     
     A790 8088     
     A792 7000     
1867 A794 F088         byte >f0,>88,>88,>88,>88,>88,>f0,>00      ; >44 D
     A796 8888     
     A798 8888     
     A79A F000     
1868 A79C F880         byte >f8,>80,>80,>f0,>80,>80,>f8,>00      ; >45 E
     A79E 80F0     
     A7A0 8080     
     A7A2 F800     
1869 A7A4 F880         byte >f8,>80,>80,>f0,>80,>80,>80,>00      ; >46 F
     A7A6 80F0     
     A7A8 8080     
     A7AA 8000     
1870 A7AC 7088         byte >70,>88,>80,>b8,>88,>88,>70,>00      ; >47 G
     A7AE 80B8     
     A7B0 8888     
     A7B2 7000     
1871 A7B4 8888         byte >88,>88,>88,>f8,>88,>88,>88,>00      ; >48 H
     A7B6 88F8     
     A7B8 8888     
     A7BA 8800     
1872 A7BC 7020         byte >70,>20,>20,>20,>20,>20,>70,>00      ; >49 I
     A7BE 2020     
     A7C0 2020     
     A7C2 7000     
1873 A7C4 0808         byte >08,>08,>08,>08,>88,>88,>70,>00      ; >4A J
     A7C6 0808     
     A7C8 8888     
     A7CA 7000     
1874 A7CC 8890         byte >88,>90,>a0,>c0,>a0,>90,>88,>00      ; >4B K
     A7CE A0C0     
     A7D0 A090     
     A7D2 8800     
1875 A7D4 8080         byte >80,>80,>80,>80,>80,>80,>f8,>00      ; >4C L
     A7D6 8080     
     A7D8 8080     
     A7DA F800     
1876 A7DC 88D8         byte >88,>d8,>a8,>a8,>88,>88,>88,>00      ; >4D M
     A7DE A8A8     
     A7E0 8888     
     A7E2 8800     
1877 A7E4 88C8         byte >88,>c8,>c8,>a8,>98,>98,>88,>00      ; >4E N
     A7E6 C8A8     
     A7E8 9898     
     A7EA 8800     
1878 A7EC 7088         byte >70,>88,>88,>88,>88,>88,>70,>00      ; >4F O
     A7EE 8888     
     A7F0 8888     
     A7F2 7000     
1879 A7F4 F088         byte >f0,>88,>88,>f0,>80,>80,>80,>00      ; >50 P
     A7F6 88F0     
     A7F8 8080     
     A7FA 8000     
1880 A7FC 7088         byte >70,>88,>88,>88,>88,>a8,>90,>68      ; >51 Q
     A7FE 8888     
     A800 88A8     
     A802 9068     
1881 A804 F088         byte >f0,>88,>88,>f0,>a0,>90,>88,>00      ; >52 R
     A806 88F0     
     A808 A090     
     A80A 8800     
1882 A80C 7088         byte >70,>88,>80,>70,>08,>88,>70,>00      ; >53 S
     A80E 8070     
     A810 0888     
     A812 7000     
1883 A814 F820         byte >f8,>20,>20,>20,>20,>20,>20,>00      ; >54 T
     A816 2020     
     A818 2020     
     A81A 2000     
1884 A81C 8888         byte >88,>88,>88,>88,>88,>88,>70,>00      ; >55 U
     A81E 8888     
     A820 8888     
     A822 7000     
1885 A824 8888         byte >88,>88,>88,>88,>50,>50,>20,>00      ; >56 V
     A826 8888     
     A828 5050     
     A82A 2000     
1886 A82C 8888         byte >88,>88,>88,>a8,>a8,>d8,>88,>00      ; >57 W
     A82E 88A8     
     A830 A8D8     
     A832 8800     
1887 A834 8888         byte >88,>88,>50,>20,>50,>88,>88,>00      ; >58 X
     A836 5020     
     A838 5088     
     A83A 8800     
1888 A83C 8888         byte >88,>88,>88,>70,>20,>20,>20,>00      ; >59 Y
     A83E 8870     
     A840 2020     
     A842 2000     
1889 A844 F808         byte >f8,>08,>10,>20,>40,>80,>f8,>00      ; >5A Z
     A846 1020     
     A848 4080     
     A84A F800     
1890 A84C 7860         byte >78,>60,>60,>60,>60,>60,>78,>00      ; >5B [
     A84E 6060     
     A850 6060     
     A852 7800     
1891 A854 0080         byte >00,>80,>40,>20,>10,>08,>00,>00      ; >5C \
     A856 4020     
     A858 1008     
     A85A 0000     
1892 A85C F030         byte >F0,>30,>30,>30,>30,>30,>F0,>00      ; >5D ]
     A85E 3030     
     A860 3030     
     A862 F000     
1893 A864 2050         byte >20,>50,>88,>00,>00,>00,>00,>00      ; >5E
     A866 8800     
     A868 0000     
     A86A 0000     
1894 A86C 0000         byte >00,>00,>00,>00,>00,>00,>f8,>00      ; >5F _
     A86E 0000     
     A870 0000     
     A872 F800     
1895 A874 4020         byte >40,>20,>10,>00,>00,>00,>00,>00      ; >60
     A876 1000     
     A878 0000     
     A87A 0000     
1896 A87C 0000         byte >00,>00,>68,>98,>88,>98,>68,>00      ; >61 a
     A87E 6898     
     A880 8898     
     A882 6800     
1897 A884 8080         byte >80,>80,>f0,>88,>88,>88,>f0,>00      ; >62 b
     A886 F088     
     A888 8888     
     A88A F000     
1898 A88C 0000         byte >00,>00,>78,>80,>80,>80,>78,>00      ; >63 c
     A88E 7880     
     A890 8080     
     A892 7800     
1899 A894 0808         byte >08,>08,>68,>98,>88,>98,>68,>00      ; >64 d
     A896 6898     
     A898 8898     
     A89A 6800     
1900 A89C 0000         byte >00,>00,>70,>88,>f8,>80,>70,>00      ; >65 e
     A89E 7088     
     A8A0 F880     
     A8A2 7000     
1901 A8A4 3048         byte >30,>48,>40,>e0,>40,>40,>40,>00      ; >66 f
     A8A6 40E0     
     A8A8 4040     
     A8AA 4000     
1902 A8AC 0000         byte >00,>00,>78,>88,>88,>78,>08,>70      ; >67 g
     A8AE 7888     
     A8B0 8878     
     A8B2 0870     
1903 A8B4 8080         byte >80,>80,>f0,>88,>88,>88,>88,>00      ; >68 h
     A8B6 F088     
     A8B8 8888     
     A8BA 8800     
1904 A8BC 2000         byte >20,>00,>60,>20,>20,>20,>70,>00      ; >69 i
     A8BE 6020     
     A8C0 2020     
     A8C2 7000     
1905 A8C4 0800         byte >08,>00,>18,>08,>88,>88,>70,>00      ; >6a j
     A8C6 1808     
     A8C8 8888     
     A8CA 7000     
1906 A8CC 8080         byte >80,>80,>88,>90,>e0,>90,>88,>00      ; >6b k
     A8CE 8890     
     A8D0 E090     
     A8D2 8800     
1907 A8D4 6020         byte >60,>20,>20,>20,>20,>20,>70,>00      ; >6c l
     A8D6 2020     
     A8D8 2020     
     A8DA 7000     
1908 A8DC 0000         byte >00,>00,>d0,>a8,>a8,>a8,>a8,>00      ; >6d m
     A8DE D0A8     
     A8E0 A8A8     
     A8E2 A800     
1909 A8E4 0000         byte >00,>00,>b0,>c8,>88,>88,>88,>00      ; >6e n
     A8E6 B0C8     
     A8E8 8888     
     A8EA 8800     
1910 A8EC 0000         byte >00,>00,>70,>88,>88,>88,>70,>00      ; >6f o
     A8EE 7088     
     A8F0 8888     
     A8F2 7000     
1911 A8F4 0000         byte >00,>00,>f0,>88,>88,>88,>f0,>80      ; >70 p
     A8F6 F088     
     A8F8 8888     
     A8FA F080     
1912 A8FC 0000         byte >00,>00,>78,>88,>88,>88,>78,>08      ; >71 q
     A8FE 7888     
     A900 8888     
     A902 7808     
1913 A904 0000         byte >00,>00,>b8,>c0,>80,>80,>80,>00      ; >72 r
     A906 B8C0     
     A908 8080     
     A90A 8000     
1914 A90C 0000         byte >00,>00,>78,>80,>70,>08,>f0,>00      ; >73 s
     A90E 7880     
     A910 7008     
     A912 F000     
1915 A914 2020         byte >20,>20,>f8,>20,>20,>20,>20,>00      ; >74 t
     A916 F820     
     A918 2020     
     A91A 2000     
1916 A91C 0000         byte >00,>00,>88,>88,>88,>98,>68,>00      ; >75 u
     A91E 8888     
     A920 8898     
     A922 6800     
1917 A924 0000         byte >00,>00,>88,>88,>88,>50,>20,>00      ; >76 v
     A926 8888     
     A928 8850     
     A92A 2000     
1918 A92C 0000         byte >00,>00,>88,>a8,>a8,>a8,>50,>00      ; >77 w
     A92E 88A8     
     A930 A8A8     
     A932 5000     
1919 A934 0000         byte >00,>00,>88,>50,>20,>50,>88,>00      ; >78 x
     A936 8850     
     A938 2050     
     A93A 8800     
1920 A93C 0000         byte >00,>00,>88,>88,>98,>68,>08,>70      ; >79 y
     A93E 8888     
     A940 9868     
     A942 0870     
1921 A944 0000         byte >00,>00,>f8,>10,>20,>40,>f8,>00      ; >7a z
     A946 F810     
     A948 2040     
     A94A F800     
1922 A94C 1820         byte >18,>20,>20,>40,>20,>20,>18,>00      ; >7b {
     A94E 2040     
     A950 2020     
     A952 1800     
1923 A954 2020         byte >20,>20,>20,>20,>20,>20,>20,>00      ; >7c |
     A956 2020     
     A958 2020     
     A95A 2000     
1924 A95C C020         byte >c0,>20,>20,>10,>20,>20,>c0,>00      ; >7d }
     A95E 2010     
     A960 2020     
     A962 C000     
1925 A964 0000         byte >00,>00,>40,>a8,>10,>00,>00,>00      ; >7e
     A966 40A8     
     A968 1000     
     A96A 0000     
1926 A96C 7070         byte >70,>70,>20,>f8,>20,>70,>50,>00      ; >7f
     A96E 20F8     
     A970 2070     
     A972 5000     
1927               
1928               
1929               ; The stack is simulated using R10. It's not used in
1930               ; these functions but the compiled code will need it.
1931               ; To push: dect r10, mov r0,*r10
1932               ; To pop:  mov *r10+,r0
1933               ; However, for JSR a function is helpful - call this like:
1934               ; bl @jsr
1935               ; data <function_address>
1936               jsr
1937 A974 C3BB  30     mov *r11+,r14       ; get the jump address
1938 A976 064A  14     dect r10            ; make room on stack
1939 A978 C68B  30     mov r11,*r10        ; save return address
1940 A97A 069E  24     bl *r14             ; new subroutine call, we can come back here
1941 A97C C2FA  30     mov *r10+,r11       ; get real return off stack - warning, all basic functions do this inline rather than return
1942 A97E 045B  20     b *r11              ; back to caller
1943               
1944               ; entry code - we should enter with ints off anyway
1945               START
1946 A980 0300  22     limi 0
     A982 0000     
1947 A984 02E0  18     lwpi mywp           ; get our private workspace
     A986 8300     
1948 A988 020A  20     li R10,>4000        ; pseudo stack pointer
     A98A 4000     
1949 A98C D820  42     movb @>8802,@vdp_status  ; clear any pending VDP interrupt and initialize vdp_status if needed
     A98E 8802     
     A990 837B     
1950               
1951 A992 0200  20     li r0,>0182         ; select 16k, magnified, blank, no ints
     A994 0182     
1952 A996 06A0  32     bl @wrtvdp          ; other ports write this twice... maybe to be 100% sure no NMI happens? We don't have that problem.
     A998 A000     
1953               
1954 A99A 0200  20     li r0,firstsp       ; clear variables in scratchpad
     A99C 8340     
1955               stlp1
1956 A99E 04F0  30     clr *r0+
1957 A9A0 0280  22     ci r0,lastsp
     A9A2 8352     
1958 A9A4 1AFC  14     jl stlp1
1959               
1960 A9A6 0200  20     li r0,>2000         ; clear lower 8k RAM
     A9A8 2000     
1961               stlp2
1962 A9AA 04F0  30     clr *r0+
1963 A9AC 0280  22     ci r0,>4000
     A9AE 4000     
1964 A9B0 16FC  14     jne stlp2
1965               
1966 A9B2 0200  20     li r0,>0f0f
     A9B4 0F0F     
1967 A9B6 C800  30     mov r0,@key1_data   ; gets both - no key is >0f return
     A9B8 8348     
1968               
1969 A9BA 06A0  32     bl @music_init
     A9BC A656     
1970 A9BE 06A0  32     bl @mode_0
     A9C0 A33E     
1971               
1972 A9C2 0200  20     li r0,int_handler
     A9C4 A48E     
1973 A9C6 C800  30     mov r0,@intwsr2     ; set interrupt function
     A9C8 83C4     
1974 A9CA 0200  20     li r0,>8000
     A9CC 8000     
1975 A9CE C800  30     mov r0,@intwsr1     ; disable most console ROM interrupt handling
     A9D0 83C2     
1976 A9D2 0201  20     li r1,1
     A9D4 0001     
1977 A9D6 C801  30     mov r1,@intwsr11    ; make sure screen timeout is odd so it never triggers
     A9D8 83D6     
1978 A9DA 0201  20     li r1,>0108
     A9DC 0108     
1979 A9DE C801  30     mov r1,@gplwsr14    ; GPL status flags, should already be this, but be sure
     A9E0 83FC     
1980 A9E2 D801  30     movb r1,@ntsc       ; init ntsc flag to true - we actually do not have a good way to detect
     A9E4 8350     
1981 A9E6 0201  20     li r1,>8c02
     A9E8 8C02     
1982 A9EA C801  30     mov r1,@gplwsr15    ; Address of VDP for GPL - should already be this, but be sure
     A9EC 83FE     
1983               
1984               ;;; CVBasic code starts here
1985               	; 	' ============================================================
1986               	; 	' ADVENTIRE - an Atari-2600-Adventure-style action-adventure.
1987               	; 	' Original code, art, and room data throughout (a mechanics
1988               	; 	' homage: layouts and connections are our own adaptation of
1989               	; 	' the game structure documented in published maps/guides).
1990               	; 	'
1991               	; 	' FOUR game variations, chosen on the title screen:
1992               	; 	'   GAME 1  INTRO KINGDOM  - our original 13-room map: a
1993               	; 	'           gentle introduction (3 castles, 3 dragons, bat,
1994               	; 	'           bridge + sealed chamber).
1995               	; 	'   GAME 2  SMALL KINGDOM  - compact kingdom in the spirit of
1996               	; 	'           the cartridge's first game: gold + black castles,
1997               	; 	'           two dragons, no bat, no dark rooms.
1998               	; 	'   GAME 3  FULL KINGDOM   - the big map: 3 castles, corridor
1999               	; 	'           row, blue maze, DARK catacombs and black-castle
2000               	; 	'           maze (fog of war), red maze, magnet, bat, and the
2001               	; 	'           hidden-dot secret room.
2002               	; 	'   GAME 4  RANDOM KINGDOM - the full kingdom with object
2003               	; 	'           locations scrambled each game.
2004               	; 	'
2005               	; 	' Core rules (all games):
2006               	; 	'  - Rooms are 32x24 grids of 8x8-pixel cells (4 bytes/row,
2007               	; 	'    authored as readable BITMAP art); collision is a RAM bit
2008               	; 	'    test, zero per-frame VRAM reads. Thin 8px walls give the
2009               	; 	'    kingdom's mazes their winding, original-cartridge look.
2010               	; 	'  - Dragons ignore walls entirely and PURSUE you from room
2011               	; 	'    to room (a live dragon you escape bursts in ~1.3s later).
2012               	; 	'  - Doorways whose exit leads nowhere in the selected game
2013               	; 	'    are sealed on entry, so collision and visuals agree.
2014               	; 	'  - Carry ONE object (touch = pick up / swap, FIRE = drop);
2015               	; 	'    a carried object keeps the offset where you grabbed it.
2016               	; 	'  - Keys open the matching castle gate on touch; walk up into
2017               	; 	'    the open archway to enter.
2018               	; 	'  - The SWORD slays dragons on contact, carried or lying.
2019               	; 	'  - The BRIDGE: grab by its RAILS, drop across a wall (snaps
2020               	; 	'    to the block grid) and walk through its dark channel.
2021               	; 	'  - The MAGNET (games 3/4) drags every loose object in its
2022               	; 	'    room toward it - even out of sealed chambers.
2023               	; 	'  - The BAT steals objects, even from your hands.
2024               	; 	'  - DARK rooms (games 3/4) reveal walls only near you.
2025               	; 	'  - The invisible DOT (games 3/4) hides in the black castle
2026               	; 	'    maze chamber; bring it + 2 objects to the corridor's east
2027               	; 	'    end and the wall opens to a secret room.
2028               	; 	'  - Swallowed or victorious -> back to the title (game
2029               	; 	'    select); every start is a full reset.
2030               	; 	'
2031               	; 	' Build (ONE source, dual target):
2032               	; 	'   TI-99/4A:     cvbasic --ti994a adventire.bas -> xas99 -> linkticart
2033               	; 	'   ColecoVision: cvbasic adventire.bas -> gasm80 -> adventire.rom
2034               	; 	' Loop is paced to 30Hz (two WAITs) on both machines.
2035               	; 	' ============================================================
2036               	;
2037               	; 	' rooms are 32x24 grids of 8x8-pixel cells ("quarter blocks"):
2038               	; 	' 4 bytes per row x 24 rows = 96 bytes, MSB = leftmost cell
2039               	; 	DIM rm(96), msk(8)
2040               	; 	DIM orm(8), obx(8), oby(8), ocl(8)
2041               	; 	DIM drm(3), ddx(3), ddy(3), dst(3), dcl(3), dsp(3), gop(3), fdl(3)
2042               	;
2043               	; 	BORDER 1
2044 A9EE 0200  20 	li r0,256   ; 1*256
     A9F0 0100     
2045 A9F2 0980  32 	srl r0,8
2046 A9F4 0260  22 	ori r0,>8700
     A9F6 8700     
2047 A9F8 06C0  14 	swpb r0
2048 A9FA 0300  22 	limi 0
     A9FC 0000     
2049 A9FE D800  30 	movb r0,@VDPWADR
     AA00 8C02     
2050 AA02 06C0  14 	swpb r0
2051 AA04 D800  30 	movb r0,@VDPWADR
     AA06 8C02     
2052 AA08 0300  22 	limi 2
     AA0A 0002     
2053               	; 	' 2x sprite magnification: SI=1 (16x16 patterns) + MAG=1 -> sprites
2054               	; 	' render 32x32. VDP()= is CVBasic's portable register write (TI+CV).
2055               	; 	VDP(1) = $E3
2056 AA0C 0200  20 	li r0,58112   ; 227*256
     AA0E E300     
2057 AA10 0201  20 	li r1,33024   ; 1*256+0x8000
     AA12 8100     
2058 AA14 D800  30 	movb r0,@VDPWADR
     AA16 8C02     
2059 AA18 D801  30 	movb r1,@VDPWADR
     AA1A 8C02     
2060               	; 	DEFINE CHAR 128, 2, wallchar
2061 AA1C 0204  20 	li r4,128
     AA1E 0080     
2062 AA20 0205  20 	li r5,512
     AA22 0200     
2063 AA24 0200  20 	li r0,cvb_WALLCHAR
     AA26 FD6B     
2064 AA28 06A0  32 	bl @jsr
     AA2A A974     
2065 AA2C A1FA     	data define_char
2066               	; 	DEFINE COLOR 128, 2, wallcol
2067 AA2E 0204  20 	li r4,128
     AA30 0080     
2068 AA32 0205  20 	li r5,512
     AA34 0200     
2069 AA36 0200  20 	li r0,cvb_WALLCOL
     AA38 FD7B     
2070 AA3A 06A0  32 	bl @jsr
     AA3C A974     
2071 AA3E A22E     	data define_color
2072               	; 	DEFINE SPRITE 0, 13, gsprites
2073 AA40 04C4  14 	clr r4
2074 AA42 0205  20 	li r5,3328
     AA44 0D00     
2075 AA46 0200  20 	li r0,cvb_GSPRITES
     AA48 FD8B     
2076 AA4A 06A0  32 	bl @jsr
     AA4C A974     
2077 AA4E A1DA     	data define_sprite
2078               	;
2079               	; 	RESTORE mskdat
2080 AA50 0200  20 	li r0,cvb_MSKDAT
     AA52 ECA6     
2081 AA54 C800  30 	mov r0,@read_pointer
     AA56 8340     
2082               	; 	FOR i = 0 TO 7 : READ BYTE msk(i) : NEXT i
2083 AA58 04C0  14 	clr r0
2084 AA5A D800  38 	movb r0,@cvb_I
     AA5C 2086     
2085               cv1
2086 AA5E C060  30 	mov @read_pointer,r1
     AA60 8340     
2087 AA62 D011  26 	movb *r1,r0
2088 AA64 05A0  26 	inc @read_pointer
     AA66 8340     
2089 AA68 C040  18 	mov r0,r1
2090 AA6A D020  34 	movb @cvb_I,r0
     AA6C 2086     
2091 AA6E 0980  32 	srl r0,8
2092 AA70 0220  22 	ai r0,array_MSK
     AA72 20EA     
2093 AA74 D401  30 	movb r1,*r0
2094 AA76 D020  34 	movb @cvb_I,r0
     AA78 2086     
2095 AA7A 0220  22 	ai r0,256	; 1
     AA7C 0100     
2096 AA7E D800  38 	movb r0,@cvb_I
     AA80 2086     
2097 AA82 0201  20 	li r1,2048   ; 8*256
     AA84 0800     
2098 AA86 9040  18 	cb r0,r1
2099 AA88 1402  14 	jhe cv2
2100 AA8A 0460  28 	b @cv1
     AA8C AA5E     
2101               cv2
2102               	; 	gm = 1
2103 AA8E 0200  20 	li r0,256   ; 1*256
     AA90 0100     
2104 AA92 D800  38 	movb r0,@cvb_GM
     AA94 20C9     
2105               	;
2106               	; restart:
2107               cvb_RESTART
2108               	; 	GOSUB title
2109 AA96 06A0  32 	bl @jsr
     AA98 A974     
2110 AA9A E75E     	data cvb_TITLE
2111               	;
2112               	; newgame:
2113               cvb_NEWGAME
2114               	; 	' ---- per-game world state (objects, dragons, bat, start) ----
2115               	; 	IF gm = 1 THEN RESTORE objd1
2116 AA9C D020  34 	movb @cvb_GM,r0
     AA9E 20C9     
2117 AAA0 0201  20 	li r1,256   ; 1*256
     AAA2 0100     
2118 AAA4 9001  18 	cb r1,r0
2119 AAA6 1302  14 	jeq cv4
2120 AAA8 0460  28 	b @cv3
     AAAA AAB4     
2121               cv4
2122 AAAC 0200  20 	li r0,cvb_OBJD1
     AAAE EE47     
2123 AAB0 C800  30 	mov r0,@read_pointer
     AAB2 8340     
2124               cv3
2125               	; 	IF gm = 2 THEN RESTORE objd2
2126 AAB4 D020  34 	movb @cvb_GM,r0
     AAB6 20C9     
2127 AAB8 0201  20 	li r1,512   ; 2*256
     AABA 0200     
2128 AABC 9001  18 	cb r1,r0
2129 AABE 1302  14 	jeq cv6
2130 AAC0 0460  28 	b @cv5
     AAC2 AACC     
2131               cv6
2132 AAC4 0200  20 	li r0,cvb_OBJD2
     AAC6 EE73     
2133 AAC8 C800  30 	mov r0,@read_pointer
     AACA 8340     
2134               cv5
2135               	; 	IF gm > 2 THEN RESTORE objd3
2136 AACC D020  34 	movb @cvb_GM,r0
     AACE 20C9     
2137 AAD0 0201  20 	li r1,768   ; 3*256
     AAD2 0300     
2138 AAD4 9040  18 	cb r0,r1
2139 AAD6 1402  14 	jhe cv8
2140 AAD8 0460  28 	b @cv7
     AADA AAE4     
2141               cv8
2142 AADC 0200  20 	li r0,cvb_OBJD3
     AADE EE9F     
2143 AAE0 C800  30 	mov r0,@read_pointer
     AAE2 8340     
2144               cv7
2145               	; 	FOR i = 0 TO 7
2146 AAE4 04C0  14 	clr r0
2147 AAE6 D800  38 	movb r0,@cvb_I
     AAE8 2086     
2148               cv9
2149               	; 	READ BYTE orm(i) : READ BYTE obx(i) : READ BYTE oby(i)
2150 AAEA C060  30 	mov @read_pointer,r1
     AAEC 8340     
2151 AAEE D011  26 	movb *r1,r0
2152 AAF0 05A0  26 	inc @read_pointer
     AAF2 8340     
2153 AAF4 C040  18 	mov r0,r1
2154 AAF6 D020  34 	movb @cvb_I,r0
     AAF8 2086     
2155 AAFA 0980  32 	srl r0,8
2156 AAFC 0220  22 	ai r0,array_ORM
     AAFE 211A     
2157 AB00 D401  30 	movb r1,*r0
2158 AB02 C060  30 	mov @read_pointer,r1
     AB04 8340     
2159 AB06 D011  26 	movb *r1,r0
2160 AB08 05A0  26 	inc @read_pointer
     AB0A 8340     
2161 AB0C C040  18 	mov r0,r1
2162 AB0E D020  34 	movb @cvb_I,r0
     AB10 2086     
2163 AB12 0980  32 	srl r0,8
2164 AB14 0220  22 	ai r0,array_OBX
     AB16 2106     
2165 AB18 D401  30 	movb r1,*r0
2166 AB1A C060  30 	mov @read_pointer,r1
     AB1C 8340     
2167 AB1E D011  26 	movb *r1,r0
2168 AB20 05A0  26 	inc @read_pointer
     AB22 8340     
2169 AB24 C040  18 	mov r0,r1
2170 AB26 D020  34 	movb @cvb_I,r0
     AB28 2086     
2171 AB2A 0980  32 	srl r0,8
2172 AB2C 0220  22 	ai r0,array_OBY
     AB2E 210E     
2173 AB30 D401  30 	movb r1,*r0
2174               	; 	NEXT i
2175 AB32 D020  34 	movb @cvb_I,r0
     AB34 2086     
2176 AB36 0220  22 	ai r0,256	; 1
     AB38 0100     
2177 AB3A D800  38 	movb r0,@cvb_I
     AB3C 2086     
2178 AB3E 0201  20 	li r1,2048   ; 8*256
     AB40 0800     
2179 AB42 9040  18 	cb r0,r1
2180 AB44 1402  14 	jhe cv10
2181 AB46 0460  28 	b @cv9
     AB48 AAEA     
2182               cv10
2183               	; 	FOR i = 0 TO 2
2184 AB4A 04C0  14 	clr r0
2185 AB4C D800  38 	movb r0,@cvb_I
     AB4E 2086     
2186               cv11
2187               	; 	READ BYTE drm(i) : READ BYTE ddx(i) : READ BYTE ddy(i) : READ BYTE dcl(i) : READ BYTE dsp(i)
2188 AB50 C060  30 	mov @read_pointer,r1
     AB52 8340     
2189 AB54 D011  26 	movb *r1,r0
2190 AB56 05A0  26 	inc @read_pointer
     AB58 8340     
2191 AB5A C040  18 	mov r0,r1
2192 AB5C D020  34 	movb @cvb_I,r0
     AB5E 2086     
2193 AB60 0980  32 	srl r0,8
2194 AB62 0220  22 	ai r0,array_DRM
     AB64 20F2     
2195 AB66 D401  30 	movb r1,*r0
2196 AB68 C060  30 	mov @read_pointer,r1
     AB6A 8340     
2197 AB6C D011  26 	movb *r1,r0
2198 AB6E 05A0  26 	inc @read_pointer
     AB70 8340     
2199 AB72 C040  18 	mov r0,r1
2200 AB74 D020  34 	movb @cvb_I,r0
     AB76 2086     
2201 AB78 0980  32 	srl r0,8
2202 AB7A 0220  22 	ai r0,array_DDX
     AB7C 20E2     
2203 AB7E D401  30 	movb r1,*r0
2204 AB80 C060  30 	mov @read_pointer,r1
     AB82 8340     
2205 AB84 D011  26 	movb *r1,r0
2206 AB86 05A0  26 	inc @read_pointer
     AB88 8340     
2207 AB8A C040  18 	mov r0,r1
2208 AB8C D020  34 	movb @cvb_I,r0
     AB8E 2086     
2209 AB90 0980  32 	srl r0,8
2210 AB92 0220  22 	ai r0,array_DDY
     AB94 20E6     
2211 AB96 D401  30 	movb r1,*r0
2212 AB98 C060  30 	mov @read_pointer,r1
     AB9A 8340     
2213 AB9C D011  26 	movb *r1,r0
2214 AB9E 05A0  26 	inc @read_pointer
     ABA0 8340     
2215 ABA2 C040  18 	mov r0,r1
2216 ABA4 D020  34 	movb @cvb_I,r0
     ABA6 2086     
2217 ABA8 0980  32 	srl r0,8
2218 ABAA 0220  22 	ai r0,array_DCL
     ABAC 20DE     
2219 ABAE D401  30 	movb r1,*r0
2220 ABB0 C060  30 	mov @read_pointer,r1
     ABB2 8340     
2221 ABB4 D011  26 	movb *r1,r0
2222 ABB6 05A0  26 	inc @read_pointer
     ABB8 8340     
2223 ABBA C040  18 	mov r0,r1
2224 ABBC D020  34 	movb @cvb_I,r0
     ABBE 2086     
2225 ABC0 0980  32 	srl r0,8
2226 ABC2 0220  22 	ai r0,array_DSP
     ABC4 20F6     
2227 ABC6 D401  30 	movb r1,*r0
2228               	; 	dst(i) = 0
2229 ABC8 04C1  14 	clr r1
2230 ABCA D020  34 	movb @cvb_I,r0
     ABCC 2086     
2231 ABCE 0980  32 	srl r0,8
2232 ABD0 0220  22 	ai r0,array_DST
     ABD2 20FA     
2233 ABD4 D401  30 	movb r1,*r0
2234               	; 	NEXT i
2235 ABD6 D020  34 	movb @cvb_I,r0
     ABD8 2086     
2236 ABDA 0220  22 	ai r0,256	; 1
     ABDC 0100     
2237 ABDE D800  38 	movb r0,@cvb_I
     ABE0 2086     
2238 ABE2 0201  20 	li r1,768   ; 3*256
     ABE4 0300     
2239 ABE6 9040  18 	cb r0,r1
2240 ABE8 1402  14 	jhe cv12
2241 ABEA 0460  28 	b @cv11
     ABEC AB50     
2242               cv12
2243               	; 	READ BYTE btr : READ BYTE btx : READ BYTE bty
2244 ABEE C060  30 	mov @read_pointer,r1
     ABF0 8340     
2245 ABF2 D011  26 	movb *r1,r0
2246 ABF4 05A0  26 	inc @read_pointer
     ABF6 8340     
2247 ABF8 D800  38 	movb r0,@cvb_BTR
     ABFA 2094     
2248 ABFC C060  30 	mov @read_pointer,r1
     ABFE 8340     
2249 AC00 D011  26 	movb *r1,r0
2250 AC02 05A0  26 	inc @read_pointer
     AC04 8340     
2251 AC06 D800  38 	movb r0,@cvb_BTX
     AC08 2096     
2252 AC0A C060  30 	mov @read_pointer,r1
     AC0C 8340     
2253 AC0E D011  26 	movb *r1,r0
2254 AC10 05A0  26 	inc @read_pointer
     AC12 8340     
2255 AC14 D800  38 	movb r0,@cvb_BTY
     AC16 2097     
2256               	; 	READ BYTE rn : READ BYTE winrm
2257 AC18 C060  30 	mov @read_pointer,r1
     AC1A 8340     
2258 AC1C D011  26 	movb *r1,r0
2259 AC1E 05A0  26 	inc @read_pointer
     AC20 8340     
2260 AC22 D800  38 	movb r0,@cvb_RN
     AC24 20D4     
2261 AC26 C060  30 	mov @read_pointer,r1
     AC28 8340     
2262 AC2A D011  26 	movb *r1,r0
2263 AC2C 05A0  26 	inc @read_pointer
     AC2E 8340     
2264 AC30 D800  38 	movb r0,@cvb_WINRM
     AC32 209E     
2265               	; 	fdl(0) = 0 : fdl(1) = 0 : fdl(2) = 0 : prn = 255
2266 AC34 04C0  14 	clr r0
2267 AC36 D800  38 	movb r0,@array_FDL
     AC38 2116     
2268 AC3A 04C0  14 	clr r0
2269 AC3C D800  38 	movb r0,@array_FDL+1
     AC3E 2117     
2270 AC40 04C0  14 	clr r0
2271 AC42 D800  38 	movb r0,@array_FDL+2
     AC44 2118     
2272 AC46 0200  20 	li r0,65280   ; 255*256
     AC48 FF00     
2273 AC4A D800  38 	movb r0,@cvb_PRN
     AC4C 20B8     
2274               	; 	IF gm = 4 THEN GOSUB rndobj
2275 AC4E D020  34 	movb @cvb_GM,r0
     AC50 20C9     
2276 AC52 0201  20 	li r1,1024   ; 4*256
     AC54 0400     
2277 AC56 9001  18 	cb r1,r0
2278 AC58 1302  14 	jeq cv14
2279 AC5A 0460  28 	b @cv13
     AC5C AC64     
2280               cv14
2281 AC5E 06A0  32 	bl @jsr
     AC60 A974     
2282 AC62 E290     	data cvb_RNDOBJ
2283               cv13
2284               	; 	ocl(0) = 11 : ocl(1) = 1 : ocl(2) = 15 : ocl(3) = 7
2285 AC64 0200  20 	li r0,2816   ; 11*256
     AC66 0B00     
2286 AC68 D800  38 	movb r0,@array_OCL
     AC6A 20FE     
2287 AC6C 0200  20 	li r0,256   ; 1*256
     AC6E 0100     
2288 AC70 D800  38 	movb r0,@array_OCL+1
     AC72 20FF     
2289 AC74 0200  20 	li r0,3840   ; 15*256
     AC76 0F00     
2290 AC78 D800  38 	movb r0,@array_OCL+2
     AC7A 2100     
2291 AC7C 0200  20 	li r0,1792   ; 7*256
     AC7E 0700     
2292 AC80 D800  38 	movb r0,@array_OCL+3
     AC82 2101     
2293               	; 	ocl(4) = 13 : ocl(5) = 15 : ocl(6) = 6 : ocl(7) = 0
2294 AC84 0200  20 	li r0,3328   ; 13*256
     AC86 0D00     
2295 AC88 D800  38 	movb r0,@array_OCL+4
     AC8A 2102     
2296 AC8C 0200  20 	li r0,3840   ; 15*256
     AC8E 0F00     
2297 AC90 D800  38 	movb r0,@array_OCL+5
     AC92 2103     
2298 AC94 0200  20 	li r0,1536   ; 6*256
     AC96 0600     
2299 AC98 D800  38 	movb r0,@array_OCL+6
     AC9A 2104     
2300 AC9C 04C0  14 	clr r0
2301 AC9E D800  38 	movb r0,@array_OCL+7
     ACA0 2105     
2302               	; 	gop(0) = 0 : gop(1) = 0 : gop(2) = 0
2303 ACA2 04C0  14 	clr r0
2304 ACA4 D800  38 	movb r0,@array_GOP
     ACA6 2122     
2305 ACA8 04C0  14 	clr r0
2306 ACAA D800  38 	movb r0,@array_GOP+1
     ACAC 2123     
2307 ACAE 04C0  14 	clr r0
2308 ACB0 D800  38 	movb r0,@array_GOP+2
     ACB2 2124     
2309               	; 	btc = 255 : btcd = 90 : bfx = 0 : bfy = 1
2310 ACB4 0200  20 	li r0,65280   ; 255*256
     ACB6 FF00     
2311 ACB8 D800  38 	movb r0,@cvb_BTC
     ACBA 2092     
2312 ACBC 0200  20 	li r0,23040   ; 90*256
     ACBE 5A00     
2313 ACC0 D800  38 	movb r0,@cvb_BTCD
     ACC2 20B4     
2314 ACC4 04C0  14 	clr r0
2315 ACC6 D800  38 	movb r0,@cvb_BFX
     ACC8 2080     
2316 ACCA 0200  20 	li r0,256   ; 1*256
     ACCC 0100     
2317 ACCE D800  38 	movb r0,@cvb_BFY
     ACD0 2081     
2318               	; 	cr = 255 : pkcd = 0 : btnp = 1 : rmch = 0 : eflag = 0 : tk = 0
2319 ACD2 0200  20 	li r0,65280   ; 255*256
     ACD4 FF00     
2320 ACD6 D800  38 	movb r0,@cvb_CR
     ACD8 20C2     
2321 ACDA 04C0  14 	clr r0
2322 ACDC D800  38 	movb r0,@cvb_PKCD
     ACDE 20A4     
2323 ACE0 0200  20 	li r0,256   ; 1*256
     ACE2 0100     
2324 ACE4 D800  38 	movb r0,@cvb_BTNP
     ACE6 20BA     
2325 ACE8 04C0  14 	clr r0
2326 ACEA D800  38 	movb r0,@cvb_RMCH
     ACEC 2091     
2327 ACEE 04C0  14 	clr r0
2328 ACF0 D800  38 	movb r0,@cvb_EFLAG
     ACF2 209F     
2329 ACF4 04C0  14 	clr r0
2330 ACF6 D800  38 	movb r0,@cvb_TK
     ACF8 20D7     
2331               	; 	sfx = 0 : sfc = 0 : #crx = 64 : #cry = 64 : eggon = 0
2332 ACFA 04C0  14 	clr r0
2333 ACFC D800  38 	movb r0,@cvb_SFX
     ACFE 20D3     
2334 AD00 04C0  14 	clr r0
2335 AD02 D800  38 	movb r0,@cvb_SFC
     AD04 20CC     
2336 AD06 0200  20 	li r0,64
     AD08 0040     
2337 AD0A C800  38 	mov r0,@cvb__CRX
     AD0C 20A0     
2338 AD0E 0200  20 	li r0,64
     AD10 0040     
2339 AD12 C800  38 	mov r0,@cvb__CRY
     AD14 20A2     
2340 AD16 04C0  14 	clr r0
2341 AD18 D800  38 	movb r0,@cvb_EGGON
     AD1A 209C     
2342               	; 	SOUND 0, , 0 : SOUND 3, , 0
2343 AD1C 04C0  14 	clr r0
2344 AD1E 0202  20 	li r2,>9000
     AD20 9000     
2345 AD22 06A0  32 	bl @jsr
     AD24 A974     
2346 AD26 A2D6     	data sn76489_vol
2347 AD28 04C0  14 	clr r0
2348 AD2A 0202  20 	li r2,>f000
     AD2C F000     
2349 AD2E 06A0  32 	bl @jsr
     AD30 A974     
2350 AD32 A2D6     	data sn76489_vol
2351               	; 	px = 120 : py = 160
2352 AD34 0200  20 	li r0,30720   ; 120*256
     AD36 7800     
2353 AD38 D800  38 	movb r0,@cvb_PX
     AD3A 20D0     
2354 AD3C 0200  20 	li r0,40960   ; 160*256
     AD3E A000     
2355 AD40 D800  38 	movb r0,@cvb_PY
     AD42 20D1     
2356               	; 	GOSUB enterroom
2357 AD44 06A0  32 	bl @jsr
     AD46 A974     
2358 AD48 D174     	data cvb_ENTERROOM
2359               	;
2360               	; mainloop:
2361               cvb_MAINLOOP
2362               	; 	WAIT
2363 AD4A 06A0  32 	bl @jsr
     AD4C A974     
2364 AD4E A64A     	data wait
2365               	; 	WAIT
2366 AD50 06A0  32 	bl @jsr
     AD52 A974     
2367 AD54 A64A     	data wait
2368               	; 	tk = tk + 1
2369 AD56 D020  34 	movb @cvb_TK,r0
     AD58 20D7     
2370 AD5A 0220  22 	ai r0,256	; 1
     AD5C 0100     
2371 AD5E D800  38 	movb r0,@cvb_TK
     AD60 20D7     
2372               	; 	GOSUB dosfx
2373 AD62 06A0  32 	bl @jsr
     AD64 A974     
2374 AD66 E38C     	data cvb_DOSFX
2375               	; 	IF pkcd > 0 THEN pkcd = pkcd - 1
2376 AD68 D020  34 	movb @cvb_PKCD,r0
     AD6A 20A4     
2377 AD6C 0201  20 	li r1,256   ; 1*256
     AD6E 0100     
2378 AD70 9040  18 	cb r0,r1
2379 AD72 1402  14 	jhe cv16
2380 AD74 0460  28 	b @cv15
     AD76 AD84     
2381               cv16
2382 AD78 D020  34 	movb @cvb_PKCD,r0
     AD7A 20A4     
2383 AD7C 0220  22 	ai r0,65280	; -1
     AD7E FF00     
2384 AD80 D800  38 	movb r0,@cvb_PKCD
     AD82 20A4     
2385               cv15
2386               	;
2387               	; 	' --- player movement (X and Y independent => wall sliding) ---
2388               	; 	IF cont1.left THEN GOSUB mvleft
2389 AD84 D020  30 	movb @joy1_data,r0
     AD86 8346     
2390 AD88 0201  20 	li r1,2048   ; 8*256
     AD8A 0800     
2391 AD8C 0541  14 	inv r1
2392 AD8E 5001  18 	szcb r1,r0
2393 AD90 1602  14 	jne cv18
2394 AD92 0460  28 	b @cv17
     AD94 AD9C     
2395               cv18
2396 AD96 06A0  32 	bl @jsr
     AD98 A974     
2397 AD9A B398     	data cvb_MVLEFT
2398               cv17
2399               	; 	IF cont1.right THEN GOSUB mvright
2400 AD9C D020  30 	movb @joy1_data,r0
     AD9E 8346     
2401 ADA0 0201  20 	li r1,512   ; 2*256
     ADA2 0200     
2402 ADA4 0541  14 	inv r1
2403 ADA6 5001  18 	szcb r1,r0
2404 ADA8 1602  14 	jne cv20
2405 ADAA 0460  28 	b @cv19
     ADAC ADB4     
2406               cv20
2407 ADAE 06A0  32 	bl @jsr
     ADB0 A974     
2408 ADB2 B444     	data cvb_MVRIGHT
2409               cv19
2410               	; 	IF cont1.up THEN GOSUB mvup
2411 ADB4 D020  30 	movb @joy1_data,r0
     ADB6 8346     
2412 ADB8 0201  20 	li r1,256   ; 1*256
     ADBA 0100     
2413 ADBC 0541  14 	inv r1
2414 ADBE 5001  18 	szcb r1,r0
2415 ADC0 1602  14 	jne cv22
2416 ADC2 0460  28 	b @cv21
     ADC4 ADCC     
2417               cv22
2418 ADC6 06A0  32 	bl @jsr
     ADC8 A974     
2419 ADCA B4F0     	data cvb_MVUP
2420               cv21
2421               	; 	IF cont1.down THEN GOSUB mvdown
2422 ADCC D020  30 	movb @joy1_data,r0
     ADCE 8346     
2423 ADD0 0201  20 	li r1,1024   ; 4*256
     ADD2 0400     
2424 ADD4 0541  14 	inv r1
2425 ADD6 5001  18 	szcb r1,r0
2426 ADD8 1602  14 	jne cv24
2427 ADDA 0460  28 	b @cv23
     ADDC ADE4     
2428               cv24
2429 ADDE 06A0  32 	bl @jsr
     ADE0 A974     
2430 ADE2 B59C     	data cvb_MVDOWN
2431               cv23
2432               	; 	IF rmch = 1 THEN rmch = 0 : GOTO drawframe
2433 ADE4 D020  34 	movb @cvb_RMCH,r0
     ADE6 2091     
2434 ADE8 0201  20 	li r1,256   ; 1*256
     ADEA 0100     
2435 ADEC 9001  18 	cb r1,r0
2436 ADEE 1302  14 	jeq cv26
2437 ADF0 0460  28 	b @cv25
     ADF2 ADFE     
2438               cv26
2439 ADF4 04C0  14 	clr r0
2440 ADF6 D800  38 	movb r0,@cvb_RMCH
     ADF8 2091     
2441 ADFA 0460  28 	b @cvb_DRAWFRAME
     ADFC AFA6     
2442               cv25
2443               	;
2444               	; 	' --- dark rooms: keep the reveal window on the player ---
2445               	; 	IF fon = 1 THEN GOSUB fogupd
2446 ADFE D020  34 	movb @cvb_FON,r0
     AE00 20A7     
2447 AE02 0201  20 	li r1,256   ; 1*256
     AE04 0100     
2448 AE06 9001  18 	cb r1,r0
2449 AE08 1302  14 	jeq cv28
2450 AE0A 0460  28 	b @cv27
     AE0C AE14     
2451               cv28
2452 AE0E 06A0  32 	bl @jsr
     AE10 A974     
2453 AE12 DBA2     	data cvb_FOGUPD
2454               cv27
2455               	;
2456               	; 	' --- castle gate: open with key / walk in when open ---
2457               	; 	IF gz > 0 THEN GOSUB gatelogic
2458 AE14 D020  34 	movb @cvb_GZ,r0
     AE16 20CA     
2459 AE18 0201  20 	li r1,256   ; 1*256
     AE1A 0100     
2460 AE1C 9040  18 	cb r0,r1
2461 AE1E 1402  14 	jhe cv30
2462 AE20 0460  28 	b @cv29
     AE22 AE2A     
2463               cv30
2464 AE24 06A0  32 	bl @jsr
     AE26 A974     
2465 AE28 BA82     	data cvb_GATELOGIC
2466               cv29
2467               	; 	IF rmch = 1 THEN rmch = 0 : GOTO drawframe
2468 AE2A D020  34 	movb @cvb_RMCH,r0
     AE2C 2091     
2469 AE2E 0201  20 	li r1,256   ; 1*256
     AE30 0100     
2470 AE32 9001  18 	cb r1,r0
2471 AE34 1302  14 	jeq cv32
2472 AE36 0460  28 	b @cv31
     AE38 AE44     
2473               cv32
2474 AE3A 04C0  14 	clr r0
2475 AE3C D800  38 	movb r0,@cvb_RMCH
     AE3E 2091     
2476 AE40 0460  28 	b @cvb_DRAWFRAME
     AE42 AFA6     
2477               cv31
2478               	;
2479               	; 	' --- drop carried object with FIRE (edge-triggered) ---
2480               	; 	b = cont1.button
2481 AE44 D020  30 	movb @joy1_data,r0
     AE46 8346     
2482 AE48 0201  20 	li r1,16384   ; 64*256
     AE4A 4000     
2483 AE4C 0541  14 	inv r1
2484 AE4E 5001  18 	szcb r1,r0
2485 AE50 D800  38 	movb r0,@cvb_B
     AE52 2082     
2486               	; 	IF b > 0 THEN IF btnp = 0 THEN IF cr < 8 THEN GOSUB dodrop
2487 AE54 0201  20 	li r1,256   ; 1*256
     AE56 0100     
2488 AE58 9040  18 	cb r0,r1
2489 AE5A 1402  14 	jhe cv34
2490 AE5C 0460  28 	b @cv33
     AE5E AE80     
2491               cv34
2492 AE60 D020  34 	movb @cvb_BTNP,r0
     AE62 20BA     
2493 AE64 1302  14 	jeq cv36
2494 AE66 0460  28 	b @cv35
     AE68 AE80     
2495               cv36
2496 AE6A D020  34 	movb @cvb_CR,r0
     AE6C 20C2     
2497 AE6E 0201  20 	li r1,2048   ; 8*256
     AE70 0800     
2498 AE72 9040  18 	cb r0,r1
2499 AE74 1A02  14 	jl cv38
2500 AE76 0460  28 	b @cv37
     AE78 AE80     
2501               cv38
2502 AE7A 06A0  32 	bl @jsr
     AE7C A974     
2503 AE7E B26C     	data cvb_DODROP
2504               cv37
2505               cv35
2506               cv33
2507               	; 	btnp = b
2508 AE80 D820  54 	movb @cvb_B,@cvb_BTNP
     AE82 2082     
     AE84 20BA     
2509               	;
2510               	; 	' --- carried object keeps the offset where it was grabbed ---
2511               	; 	IF cr < 8 THEN GOSUB carrypos
2512 AE86 D020  34 	movb @cvb_CR,r0
     AE88 20C2     
2513 AE8A 0201  20 	li r1,2048   ; 8*256
     AE8C 0800     
2514 AE8E 9040  18 	cb r0,r1
2515 AE90 1A02  14 	jl cv40
2516 AE92 0460  28 	b @cv39
     AE94 AE9C     
2517               cv40
2518 AE96 06A0  32 	bl @jsr
     AE98 A974     
2519 AE9A BC7E     	data cvb_CARRYPOS
2520               cv39
2521               	;
2522               	; 	' --- WIN: the chalice is inside the gold castle ---
2523               	; 	IF orm(5) = winrm THEN GOTO winseq
2524 AE9C D020  34 	movb @array_ORM+5,r0
     AE9E 211F     
2525 AEA0 9020  34 	cb @cvb_WINRM,r0
     AEA2 209E     
2526 AEA4 1302  14 	jeq cv42
2527 AEA6 0460  28 	b @cv41
     AEA8 AEAE     
2528               cv42
2529 AEAA 0460  28 	b @cvb_WINSEQ
     AEAC E50E     
2530               cv41
2531               	;
2532               	; 	' --- pick up / swap on touch ---
2533               	; 	IF pkcd = 0 THEN GOSUB trypick
2534 AEAE D020  34 	movb @cvb_PKCD,r0
     AEB0 20A4     
2535 AEB2 1302  14 	jeq cv44
2536 AEB4 0460  28 	b @cv43
     AEB6 AEBE     
2537               cv44
2538 AEB8 06A0  32 	bl @jsr
     AEBA A974     
2539 AEBC BD32     	data cvb_TRYPICK
2540               cv43
2541               	;
2542               	; 	' --- the magnet drags loose objects in its room ---
2543               	; 	IF orm(6) = rn THEN IF cr <> 6 THEN GOSUB magnetdo
2544 AEBE D020  34 	movb @array_ORM+6,r0
     AEC0 2120     
2545 AEC2 9020  34 	cb @cvb_RN,r0
     AEC4 20D4     
2546 AEC6 1302  14 	jeq cv46
2547 AEC8 0460  28 	b @cv45
     AECA AEE2     
2548               cv46
2549 AECC D020  34 	movb @cvb_CR,r0
     AECE 20C2     
2550 AED0 0201  20 	li r1,1536   ; 6*256
     AED2 0600     
2551 AED4 9001  18 	cb r1,r0
2552 AED6 1602  14 	jne cv48
2553 AED8 0460  28 	b @cv47
     AEDA AEE2     
2554               cv48
2555 AEDC 06A0  32 	bl @jsr
     AEDE A974     
2556 AEE0 C032     	data cvb_MAGNETDO
2557               cv47
2558               cv45
2559               	;
2560               	; 	' --- secret wall: check + flicker (full kingdom only) ---
2561               	; 	IF gm > 2 THEN IF rn = 17 THEN GOSUB eggdo
2562 AEE2 D020  34 	movb @cvb_GM,r0
     AEE4 20C9     
2563 AEE6 0201  20 	li r1,768   ; 3*256
     AEE8 0300     
2564 AEEA 9040  18 	cb r0,r1
2565 AEEC 1402  14 	jhe cv50
2566 AEEE 0460  28 	b @cv49
     AEF0 AF08     
2567               cv50
2568 AEF2 D020  34 	movb @cvb_RN,r0
     AEF4 20D4     
2569 AEF6 0201  20 	li r1,4352   ; 17*256
     AEF8 1100     
2570 AEFA 9001  18 	cb r1,r0
2571 AEFC 1302  14 	jeq cv52
2572 AEFE 0460  28 	b @cv51
     AF00 AF08     
2573               cv52
2574 AF02 06A0  32 	bl @jsr
     AF04 A974     
2575 AF06 C1D8     	data cvb_EGGDO
2576               cv51
2577               cv49
2578               	; 	IF rn = 18 THEN GOSUB eggtxt
2579 AF08 D020  34 	movb @cvb_RN,r0
     AF0A 20D4     
2580 AF0C 0201  20 	li r1,4608   ; 18*256
     AF0E 1200     
2581 AF10 9001  18 	cb r1,r0
2582 AF12 1302  14 	jeq cv54
2583 AF14 0460  28 	b @cv53
     AF16 AF1E     
2584               cv54
2585 AF18 06A0  32 	bl @jsr
     AF1A A974     
2586 AF1C C306     	data cvb_EGGTXT
2587               cv53
2588               	;
2589               	; 	' --- the bat flies always, everywhere ---
2590               	; 	IF btr < 255 THEN GOSUB batdo
2591 AF1E D020  34 	movb @cvb_BTR,r0
     AF20 2094     
2592 AF22 0201  20 	li r1,65280   ; 255*256
     AF24 FF00     
2593 AF26 9040  18 	cb r0,r1
2594 AF28 1A02  14 	jl cv56
2595 AF2A 0460  28 	b @cv55
     AF2C AF34     
2596               cv56
2597 AF2E 06A0  32 	bl @jsr
     AF30 A974     
2598 AF32 C3D2     	data cvb_BATDO
2599               cv55
2600               	;
2601               	; 	' --- dragons: pending pursuers arrive, residents chase ---
2602               	; 	FOR d = 0 TO 2
2603 AF34 04C0  14 	clr r0
2604 AF36 D800  38 	movb r0,@cvb_D
     AF38 2083     
2605               cv57
2606               	; 	IF fdl(d) > 0 THEN GOSUB dfollow
2607 AF3A D020  34 	movb @cvb_D,r0
     AF3C 2083     
2608 AF3E 0980  32 	srl r0,8
2609 AF40 0220  22 	ai r0,array_FDL
     AF42 2116     
2610 AF44 D010  26 	movb *r0,r0
2611 AF46 0201  20 	li r1,256   ; 1*256
     AF48 0100     
2612 AF4A 9040  18 	cb r0,r1
2613 AF4C 1402  14 	jhe cv59
2614 AF4E 0460  28 	b @cv58
     AF50 AF58     
2615               cv59
2616 AF52 06A0  32 	bl @jsr
     AF54 A974     
2617 AF56 CC0A     	data cvb_DFOLLOW
2618               cv58
2619               	; 	IF drm(d) = rn THEN GOSUB dragondo
2620 AF58 D020  34 	movb @cvb_D,r0
     AF5A 2083     
2621 AF5C 0980  32 	srl r0,8
2622 AF5E 0220  22 	ai r0,array_DRM
     AF60 20F2     
2623 AF62 D010  26 	movb *r0,r0
2624 AF64 9020  34 	cb @cvb_RN,r0
     AF66 20D4     
2625 AF68 1302  14 	jeq cv61
2626 AF6A 0460  28 	b @cv60
     AF6C AF74     
2627               cv61
2628 AF6E 06A0  32 	bl @jsr
     AF70 A974     
2629 AF72 C8F2     	data cvb_DRAGONDO
2630               cv60
2631               	; 	NEXT d
2632 AF74 D020  34 	movb @cvb_D,r0
     AF76 2083     
2633 AF78 0220  22 	ai r0,256	; 1
     AF7A 0100     
2634 AF7C D800  38 	movb r0,@cvb_D
     AF7E 2083     
2635 AF80 0201  20 	li r1,768   ; 3*256
     AF82 0300     
2636 AF84 9040  18 	cb r0,r1
2637 AF86 1402  14 	jhe cv62
2638 AF88 0460  28 	b @cv57
     AF8A AF3A     
2639               cv62
2640               	; 	' swallowed: play the sequence, then back to the title
2641               	; 	IF eflag > 0 THEN GOSUB eatenrt : GOTO restart
2642 AF8C D020  34 	movb @cvb_EFLAG,r0
     AF8E 209F     
2643 AF90 0201  20 	li r1,256   ; 1*256
     AF92 0100     
2644 AF94 9040  18 	cb r0,r1
2645 AF96 1402  14 	jhe cv64
2646 AF98 0460  28 	b @cv63
     AF9A AFA6     
2647               cv64
2648 AF9C 06A0  32 	bl @jsr
     AF9E A974     
2649 AFA0 CD60     	data cvb_EATENRT
2650 AFA2 0460  28 	b @cvb_RESTART
     AFA4 AA96     
2651               cv63
2652               	;
2653               	; drawframe:
2654               cvb_DRAWFRAME
2655               	; 	SPRITE 0, py - 1, px, 0, pcol
2656 AFA6 04C4  14 	clr r4
2657 AFA8 D020  34 	movb @cvb_PY,r0
     AFAA 20D1     
2658 AFAC 0220  22 	ai r0,65280	; -1
     AFAE FF00     
2659 AFB0 D140  18 	movb r0,r5
2660 AFB2 D1A0  34 	movb @cvb_PX,r6
     AFB4 20D0     
2661 AFB6 04C7  14 	clr r7
2662 AFB8 D020  34 	movb @cvb_PCOL,r0
     AFBA 20C3     
2663 AFBC 06A0  32 	bl @jsr
     AFBE A974     
2664 AFC0 A24E     	data update_sprite
2665               	; 	' dragons are TWO stacked 32x32 sprites (32x64 shown)
2666               	; 	FOR d = 0 TO 2
2667 AFC2 04C0  14 	clr r0
2668 AFC4 D800  38 	movb r0,@cvb_D
     AFC6 2083     
2669               cv65
2670               	; 	IF drm(d) = rn THEN GOSUB drawdrg ELSE SPRITE 1 + d + d, $d1, 0, 0, 0 : SPRITE 2 + d + d, $d1, 0, 0, 0
2671 AFC8 D020  34 	movb @cvb_D,r0
     AFCA 2083     
2672 AFCC 0980  32 	srl r0,8
2673 AFCE 0220  22 	ai r0,array_DRM
     AFD0 20F2     
2674 AFD2 D010  26 	movb *r0,r0
2675 AFD4 9020  34 	cb @cvb_RN,r0
     AFD6 20D4     
2676 AFD8 1302  14 	jeq cv67
2677 AFDA 0460  28 	b @cv66
     AFDC AFE8     
2678               cv67
2679 AFDE 06A0  32 	bl @jsr
     AFE0 A974     
2680 AFE2 B148     	data cvb_DRAWDRG
2681 AFE4 0460  28 	b @cv68
     AFE6 B034     
2682               cv66
2683 AFE8 D020  34 	movb @cvb_D,r0
     AFEA 2083     
2684 AFEC 0980  32 	srl r0,8
2685 AFEE C040  18 	mov r0,r1
2686 AFF0 D020  34 	movb @cvb_D,r0
     AFF2 2083     
2687 AFF4 0980  32 	srl r0,8
2688 AFF6 0580  14 	inc r0
2689 AFF8 A001  18 	a r1,r0
2690 AFFA 0A80  32 	sla r0,8
2691 AFFC C100  18 	mov r0,r4
2692 AFFE 0205  20 	li r5,53504
     B000 D100     
2693 B002 04C6  14 	clr r6
2694 B004 04C7  14 	clr r7
2695 B006 04C0  14 	clr r0
2696 B008 06A0  32 	bl @jsr
     B00A A974     
2697 B00C A24E     	data update_sprite
2698 B00E D020  34 	movb @cvb_D,r0
     B010 2083     
2699 B012 0980  32 	srl r0,8
2700 B014 C040  18 	mov r0,r1
2701 B016 D020  34 	movb @cvb_D,r0
     B018 2083     
2702 B01A 0980  32 	srl r0,8
2703 B01C 05C0  14 	inct r0
2704 B01E A001  18 	a r1,r0
2705 B020 0A80  32 	sla r0,8
2706 B022 C100  18 	mov r0,r4
2707 B024 0205  20 	li r5,53504
     B026 D100     
2708 B028 04C6  14 	clr r6
2709 B02A 04C7  14 	clr r7
2710 B02C 04C0  14 	clr r0
2711 B02E 06A0  32 	bl @jsr
     B030 A974     
2712 B032 A24E     	data update_sprite
2713               cv68
2714               	; 	NEXT d
2715 B034 D020  34 	movb @cvb_D,r0
     B036 2083     
2716 B038 0220  22 	ai r0,256	; 1
     B03A 0100     
2717 B03C D800  38 	movb r0,@cvb_D
     B03E 2083     
2718 B040 0201  20 	li r1,768   ; 3*256
     B042 0300     
2719 B044 9040  18 	cb r0,r1
2720 B046 1402  14 	jhe cv69
2721 B048 0460  28 	b @cv65
     B04A AFC8     
2722               cv69
2723               	; 	FOR i = 0 TO 7
2724 B04C 04C0  14 	clr r0
2725 B04E D800  38 	movb r0,@cvb_I
     B050 2086     
2726               cv70
2727               	; 	IF orm(i) = rn THEN GOSUB drawobj ELSE SPRITE 7 + i, $d1, 0, 0, 0
2728 B052 D020  34 	movb @cvb_I,r0
     B054 2086     
2729 B056 0980  32 	srl r0,8
2730 B058 0220  22 	ai r0,array_ORM
     B05A 211A     
2731 B05C D010  26 	movb *r0,r0
2732 B05E 9020  34 	cb @cvb_RN,r0
     B060 20D4     
2733 B062 1302  14 	jeq cv72
2734 B064 0460  28 	b @cv71
     B066 B072     
2735               cv72
2736 B068 06A0  32 	bl @jsr
     B06A A974     
2737 B06C B2B4     	data cvb_DRAWOBJ
2738 B06E 0460  28 	b @cv73
     B070 B08C     
2739               cv71
2740 B072 D020  34 	movb @cvb_I,r0
     B074 2086     
2741 B076 0220  22 	ai r0,1792	; 7
     B078 0700     
2742 B07A C100  18 	mov r0,r4
2743 B07C 0205  20 	li r5,53504
     B07E D100     
2744 B080 04C6  14 	clr r6
2745 B082 04C7  14 	clr r7
2746 B084 04C0  14 	clr r0
2747 B086 06A0  32 	bl @jsr
     B088 A974     
2748 B08A A24E     	data update_sprite
2749               cv73
2750               	; 	NEXT i
2751 B08C D020  34 	movb @cvb_I,r0
     B08E 2086     
2752 B090 0220  22 	ai r0,256	; 1
     B092 0100     
2753 B094 D800  38 	movb r0,@cvb_I
     B096 2086     
2754 B098 0201  20 	li r1,2048   ; 8*256
     B09A 0800     
2755 B09C 9040  18 	cb r0,r1
2756 B09E 1402  14 	jhe cv74
2757 B0A0 0460  28 	b @cv70
     B0A2 B052     
2758               cv74
2759               	; 	IF btr = rn THEN SPRITE 15, bty - 1, btx, 32 + ((tk AND 2) * 2), 1 ELSE SPRITE 15, $d1, 0, 0, 0
2760 B0A4 D020  34 	movb @cvb_BTR,r0
     B0A6 2094     
2761 B0A8 9020  34 	cb @cvb_RN,r0
     B0AA 20D4     
2762 B0AC 1302  14 	jeq cv76
2763 B0AE 0460  28 	b @cv75
     B0B0 B0EA     
2764               cv76
2765 B0B2 0204  20 	li r4,3840
     B0B4 0F00     
2766 B0B6 D020  34 	movb @cvb_BTY,r0
     B0B8 2097     
2767 B0BA 0220  22 	ai r0,65280	; -1
     B0BC FF00     
2768 B0BE D140  18 	movb r0,r5
2769 B0C0 D1A0  34 	movb @cvb_BTX,r6
     B0C2 2096     
2770 B0C4 D020  34 	movb @cvb_TK,r0
     B0C6 20D7     
2771 B0C8 0201  20 	li r1,512   ; 2*256
     B0CA 0200     
2772 B0CC 0541  14 	inv r1
2773 B0CE 5001  18 	szcb r1,r0
2774 B0D0 0240  22 	andi r0,>ff00
     B0D2 FF00     
2775 B0D4 0A10  18 	sla r0,1
2776 B0D6 0220  22 	ai r0,8192	; 32
     B0D8 2000     
2777 B0DA D1C0  18 	movb r0,r7
2778 B0DC 0200  20 	li r0,256   ; 1*256
     B0DE 0100     
2779 B0E0 06A0  32 	bl @jsr
     B0E2 A974     
2780 B0E4 A24E     	data update_sprite
2781 B0E6 0460  28 	b @cv77
     B0E8 B0FE     
2782               cv75
2783 B0EA 0204  20 	li r4,3840
     B0EC 0F00     
2784 B0EE 0205  20 	li r5,53504
     B0F0 D100     
2785 B0F2 04C6  14 	clr r6
2786 B0F4 04C7  14 	clr r7
2787 B0F6 04C0  14 	clr r0
2788 B0F8 06A0  32 	bl @jsr
     B0FA A974     
2789 B0FC A24E     	data update_sprite
2790               cv77
2791               	; 	' the bridge channel gets a black fill sprite so it reads as
2792               	; 	' an opening in the wall it spans (rails sprite lies on top)
2793               	; 	IF orm(4) = rn THEN SPRITE 16, oby(4) - 1, obx(4), 40, 1 ELSE SPRITE 16, $d1, 0, 0, 0
2794 B0FE D020  34 	movb @array_ORM+4,r0
     B100 211E     
2795 B102 9020  34 	cb @cvb_RN,r0
     B104 20D4     
2796 B106 1302  14 	jeq cv79
2797 B108 0460  28 	b @cv78
     B10A B130     
2798               cv79
2799 B10C 0204  20 	li r4,4096
     B10E 1000     
2800 B110 D020  34 	movb @array_OBY+4,r0
     B112 2112     
2801 B114 0220  22 	ai r0,65280	; -1
     B116 FF00     
2802 B118 D140  18 	movb r0,r5
2803 B11A D1A0  34 	movb @array_OBX+4,r6
     B11C 210A     
2804 B11E 0207  20 	li r7,10240
     B120 2800     
2805 B122 0200  20 	li r0,256   ; 1*256
     B124 0100     
2806 B126 06A0  32 	bl @jsr
     B128 A974     
2807 B12A A24E     	data update_sprite
2808 B12C 0460  28 	b @cv80
     B12E B144     
2809               cv78
2810 B130 0204  20 	li r4,4096
     B132 1000     
2811 B134 0205  20 	li r5,53504
     B136 D100     
2812 B138 04C6  14 	clr r6
2813 B13A 04C7  14 	clr r7
2814 B13C 04C0  14 	clr r0
2815 B13E 06A0  32 	bl @jsr
     B140 A974     
2816 B142 A24E     	data update_sprite
2817               cv80
2818               	; 	GOTO mainloop
2819 B144 0460  28 	b @cvb_MAINLOOP
     B146 AD4A     
2820               	;
2821               	; 	' ------------------------------------------------------------
2822               	; 	' dragon body: def1 (head/neck) above def2 (body/legs);
2823               	; 	' slain dragons collapse to the belly-up def3 at ground level
2824               	; 	' ------------------------------------------------------------
2825               	; drawdrg: PROCEDURE
2826               	even
2827               cvb_DRAWDRG
2828               	; 	IF dst(d) = 1 THEN SPRITE 1 + d + d, $d1, 0, 0, 0 : SPRITE 2 + d + d, ddy(d) + 31, ddx(d), 12, dcl(d) : RETURN
2829 B148 D020  34 	movb @cvb_D,r0
     B14A 2083     
2830 B14C 0980  32 	srl r0,8
2831 B14E 0220  22 	ai r0,array_DST
     B150 20FA     
2832 B152 D010  26 	movb *r0,r0
2833 B154 0201  20 	li r1,256   ; 1*256
     B156 0100     
2834 B158 9001  18 	cb r1,r0
2835 B15A 1302  14 	jeq cv82
2836 B15C 0460  28 	b @cv81
     B15E B1D4     
2837               cv82
2838 B160 D020  34 	movb @cvb_D,r0
     B162 2083     
2839 B164 0980  32 	srl r0,8
2840 B166 C040  18 	mov r0,r1
2841 B168 D020  34 	movb @cvb_D,r0
     B16A 2083     
2842 B16C 0980  32 	srl r0,8
2843 B16E 0580  14 	inc r0
2844 B170 A001  18 	a r1,r0
2845 B172 0A80  32 	sla r0,8
2846 B174 C100  18 	mov r0,r4
2847 B176 0205  20 	li r5,53504
     B178 D100     
2848 B17A 04C6  14 	clr r6
2849 B17C 04C7  14 	clr r7
2850 B17E 04C0  14 	clr r0
2851 B180 06A0  32 	bl @jsr
     B182 A974     
2852 B184 A24E     	data update_sprite
2853 B186 D020  34 	movb @cvb_D,r0
     B188 2083     
2854 B18A 0980  32 	srl r0,8
2855 B18C C040  18 	mov r0,r1
2856 B18E D020  34 	movb @cvb_D,r0
     B190 2083     
2857 B192 0980  32 	srl r0,8
2858 B194 05C0  14 	inct r0
2859 B196 A001  18 	a r1,r0
2860 B198 0A80  32 	sla r0,8
2861 B19A C100  18 	mov r0,r4
2862 B19C D020  34 	movb @cvb_D,r0
     B19E 2083     
2863 B1A0 0980  32 	srl r0,8
2864 B1A2 0220  22 	ai r0,array_DDY
     B1A4 20E6     
2865 B1A6 D010  26 	movb *r0,r0
2866 B1A8 0220  22 	ai r0,7936	; 31
     B1AA 1F00     
2867 B1AC D140  18 	movb r0,r5
2868 B1AE D020  34 	movb @cvb_D,r0
     B1B0 2083     
2869 B1B2 0980  32 	srl r0,8
2870 B1B4 0220  22 	ai r0,array_DDX
     B1B6 20E2     
2871 B1B8 D190  26 	movb *r0,r6
2872 B1BA 0207  20 	li r7,3072
     B1BC 0C00     
2873 B1BE D020  34 	movb @cvb_D,r0
     B1C0 2083     
2874 B1C2 0980  32 	srl r0,8
2875 B1C4 0220  22 	ai r0,array_DCL
     B1C6 20DE     
2876 B1C8 D010  26 	movb *r0,r0
2877 B1CA 06A0  32 	bl @jsr
     B1CC A974     
2878 B1CE A24E     	data update_sprite
2879 B1D0 C03A  30 	mov *r10+,r0
2880 B1D2 0450  20 	b *r0
2881               cv81
2882               	; 	SPRITE 1 + d + d, ddy(d) - 1, ddx(d), 4, dcl(d)
2883 B1D4 D020  34 	movb @cvb_D,r0
     B1D6 2083     
2884 B1D8 0980  32 	srl r0,8
2885 B1DA C040  18 	mov r0,r1
2886 B1DC D020  34 	movb @cvb_D,r0
     B1DE 2083     
2887 B1E0 0980  32 	srl r0,8
2888 B1E2 0580  14 	inc r0
2889 B1E4 A001  18 	a r1,r0
2890 B1E6 0A80  32 	sla r0,8
2891 B1E8 C100  18 	mov r0,r4
2892 B1EA D020  34 	movb @cvb_D,r0
     B1EC 2083     
2893 B1EE 0980  32 	srl r0,8
2894 B1F0 0220  22 	ai r0,array_DDY
     B1F2 20E6     
2895 B1F4 D010  26 	movb *r0,r0
2896 B1F6 0220  22 	ai r0,65280	; -1
     B1F8 FF00     
2897 B1FA D140  18 	movb r0,r5
2898 B1FC D020  34 	movb @cvb_D,r0
     B1FE 2083     
2899 B200 0980  32 	srl r0,8
2900 B202 0220  22 	ai r0,array_DDX
     B204 20E2     
2901 B206 D190  26 	movb *r0,r6
2902 B208 0207  20 	li r7,1024
     B20A 0400     
2903 B20C D020  34 	movb @cvb_D,r0
     B20E 2083     
2904 B210 0980  32 	srl r0,8
2905 B212 0220  22 	ai r0,array_DCL
     B214 20DE     
2906 B216 D010  26 	movb *r0,r0
2907 B218 06A0  32 	bl @jsr
     B21A A974     
2908 B21C A24E     	data update_sprite
2909               	; 	SPRITE 2 + d + d, ddy(d) + 31, ddx(d), 8, dcl(d)
2910 B21E D020  34 	movb @cvb_D,r0
     B220 2083     
2911 B222 0980  32 	srl r0,8
2912 B224 C040  18 	mov r0,r1
2913 B226 D020  34 	movb @cvb_D,r0
     B228 2083     
2914 B22A 0980  32 	srl r0,8
2915 B22C 05C0  14 	inct r0
2916 B22E A001  18 	a r1,r0
2917 B230 0A80  32 	sla r0,8
2918 B232 C100  18 	mov r0,r4
2919 B234 D020  34 	movb @cvb_D,r0
     B236 2083     
2920 B238 0980  32 	srl r0,8
2921 B23A 0220  22 	ai r0,array_DDY
     B23C 20E6     
2922 B23E D010  26 	movb *r0,r0
2923 B240 0220  22 	ai r0,7936	; 31
     B242 1F00     
2924 B244 D140  18 	movb r0,r5
2925 B246 D020  34 	movb @cvb_D,r0
     B248 2083     
2926 B24A 0980  32 	srl r0,8
2927 B24C 0220  22 	ai r0,array_DDX
     B24E 20E2     
2928 B250 D190  26 	movb *r0,r6
2929 B252 0207  20 	li r7,2048
     B254 0800     
2930 B256 D020  34 	movb @cvb_D,r0
     B258 2083     
2931 B25A 0980  32 	srl r0,8
2932 B25C 0220  22 	ai r0,array_DCL
     B25E 20DE     
2933 B260 D010  26 	movb *r0,r0
2934 B262 06A0  32 	bl @jsr
     B264 A974     
2935 B266 A24E     	data update_sprite
2936               	; 	END
2937 B268 C03A  30 	mov *r10+,r0
2938 B26A 0450  20 	b *r0
2939               	;
2940               	; 	' ------------------------------------------------------------
2941               	; 	' drop: the bridge snaps to the 16px block grid vertically so
2942               	; 	' its channel always covers whole wall rows
2943               	; 	' ------------------------------------------------------------
2944               	; dodrop: PROCEDURE
2945               	even
2946               cvb_DODROP
2947               	; 	IF cr = 4 THEN oby(4) = (oby(4) + 8) AND 240
2948 B26C D020  34 	movb @cvb_CR,r0
     B26E 20C2     
2949 B270 0201  20 	li r1,1024   ; 4*256
     B272 0400     
2950 B274 9001  18 	cb r1,r0
2951 B276 1302  14 	jeq cv84
2952 B278 0460  28 	b @cv83
     B27A B290     
2953               cv84
2954 B27C D020  34 	movb @array_OBY+4,r0
     B27E 2112     
2955 B280 0220  22 	ai r0,2048	; 8
     B282 0800     
2956 B284 0201  20 	li r1,61440   ; 240*256
     B286 F000     
2957 B288 0541  14 	inv r1
2958 B28A 5001  18 	szcb r1,r0
2959 B28C D800  38 	movb r0,@array_OBY+4
     B28E 2112     
2960               cv83
2961               	; 	cr = 255 : pkcd = 10 : sfx = 2 : sfc = 4
2962 B290 0200  20 	li r0,65280   ; 255*256
     B292 FF00     
2963 B294 D800  38 	movb r0,@cvb_CR
     B296 20C2     
2964 B298 0200  20 	li r0,2560   ; 10*256
     B29A 0A00     
2965 B29C D800  38 	movb r0,@cvb_PKCD
     B29E 20A4     
2966 B2A0 0200  20 	li r0,512   ; 2*256
     B2A2 0200     
2967 B2A4 D800  38 	movb r0,@cvb_SFX
     B2A6 20D3     
2968 B2A8 0200  20 	li r0,1024   ; 4*256
     B2AA 0400     
2969 B2AC D800  38 	movb r0,@cvb_SFC
     B2AE 20CC     
2970               	; 	END
2971 B2B0 C03A  30 	mov *r10+,r0
2972 B2B2 0450  20 	b *r0
2973               	;
2974               	; 	' ------------------------------------------------------------
2975               	; 	' object sprite: defs 3=key 4=sword 5=chalice 6=bridge
2976               	; 	' 10=magnet 11=dot (dot painted in the background colour)
2977               	; 	' ------------------------------------------------------------
2978               	; drawobj: PROCEDURE
2979               	even
2980               cvb_DRAWOBJ
2981               	; 	t = ocl(i)
2982 B2B4 D020  34 	movb @cvb_I,r0
     B2B6 2086     
2983 B2B8 0980  32 	srl r0,8
2984 B2BA 0220  22 	ai r0,array_OCL
     B2BC 20FE     
2985 B2BE D810  46 	movb *r0,@cvb_T
     B2C0 208B     
2986               	; 	f = 16
2987 B2C2 0200  20 	li r0,4096   ; 16*256
     B2C4 1000     
2988 B2C6 D800  38 	movb r0,@cvb_F
     B2C8 2085     
2989               	; 	IF i = 3 THEN f = 20
2990 B2CA D020  34 	movb @cvb_I,r0
     B2CC 2086     
2991 B2CE 0201  20 	li r1,768   ; 3*256
     B2D0 0300     
2992 B2D2 9001  18 	cb r1,r0
2993 B2D4 1302  14 	jeq cv86
2994 B2D6 0460  28 	b @cv85
     B2D8 B2E2     
2995               cv86
2996 B2DA 0200  20 	li r0,5120   ; 20*256
     B2DC 1400     
2997 B2DE D800  38 	movb r0,@cvb_F
     B2E0 2085     
2998               cv85
2999               	; 	IF i = 4 THEN f = 28
3000 B2E2 D020  34 	movb @cvb_I,r0
     B2E4 2086     
3001 B2E6 0201  20 	li r1,1024   ; 4*256
     B2E8 0400     
3002 B2EA 9001  18 	cb r1,r0
3003 B2EC 1302  14 	jeq cv88
3004 B2EE 0460  28 	b @cv87
     B2F0 B2FA     
3005               cv88
3006 B2F2 0200  20 	li r0,7168   ; 28*256
     B2F4 1C00     
3007 B2F6 D800  38 	movb r0,@cvb_F
     B2F8 2085     
3008               cv87
3009               	; 	IF i = 5 THEN f = 24 : t = (FRAME AND 7) + 8
3010 B2FA D020  34 	movb @cvb_I,r0
     B2FC 2086     
3011 B2FE 0201  20 	li r1,1280   ; 5*256
     B300 0500     
3012 B302 9001  18 	cb r1,r0
3013 B304 1302  14 	jeq cv90
3014 B306 0460  28 	b @cv89
     B308 B328     
3015               cv90
3016 B30A 0200  20 	li r0,6144   ; 24*256
     B30C 1800     
3017 B30E D800  38 	movb r0,@cvb_F
     B310 2085     
3018 B312 C020  30 	mov @frame,r0
     B314 834A     
3019 B316 0A80  32 	sla r0,8
3020 B318 0201  20 	li r1,1792   ; 7*256
     B31A 0700     
3021 B31C 0541  14 	inv r1
3022 B31E 5001  18 	szcb r1,r0
3023 B320 0220  22 	ai r0,2048	; 8
     B322 0800     
3024 B324 D800  38 	movb r0,@cvb_T
     B326 208B     
3025               cv89
3026               	; 	IF i = 6 THEN f = 44
3027 B328 D020  34 	movb @cvb_I,r0
     B32A 2086     
3028 B32C 0201  20 	li r1,1536   ; 6*256
     B32E 0600     
3029 B330 9001  18 	cb r1,r0
3030 B332 1302  14 	jeq cv92
3031 B334 0460  28 	b @cv91
     B336 B340     
3032               cv92
3033 B338 0200  20 	li r0,11264   ; 44*256
     B33A 2C00     
3034 B33C D800  38 	movb r0,@cvb_F
     B33E 2085     
3035               cv91
3036               	; 	IF i = 7 THEN f = 48 : t = cw
3037 B340 D020  34 	movb @cvb_I,r0
     B342 2086     
3038 B344 0201  20 	li r1,1792   ; 7*256
     B346 0700     
3039 B348 9001  18 	cb r1,r0
3040 B34A 1302  14 	jeq cv94
3041 B34C 0460  28 	b @cv93
     B34E B35E     
3042               cv94
3043 B350 0200  20 	li r0,12288   ; 48*256
     B352 3000     
3044 B354 D800  38 	movb r0,@cvb_F
     B356 2085     
3045 B358 D820  54 	movb @cvb_CW,@cvb_T
     B35A 20C4     
     B35C 208B     
3046               cv93
3047               	; 	SPRITE 7 + i, oby(i) - 1, obx(i), f, t
3048 B35E D020  34 	movb @cvb_I,r0
     B360 2086     
3049 B362 0220  22 	ai r0,1792	; 7
     B364 0700     
3050 B366 C100  18 	mov r0,r4
3051 B368 D020  34 	movb @cvb_I,r0
     B36A 2086     
3052 B36C 0980  32 	srl r0,8
3053 B36E 0220  22 	ai r0,array_OBY
     B370 210E     
3054 B372 D010  26 	movb *r0,r0
3055 B374 0220  22 	ai r0,65280	; -1
     B376 FF00     
3056 B378 D140  18 	movb r0,r5
3057 B37A D020  34 	movb @cvb_I,r0
     B37C 2086     
3058 B37E 0980  32 	srl r0,8
3059 B380 0220  22 	ai r0,array_OBX
     B382 2106     
3060 B384 D190  26 	movb *r0,r6
3061 B386 D1E0  34 	movb @cvb_F,r7
     B388 2085     
3062 B38A D020  34 	movb @cvb_T,r0
     B38C 208B     
3063 B38E 06A0  32 	bl @jsr
     B390 A974     
3064 B392 A24E     	data update_sprite
3065               	; 	END
3066 B394 C03A  30 	mov *r10+,r0
3067 B396 0450  20 	b *r0
3068               	;
3069               	; 	' ------------------------------------------------------------
3070               	; 	' movement: 3px steps, screen-edge exits, box-vs-wall test,
3071               	; 	' bridge channel exemption
3072               	; 	' ------------------------------------------------------------
3073               	; mvleft: PROCEDURE
3074               	even
3075               cvb_MVLEFT
3076               	; 	IF rmch = 1 THEN RETURN
3077 B398 D020  34 	movb @cvb_RMCH,r0
     B39A 2091     
3078 B39C 0201  20 	li r1,256   ; 1*256
     B39E 0100     
3079 B3A0 9001  18 	cb r1,r0
3080 B3A2 1302  14 	jeq cv96
3081 B3A4 0460  28 	b @cv95
     B3A6 B3AC     
3082               cv96
3083 B3A8 C03A  30 	mov *r10+,r0
3084 B3AA 0450  20 	b *r0
3085               cv95
3086               	; 	IF px < 3 THEN GOSUB gowest : RETURN
3087 B3AC D020  34 	movb @cvb_PX,r0
     B3AE 20D0     
3088 B3B0 0201  20 	li r1,768   ; 3*256
     B3B2 0300     
3089 B3B4 9040  18 	cb r0,r1
3090 B3B6 1A02  14 	jl cv98
3091 B3B8 0460  28 	b @cv97
     B3BA B3C6     
3092               cv98
3093 B3BC 06A0  32 	bl @jsr
     B3BE A974     
3094 B3C0 B840     	data cvb_GOWEST
3095 B3C2 C03A  30 	mov *r10+,r0
3096 B3C4 0450  20 	b *r0
3097               cv97
3098               	; 	x0 = px - 3 : y0 = py : bw = 7 : bh = 7
3099 B3C6 D020  34 	movb @cvb_PX,r0
     B3C8 20D0     
3100 B3CA 0220  22 	ai r0,64768	; -3
     B3CC FD00     
3101 B3CE D800  38 	movb r0,@cvb_X0
     B3D0 20DA     
3102 B3D2 D820  54 	movb @cvb_PY,@cvb_Y0
     B3D4 20D1     
     B3D6 20DC     
3103 B3D8 0200  20 	li r0,1792   ; 7*256
     B3DA 0700     
3104 B3DC D800  38 	movb r0,@cvb_BW
     B3DE 20C1     
3105 B3E0 0200  20 	li r0,1792   ; 7*256
     B3E2 0700     
3106 B3E4 D800  38 	movb r0,@cvb_BH
     B3E6 20BE     
3107               	; 	GOSUB chkbox
3108 B3E8 06A0  32 	bl @jsr
     B3EA A974     
3109 B3EC CFD2     	data cvb_CHKBOX
3110               	; 	IF bf = 1 THEN GOSUB brchk : IF brf = 1 THEN bf = 0
3111 B3EE D020  34 	movb @cvb_BF,r0
     B3F0 20BD     
3112 B3F2 0201  20 	li r1,256   ; 1*256
     B3F4 0100     
3113 B3F6 9001  18 	cb r1,r0
3114 B3F8 1302  14 	jeq cv100
3115 B3FA 0460  28 	b @cv99
     B3FC B41A     
3116               cv100
3117 B3FE 06A0  32 	bl @jsr
     B400 A974     
3118 B402 B768     	data cvb_BRCHK
3119 B404 D020  34 	movb @cvb_BRF,r0
     B406 2090     
3120 B408 0201  20 	li r1,256   ; 1*256
     B40A 0100     
3121 B40C 9001  18 	cb r1,r0
3122 B40E 1302  14 	jeq cv102
3123 B410 0460  28 	b @cv101
     B412 B41A     
3124               cv102
3125 B414 04C0  14 	clr r0
3126 B416 D800  38 	movb r0,@cvb_BF
     B418 20BD     
3127               cv101
3128               cv99
3129               	; 	IF bf = 1 THEN GOSUB hassist
3130 B41A D020  34 	movb @cvb_BF,r0
     B41C 20BD     
3131 B41E 0201  20 	li r1,256   ; 1*256
     B420 0100     
3132 B422 9001  18 	cb r1,r0
3133 B424 1302  14 	jeq cv104
3134 B426 0460  28 	b @cv103
     B428 B430     
3135               cv104
3136 B42A 06A0  32 	bl @jsr
     B42C A974     
3137 B42E B6D8     	data cvb_HASSIST
3138               cv103
3139               	; 	IF bf = 0 THEN px = x0
3140 B430 D020  34 	movb @cvb_BF,r0
     B432 20BD     
3141 B434 1302  14 	jeq cv106
3142 B436 0460  28 	b @cv105
     B438 B440     
3143               cv106
3144 B43A D820  54 	movb @cvb_X0,@cvb_PX
     B43C 20DA     
     B43E 20D0     
3145               cv105
3146               	; 	END
3147 B440 C03A  30 	mov *r10+,r0
3148 B442 0450  20 	b *r0
3149               	;
3150               	; mvright: PROCEDURE
3151               	even
3152               cvb_MVRIGHT
3153               	; 	IF rmch = 1 THEN RETURN
3154 B444 D020  34 	movb @cvb_RMCH,r0
     B446 2091     
3155 B448 0201  20 	li r1,256   ; 1*256
     B44A 0100     
3156 B44C 9001  18 	cb r1,r0
3157 B44E 1302  14 	jeq cv108
3158 B450 0460  28 	b @cv107
     B452 B458     
3159               cv108
3160 B454 C03A  30 	mov *r10+,r0
3161 B456 0450  20 	b *r0
3162               cv107
3163               	; 	IF px > 244 THEN GOSUB goeast : RETURN
3164 B458 D020  34 	movb @cvb_PX,r0
     B45A 20D0     
3165 B45C 0201  20 	li r1,62720   ; 245*256
     B45E F500     
3166 B460 9040  18 	cb r0,r1
3167 B462 1402  14 	jhe cv110
3168 B464 0460  28 	b @cv109
     B466 B472     
3169               cv110
3170 B468 06A0  32 	bl @jsr
     B46A A974     
3171 B46C B87A     	data cvb_GOEAST
3172 B46E C03A  30 	mov *r10+,r0
3173 B470 0450  20 	b *r0
3174               cv109
3175               	; 	x0 = px + 3 : y0 = py : bw = 7 : bh = 7
3176 B472 D020  34 	movb @cvb_PX,r0
     B474 20D0     
3177 B476 0220  22 	ai r0,768	; 3
     B478 0300     
3178 B47A D800  38 	movb r0,@cvb_X0
     B47C 20DA     
3179 B47E D820  54 	movb @cvb_PY,@cvb_Y0
     B480 20D1     
     B482 20DC     
3180 B484 0200  20 	li r0,1792   ; 7*256
     B486 0700     
3181 B488 D800  38 	movb r0,@cvb_BW
     B48A 20C1     
3182 B48C 0200  20 	li r0,1792   ; 7*256
     B48E 0700     
3183 B490 D800  38 	movb r0,@cvb_BH
     B492 20BE     
3184               	; 	GOSUB chkbox
3185 B494 06A0  32 	bl @jsr
     B496 A974     
3186 B498 CFD2     	data cvb_CHKBOX
3187               	; 	IF bf = 1 THEN GOSUB brchk : IF brf = 1 THEN bf = 0
3188 B49A D020  34 	movb @cvb_BF,r0
     B49C 20BD     
3189 B49E 0201  20 	li r1,256   ; 1*256
     B4A0 0100     
3190 B4A2 9001  18 	cb r1,r0
3191 B4A4 1302  14 	jeq cv112
3192 B4A6 0460  28 	b @cv111
     B4A8 B4C6     
3193               cv112
3194 B4AA 06A0  32 	bl @jsr
     B4AC A974     
3195 B4AE B768     	data cvb_BRCHK
3196 B4B0 D020  34 	movb @cvb_BRF,r0
     B4B2 2090     
3197 B4B4 0201  20 	li r1,256   ; 1*256
     B4B6 0100     
3198 B4B8 9001  18 	cb r1,r0
3199 B4BA 1302  14 	jeq cv114
3200 B4BC 0460  28 	b @cv113
     B4BE B4C6     
3201               cv114
3202 B4C0 04C0  14 	clr r0
3203 B4C2 D800  38 	movb r0,@cvb_BF
     B4C4 20BD     
3204               cv113
3205               cv111
3206               	; 	IF bf = 1 THEN GOSUB hassist
3207 B4C6 D020  34 	movb @cvb_BF,r0
     B4C8 20BD     
3208 B4CA 0201  20 	li r1,256   ; 1*256
     B4CC 0100     
3209 B4CE 9001  18 	cb r1,r0
3210 B4D0 1302  14 	jeq cv116
3211 B4D2 0460  28 	b @cv115
     B4D4 B4DC     
3212               cv116
3213 B4D6 06A0  32 	bl @jsr
     B4D8 A974     
3214 B4DA B6D8     	data cvb_HASSIST
3215               cv115
3216               	; 	IF bf = 0 THEN px = x0
3217 B4DC D020  34 	movb @cvb_BF,r0
     B4DE 20BD     
3218 B4E0 1302  14 	jeq cv118
3219 B4E2 0460  28 	b @cv117
     B4E4 B4EC     
3220               cv118
3221 B4E6 D820  54 	movb @cvb_X0,@cvb_PX
     B4E8 20DA     
     B4EA 20D0     
3222               cv117
3223               	; 	END
3224 B4EC C03A  30 	mov *r10+,r0
3225 B4EE 0450  20 	b *r0
3226               	;
3227               	; mvup: PROCEDURE
3228               	even
3229               cvb_MVUP
3230               	; 	IF rmch = 1 THEN RETURN
3231 B4F0 D020  34 	movb @cvb_RMCH,r0
     B4F2 2091     
3232 B4F4 0201  20 	li r1,256   ; 1*256
     B4F6 0100     
3233 B4F8 9001  18 	cb r1,r0
3234 B4FA 1302  14 	jeq cv120
3235 B4FC 0460  28 	b @cv119
     B4FE B504     
3236               cv120
3237 B500 C03A  30 	mov *r10+,r0
3238 B502 0450  20 	b *r0
3239               cv119
3240               	; 	IF py < 3 THEN GOSUB gonorth : RETURN
3241 B504 D020  34 	movb @cvb_PY,r0
     B506 20D1     
3242 B508 0201  20 	li r1,768   ; 3*256
     B50A 0300     
3243 B50C 9040  18 	cb r0,r1
3244 B50E 1A02  14 	jl cv122
3245 B510 0460  28 	b @cv121
     B512 B51E     
3246               cv122
3247 B514 06A0  32 	bl @jsr
     B516 A974     
3248 B518 B952     	data cvb_GONORTH
3249 B51A C03A  30 	mov *r10+,r0
3250 B51C 0450  20 	b *r0
3251               cv121
3252               	; 	x0 = px : y0 = py - 3 : bw = 7 : bh = 7
3253 B51E D820  54 	movb @cvb_PX,@cvb_X0
     B520 20D0     
     B522 20DA     
3254 B524 D020  34 	movb @cvb_PY,r0
     B526 20D1     
3255 B528 0220  22 	ai r0,64768	; -3
     B52A FD00     
3256 B52C D800  38 	movb r0,@cvb_Y0
     B52E 20DC     
3257 B530 0200  20 	li r0,1792   ; 7*256
     B532 0700     
3258 B534 D800  38 	movb r0,@cvb_BW
     B536 20C1     
3259 B538 0200  20 	li r0,1792   ; 7*256
     B53A 0700     
3260 B53C D800  38 	movb r0,@cvb_BH
     B53E 20BE     
3261               	; 	GOSUB chkbox
3262 B540 06A0  32 	bl @jsr
     B542 A974     
3263 B544 CFD2     	data cvb_CHKBOX
3264               	; 	IF bf = 1 THEN GOSUB brchk : IF brf = 1 THEN bf = 0
3265 B546 D020  34 	movb @cvb_BF,r0
     B548 20BD     
3266 B54A 0201  20 	li r1,256   ; 1*256
     B54C 0100     
3267 B54E 9001  18 	cb r1,r0
3268 B550 1302  14 	jeq cv124
3269 B552 0460  28 	b @cv123
     B554 B572     
3270               cv124
3271 B556 06A0  32 	bl @jsr
     B558 A974     
3272 B55A B768     	data cvb_BRCHK
3273 B55C D020  34 	movb @cvb_BRF,r0
     B55E 2090     
3274 B560 0201  20 	li r1,256   ; 1*256
     B562 0100     
3275 B564 9001  18 	cb r1,r0
3276 B566 1302  14 	jeq cv126
3277 B568 0460  28 	b @cv125
     B56A B572     
3278               cv126
3279 B56C 04C0  14 	clr r0
3280 B56E D800  38 	movb r0,@cvb_BF
     B570 20BD     
3281               cv125
3282               cv123
3283               	; 	IF bf = 1 THEN GOSUB vassist
3284 B572 D020  34 	movb @cvb_BF,r0
     B574 20BD     
3285 B576 0201  20 	li r1,256   ; 1*256
     B578 0100     
3286 B57A 9001  18 	cb r1,r0
3287 B57C 1302  14 	jeq cv128
3288 B57E 0460  28 	b @cv127
     B580 B588     
3289               cv128
3290 B582 06A0  32 	bl @jsr
     B584 A974     
3291 B586 B648     	data cvb_VASSIST
3292               cv127
3293               	; 	IF bf = 0 THEN py = y0
3294 B588 D020  34 	movb @cvb_BF,r0
     B58A 20BD     
3295 B58C 1302  14 	jeq cv130
3296 B58E 0460  28 	b @cv129
     B590 B598     
3297               cv130
3298 B592 D820  54 	movb @cvb_Y0,@cvb_PY
     B594 20DC     
     B596 20D1     
3299               cv129
3300               	; 	END
3301 B598 C03A  30 	mov *r10+,r0
3302 B59A 0450  20 	b *r0
3303               	;
3304               	; mvdown: PROCEDURE
3305               	even
3306               cvb_MVDOWN
3307               	; 	IF rmch = 1 THEN RETURN
3308 B59C D020  34 	movb @cvb_RMCH,r0
     B59E 2091     
3309 B5A0 0201  20 	li r1,256   ; 1*256
     B5A2 0100     
3310 B5A4 9001  18 	cb r1,r0
3311 B5A6 1302  14 	jeq cv132
3312 B5A8 0460  28 	b @cv131
     B5AA B5B0     
3313               cv132
3314 B5AC C03A  30 	mov *r10+,r0
3315 B5AE 0450  20 	b *r0
3316               cv131
3317               	; 	IF py > 181 THEN GOSUB gosouth : RETURN
3318 B5B0 D020  34 	movb @cvb_PY,r0
     B5B2 20D1     
3319 B5B4 0201  20 	li r1,46592   ; 182*256
     B5B6 B600     
3320 B5B8 9040  18 	cb r0,r1
3321 B5BA 1402  14 	jhe cv134
3322 B5BC 0460  28 	b @cv133
     B5BE B5CA     
3323               cv134
3324 B5C0 06A0  32 	bl @jsr
     B5C2 A974     
3325 B5C4 B986     	data cvb_GOSOUTH
3326 B5C6 C03A  30 	mov *r10+,r0
3327 B5C8 0450  20 	b *r0
3328               cv133
3329               	; 	x0 = px : y0 = py + 3 : bw = 7 : bh = 7
3330 B5CA D820  54 	movb @cvb_PX,@cvb_X0
     B5CC 20D0     
     B5CE 20DA     
3331 B5D0 D020  34 	movb @cvb_PY,r0
     B5D2 20D1     
3332 B5D4 0220  22 	ai r0,768	; 3
     B5D6 0300     
3333 B5D8 D800  38 	movb r0,@cvb_Y0
     B5DA 20DC     
3334 B5DC 0200  20 	li r0,1792   ; 7*256
     B5DE 0700     
3335 B5E0 D800  38 	movb r0,@cvb_BW
     B5E2 20C1     
3336 B5E4 0200  20 	li r0,1792   ; 7*256
     B5E6 0700     
3337 B5E8 D800  38 	movb r0,@cvb_BH
     B5EA 20BE     
3338               	; 	GOSUB chkbox
3339 B5EC 06A0  32 	bl @jsr
     B5EE A974     
3340 B5F0 CFD2     	data cvb_CHKBOX
3341               	; 	IF bf = 1 THEN GOSUB brchk : IF brf = 1 THEN bf = 0
3342 B5F2 D020  34 	movb @cvb_BF,r0
     B5F4 20BD     
3343 B5F6 0201  20 	li r1,256   ; 1*256
     B5F8 0100     
3344 B5FA 9001  18 	cb r1,r0
3345 B5FC 1302  14 	jeq cv136
3346 B5FE 0460  28 	b @cv135
     B600 B61E     
3347               cv136
3348 B602 06A0  32 	bl @jsr
     B604 A974     
3349 B606 B768     	data cvb_BRCHK
3350 B608 D020  34 	movb @cvb_BRF,r0
     B60A 2090     
3351 B60C 0201  20 	li r1,256   ; 1*256
     B60E 0100     
3352 B610 9001  18 	cb r1,r0
3353 B612 1302  14 	jeq cv138
3354 B614 0460  28 	b @cv137
     B616 B61E     
3355               cv138
3356 B618 04C0  14 	clr r0
3357 B61A D800  38 	movb r0,@cvb_BF
     B61C 20BD     
3358               cv137
3359               cv135
3360               	; 	IF bf = 1 THEN GOSUB vassist
3361 B61E D020  34 	movb @cvb_BF,r0
     B620 20BD     
3362 B622 0201  20 	li r1,256   ; 1*256
     B624 0100     
3363 B626 9001  18 	cb r1,r0
3364 B628 1302  14 	jeq cv140
3365 B62A 0460  28 	b @cv139
     B62C B634     
3366               cv140
3367 B62E 06A0  32 	bl @jsr
     B630 A974     
3368 B632 B648     	data cvb_VASSIST
3369               cv139
3370               	; 	IF bf = 0 THEN py = y0
3371 B634 D020  34 	movb @cvb_BF,r0
     B636 20BD     
3372 B638 1302  14 	jeq cv142
3373 B63A 0460  28 	b @cv141
     B63C B644     
3374               cv142
3375 B63E D820  54 	movb @cvb_Y0,@cvb_PY
     B640 20DC     
     B642 20D1     
3376               cv141
3377               	; 	END
3378 B644 C03A  30 	mov *r10+,r0
3379 B646 0450  20 	b *r0
3380               	;
3381               	; 	' ------------------------------------------------------------
3382               	; 	' doorway assist: 3px steps make lining an 8px square up with
3383               	; 	' a 16px gap fiddly, so when a move is blocked we nudge the
3384               	; 	' player (max 4px) onto the cell grid if that clears the way
3385               	; 	' ------------------------------------------------------------
3386               	; vassist: PROCEDURE
3387               	even
3388               cvb_VASSIST
3389               	; 	t = (px + 4) AND 248
3390 B648 D020  34 	movb @cvb_PX,r0
     B64A 20D0     
3391 B64C 0220  22 	ai r0,1024	; 4
     B64E 0400     
3392 B650 0201  20 	li r1,63488   ; 248*256
     B652 F800     
3393 B654 0541  14 	inv r1
3394 B656 5001  18 	szcb r1,r0
3395 B658 D800  38 	movb r0,@cvb_T
     B65A 208B     
3396               	; 	IF t = px THEN RETURN
3397 B65C 9020  34 	cb @cvb_PX,r0
     B65E 20D0     
3398 B660 1302  14 	jeq cv144
3399 B662 0460  28 	b @cv143
     B664 B66A     
3400               cv144
3401 B666 C03A  30 	mov *r10+,r0
3402 B668 0450  20 	b *r0
3403               cv143
3404               	; 	IF t > px THEN t2 = t - px ELSE t2 = px - t
3405 B66A D020  34 	movb @cvb_PX,r0
     B66C 20D0     
3406 B66E 9800  34 	cb r0,@cvb_T
     B670 208B     
3407 B672 1A02  14 	jl cv146
3408 B674 0460  28 	b @cv145
     B676 B688     
3409               cv146
3410 B678 D020  34 	movb @cvb_T,r0
     B67A 208B     
3411 B67C 7020  34 	sb @cvb_PX,r0
     B67E 20D0     
3412 B680 D800  38 	movb r0,@cvb_T2
     B682 20D2     
3413 B684 0460  28 	b @cv147
     B686 B694     
3414               cv145
3415 B688 D020  34 	movb @cvb_PX,r0
     B68A 20D0     
3416 B68C 7020  34 	sb @cvb_T,r0
     B68E 208B     
3417 B690 D800  38 	movb r0,@cvb_T2
     B692 20D2     
3418               cv147
3419               	; 	IF t2 > 4 THEN RETURN
3420 B694 D020  34 	movb @cvb_T2,r0
     B696 20D2     
3421 B698 0201  20 	li r1,1280   ; 5*256
     B69A 0500     
3422 B69C 9040  18 	cb r0,r1
3423 B69E 1402  14 	jhe cv149
3424 B6A0 0460  28 	b @cv148
     B6A2 B6A8     
3425               cv149
3426 B6A4 C03A  30 	mov *r10+,r0
3427 B6A6 0450  20 	b *r0
3428               cv148
3429               	; 	x0 = t
3430 B6A8 D820  54 	movb @cvb_T,@cvb_X0
     B6AA 208B     
     B6AC 20DA     
3431               	; 	GOSUB chkbox
3432 B6AE 06A0  32 	bl @jsr
     B6B0 A974     
3433 B6B2 CFD2     	data cvb_CHKBOX
3434               	; 	IF bf = 1 THEN x0 = px : RETURN
3435 B6B4 D020  34 	movb @cvb_BF,r0
     B6B6 20BD     
3436 B6B8 0201  20 	li r1,256   ; 1*256
     B6BA 0100     
3437 B6BC 9001  18 	cb r1,r0
3438 B6BE 1302  14 	jeq cv151
3439 B6C0 0460  28 	b @cv150
     B6C2 B6CE     
3440               cv151
3441 B6C4 D820  54 	movb @cvb_PX,@cvb_X0
     B6C6 20D0     
     B6C8 20DA     
3442 B6CA C03A  30 	mov *r10+,r0
3443 B6CC 0450  20 	b *r0
3444               cv150
3445               	; 	px = t
3446 B6CE D820  54 	movb @cvb_T,@cvb_PX
     B6D0 208B     
     B6D2 20D0     
3447               	; 	END
3448 B6D4 C03A  30 	mov *r10+,r0
3449 B6D6 0450  20 	b *r0
3450               	;
3451               	; hassist: PROCEDURE
3452               	even
3453               cvb_HASSIST
3454               	; 	t = (py + 4) AND 248
3455 B6D8 D020  34 	movb @cvb_PY,r0
     B6DA 20D1     
3456 B6DC 0220  22 	ai r0,1024	; 4
     B6DE 0400     
3457 B6E0 0201  20 	li r1,63488   ; 248*256
     B6E2 F800     
3458 B6E4 0541  14 	inv r1
3459 B6E6 5001  18 	szcb r1,r0
3460 B6E8 D800  38 	movb r0,@cvb_T
     B6EA 208B     
3461               	; 	IF t = py THEN RETURN
3462 B6EC 9020  34 	cb @cvb_PY,r0
     B6EE 20D1     
3463 B6F0 1302  14 	jeq cv153
3464 B6F2 0460  28 	b @cv152
     B6F4 B6FA     
3465               cv153
3466 B6F6 C03A  30 	mov *r10+,r0
3467 B6F8 0450  20 	b *r0
3468               cv152
3469               	; 	IF t > py THEN t2 = t - py ELSE t2 = py - t
3470 B6FA D020  34 	movb @cvb_PY,r0
     B6FC 20D1     
3471 B6FE 9800  34 	cb r0,@cvb_T
     B700 208B     
3472 B702 1A02  14 	jl cv155
3473 B704 0460  28 	b @cv154
     B706 B718     
3474               cv155
3475 B708 D020  34 	movb @cvb_T,r0
     B70A 208B     
3476 B70C 7020  34 	sb @cvb_PY,r0
     B70E 20D1     
3477 B710 D800  38 	movb r0,@cvb_T2
     B712 20D2     
3478 B714 0460  28 	b @cv156
     B716 B724     
3479               cv154
3480 B718 D020  34 	movb @cvb_PY,r0
     B71A 20D1     
3481 B71C 7020  34 	sb @cvb_T,r0
     B71E 208B     
3482 B720 D800  38 	movb r0,@cvb_T2
     B722 20D2     
3483               cv156
3484               	; 	IF t2 > 4 THEN RETURN
3485 B724 D020  34 	movb @cvb_T2,r0
     B726 20D2     
3486 B728 0201  20 	li r1,1280   ; 5*256
     B72A 0500     
3487 B72C 9040  18 	cb r0,r1
3488 B72E 1402  14 	jhe cv158
3489 B730 0460  28 	b @cv157
     B732 B738     
3490               cv158
3491 B734 C03A  30 	mov *r10+,r0
3492 B736 0450  20 	b *r0
3493               cv157
3494               	; 	y0 = t
3495 B738 D820  54 	movb @cvb_T,@cvb_Y0
     B73A 208B     
     B73C 20DC     
3496               	; 	GOSUB chkbox
3497 B73E 06A0  32 	bl @jsr
     B740 A974     
3498 B742 CFD2     	data cvb_CHKBOX
3499               	; 	IF bf = 1 THEN y0 = py : RETURN
3500 B744 D020  34 	movb @cvb_BF,r0
     B746 20BD     
3501 B748 0201  20 	li r1,256   ; 1*256
     B74A 0100     
3502 B74C 9001  18 	cb r1,r0
3503 B74E 1302  14 	jeq cv160
3504 B750 0460  28 	b @cv159
     B752 B75E     
3505               cv160
3506 B754 D820  54 	movb @cvb_PY,@cvb_Y0
     B756 20D1     
     B758 20DC     
3507 B75A C03A  30 	mov *r10+,r0
3508 B75C 0450  20 	b *r0
3509               cv159
3510               	; 	py = t
3511 B75E D820  54 	movb @cvb_T,@cvb_PY
     B760 208B     
     B762 20D1     
3512               	; 	END
3513 B764 C03A  30 	mov *r10+,r0
3514 B766 0450  20 	b *r0
3515               	;
3516               	; brchk: PROCEDURE
3517               	even
3518               cvb_BRCHK
3519               	; 	' bridge passage: the target box lies inside the channel of the
3520               	; 	' bridge (lying in this room, not carried, never over a gate)
3521               	; 	brf = 0
3522 B768 04C0  14 	clr r0
3523 B76A D800  38 	movb r0,@cvb_BRF
     B76C 2090     
3524               	; 	IF orm(4) <> rn THEN RETURN
3525 B76E D020  34 	movb @array_ORM+4,r0
     B770 211E     
3526 B772 9020  34 	cb @cvb_RN,r0
     B774 20D4     
3527 B776 1602  14 	jne cv162
3528 B778 0460  28 	b @cv161
     B77A B780     
3529               cv162
3530 B77C C03A  30 	mov *r10+,r0
3531 B77E 0450  20 	b *r0
3532               cv161
3533               	; 	IF cr = 4 THEN RETURN
3534 B780 D020  34 	movb @cvb_CR,r0
     B782 20C2     
3535 B784 0201  20 	li r1,1024   ; 4*256
     B786 0400     
3536 B788 9001  18 	cb r1,r0
3537 B78A 1302  14 	jeq cv164
3538 B78C 0460  28 	b @cv163
     B78E B794     
3539               cv164
3540 B790 C03A  30 	mov *r10+,r0
3541 B792 0450  20 	b *r0
3542               cv163
3543               	; 	IF gz > 0 THEN RETURN
3544 B794 D020  34 	movb @cvb_GZ,r0
     B796 20CA     
3545 B798 0201  20 	li r1,256   ; 1*256
     B79A 0100     
3546 B79C 9040  18 	cb r0,r1
3547 B79E 1402  14 	jhe cv166
3548 B7A0 0460  28 	b @cv165
     B7A2 B7A8     
3549               cv166
3550 B7A4 C03A  30 	mov *r10+,r0
3551 B7A6 0450  20 	b *r0
3552               cv165
3553               	; 	' passage keeps a 2px margin off the rails so walking through
3554               	; 	' never counts as touching (= grabbing) them
3555               	; 	IF x0 < obx(4) + 6 THEN RETURN
3556 B7A8 D020  34 	movb @array_OBX+4,r0
     B7AA 210A     
3557 B7AC 0980  32 	srl r0,8
3558 B7AE 0220  22 	ai r0,6
     B7B0 0006     
3559 B7B2 C040  18 	mov r0,r1
3560 B7B4 D020  34 	movb @cvb_X0,r0
     B7B6 20DA     
3561 B7B8 0980  32 	srl r0,8
3562 B7BA 8040  18 	c r0,r1
3563 B7BC 1A02  14 	jl cv168
3564 B7BE 0460  28 	b @cv167
     B7C0 B7C6     
3565               cv168
3566 B7C2 C03A  30 	mov *r10+,r0
3567 B7C4 0450  20 	b *r0
3568               cv167
3569               	; 	#ax = obx(4) + 25
3570 B7C6 D020  34 	movb @array_OBX+4,r0
     B7C8 210A     
3571 B7CA 0980  32 	srl r0,8
3572 B7CC 0220  22 	ai r0,25
     B7CE 0019     
3573 B7D0 C800  38 	mov r0,@cvb__AX
     B7D2 20AE     
3574               	; 	IF x0 + 7 > #ax THEN RETURN
3575 B7D4 D020  34 	movb @cvb_X0,r0
     B7D6 20DA     
3576 B7D8 0980  32 	srl r0,8
3577 B7DA 0220  22 	ai r0,7
     B7DC 0007     
3578 B7DE C040  18 	mov r0,r1
3579 B7E0 C020  34 	mov @cvb__AX,r0
     B7E2 20AE     
3580 B7E4 8040  18 	c r0,r1
3581 B7E6 1A02  14 	jl cv170
3582 B7E8 0460  28 	b @cv169
     B7EA B7F0     
3583               cv170
3584 B7EC C03A  30 	mov *r10+,r0
3585 B7EE 0450  20 	b *r0
3586               cv169
3587               	; 	IF y0 + 7 < oby(4) THEN RETURN
3588 B7F0 D020  34 	movb @array_OBY+4,r0
     B7F2 2112     
3589 B7F4 0980  32 	srl r0,8
3590 B7F6 C040  18 	mov r0,r1
3591 B7F8 D020  34 	movb @cvb_Y0,r0
     B7FA 20DC     
3592 B7FC 0980  32 	srl r0,8
3593 B7FE 0220  22 	ai r0,7
     B800 0007     
3594 B802 8040  18 	c r0,r1
3595 B804 1A02  14 	jl cv172
3596 B806 0460  28 	b @cv171
     B808 B80E     
3597               cv172
3598 B80A C03A  30 	mov *r10+,r0
3599 B80C 0450  20 	b *r0
3600               cv171
3601               	; 	#ax = oby(4) + 31
3602 B80E D020  34 	movb @array_OBY+4,r0
     B810 2112     
3603 B812 0980  32 	srl r0,8
3604 B814 0220  22 	ai r0,31
     B816 001F     
3605 B818 C800  38 	mov r0,@cvb__AX
     B81A 20AE     
3606               	; 	IF y0 > #ax THEN RETURN
3607 B81C D020  34 	movb @cvb_Y0,r0
     B81E 20DC     
3608 B820 0980  32 	srl r0,8
3609 B822 C040  18 	mov r0,r1
3610 B824 C020  34 	mov @cvb__AX,r0
     B826 20AE     
3611 B828 8040  18 	c r0,r1
3612 B82A 1A02  14 	jl cv174
3613 B82C 0460  28 	b @cv173
     B82E B834     
3614               cv174
3615 B830 C03A  30 	mov *r10+,r0
3616 B832 0450  20 	b *r0
3617               cv173
3618               	; 	brf = 1
3619 B834 0200  20 	li r0,256   ; 1*256
     B836 0100     
3620 B838 D800  38 	movb r0,@cvb_BRF
     B83A 2090     
3621               	; 	END
3622 B83C C03A  30 	mov *r10+,r0
3623 B83E 0450  20 	b *r0
3624               	;
3625               	; gowest: PROCEDURE
3626               	even
3627               cvb_GOWEST
3628               	; 	IF pw = 255 THEN RETURN
3629 B840 D020  34 	movb @cvb_PW,r0
     B842 20CF     
3630 B844 0201  20 	li r1,65280   ; 255*256
     B846 FF00     
3631 B848 9001  18 	cb r1,r0
3632 B84A 1302  14 	jeq cv176
3633 B84C 0460  28 	b @cv175
     B84E B854     
3634               cv176
3635 B850 C03A  30 	mov *r10+,r0
3636 B852 0450  20 	b *r0
3637               cv175
3638               	; 	rn = pw : px = 244 : rmch = 1
3639 B854 D820  54 	movb @cvb_PW,@cvb_RN
     B856 20CF     
     B858 20D4     
3640 B85A 0200  20 	li r0,62464   ; 244*256
     B85C F400     
3641 B85E D800  38 	movb r0,@cvb_PX
     B860 20D0     
3642 B862 0200  20 	li r0,256   ; 1*256
     B864 0100     
3643 B866 D800  38 	movb r0,@cvb_RMCH
     B868 2091     
3644               	; 	GOSUB enterroom
3645 B86A 06A0  32 	bl @jsr
     B86C A974     
3646 B86E D174     	data cvb_ENTERROOM
3647               	; 	GOSUB ewsnap
3648 B870 06A0  32 	bl @jsr
     B872 A974     
3649 B874 B8B4     	data cvb_EWSNAP
3650               	; 	END
3651 B876 C03A  30 	mov *r10+,r0
3652 B878 0450  20 	b *r0
3653               	;
3654               	; goeast: PROCEDURE
3655               	even
3656               cvb_GOEAST
3657               	; 	IF pe = 255 THEN RETURN
3658 B87A D020  34 	movb @cvb_PE,r0
     B87C 20CB     
3659 B87E 0201  20 	li r1,65280   ; 255*256
     B880 FF00     
3660 B882 9001  18 	cb r1,r0
3661 B884 1302  14 	jeq cv178
3662 B886 0460  28 	b @cv177
     B888 B88E     
3663               cv178
3664 B88A C03A  30 	mov *r10+,r0
3665 B88C 0450  20 	b *r0
3666               cv177
3667               	; 	rn = pe : px = 4 : rmch = 1
3668 B88E D820  54 	movb @cvb_PE,@cvb_RN
     B890 20CB     
     B892 20D4     
3669 B894 0200  20 	li r0,1024   ; 4*256
     B896 0400     
3670 B898 D800  38 	movb r0,@cvb_PX
     B89A 20D0     
3671 B89C 0200  20 	li r0,256   ; 1*256
     B89E 0100     
3672 B8A0 D800  38 	movb r0,@cvb_RMCH
     B8A2 2091     
3673               	; 	GOSUB enterroom
3674 B8A4 06A0  32 	bl @jsr
     B8A6 A974     
3675 B8A8 D174     	data cvb_ENTERROOM
3676               	; 	GOSUB ewsnap
3677 B8AA 06A0  32 	bl @jsr
     B8AC A974     
3678 B8AE B8B4     	data cvb_EWSNAP
3679               	; 	END
3680 B8B0 C03A  30 	mov *r10+,r0
3681 B8B2 0450  20 	b *r0
3682               	;
3683               	; ewsnap: PROCEDURE
3684               	even
3685               cvb_EWSNAP
3686               	; 	' a full-height corridor edge can exit at a row where the
3687               	; 	' next room's edge is walled - snap to its rows-5/6 doorway,
3688               	; 	' and if even that is walled, pull one block inward
3689               	; 	x0 = px : y0 = py : bw = 7 : bh = 7
3690 B8B4 D820  54 	movb @cvb_PX,@cvb_X0
     B8B6 20D0     
     B8B8 20DA     
3691 B8BA D820  54 	movb @cvb_PY,@cvb_Y0
     B8BC 20D1     
     B8BE 20DC     
3692 B8C0 0200  20 	li r0,1792   ; 7*256
     B8C2 0700     
3693 B8C4 D800  38 	movb r0,@cvb_BW
     B8C6 20C1     
3694 B8C8 0200  20 	li r0,1792   ; 7*256
     B8CA 0700     
3695 B8CC D800  38 	movb r0,@cvb_BH
     B8CE 20BE     
3696               	; 	GOSUB chkbox
3697 B8D0 06A0  32 	bl @jsr
     B8D2 A974     
3698 B8D4 CFD2     	data cvb_CHKBOX
3699               	; 	IF bf = 0 THEN RETURN
3700 B8D6 D020  34 	movb @cvb_BF,r0
     B8D8 20BD     
3701 B8DA 1302  14 	jeq cv180
3702 B8DC 0460  28 	b @cv179
     B8DE B8E4     
3703               cv180
3704 B8E0 C03A  30 	mov *r10+,r0
3705 B8E2 0450  20 	b *r0
3706               cv179
3707               	; 	py = 84
3708 B8E4 0200  20 	li r0,21504   ; 84*256
     B8E6 5400     
3709 B8E8 D800  38 	movb r0,@cvb_PY
     B8EA 20D1     
3710               	; 	x0 = px : y0 = py
3711 B8EC D820  54 	movb @cvb_PX,@cvb_X0
     B8EE 20D0     
     B8F0 20DA     
3712 B8F2 D820  54 	movb @cvb_PY,@cvb_Y0
     B8F4 20D1     
     B8F6 20DC     
3713               	; 	GOSUB chkbox
3714 B8F8 06A0  32 	bl @jsr
     B8FA A974     
3715 B8FC CFD2     	data cvb_CHKBOX
3716               	; 	IF bf = 1 THEN IF px > 128 THEN px = 224 ELSE px = 20
3717 B8FE D020  34 	movb @cvb_BF,r0
     B900 20BD     
3718 B902 0201  20 	li r1,256   ; 1*256
     B904 0100     
3719 B906 9001  18 	cb r1,r0
3720 B908 1302  14 	jeq cv182
3721 B90A 0460  28 	b @cv181
     B90C B932     
3722               cv182
3723 B90E D020  34 	movb @cvb_PX,r0
     B910 20D0     
3724 B912 0201  20 	li r1,33024   ; 129*256
     B914 8100     
3725 B916 9040  18 	cb r0,r1
3726 B918 1402  14 	jhe cv184
3727 B91A 0460  28 	b @cv183
     B91C B92A     
3728               cv184
3729 B91E 0200  20 	li r0,57344   ; 224*256
     B920 E000     
3730 B922 D800  38 	movb r0,@cvb_PX
     B924 20D0     
3731 B926 0460  28 	b @cv185
     B928 B932     
3732               cv183
3733 B92A 0200  20 	li r0,5120   ; 20*256
     B92C 1400     
3734 B92E D800  38 	movb r0,@cvb_PX
     B930 20D0     
3735               cv185
3736               cv181
3737               	; 	' the snap moved us after fogenter drew - recentre the lamp
3738               	; 	IF fon = 1 THEN GOSUB fogwipe : GOSUB fogenter
3739 B932 D020  34 	movb @cvb_FON,r0
     B934 20A7     
3740 B936 0201  20 	li r1,256   ; 1*256
     B938 0100     
3741 B93A 9001  18 	cb r1,r0
3742 B93C 1302  14 	jeq cv187
3743 B93E 0460  28 	b @cv186
     B940 B94E     
3744               cv187
3745 B942 06A0  32 	bl @jsr
     B944 A974     
3746 B946 E02C     	data cvb_FOGWIPE
3747 B948 06A0  32 	bl @jsr
     B94A A974     
3748 B94C DB6C     	data cvb_FOGENTER
3749               cv186
3750               	; 	END
3751 B94E C03A  30 	mov *r10+,r0
3752 B950 0450  20 	b *r0
3753               	;
3754               	; gonorth: PROCEDURE
3755               	even
3756               cvb_GONORTH
3757               	; 	IF pn = 255 THEN RETURN
3758 B952 D020  34 	movb @cvb_PN,r0
     B954 20CD     
3759 B956 0201  20 	li r1,65280   ; 255*256
     B958 FF00     
3760 B95A 9001  18 	cb r1,r0
3761 B95C 1302  14 	jeq cv189
3762 B95E 0460  28 	b @cv188
     B960 B966     
3763               cv189
3764 B962 C03A  30 	mov *r10+,r0
3765 B964 0450  20 	b *r0
3766               cv188
3767               	; 	rn = pn : py = 180 : rmch = 1
3768 B966 D820  54 	movb @cvb_PN,@cvb_RN
     B968 20CD     
     B96A 20D4     
3769 B96C 0200  20 	li r0,46080   ; 180*256
     B96E B400     
3770 B970 D800  38 	movb r0,@cvb_PY
     B972 20D1     
3771 B974 0200  20 	li r0,256   ; 1*256
     B976 0100     
3772 B978 D800  38 	movb r0,@cvb_RMCH
     B97A 2091     
3773               	; 	GOSUB enterroom
3774 B97C 06A0  32 	bl @jsr
     B97E A974     
3775 B980 D174     	data cvb_ENTERROOM
3776               	; 	END
3777 B982 C03A  30 	mov *r10+,r0
3778 B984 0450  20 	b *r0
3779               	;
3780               	; gosouth: PROCEDURE
3781               	even
3782               cvb_GOSOUTH
3783               	; 	' leaving a castle hall puts you just below its (open) gate
3784               	; 	IF rn = 2 THEN rn = 0 : GOTO gsw
3785 B986 D020  34 	movb @cvb_RN,r0
     B988 20D4     
3786 B98A 0201  20 	li r1,512   ; 2*256
     B98C 0200     
3787 B98E 9001  18 	cb r1,r0
3788 B990 1302  14 	jeq cv191
3789 B992 0460  28 	b @cv190
     B994 B9A0     
3790               cv191
3791 B996 04C0  14 	clr r0
3792 B998 D800  38 	movb r0,@cvb_RN
     B99A 20D4     
3793 B99C 0460  28 	b @cvb_GSW
     B99E BA60     
3794               cv190
3795               	; 	IF rn = 9 THEN rn = 8 : GOTO gsw
3796 B9A0 D020  34 	movb @cvb_RN,r0
     B9A2 20D4     
3797 B9A4 0201  20 	li r1,2304   ; 9*256
     B9A6 0900     
3798 B9A8 9001  18 	cb r1,r0
3799 B9AA 1302  14 	jeq cv193
3800 B9AC 0460  28 	b @cv192
     B9AE B9BC     
3801               cv193
3802 B9B0 0200  20 	li r0,2048   ; 8*256
     B9B2 0800     
3803 B9B4 D800  38 	movb r0,@cvb_RN
     B9B6 20D4     
3804 B9B8 0460  28 	b @cvb_GSW
     B9BA BA60     
3805               cv192
3806               	; 	IF rn = 12 THEN rn = 11 : GOTO gsw
3807 B9BC D020  34 	movb @cvb_RN,r0
     B9BE 20D4     
3808 B9C0 0201  20 	li r1,3072   ; 12*256
     B9C2 0C00     
3809 B9C4 9001  18 	cb r1,r0
3810 B9C6 1302  14 	jeq cv195
3811 B9C8 0460  28 	b @cv194
     B9CA B9D8     
3812               cv195
3813 B9CC 0200  20 	li r0,2816   ; 11*256
     B9CE 0B00     
3814 B9D0 D800  38 	movb r0,@cvb_RN
     B9D2 20D4     
3815 B9D4 0460  28 	b @cvb_GSW
     B9D6 BA60     
3816               cv194
3817               	; 	IF rn = 14 THEN rn = 13 : GOTO gsw
3818 B9D8 D020  34 	movb @cvb_RN,r0
     B9DA 20D4     
3819 B9DC 0201  20 	li r1,3584   ; 14*256
     B9DE 0E00     
3820 B9E0 9001  18 	cb r1,r0
3821 B9E2 1302  14 	jeq cv197
3822 B9E4 0460  28 	b @cv196
     B9E6 B9F4     
3823               cv197
3824 B9E8 0200  20 	li r0,3328   ; 13*256
     B9EA 0D00     
3825 B9EC D800  38 	movb r0,@cvb_RN
     B9EE 20D4     
3826 B9F0 0460  28 	b @cvb_GSW
     B9F2 BA60     
3827               cv196
3828               	; 	IF rn = 25 THEN rn = 24 : GOTO gsw
3829 B9F4 D020  34 	movb @cvb_RN,r0
     B9F6 20D4     
3830 B9F8 0201  20 	li r1,6400   ; 25*256
     B9FA 1900     
3831 B9FC 9001  18 	cb r1,r0
3832 B9FE 1302  14 	jeq cv199
3833 BA00 0460  28 	b @cv198
     BA02 BA10     
3834               cv199
3835 BA04 0200  20 	li r0,6144   ; 24*256
     BA06 1800     
3836 BA08 D800  38 	movb r0,@cvb_RN
     BA0A 20D4     
3837 BA0C 0460  28 	b @cvb_GSW
     BA0E BA60     
3838               cv198
3839               	; 	IF rn = 33 THEN rn = 32 : GOTO gsw
3840 BA10 D020  34 	movb @cvb_RN,r0
     BA12 20D4     
3841 BA14 0201  20 	li r1,8448   ; 33*256
     BA16 2100     
3842 BA18 9001  18 	cb r1,r0
3843 BA1A 1302  14 	jeq cv201
3844 BA1C 0460  28 	b @cv200
     BA1E BA2C     
3845               cv201
3846 BA20 0200  20 	li r0,8192   ; 32*256
     BA22 2000     
3847 BA24 D800  38 	movb r0,@cvb_RN
     BA26 20D4     
3848 BA28 0460  28 	b @cvb_GSW
     BA2A BA60     
3849               cv200
3850               	; 	IF ps = 255 THEN RETURN
3851 BA2C D020  34 	movb @cvb_PS,r0
     BA2E 20CE     
3852 BA30 0201  20 	li r1,65280   ; 255*256
     BA32 FF00     
3853 BA34 9001  18 	cb r1,r0
3854 BA36 1302  14 	jeq cv203
3855 BA38 0460  28 	b @cv202
     BA3A BA40     
3856               cv203
3857 BA3C C03A  30 	mov *r10+,r0
3858 BA3E 0450  20 	b *r0
3859               cv202
3860               	; 	rn = ps : py = 4 : rmch = 1
3861 BA40 D820  54 	movb @cvb_PS,@cvb_RN
     BA42 20CE     
     BA44 20D4     
3862 BA46 0200  20 	li r0,1024   ; 4*256
     BA48 0400     
3863 BA4A D800  38 	movb r0,@cvb_PY
     BA4C 20D1     
3864 BA4E 0200  20 	li r0,256   ; 1*256
     BA50 0100     
3865 BA52 D800  38 	movb r0,@cvb_RMCH
     BA54 2091     
3866               	; 	GOSUB enterroom
3867 BA56 06A0  32 	bl @jsr
     BA58 A974     
3868 BA5A D174     	data cvb_ENTERROOM
3869               	; 	RETURN
3870 BA5C C03A  30 	mov *r10+,r0
3871 BA5E 0450  20 	b *r0
3872               	; gsw:
3873               cvb_GSW
3874               	; 	px = 120 : py = 66 : rmch = 1
3875 BA60 0200  20 	li r0,30720   ; 120*256
     BA62 7800     
3876 BA64 D800  38 	movb r0,@cvb_PX
     BA66 20D0     
3877 BA68 0200  20 	li r0,16896   ; 66*256
     BA6A 4200     
3878 BA6C D800  38 	movb r0,@cvb_PY
     BA6E 20D1     
3879 BA70 0200  20 	li r0,256   ; 1*256
     BA72 0100     
3880 BA74 D800  38 	movb r0,@cvb_RMCH
     BA76 2091     
3881               	; 	GOSUB enterroom
3882 BA78 06A0  32 	bl @jsr
     BA7A A974     
3883 BA7C D174     	data cvb_ENTERROOM
3884               	; 	END
3885 BA7E C03A  30 	mov *r10+,r0
3886 BA80 0450  20 	b *r0
3887               	;
3888               	; 	' ------------------------------------------------------------
3889               	; 	' gate: closed = touch it while carrying the matching key
3890               	; 	' (generous window: 3px steps can leave you at py=66-70);
3891               	; 	' open = walking deep into the archway warps inside the castle
3892               	; 	' ------------------------------------------------------------
3893               	; gatelogic: PROCEDURE
3894               	even
3895               cvb_GATELOGIC
3896               	; 	IF gopn = 1 THEN GOTO gwarp
3897 BA82 D020  34 	movb @cvb_GOPN,r0
     BA84 209B     
3898 BA86 0201  20 	li r1,256   ; 1*256
     BA88 0100     
3899 BA8A 9001  18 	cb r1,r0
3900 BA8C 1302  14 	jeq cv205
3901 BA8E 0460  28 	b @cv204
     BA90 BA96     
3902               cv205
3903 BA92 0460  28 	b @cvb_GWARP
     BA94 BB92     
3904               cv204
3905               	; 	IF cr <> gz - 1 THEN RETURN
3906 BA96 D020  34 	movb @cvb_GZ,r0
     BA98 20CA     
3907 BA9A 0980  32 	srl r0,8
3908 BA9C 0600  14 	dec r0
3909 BA9E C040  18 	mov r0,r1
3910 BAA0 D020  34 	movb @cvb_CR,r0
     BAA2 20C2     
3911 BAA4 0980  32 	srl r0,8
3912 BAA6 8040  18 	c r0,r1
3913 BAA8 1602  14 	jne cv207
3914 BAAA 0460  28 	b @cv206
     BAAC BAB2     
3915               cv207
3916 BAAE C03A  30 	mov *r10+,r0
3917 BAB0 0450  20 	b *r0
3918               cv206
3919               	; 	IF px < 100 THEN RETURN
3920 BAB2 D020  34 	movb @cvb_PX,r0
     BAB4 20D0     
3921 BAB6 0201  20 	li r1,25600   ; 100*256
     BAB8 6400     
3922 BABA 9040  18 	cb r0,r1
3923 BABC 1A02  14 	jl cv209
3924 BABE 0460  28 	b @cv208
     BAC0 BAC6     
3925               cv209
3926 BAC2 C03A  30 	mov *r10+,r0
3927 BAC4 0450  20 	b *r0
3928               cv208
3929               	; 	IF px > 148 THEN RETURN
3930 BAC6 D020  34 	movb @cvb_PX,r0
     BAC8 20D0     
3931 BACA 0201  20 	li r1,38144   ; 149*256
     BACC 9500     
3932 BACE 9040  18 	cb r0,r1
3933 BAD0 1402  14 	jhe cv211
3934 BAD2 0460  28 	b @cv210
     BAD4 BADA     
3935               cv211
3936 BAD6 C03A  30 	mov *r10+,r0
3937 BAD8 0450  20 	b *r0
3938               cv210
3939               	; 	IF py > 70 THEN RETURN
3940 BADA D020  34 	movb @cvb_PY,r0
     BADC 20D1     
3941 BADE 0201  20 	li r1,18176   ; 71*256
     BAE0 4700     
3942 BAE2 9040  18 	cb r0,r1
3943 BAE4 1402  14 	jhe cv213
3944 BAE6 0460  28 	b @cv212
     BAE8 BAEE     
3945               cv213
3946 BAEA C03A  30 	mov *r10+,r0
3947 BAEC 0450  20 	b *r0
3948               cv212
3949               	; 	gop(gz - 1) = 1 : gopn = 1
3950 BAEE 0201  20 	li r1,256
     BAF0 0100     
3951 BAF2 D020  34 	movb @cvb_GZ,r0
     BAF4 20CA     
3952 BAF6 0980  32 	srl r0,8
3953 BAF8 0600  14 	dec r0
3954 BAFA 0220  22 	ai r0,array_GOP
     BAFC 2122     
3955 BAFE D401  30 	movb r1,*r0
3956 BB00 0200  20 	li r0,256   ; 1*256
     BB02 0100     
3957 BB04 D800  38 	movb r0,@cvb_GOPN
     BB06 209B     
3958               	; 	FOR r = 4 TO 7
3959 BB08 0200  20 	li r0,1024   ; 4*256
     BB0A 0400     
3960 BB0C D800  38 	movb r0,@cvb_R
     BB0E 208A     
3961               cv214
3962               	; 	FOR c2 = 14 TO 17 : VPOKE $1800 + r * 32 + c2, 32 : NEXT c2
3963 BB10 0200  20 	li r0,3584   ; 14*256
     BB12 0E00     
3964 BB14 D800  38 	movb r0,@cvb_C2
     BB16 20BB     
3965               cv215
3966 BB18 0200  20 	li r0,8192   ; 32*256
     BB1A 2000     
3967 BB1C 064A  14 	dect r10
3968 BB1E C680  30 	mov r0,*r10
3969 BB20 D020  34 	movb @cvb_C2,r0
     BB22 20BB     
3970 BB24 0980  32 	srl r0,8
3971 BB26 C040  18 	mov r0,r1
3972 BB28 D020  34 	movb @cvb_R,r0
     BB2A 208A     
3973 BB2C 0980  32 	srl r0,8
3974 BB2E 0A50  26 	sla r0,5
3975 BB30 0220  22 	ai r0,6144
     BB32 1800     
3976 BB34 A001  18 	a r1,r0
3977 BB36 C0BA  30 	mov *r10+,r2
3978 BB38 0300  22 	limi 0
     BB3A 0000     
3979 BB3C 06A0  32 	bl @JSR
     BB3E A974     
3980 BB40 A018     	data WRTVRM
3981 BB42 0300  22 	limi 2
     BB44 0002     
3982 BB46 D020  34 	movb @cvb_C2,r0
     BB48 20BB     
3983 BB4A 0220  22 	ai r0,256	; 1
     BB4C 0100     
3984 BB4E D800  38 	movb r0,@cvb_C2
     BB50 20BB     
3985 BB52 0201  20 	li r1,4608   ; 18*256
     BB54 1200     
3986 BB56 9040  18 	cb r0,r1
3987 BB58 1402  14 	jhe cv216
3988 BB5A 0460  28 	b @cv215
     BB5C BB18     
3989               cv216
3990               	; 	NEXT r
3991 BB5E D020  34 	movb @cvb_R,r0
     BB60 208A     
3992 BB62 0220  22 	ai r0,256	; 1
     BB64 0100     
3993 BB66 D800  38 	movb r0,@cvb_R
     BB68 208A     
3994 BB6A 0201  20 	li r1,2048   ; 8*256
     BB6C 0800     
3995 BB6E 9040  18 	cb r0,r1
3996 BB70 1402  14 	jhe cv217
3997 BB72 0460  28 	b @cv214
     BB74 BB10     
3998               cv217
3999               	; 	sfx = 3 : sfc = 24 : #sfq = 700
4000 BB76 0200  20 	li r0,768   ; 3*256
     BB78 0300     
4001 BB7A D800  38 	movb r0,@cvb_SFX
     BB7C 20D3     
4002 BB7E 0200  20 	li r0,6144   ; 24*256
     BB80 1800     
4003 BB82 D800  38 	movb r0,@cvb_SFC
     BB84 20CC     
4004 BB86 0200  20 	li r0,700
     BB88 02BC     
4005 BB8A C800  38 	mov r0,@cvb__SFQ
     BB8C 208E     
4006               	; 	RETURN
4007 BB8E C03A  30 	mov *r10+,r0
4008 BB90 0450  20 	b *r0
4009               	; gwarp:
4010               cvb_GWARP
4011               	; 	IF py > 34 THEN RETURN
4012 BB92 D020  34 	movb @cvb_PY,r0
     BB94 20D1     
4013 BB96 0201  20 	li r1,8960   ; 35*256
     BB98 2300     
4014 BB9A 9040  18 	cb r0,r1
4015 BB9C 1402  14 	jhe cv219
4016 BB9E 0460  28 	b @cv218
     BBA0 BBA6     
4017               cv219
4018 BBA2 C03A  30 	mov *r10+,r0
4019 BBA4 0450  20 	b *r0
4020               cv218
4021               	; 	IF px < 106 THEN RETURN
4022 BBA6 D020  34 	movb @cvb_PX,r0
     BBA8 20D0     
4023 BBAA 0201  20 	li r1,27136   ; 106*256
     BBAC 6A00     
4024 BBAE 9040  18 	cb r0,r1
4025 BBB0 1A02  14 	jl cv221
4026 BBB2 0460  28 	b @cv220
     BBB4 BBBA     
4027               cv221
4028 BBB6 C03A  30 	mov *r10+,r0
4029 BBB8 0450  20 	b *r0
4030               cv220
4031               	; 	IF px > 138 THEN RETURN
4032 BBBA D020  34 	movb @cvb_PX,r0
     BBBC 20D0     
4033 BBBE 0201  20 	li r1,35584   ; 139*256
     BBC0 8B00     
4034 BBC2 9040  18 	cb r0,r1
4035 BBC4 1402  14 	jhe cv223
4036 BBC6 0460  28 	b @cv222
     BBC8 BBCE     
4037               cv223
4038 BBCA C03A  30 	mov *r10+,r0
4039 BBCC 0450  20 	b *r0
4040               cv222
4041               	; 	IF rn = 0 THEN rn = 2 : GOTO gwin
4042 BBCE D020  34 	movb @cvb_RN,r0
     BBD0 20D4     
4043 BBD2 1302  14 	jeq cv225
4044 BBD4 0460  28 	b @cv224
     BBD6 BBE4     
4045               cv225
4046 BBD8 0200  20 	li r0,512   ; 2*256
     BBDA 0200     
4047 BBDC D800  38 	movb r0,@cvb_RN
     BBDE 20D4     
4048 BBE0 0460  28 	b @cvb_GWIN
     BBE2 BC5C     
4049               cv224
4050               	; 	IF rn = 8 THEN rn = 9 : GOTO gwin
4051 BBE4 D020  34 	movb @cvb_RN,r0
     BBE6 20D4     
4052 BBE8 0201  20 	li r1,2048   ; 8*256
     BBEA 0800     
4053 BBEC 9001  18 	cb r1,r0
4054 BBEE 1302  14 	jeq cv227
4055 BBF0 0460  28 	b @cv226
     BBF2 BC00     
4056               cv227
4057 BBF4 0200  20 	li r0,2304   ; 9*256
     BBF6 0900     
4058 BBF8 D800  38 	movb r0,@cvb_RN
     BBFA 20D4     
4059 BBFC 0460  28 	b @cvb_GWIN
     BBFE BC5C     
4060               cv226
4061               	; 	IF rn = 11 THEN rn = 12 : GOTO gwin
4062 BC00 D020  34 	movb @cvb_RN,r0
     BC02 20D4     
4063 BC04 0201  20 	li r1,2816   ; 11*256
     BC06 0B00     
4064 BC08 9001  18 	cb r1,r0
4065 BC0A 1302  14 	jeq cv229
4066 BC0C 0460  28 	b @cv228
     BC0E BC1C     
4067               cv229
4068 BC10 0200  20 	li r0,3072   ; 12*256
     BC12 0C00     
4069 BC14 D800  38 	movb r0,@cvb_RN
     BC16 20D4     
4070 BC18 0460  28 	b @cvb_GWIN
     BC1A BC5C     
4071               cv228
4072               	; 	IF rn = 13 THEN rn = 14 : GOTO gwin
4073 BC1C D020  34 	movb @cvb_RN,r0
     BC1E 20D4     
4074 BC20 0201  20 	li r1,3328   ; 13*256
     BC22 0D00     
4075 BC24 9001  18 	cb r1,r0
4076 BC26 1302  14 	jeq cv231
4077 BC28 0460  28 	b @cv230
     BC2A BC38     
4078               cv231
4079 BC2C 0200  20 	li r0,3584   ; 14*256
     BC2E 0E00     
4080 BC30 D800  38 	movb r0,@cvb_RN
     BC32 20D4     
4081 BC34 0460  28 	b @cvb_GWIN
     BC36 BC5C     
4082               cv230
4083               	; 	IF rn = 24 THEN rn = 25 : GOTO gwin
4084 BC38 D020  34 	movb @cvb_RN,r0
     BC3A 20D4     
4085 BC3C 0201  20 	li r1,6144   ; 24*256
     BC3E 1800     
4086 BC40 9001  18 	cb r1,r0
4087 BC42 1302  14 	jeq cv233
4088 BC44 0460  28 	b @cv232
     BC46 BC54     
4089               cv233
4090 BC48 0200  20 	li r0,6400   ; 25*256
     BC4A 1900     
4091 BC4C D800  38 	movb r0,@cvb_RN
     BC4E 20D4     
4092 BC50 0460  28 	b @cvb_GWIN
     BC52 BC5C     
4093               cv232
4094               	; 	rn = 33
4095 BC54 0200  20 	li r0,8448   ; 33*256
     BC56 2100     
4096 BC58 D800  38 	movb r0,@cvb_RN
     BC5A 20D4     
4097               	; gwin:
4098               cvb_GWIN
4099               	; 	px = 120 : py = 156 : rmch = 1
4100 BC5C 0200  20 	li r0,30720   ; 120*256
     BC5E 7800     
4101 BC60 D800  38 	movb r0,@cvb_PX
     BC62 20D0     
4102 BC64 0200  20 	li r0,39936   ; 156*256
     BC66 9C00     
4103 BC68 D800  38 	movb r0,@cvb_PY
     BC6A 20D1     
4104 BC6C 0200  20 	li r0,256   ; 1*256
     BC6E 0100     
4105 BC70 D800  38 	movb r0,@cvb_RMCH
     BC72 2091     
4106               	; 	GOSUB enterroom
4107 BC74 06A0  32 	bl @jsr
     BC76 A974     
4108 BC78 D174     	data cvb_ENTERROOM
4109               	; 	END
4110 BC7A C03A  30 	mov *r10+,r0
4111 BC7C 0450  20 	b *r0
4112               	;
4113               	; 	' ------------------------------------------------------------
4114               	; 	' carried object rides at its grab offset (#crx/#cry are the
4115               	; 	' object-minus-player offset, biased +64 to stay unsigned)
4116               	; 	' ------------------------------------------------------------
4117               	; carrypos: PROCEDURE
4118               	even
4119               cvb_CARRYPOS
4120               	; 	orm(cr) = rn
4121 BC7E D060  34 	movb @cvb_RN,r1
     BC80 20D4     
4122 BC82 D020  34 	movb @cvb_CR,r0
     BC84 20C2     
4123 BC86 0980  32 	srl r0,8
4124 BC88 0220  22 	ai r0,array_ORM
     BC8A 211A     
4125 BC8C D401  30 	movb r1,*r0
4126               	; 	#ax = px + #crx
4127 BC8E D020  34 	movb @cvb_PX,r0
     BC90 20D0     
4128 BC92 0980  32 	srl r0,8
4129 BC94 A020  34 	a @cvb__CRX,r0
     BC96 20A0     
4130 BC98 C800  38 	mov r0,@cvb__AX
     BC9A 20AE     
4131               	; 	IF #ax < 64 THEN #ax = 64
4132 BC9C 0280  22 	ci r0,64
     BC9E 0040     
4133 BCA0 1A02  14 	jl cv235
4134 BCA2 0460  28 	b @cv234
     BCA4 BCAE     
4135               cv235
4136 BCA6 0200  20 	li r0,64
     BCA8 0040     
4137 BCAA C800  38 	mov r0,@cvb__AX
     BCAC 20AE     
4138               cv234
4139               	; 	IF #ax > 304 THEN #ax = 304
4140 BCAE C020  34 	mov @cvb__AX,r0
     BCB0 20AE     
4141 BCB2 0201  20 	li r1,305
     BCB4 0131     
4142 BCB6 8040  18 	c r0,r1
4143 BCB8 1402  14 	jhe cv237
4144 BCBA 0460  28 	b @cv236
     BCBC BCC6     
4145               cv237
4146 BCBE 0200  20 	li r0,304
     BCC0 0130     
4147 BCC2 C800  38 	mov r0,@cvb__AX
     BCC4 20AE     
4148               cv236
4149               	; 	obx(cr) = #ax - 64
4150 BCC6 C020  34 	mov @cvb__AX,r0
     BCC8 20AE     
4151 BCCA 0A80  32 	sla r0,8
4152 BCCC 0220  22 	ai r0,49152	; -64
     BCCE C000     
4153 BCD0 C040  18 	mov r0,r1
4154 BCD2 D020  34 	movb @cvb_CR,r0
     BCD4 20C2     
4155 BCD6 0980  32 	srl r0,8
4156 BCD8 0220  22 	ai r0,array_OBX
     BCDA 2106     
4157 BCDC D401  30 	movb r1,*r0
4158               	; 	#ax = py + #cry
4159 BCDE D020  34 	movb @cvb_PY,r0
     BCE0 20D1     
4160 BCE2 0980  32 	srl r0,8
4161 BCE4 A020  34 	a @cvb__CRY,r0
     BCE6 20A2     
4162 BCE8 C800  38 	mov r0,@cvb__AX
     BCEA 20AE     
4163               	; 	IF #ax < 64 THEN #ax = 64
4164 BCEC 0280  22 	ci r0,64
     BCEE 0040     
4165 BCF0 1A02  14 	jl cv239
4166 BCF2 0460  28 	b @cv238
     BCF4 BCFE     
4167               cv239
4168 BCF6 0200  20 	li r0,64
     BCF8 0040     
4169 BCFA C800  38 	mov r0,@cvb__AX
     BCFC 20AE     
4170               cv238
4171               	; 	IF #ax > 240 THEN #ax = 240
4172 BCFE C020  34 	mov @cvb__AX,r0
     BD00 20AE     
4173 BD02 0201  20 	li r1,241
     BD04 00F1     
4174 BD06 8040  18 	c r0,r1
4175 BD08 1402  14 	jhe cv241
4176 BD0A 0460  28 	b @cv240
     BD0C BD16     
4177               cv241
4178 BD0E 0200  20 	li r0,240
     BD10 00F0     
4179 BD12 C800  38 	mov r0,@cvb__AX
     BD14 20AE     
4180               cv240
4181               	; 	oby(cr) = #ax - 64
4182 BD16 C020  34 	mov @cvb__AX,r0
     BD18 20AE     
4183 BD1A 0A80  32 	sla r0,8
4184 BD1C 0220  22 	ai r0,49152	; -64
     BD1E C000     
4185 BD20 C040  18 	mov r0,r1
4186 BD22 D020  34 	movb @cvb_CR,r0
     BD24 20C2     
4187 BD26 0980  32 	srl r0,8
4188 BD28 0220  22 	ai r0,array_OBY
     BD2A 210E     
4189 BD2C D401  30 	movb r1,*r0
4190               	; 	END
4191 BD2E C03A  30 	mov *r10+,r0
4192 BD30 0450  20 	b *r0
4193               	;
4194               	; 	' ------------------------------------------------------------
4195               	; 	' pick up on touch (swap drops the old object on the spot)
4196               	; 	' ------------------------------------------------------------
4197               	; trypick: PROCEDURE
4198               	even
4199               cvb_TRYPICK
4200               	; 	FOR i = 0 TO 7
4201 BD32 04C0  14 	clr r0
4202 BD34 D800  38 	movb r0,@cvb_I
     BD36 2086     
4203               cv242
4204               	; 	IF i <> cr THEN IF orm(i) = rn THEN GOSUB pchk
4205 BD38 D020  34 	movb @cvb_I,r0
     BD3A 2086     
4206 BD3C 9020  34 	cb @cvb_CR,r0
     BD3E 20C2     
4207 BD40 1602  14 	jne cv244
4208 BD42 0460  28 	b @cv243
     BD44 BD62     
4209               cv244
4210 BD46 D020  34 	movb @cvb_I,r0
     BD48 2086     
4211 BD4A 0980  32 	srl r0,8
4212 BD4C 0220  22 	ai r0,array_ORM
     BD4E 211A     
4213 BD50 D010  26 	movb *r0,r0
4214 BD52 9020  34 	cb @cvb_RN,r0
     BD54 20D4     
4215 BD56 1302  14 	jeq cv246
4216 BD58 0460  28 	b @cv245
     BD5A BD62     
4217               cv246
4218 BD5C 06A0  32 	bl @jsr
     BD5E A974     
4219 BD60 BD7E     	data cvb_PCHK
4220               cv245
4221               cv243
4222               	; 	NEXT i
4223 BD62 D020  34 	movb @cvb_I,r0
     BD64 2086     
4224 BD66 0220  22 	ai r0,256	; 1
     BD68 0100     
4225 BD6A D800  38 	movb r0,@cvb_I
     BD6C 2086     
4226 BD6E 0201  20 	li r1,2048   ; 8*256
     BD70 0800     
4227 BD72 9040  18 	cb r0,r1
4228 BD74 1402  14 	jhe cv247
4229 BD76 0460  28 	b @cv242
     BD78 BD38     
4230               cv247
4231               	; 	END
4232 BD7A C03A  30 	mov *r10+,r0
4233 BD7C 0450  20 	b *r0
4234               	;
4235               	; pchk: PROCEDURE
4236               	even
4237               cvb_PCHK
4238               	; 	IF i = 4 THEN GOSUB pbrchk : RETURN
4239 BD7E D020  34 	movb @cvb_I,r0
     BD80 2086     
4240 BD82 0201  20 	li r1,1024   ; 4*256
     BD84 0400     
4241 BD86 9001  18 	cb r1,r0
4242 BD88 1302  14 	jeq cv249
4243 BD8A 0460  28 	b @cv248
     BD8C BD98     
4244               cv249
4245 BD8E 06A0  32 	bl @jsr
     BD90 A974     
4246 BD92 BE1E     	data cvb_PBRCHK
4247 BD94 C03A  30 	mov *r10+,r0
4248 BD96 0450  20 	b *r0
4249               cv248
4250               	; 	#ax = obx(i) + 8 : #bx = px + 4
4251 BD98 D020  34 	movb @cvb_I,r0
     BD9A 2086     
4252 BD9C 0980  32 	srl r0,8
4253 BD9E 0220  22 	ai r0,array_OBX
     BDA0 2106     
4254 BDA2 D010  26 	movb *r0,r0
4255 BDA4 0980  32 	srl r0,8
4256 BDA6 0220  22 	ai r0,8
     BDA8 0008     
4257 BDAA C800  38 	mov r0,@cvb__AX
     BDAC 20AE     
4258 BDAE D020  34 	movb @cvb_PX,r0
     BDB0 20D0     
4259 BDB2 0980  32 	srl r0,8
4260 BDB4 0220  22 	ai r0,4
     BDB6 0004     
4261 BDB8 C800  38 	mov r0,@cvb__BX
     BDBA 20B0     
4262               	; 	GOSUB adiff
4263 BDBC 06A0  32 	bl @jsr
     BDBE A974     
4264 BDC0 C004     	data cvb_ADIFF
4265               	; 	IF #cx > 11 THEN RETURN
4266 BDC2 C020  34 	mov @cvb__CX,r0
     BDC4 20B2     
4267 BDC6 0201  20 	li r1,12
     BDC8 000C     
4268 BDCA 8040  18 	c r0,r1
4269 BDCC 1402  14 	jhe cv251
4270 BDCE 0460  28 	b @cv250
     BDD0 BDD6     
4271               cv251
4272 BDD2 C03A  30 	mov *r10+,r0
4273 BDD4 0450  20 	b *r0
4274               cv250
4275               	; 	#ax = oby(i) + 6 : #bx = py + 4
4276 BDD6 D020  34 	movb @cvb_I,r0
     BDD8 2086     
4277 BDDA 0980  32 	srl r0,8
4278 BDDC 0220  22 	ai r0,array_OBY
     BDDE 210E     
4279 BDE0 D010  26 	movb *r0,r0
4280 BDE2 0980  32 	srl r0,8
4281 BDE4 0220  22 	ai r0,6
     BDE6 0006     
4282 BDE8 C800  38 	mov r0,@cvb__AX
     BDEA 20AE     
4283 BDEC D020  34 	movb @cvb_PY,r0
     BDEE 20D1     
4284 BDF0 0980  32 	srl r0,8
4285 BDF2 0220  22 	ai r0,4
     BDF4 0004     
4286 BDF6 C800  38 	mov r0,@cvb__BX
     BDF8 20B0     
4287               	; 	GOSUB adiff
4288 BDFA 06A0  32 	bl @jsr
     BDFC A974     
4289 BDFE C004     	data cvb_ADIFF
4290               	; 	IF #cx > 10 THEN RETURN
4291 BE00 C020  34 	mov @cvb__CX,r0
     BE02 20B2     
4292 BE04 0201  20 	li r1,11
     BE06 000B     
4293 BE08 8040  18 	c r0,r1
4294 BE0A 1402  14 	jhe cv253
4295 BE0C 0460  28 	b @cv252
     BE0E BE14     
4296               cv253
4297 BE10 C03A  30 	mov *r10+,r0
4298 BE12 0450  20 	b *r0
4299               cv252
4300               	; 	GOSUB dopick
4301 BE14 06A0  32 	bl @jsr
     BE16 A974     
4302 BE18 BF6E     	data cvb_DOPICK
4303               	; 	END
4304 BE1A C03A  30 	mov *r10+,r0
4305 BE1C 0450  20 	b *r0
4306               	;
4307               	; pbrchk: PROCEDURE
4308               	even
4309               cvb_PBRCHK
4310               	; 	' bridge: grabbed by its RAILS only - walking the channel (or
4311               	; 	' standing where you just dropped it) must NOT re-pick it up.
4312               	; 	' Also never while standing inside a wall - that would seal
4313               	; 	' you in.
4314               	; 	IF py + 7 < oby(i) THEN RETURN
4315 BE1E D020  34 	movb @cvb_I,r0
     BE20 2086     
4316 BE22 0980  32 	srl r0,8
4317 BE24 0220  22 	ai r0,array_OBY
     BE26 210E     
4318 BE28 D010  26 	movb *r0,r0
4319 BE2A 0980  32 	srl r0,8
4320 BE2C C040  18 	mov r0,r1
4321 BE2E D020  34 	movb @cvb_PY,r0
     BE30 20D1     
4322 BE32 0980  32 	srl r0,8
4323 BE34 0220  22 	ai r0,7
     BE36 0007     
4324 BE38 8040  18 	c r0,r1
4325 BE3A 1A02  14 	jl cv255
4326 BE3C 0460  28 	b @cv254
     BE3E BE44     
4327               cv255
4328 BE40 C03A  30 	mov *r10+,r0
4329 BE42 0450  20 	b *r0
4330               cv254
4331               	; 	#ax = oby(i) + 31
4332 BE44 D020  34 	movb @cvb_I,r0
     BE46 2086     
4333 BE48 0980  32 	srl r0,8
4334 BE4A 0220  22 	ai r0,array_OBY
     BE4C 210E     
4335 BE4E D010  26 	movb *r0,r0
4336 BE50 0980  32 	srl r0,8
4337 BE52 0220  22 	ai r0,31
     BE54 001F     
4338 BE56 C800  38 	mov r0,@cvb__AX
     BE58 20AE     
4339               	; 	IF py > #ax THEN RETURN
4340 BE5A D020  34 	movb @cvb_PY,r0
     BE5C 20D1     
4341 BE5E 0980  32 	srl r0,8
4342 BE60 C040  18 	mov r0,r1
4343 BE62 C020  34 	mov @cvb__AX,r0
     BE64 20AE     
4344 BE66 8040  18 	c r0,r1
4345 BE68 1A02  14 	jl cv257
4346 BE6A 0460  28 	b @cv256
     BE6C BE72     
4347               cv257
4348 BE6E C03A  30 	mov *r10+,r0
4349 BE70 0450  20 	b *r0
4350               cv256
4351               	; 	hit = 0
4352 BE72 04C0  14 	clr r0
4353 BE74 D800  38 	movb r0,@cvb_HIT
     BE76 20B9     
4354               	; 	#ax = obx(i) + 4
4355 BE78 D020  34 	movb @cvb_I,r0
     BE7A 2086     
4356 BE7C 0980  32 	srl r0,8
4357 BE7E 0220  22 	ai r0,array_OBX
     BE80 2106     
4358 BE82 D010  26 	movb *r0,r0
4359 BE84 0980  32 	srl r0,8
4360 BE86 0220  22 	ai r0,4
     BE88 0004     
4361 BE8A C800  38 	mov r0,@cvb__AX
     BE8C 20AE     
4362               	; 	IF px <= #ax THEN IF px + 7 >= obx(i) THEN hit = 1
4363 BE8E D020  34 	movb @cvb_PX,r0
     BE90 20D0     
4364 BE92 0980  32 	srl r0,8
4365 BE94 C040  18 	mov r0,r1
4366 BE96 C020  34 	mov @cvb__AX,r0
     BE98 20AE     
4367 BE9A 8040  18 	c r0,r1
4368 BE9C 1402  14 	jhe cv259
4369 BE9E 0460  28 	b @cv258
     BEA0 BECC     
4370               cv259
4371 BEA2 D020  34 	movb @cvb_I,r0
     BEA4 2086     
4372 BEA6 0980  32 	srl r0,8
4373 BEA8 0220  22 	ai r0,array_OBX
     BEAA 2106     
4374 BEAC D010  26 	movb *r0,r0
4375 BEAE 0980  32 	srl r0,8
4376 BEB0 C040  18 	mov r0,r1
4377 BEB2 D020  34 	movb @cvb_PX,r0
     BEB4 20D0     
4378 BEB6 0980  32 	srl r0,8
4379 BEB8 0220  22 	ai r0,7
     BEBA 0007     
4380 BEBC 8040  18 	c r0,r1
4381 BEBE 1402  14 	jhe cv261
4382 BEC0 0460  28 	b @cv260
     BEC2 BECC     
4383               cv261
4384 BEC4 0200  20 	li r0,256   ; 1*256
     BEC6 0100     
4385 BEC8 D800  38 	movb r0,@cvb_HIT
     BECA 20B9     
4386               cv260
4387               cv258
4388               	; 	#ax = obx(i) + 27
4389 BECC D020  34 	movb @cvb_I,r0
     BECE 2086     
4390 BED0 0980  32 	srl r0,8
4391 BED2 0220  22 	ai r0,array_OBX
     BED4 2106     
4392 BED6 D010  26 	movb *r0,r0
4393 BED8 0980  32 	srl r0,8
4394 BEDA 0220  22 	ai r0,27
     BEDC 001B     
4395 BEDE C800  38 	mov r0,@cvb__AX
     BEE0 20AE     
4396               	; 	IF px + 7 >= #ax THEN IF px <= obx(i) + 31 THEN hit = 1
4397 BEE2 D020  34 	movb @cvb_PX,r0
     BEE4 20D0     
4398 BEE6 0980  32 	srl r0,8
4399 BEE8 0220  22 	ai r0,7
     BEEA 0007     
4400 BEEC 8800  34 	c r0,@cvb__AX
     BEEE 20AE     
4401 BEF0 1402  14 	jhe cv263
4402 BEF2 0460  28 	b @cv262
     BEF4 BF20     
4403               cv263
4404 BEF6 D020  34 	movb @cvb_PX,r0
     BEF8 20D0     
4405 BEFA 0980  32 	srl r0,8
4406 BEFC C040  18 	mov r0,r1
4407 BEFE D020  34 	movb @cvb_I,r0
     BF00 2086     
4408 BF02 0980  32 	srl r0,8
4409 BF04 0220  22 	ai r0,array_OBX
     BF06 2106     
4410 BF08 D010  26 	movb *r0,r0
4411 BF0A 0980  32 	srl r0,8
4412 BF0C 0220  22 	ai r0,31
     BF0E 001F     
4413 BF10 8040  18 	c r0,r1
4414 BF12 1402  14 	jhe cv265
4415 BF14 0460  28 	b @cv264
     BF16 BF20     
4416               cv265
4417 BF18 0200  20 	li r0,256   ; 1*256
     BF1A 0100     
4418 BF1C D800  38 	movb r0,@cvb_HIT
     BF1E 20B9     
4419               cv264
4420               cv262
4421               	; 	IF hit = 0 THEN RETURN
4422 BF20 D020  34 	movb @cvb_HIT,r0
     BF22 20B9     
4423 BF24 1302  14 	jeq cv267
4424 BF26 0460  28 	b @cv266
     BF28 BF2E     
4425               cv267
4426 BF2A C03A  30 	mov *r10+,r0
4427 BF2C 0450  20 	b *r0
4428               cv266
4429               	; 	x0 = px : y0 = py : bw = 7 : bh = 7
4430 BF2E D820  54 	movb @cvb_PX,@cvb_X0
     BF30 20D0     
     BF32 20DA     
4431 BF34 D820  54 	movb @cvb_PY,@cvb_Y0
     BF36 20D1     
     BF38 20DC     
4432 BF3A 0200  20 	li r0,1792   ; 7*256
     BF3C 0700     
4433 BF3E D800  38 	movb r0,@cvb_BW
     BF40 20C1     
4434 BF42 0200  20 	li r0,1792   ; 7*256
     BF44 0700     
4435 BF46 D800  38 	movb r0,@cvb_BH
     BF48 20BE     
4436               	; 	GOSUB chkbox
4437 BF4A 06A0  32 	bl @jsr
     BF4C A974     
4438 BF4E CFD2     	data cvb_CHKBOX
4439               	; 	IF bf = 1 THEN RETURN
4440 BF50 D020  34 	movb @cvb_BF,r0
     BF52 20BD     
4441 BF54 0201  20 	li r1,256   ; 1*256
     BF56 0100     
4442 BF58 9001  18 	cb r1,r0
4443 BF5A 1302  14 	jeq cv269
4444 BF5C 0460  28 	b @cv268
     BF5E BF64     
4445               cv269
4446 BF60 C03A  30 	mov *r10+,r0
4447 BF62 0450  20 	b *r0
4448               cv268
4449               	; 	GOSUB dopick
4450 BF64 06A0  32 	bl @jsr
     BF66 A974     
4451 BF68 BF6E     	data cvb_DOPICK
4452               	; 	END
4453 BF6A C03A  30 	mov *r10+,r0
4454 BF6C 0450  20 	b *r0
4455               	;
4456               	; dopick: PROCEDURE
4457               	even
4458               cvb_DOPICK
4459               	; 	cr = i : pkcd = 10 : sfx = 1 : sfc = 4
4460 BF6E D820  54 	movb @cvb_I,@cvb_CR
     BF70 2086     
     BF72 20C2     
4461 BF74 0200  20 	li r0,2560   ; 10*256
     BF76 0A00     
4462 BF78 D800  38 	movb r0,@cvb_PKCD
     BF7A 20A4     
4463 BF7C 0200  20 	li r0,256   ; 1*256
     BF7E 0100     
4464 BF80 D800  38 	movb r0,@cvb_SFX
     BF82 20D3     
4465 BF84 0200  20 	li r0,1024   ; 4*256
     BF86 0400     
4466 BF88 D800  38 	movb r0,@cvb_SFC
     BF8A 20CC     
4467               	; 	IF i = 7 THEN sfx = 0
4468 BF8C D020  34 	movb @cvb_I,r0
     BF8E 2086     
4469 BF90 0201  20 	li r1,1792   ; 7*256
     BF92 0700     
4470 BF94 9001  18 	cb r1,r0
4471 BF96 1302  14 	jeq cv271
4472 BF98 0460  28 	b @cv270
     BF9A BFA2     
4473               cv271
4474 BF9C 04C0  14 	clr r0
4475 BF9E D800  38 	movb r0,@cvb_SFX
     BFA0 20D3     
4476               cv270
4477               	; 	' remember which side it was grabbed on
4478               	; 	#crx = obx(i) + 64 - px : #cry = oby(i) + 64 - py
4479 BFA2 D020  34 	movb @cvb_PX,r0
     BFA4 20D0     
4480 BFA6 0980  32 	srl r0,8
4481 BFA8 C040  18 	mov r0,r1
4482 BFAA D020  34 	movb @cvb_I,r0
     BFAC 2086     
4483 BFAE 0980  32 	srl r0,8
4484 BFB0 0220  22 	ai r0,array_OBX
     BFB2 2106     
4485 BFB4 D010  26 	movb *r0,r0
4486 BFB6 0980  32 	srl r0,8
4487 BFB8 0220  22 	ai r0,64
     BFBA 0040     
4488 BFBC 6001  18 	s r1,r0
4489 BFBE C800  38 	mov r0,@cvb__CRX
     BFC0 20A0     
4490 BFC2 D020  34 	movb @cvb_PY,r0
     BFC4 20D1     
4491 BFC6 0980  32 	srl r0,8
4492 BFC8 C040  18 	mov r0,r1
4493 BFCA D020  34 	movb @cvb_I,r0
     BFCC 2086     
4494 BFCE 0980  32 	srl r0,8
4495 BFD0 0220  22 	ai r0,array_OBY
     BFD2 210E     
4496 BFD4 D010  26 	movb *r0,r0
4497 BFD6 0980  32 	srl r0,8
4498 BFD8 0220  22 	ai r0,64
     BFDA 0040     
4499 BFDC 6001  18 	s r1,r0
4500 BFDE C800  38 	mov r0,@cvb__CRY
     BFE0 20A2     
4501               	; 	' snatched back from the bat
4502               	; 	IF i = btc THEN btc = 255 : btcd = 150
4503 BFE2 D020  34 	movb @cvb_I,r0
     BFE4 2086     
4504 BFE6 9020  34 	cb @cvb_BTC,r0
     BFE8 2092     
4505 BFEA 1302  14 	jeq cv273
4506 BFEC 0460  28 	b @cv272
     BFEE C000     
4507               cv273
4508 BFF0 0200  20 	li r0,65280   ; 255*256
     BFF2 FF00     
4509 BFF4 D800  38 	movb r0,@cvb_BTC
     BFF6 2092     
4510 BFF8 0200  20 	li r0,38400   ; 150*256
     BFFA 9600     
4511 BFFC D800  38 	movb r0,@cvb_BTCD
     BFFE 20B4     
4512               cv272
4513               	; 	END
4514 C000 C03A  30 	mov *r10+,r0
4515 C002 0450  20 	b *r0
4516               	;
4517               	; adiff: PROCEDURE
4518               	even
4519               cvb_ADIFF
4520               	; 	IF #ax > #bx THEN #cx = #ax - #bx ELSE #cx = #bx - #ax
4521 C004 C020  34 	mov @cvb__BX,r0
     C006 20B0     
4522 C008 8800  34 	c r0,@cvb__AX
     C00A 20AE     
4523 C00C 1A02  14 	jl cv275
4524 C00E 0460  28 	b @cv274
     C010 C022     
4525               cv275
4526 C012 C020  34 	mov @cvb__AX,r0
     C014 20AE     
4527 C016 6020  34 	s @cvb__BX,r0
     C018 20B0     
4528 C01A C800  38 	mov r0,@cvb__CX
     C01C 20B2     
4529 C01E 0460  28 	b @cv276
     C020 C02E     
4530               cv274
4531 C022 C020  34 	mov @cvb__BX,r0
     C024 20B0     
4532 C026 6020  34 	s @cvb__AX,r0
     C028 20AE     
4533 C02A C800  38 	mov r0,@cvb__CX
     C02C 20B2     
4534               cv276
4535               	; 	END
4536 C02E C03A  30 	mov *r10+,r0
4537 C030 0450  20 	b *r0
4538               	;
4539               	; 	' ------------------------------------------------------------
4540               	; 	' magnet: every loose object in the magnet's room creeps 1px
4541               	; 	' per tick toward it (straight line, through walls) until it
4542               	; 	' rests beside it - the classic tool for retrieving objects
4543               	; 	' from unreachable spots
4544               	; 	' ------------------------------------------------------------
4545               	; magnetdo: PROCEDURE
4546               	even
4547               cvb_MAGNETDO
4548               	; 	FOR o = 0 TO 7
4549 C032 04C0  14 	clr r0
4550 C034 D800  38 	movb r0,@cvb_O
     C036 2089     
4551               cv277
4552               	; 	IF o <> 6 THEN IF o <> cr THEN IF o <> btc THEN IF orm(o) = rn THEN GOSUB magpull
4553 C038 D020  34 	movb @cvb_O,r0
     C03A 2089     
4554 C03C 0201  20 	li r1,1536   ; 6*256
     C03E 0600     
4555 C040 9001  18 	cb r1,r0
4556 C042 1602  14 	jne cv279
4557 C044 0460  28 	b @cv278
     C046 C080     
4558               cv279
4559 C048 D020  34 	movb @cvb_O,r0
     C04A 2089     
4560 C04C 9020  34 	cb @cvb_CR,r0
     C04E 20C2     
4561 C050 1602  14 	jne cv281
4562 C052 0460  28 	b @cv280
     C054 C080     
4563               cv281
4564 C056 D020  34 	movb @cvb_O,r0
     C058 2089     
4565 C05A 9020  34 	cb @cvb_BTC,r0
     C05C 2092     
4566 C05E 1602  14 	jne cv283
4567 C060 0460  28 	b @cv282
     C062 C080     
4568               cv283
4569 C064 D020  34 	movb @cvb_O,r0
     C066 2089     
4570 C068 0980  32 	srl r0,8
4571 C06A 0220  22 	ai r0,array_ORM
     C06C 211A     
4572 C06E D010  26 	movb *r0,r0
4573 C070 9020  34 	cb @cvb_RN,r0
     C072 20D4     
4574 C074 1302  14 	jeq cv285
4575 C076 0460  28 	b @cv284
     C078 C080     
4576               cv285
4577 C07A 06A0  32 	bl @jsr
     C07C A974     
4578 C07E C09C     	data cvb_MAGPULL
4579               cv284
4580               cv282
4581               cv280
4582               cv278
4583               	; 	NEXT o
4584 C080 D020  34 	movb @cvb_O,r0
     C082 2089     
4585 C084 0220  22 	ai r0,256	; 1
     C086 0100     
4586 C088 D800  38 	movb r0,@cvb_O
     C08A 2089     
4587 C08C 0201  20 	li r1,2048   ; 8*256
     C08E 0800     
4588 C090 9040  18 	cb r0,r1
4589 C092 1402  14 	jhe cv286
4590 C094 0460  28 	b @cv277
     C096 C038     
4591               cv286
4592               	; 	END
4593 C098 C03A  30 	mov *r10+,r0
4594 C09A 0450  20 	b *r0
4595               	;
4596               	; magpull: PROCEDURE
4597               	even
4598               cvb_MAGPULL
4599               	; 	#ax = obx(o) : #bx = obx(6)
4600 C09C D020  34 	movb @cvb_O,r0
     C09E 2089     
4601 C0A0 0980  32 	srl r0,8
4602 C0A2 0220  22 	ai r0,array_OBX
     C0A4 2106     
4603 C0A6 D010  26 	movb *r0,r0
4604 C0A8 0980  32 	srl r0,8
4605 C0AA C800  38 	mov r0,@cvb__AX
     C0AC 20AE     
4606 C0AE D020  34 	movb @array_OBX+6,r0
     C0B0 210C     
4607 C0B2 0980  32 	srl r0,8
4608 C0B4 C800  38 	mov r0,@cvb__BX
     C0B6 20B0     
4609               	; 	GOSUB adiff
4610 C0B8 06A0  32 	bl @jsr
     C0BA A974     
4611 C0BC C004     	data cvb_ADIFF
4612               	; 	#dx = #cx
4613 C0BE C820  54 	mov @cvb__CX,@cvb__DX
     C0C0 20B2     
     C0C2 20B6     
4614               	; 	#ax = oby(o) : #bx = oby(6)
4615 C0C4 D020  34 	movb @cvb_O,r0
     C0C6 2089     
4616 C0C8 0980  32 	srl r0,8
4617 C0CA 0220  22 	ai r0,array_OBY
     C0CC 210E     
4618 C0CE D010  26 	movb *r0,r0
4619 C0D0 0980  32 	srl r0,8
4620 C0D2 C800  38 	mov r0,@cvb__AX
     C0D4 20AE     
4621 C0D6 D020  34 	movb @array_OBY+6,r0
     C0D8 2114     
4622 C0DA 0980  32 	srl r0,8
4623 C0DC C800  38 	mov r0,@cvb__BX
     C0DE 20B0     
4624               	; 	GOSUB adiff
4625 C0E0 06A0  32 	bl @jsr
     C0E2 A974     
4626 C0E4 C004     	data cvb_ADIFF
4627               	; 	IF #dx + #cx <= 12 THEN RETURN
4628 C0E6 C020  34 	mov @cvb__DX,r0
     C0E8 20B6     
4629 C0EA A020  34 	a @cvb__CX,r0
     C0EC 20B2     
4630 C0EE 0280  22 	ci r0,13
     C0F0 000D     
4631 C0F2 1A02  14 	jl cv288
4632 C0F4 0460  28 	b @cv287
     C0F6 C0FC     
4633               cv288
4634 C0F8 C03A  30 	mov *r10+,r0
4635 C0FA 0450  20 	b *r0
4636               cv287
4637               	; 	IF obx(o) < obx(6) THEN obx(o) = obx(o) + 1
4638 C0FC D060  34 	movb @array_OBX+6,r1
     C0FE 210C     
4639 C100 D020  34 	movb @cvb_O,r0
     C102 2089     
4640 C104 0980  32 	srl r0,8
4641 C106 0220  22 	ai r0,array_OBX
     C108 2106     
4642 C10A D010  26 	movb *r0,r0
4643 C10C 9040  18 	cb r0,r1
4644 C10E 1A02  14 	jl cv290
4645 C110 0460  28 	b @cv289
     C112 C132     
4646               cv290
4647 C114 D020  34 	movb @cvb_O,r0
     C116 2089     
4648 C118 0980  32 	srl r0,8
4649 C11A 0220  22 	ai r0,array_OBX
     C11C 2106     
4650 C11E D010  26 	movb *r0,r0
4651 C120 0220  22 	ai r0,256	; 1
     C122 0100     
4652 C124 C040  18 	mov r0,r1
4653 C126 D020  34 	movb @cvb_O,r0
     C128 2089     
4654 C12A 0980  32 	srl r0,8
4655 C12C 0220  22 	ai r0,array_OBX
     C12E 2106     
4656 C130 D401  30 	movb r1,*r0
4657               cv289
4658               	; 	IF obx(o) > obx(6) THEN obx(o) = obx(o) - 1
4659 C132 D020  34 	movb @cvb_O,r0
     C134 2089     
4660 C136 0980  32 	srl r0,8
4661 C138 0220  22 	ai r0,array_OBX
     C13A 2106     
4662 C13C D050  26 	movb *r0,r1
4663 C13E D020  34 	movb @array_OBX+6,r0
     C140 210C     
4664 C142 9040  18 	cb r0,r1
4665 C144 1A02  14 	jl cv292
4666 C146 0460  28 	b @cv291
     C148 C168     
4667               cv292
4668 C14A D020  34 	movb @cvb_O,r0
     C14C 2089     
4669 C14E 0980  32 	srl r0,8
4670 C150 0220  22 	ai r0,array_OBX
     C152 2106     
4671 C154 D010  26 	movb *r0,r0
4672 C156 0220  22 	ai r0,65280	; -1
     C158 FF00     
4673 C15A C040  18 	mov r0,r1
4674 C15C D020  34 	movb @cvb_O,r0
     C15E 2089     
4675 C160 0980  32 	srl r0,8
4676 C162 0220  22 	ai r0,array_OBX
     C164 2106     
4677 C166 D401  30 	movb r1,*r0
4678               cv291
4679               	; 	IF oby(o) < oby(6) THEN oby(o) = oby(o) + 1
4680 C168 D060  34 	movb @array_OBY+6,r1
     C16A 2114     
4681 C16C D020  34 	movb @cvb_O,r0
     C16E 2089     
4682 C170 0980  32 	srl r0,8
4683 C172 0220  22 	ai r0,array_OBY
     C174 210E     
4684 C176 D010  26 	movb *r0,r0
4685 C178 9040  18 	cb r0,r1
4686 C17A 1A02  14 	jl cv294
4687 C17C 0460  28 	b @cv293
     C17E C19E     
4688               cv294
4689 C180 D020  34 	movb @cvb_O,r0
     C182 2089     
4690 C184 0980  32 	srl r0,8
4691 C186 0220  22 	ai r0,array_OBY
     C188 210E     
4692 C18A D010  26 	movb *r0,r0
4693 C18C 0220  22 	ai r0,256	; 1
     C18E 0100     
4694 C190 C040  18 	mov r0,r1
4695 C192 D020  34 	movb @cvb_O,r0
     C194 2089     
4696 C196 0980  32 	srl r0,8
4697 C198 0220  22 	ai r0,array_OBY
     C19A 210E     
4698 C19C D401  30 	movb r1,*r0
4699               cv293
4700               	; 	IF oby(o) > oby(6) THEN oby(o) = oby(o) - 1
4701 C19E D020  34 	movb @cvb_O,r0
     C1A0 2089     
4702 C1A2 0980  32 	srl r0,8
4703 C1A4 0220  22 	ai r0,array_OBY
     C1A6 210E     
4704 C1A8 D050  26 	movb *r0,r1
4705 C1AA D020  34 	movb @array_OBY+6,r0
     C1AC 2114     
4706 C1AE 9040  18 	cb r0,r1
4707 C1B0 1A02  14 	jl cv296
4708 C1B2 0460  28 	b @cv295
     C1B4 C1D4     
4709               cv296
4710 C1B6 D020  34 	movb @cvb_O,r0
     C1B8 2089     
4711 C1BA 0980  32 	srl r0,8
4712 C1BC 0220  22 	ai r0,array_OBY
     C1BE 210E     
4713 C1C0 D010  26 	movb *r0,r0
4714 C1C2 0220  22 	ai r0,65280	; -1
     C1C4 FF00     
4715 C1C6 C040  18 	mov r0,r1
4716 C1C8 D020  34 	movb @cvb_O,r0
     C1CA 2089     
4717 C1CC 0980  32 	srl r0,8
4718 C1CE 0220  22 	ai r0,array_OBY
     C1D0 210E     
4719 C1D2 D401  30 	movb r1,*r0
4720               cv295
4721               	; 	END
4722 C1D4 C03A  30 	mov *r10+,r0
4723 C1D6 0450  20 	b *r0
4724               	;
4725               	; 	' ------------------------------------------------------------
4726               	; 	' the secret wall (room 17, east end of the corridor row):
4727               	; 	' with the dot here plus 2 or more other objects, the east
4728               	; 	' wall flickers and lets you through to the secret room
4729               	; 	' ------------------------------------------------------------
4730               	; eggdo: PROCEDURE
4731               	even
4732               cvb_EGGDO
4733               	; 	IF eggon = 0 THEN GOSUB eggchk
4734 C1D8 D020  34 	movb @cvb_EGGON,r0
     C1DA 209C     
4735 C1DC 1302  14 	jeq cv298
4736 C1DE 0460  28 	b @cv297
     C1E0 C1E8     
4737               cv298
4738 C1E2 06A0  32 	bl @jsr
     C1E4 A974     
4739 C1E6 C28A     	data cvb_EGGCHK
4740               cv297
4741               	; 	IF eggon = 0 THEN RETURN
4742 C1E8 D020  34 	movb @cvb_EGGON,r0
     C1EA 209C     
4743 C1EC 1302  14 	jeq cv300
4744 C1EE 0460  28 	b @cv299
     C1F0 C1F6     
4745               cv300
4746 C1F2 C03A  30 	mov *r10+,r0
4747 C1F4 0450  20 	b *r0
4748               cv299
4749               	; 	t = 32 : IF (tk AND 1) = 1 THEN t = 128
4750 C1F6 0200  20 	li r0,8192   ; 32*256
     C1F8 2000     
4751 C1FA D800  38 	movb r0,@cvb_T
     C1FC 208B     
4752 C1FE D020  34 	movb @cvb_TK,r0
     C200 20D7     
4753 C202 0201  20 	li r1,256   ; 1*256
     C204 0100     
4754 C206 0541  14 	inv r1
4755 C208 5001  18 	szcb r1,r0
4756 C20A 0201  20 	li r1,256   ; 1*256
     C20C 0100     
4757 C20E 9001  18 	cb r1,r0
4758 C210 1302  14 	jeq cv302
4759 C212 0460  28 	b @cv301
     C214 C21E     
4760               cv302
4761 C216 0200  20 	li r0,32768   ; 128*256
     C218 8000     
4762 C21A D800  38 	movb r0,@cvb_T
     C21C 208B     
4763               cv301
4764               	; 	FOR r = 10 TO 13
4765 C21E 0200  20 	li r0,2560   ; 10*256
     C220 0A00     
4766 C222 D800  38 	movb r0,@cvb_R
     C224 208A     
4767               cv303
4768               	; 	VPOKE $1800 + r * 32 + 30, t : VPOKE $1800 + r * 32 + 31, t
4769 C226 D020  34 	movb @cvb_T,r0
     C228 208B     
4770 C22A 064A  14 	dect r10
4771 C22C C680  30 	mov r0,*r10
4772 C22E D020  34 	movb @cvb_R,r0
     C230 208A     
4773 C232 0980  32 	srl r0,8
4774 C234 0A50  26 	sla r0,5
4775 C236 0220  22 	ai r0,6174
     C238 181E     
4776 C23A C0BA  30 	mov *r10+,r2
4777 C23C 0300  22 	limi 0
     C23E 0000     
4778 C240 06A0  32 	bl @JSR
     C242 A974     
4779 C244 A018     	data WRTVRM
4780 C246 0300  22 	limi 2
     C248 0002     
4781 C24A D020  34 	movb @cvb_T,r0
     C24C 208B     
4782 C24E 064A  14 	dect r10
4783 C250 C680  30 	mov r0,*r10
4784 C252 D020  34 	movb @cvb_R,r0
     C254 208A     
4785 C256 0980  32 	srl r0,8
4786 C258 0A50  26 	sla r0,5
4787 C25A 0220  22 	ai r0,6175
     C25C 181F     
4788 C25E C0BA  30 	mov *r10+,r2
4789 C260 0300  22 	limi 0
     C262 0000     
4790 C264 06A0  32 	bl @JSR
     C266 A974     
4791 C268 A018     	data WRTVRM
4792 C26A 0300  22 	limi 2
     C26C 0002     
4793               	; 	NEXT r
4794 C26E D020  34 	movb @cvb_R,r0
     C270 208A     
4795 C272 0220  22 	ai r0,256	; 1
     C274 0100     
4796 C276 D800  38 	movb r0,@cvb_R
     C278 208A     
4797 C27A 0201  20 	li r1,3584   ; 14*256
     C27C 0E00     
4798 C27E 9040  18 	cb r0,r1
4799 C280 1402  14 	jhe cv304
4800 C282 0460  28 	b @cv303
     C284 C226     
4801               cv304
4802               	; 	END
4803 C286 C03A  30 	mov *r10+,r0
4804 C288 0450  20 	b *r0
4805               	;
4806               	; eggchk: PROCEDURE
4807               	even
4808               cvb_EGGCHK
4809               	; 	IF orm(7) <> 17 THEN RETURN
4810 C28A D020  34 	movb @array_ORM+7,r0
     C28C 2121     
4811 C28E 0201  20 	li r1,4352   ; 17*256
     C290 1100     
4812 C292 9001  18 	cb r1,r0
4813 C294 1602  14 	jne cv306
4814 C296 0460  28 	b @cv305
     C298 C29E     
4815               cv306
4816 C29A C03A  30 	mov *r10+,r0
4817 C29C 0450  20 	b *r0
4818               cv305
4819               	; 	e2 = 0
4820 C29E 04C0  14 	clr r0
4821 C2A0 D800  38 	movb r0,@cvb_E2
     C2A2 20C0     
4822               	; 	FOR i = 0 TO 6
4823 C2A4 04C0  14 	clr r0
4824 C2A6 D800  38 	movb r0,@cvb_I
     C2A8 2086     
4825               cv307
4826               	; 	IF orm(i) = 17 THEN e2 = e2 + 1
4827 C2AA D020  34 	movb @cvb_I,r0
     C2AC 2086     
4828 C2AE 0980  32 	srl r0,8
4829 C2B0 0220  22 	ai r0,array_ORM
     C2B2 211A     
4830 C2B4 D010  26 	movb *r0,r0
4831 C2B6 0201  20 	li r1,4352   ; 17*256
     C2B8 1100     
4832 C2BA 9001  18 	cb r1,r0
4833 C2BC 1302  14 	jeq cv309
4834 C2BE 0460  28 	b @cv308
     C2C0 C2CE     
4835               cv309
4836 C2C2 D020  34 	movb @cvb_E2,r0
     C2C4 20C0     
4837 C2C6 0220  22 	ai r0,256	; 1
     C2C8 0100     
4838 C2CA D800  38 	movb r0,@cvb_E2
     C2CC 20C0     
4839               cv308
4840               	; 	NEXT i
4841 C2CE D020  34 	movb @cvb_I,r0
     C2D0 2086     
4842 C2D2 0220  22 	ai r0,256	; 1
     C2D4 0100     
4843 C2D6 D800  38 	movb r0,@cvb_I
     C2D8 2086     
4844 C2DA 0201  20 	li r1,1792   ; 7*256
     C2DC 0700     
4845 C2DE 9040  18 	cb r0,r1
4846 C2E0 1402  14 	jhe cv310
4847 C2E2 0460  28 	b @cv307
     C2E4 C2AA     
4848               cv310
4849               	; 	IF e2 < 2 THEN RETURN
4850 C2E6 D020  34 	movb @cvb_E2,r0
     C2E8 20C0     
4851 C2EA 0201  20 	li r1,512   ; 2*256
     C2EC 0200     
4852 C2EE 9040  18 	cb r0,r1
4853 C2F0 1A02  14 	jl cv312
4854 C2F2 0460  28 	b @cv311
     C2F4 C2FA     
4855               cv312
4856 C2F6 C03A  30 	mov *r10+,r0
4857 C2F8 0450  20 	b *r0
4858               cv311
4859               	; 	eggon = 1
4860 C2FA 0200  20 	li r0,256   ; 1*256
     C2FC 0100     
4861 C2FE D800  38 	movb r0,@cvb_EGGON
     C300 209C     
4862               	; 	END
4863 C302 C03A  30 	mov *r10+,r0
4864 C304 0450  20 	b *r0
4865               	;
4866               	; 	' secret room: ripple one glyph's colour per tick
4867               	; eggtxt: PROCEDURE
4868               	even
4869               cvb_EGGTXT
4870               	; 	i2 = tk AND 15
4871 C306 D020  34 	movb @cvb_TK,r0
     C308 20D7     
4872 C30A 0201  20 	li r1,3840   ; 15*256
     C30C 0F00     
4873 C30E 0541  14 	inv r1
4874 C310 5001  18 	szcb r1,r0
4875 C312 D800  38 	movb r0,@cvb_I2
     C314 20C8     
4876               	; 	RESTORE eggch
4877 C316 0200  20 	li r0,cvb_EGGCH
     C318 ECAE     
4878 C31A C800  30 	mov r0,@read_pointer
     C31C 8340     
4879               	; 	WHILE i2 > 0 : READ BYTE t : i2 = i2 - 1 : WEND
4880               cv313
4881 C31E D020  34 	movb @cvb_I2,r0
     C320 20C8     
4882 C322 0201  20 	li r1,256   ; 1*256
     C324 0100     
4883 C326 9040  18 	cb r0,r1
4884 C328 1402  14 	jhe cv315
4885 C32A 0460  28 	b @cv314
     C32C C34C     
4886               cv315
4887 C32E C060  30 	mov @read_pointer,r1
     C330 8340     
4888 C332 D011  26 	movb *r1,r0
4889 C334 05A0  26 	inc @read_pointer
     C336 8340     
4890 C338 D800  38 	movb r0,@cvb_T
     C33A 208B     
4891 C33C D020  34 	movb @cvb_I2,r0
     C33E 20C8     
4892 C340 0220  22 	ai r0,65280	; -1
     C342 FF00     
4893 C344 D800  38 	movb r0,@cvb_I2
     C346 20C8     
4894 C348 0460  28 	b @cv313
     C34A C31E     
4895               cv314
4896               	; 	READ BYTE t
4897 C34C C060  30 	mov @read_pointer,r1
     C34E 8340     
4898 C350 D011  26 	movb *r1,r0
4899 C352 05A0  26 	inc @read_pointer
     C354 8340     
4900 C356 D800  38 	movb r0,@cvb_T
     C358 208B     
4901               	; 	c3 = ((tk / 4) AND 7) + 8
4902 C35A D020  34 	movb @cvb_TK,r0
     C35C 20D7     
4903 C35E 0920  20 	srl r0,2
4904 C360 0201  20 	li r1,1792   ; 7*256
     C362 0700     
4905 C364 0541  14 	inv r1
4906 C366 5001  18 	szcb r1,r0
4907 C368 0220  22 	ai r0,2048	; 8
     C36A 0800     
4908 C36C D800  38 	movb r0,@cvb_C3
     C36E 20BC     
4909               	; 	#ad = $2800 + t * 8
4910 C370 D020  34 	movb @cvb_T,r0
     C372 208B     
4911 C374 0980  32 	srl r0,8
4912 C376 0A30  22 	sla r0,3
4913 C378 0220  22 	ai r0,10240
     C37A 2800     
4914 C37C C800  38 	mov r0,@cvb__AD
     C37E 20AA     
4915               	; 	FOR i2 = 0 TO 7 : VPOKE #ad + i2, c3 * 16 + 14 : NEXT i2
4916 C380 04C0  14 	clr r0
4917 C382 D800  38 	movb r0,@cvb_I2
     C384 20C8     
4918               cv316
4919 C386 D020  34 	movb @cvb_C3,r0
     C388 20BC     
4920 C38A 0240  22 	andi r0,>ff00
     C38C FF00     
4921 C38E 0A40  24 	sla r0,4
4922 C390 0220  22 	ai r0,3584	; 14
     C392 0E00     
4923 C394 064A  14 	dect r10
4924 C396 C680  30 	mov r0,*r10
4925 C398 D020  34 	movb @cvb_I2,r0
     C39A 20C8     
4926 C39C 0980  32 	srl r0,8
4927 C39E C040  18 	mov r0,r1
4928 C3A0 C020  34 	mov @cvb__AD,r0
     C3A2 20AA     
4929 C3A4 A001  18 	a r1,r0
4930 C3A6 C0BA  30 	mov *r10+,r2
4931 C3A8 0300  22 	limi 0
     C3AA 0000     
4932 C3AC 06A0  32 	bl @JSR
     C3AE A974     
4933 C3B0 A018     	data WRTVRM
4934 C3B2 0300  22 	limi 2
     C3B4 0002     
4935 C3B6 D020  34 	movb @cvb_I2,r0
     C3B8 20C8     
4936 C3BA 0220  22 	ai r0,256	; 1
     C3BC 0100     
4937 C3BE D800  38 	movb r0,@cvb_I2
     C3C0 20C8     
4938 C3C2 0201  20 	li r1,2048   ; 8*256
     C3C4 0800     
4939 C3C6 9040  18 	cb r0,r1
4940 C3C8 1402  14 	jhe cv317
4941 C3CA 0460  28 	b @cv316
     C3CC C386     
4942               cv317
4943               	; 	END
4944 C3CE C03A  30 	mov *r10+,r0
4945 C3D0 0450  20 	b *r0
4946               	;
4947               	; 	' ------------------------------------------------------------
4948               	; 	' bat: simulated every tick in whatever room it occupies.
4949               	; 	' Flies through walls; drifts between rooms via the exit
4950               	; 	' links. Steals/swaps objects on touch - even yours.
4951               	; 	' ------------------------------------------------------------
4952               	; batdo: PROCEDURE
4953               	even
4954               cvb_BATDO
4955               	; 	IF btcd > 0 THEN btcd = btcd - 1
4956 C3D2 D020  34 	movb @cvb_BTCD,r0
     C3D4 20B4     
4957 C3D6 0201  20 	li r1,256   ; 1*256
     C3D8 0100     
4958 C3DA 9040  18 	cb r0,r1
4959 C3DC 1402  14 	jhe cv319
4960 C3DE 0460  28 	b @cv318
     C3E0 C3EE     
4961               cv319
4962 C3E2 D020  34 	movb @cvb_BTCD,r0
     C3E4 20B4     
4963 C3E6 0220  22 	ai r0,65280	; -1
     C3E8 FF00     
4964 C3EA D800  38 	movb r0,@cvb_BTCD
     C3EC 20B4     
4965               cv318
4966               	; 	IF bfx = 1 THEN GOSUB batright ELSE GOSUB batleft
4967 C3EE D020  34 	movb @cvb_BFX,r0
     C3F0 2080     
4968 C3F2 0201  20 	li r1,256   ; 1*256
     C3F4 0100     
4969 C3F6 9001  18 	cb r1,r0
4970 C3F8 1302  14 	jeq cv321
4971 C3FA 0460  28 	b @cv320
     C3FC C408     
4972               cv321
4973 C3FE 06A0  32 	bl @jsr
     C400 A974     
4974 C402 C5A4     	data cvb_BATRIGHT
4975 C404 0460  28 	b @cv322
     C406 C40E     
4976               cv320
4977 C408 06A0  32 	bl @jsr
     C40A A974     
4978 C40C C52E     	data cvb_BATLEFT
4979               cv322
4980               	; 	IF bfy = 1 THEN bty = bty + 1 ELSE bty = bty - 1
4981 C40E D020  34 	movb @cvb_BFY,r0
     C410 2081     
4982 C412 0201  20 	li r1,256   ; 1*256
     C414 0100     
4983 C416 9001  18 	cb r1,r0
4984 C418 1302  14 	jeq cv324
4985 C41A 0460  28 	b @cv323
     C41C C42E     
4986               cv324
4987 C41E D020  34 	movb @cvb_BTY,r0
     C420 2097     
4988 C422 0220  22 	ai r0,256	; 1
     C424 0100     
4989 C426 D800  38 	movb r0,@cvb_BTY
     C428 2097     
4990 C42A 0460  28 	b @cv325
     C42C C43A     
4991               cv323
4992 C42E D020  34 	movb @cvb_BTY,r0
     C430 2097     
4993 C432 0220  22 	ai r0,65280	; -1
     C434 FF00     
4994 C436 D800  38 	movb r0,@cvb_BTY
     C438 2097     
4995               cv325
4996               	; 	IF bty < 12 THEN GOSUB batnorth
4997 C43A D020  34 	movb @cvb_BTY,r0
     C43C 2097     
4998 C43E 0201  20 	li r1,3072   ; 12*256
     C440 0C00     
4999 C442 9040  18 	cb r0,r1
5000 C444 1A02  14 	jl cv327
5001 C446 0460  28 	b @cv326
     C448 C450     
5002               cv327
5003 C44A 06A0  32 	bl @jsr
     C44C A974     
5004 C44E C616     	data cvb_BATNORTH
5005               cv326
5006               	; 	IF bty > 150 THEN GOSUB batsouth
5007 C450 D020  34 	movb @cvb_BTY,r0
     C452 2097     
5008 C454 0201  20 	li r1,38656   ; 151*256
     C456 9700     
5009 C458 9040  18 	cb r0,r1
5010 C45A 1402  14 	jhe cv329
5011 C45C 0460  28 	b @cv328
     C45E C466     
5012               cv329
5013 C460 06A0  32 	bl @jsr
     C462 A974     
5014 C464 C66C     	data cvb_BATSOUTH
5015               cv328
5016               	; 	IF (tk AND 31) = 0 THEN bfy = 1 - bfy
5017 C466 D020  34 	movb @cvb_TK,r0
     C468 20D7     
5018 C46A 0201  20 	li r1,7936   ; 31*256
     C46C 1F00     
5019 C46E 0541  14 	inv r1
5020 C470 5001  18 	szcb r1,r0
5021 C472 04C1  14 	clr r1
5022 C474 9001  18 	cb r1,r0
5023 C476 1302  14 	jeq cv331
5024 C478 0460  28 	b @cv330
     C47A C490     
5025               cv331
5026 C47C D020  34 	movb @cvb_BFY,r0
     C47E 2081     
5027 C480 0980  32 	srl r0,8
5028 C482 C040  18 	mov r0,r1
5029 C484 0200  20 	li r0,1
     C486 0001     
5030 C488 6001  18 	s r1,r0
5031 C48A 0A80  32 	sla r0,8
5032 C48C D800  38 	movb r0,@cvb_BFY
     C48E 2081     
5033               cv330
5034               	; 	IF (tk AND 63) = 0 THEN IF RANDOM(2) = 1 THEN bfx = 1 - bfx
5035 C490 D020  34 	movb @cvb_TK,r0
     C492 20D7     
5036 C494 0201  20 	li r1,16128   ; 63*256
     C496 3F00     
5037 C498 0541  14 	inv r1
5038 C49A 5001  18 	szcb r1,r0
5039 C49C 04C1  14 	clr r1
5040 C49E 9001  18 	cb r1,r0
5041 C4A0 1302  14 	jeq cv333
5042 C4A2 0460  28 	b @cv332
     C4A4 C4CE     
5043               cv333
5044 C4A6 06A0  32 	bl @jsr
     C4A8 A974     
5045 C4AA A2A6     	data random
5046 C4AC 0240  22 	andi r0,1
     C4AE 0001     
5047 C4B0 0280  22 	ci r0,1
     C4B2 0001     
5048 C4B4 1302  14 	jeq cv335
5049 C4B6 0460  28 	b @cv334
     C4B8 C4CE     
5050               cv335
5051 C4BA D020  34 	movb @cvb_BFX,r0
     C4BC 2080     
5052 C4BE 0980  32 	srl r0,8
5053 C4C0 C040  18 	mov r0,r1
5054 C4C2 0200  20 	li r0,1
     C4C4 0001     
5055 C4C6 6001  18 	s r1,r0
5056 C4C8 0A80  32 	sla r0,8
5057 C4CA D800  38 	movb r0,@cvb_BFX
     C4CC 2080     
5058               cv334
5059               cv332
5060               	; 	' its loot dangles underneath
5061               	; 	IF btc < 8 THEN orm(btc) = btr : obx(btc) = btx + 8 : oby(btc) = bty + 10
5062 C4CE D020  34 	movb @cvb_BTC,r0
     C4D0 2092     
5063 C4D2 0201  20 	li r1,2048   ; 8*256
     C4D4 0800     
5064 C4D6 9040  18 	cb r0,r1
5065 C4D8 1A02  14 	jl cv337
5066 C4DA 0460  28 	b @cv336
     C4DC C51A     
5067               cv337
5068 C4DE D060  34 	movb @cvb_BTR,r1
     C4E0 2094     
5069 C4E2 D020  34 	movb @cvb_BTC,r0
     C4E4 2092     
5070 C4E6 0980  32 	srl r0,8
5071 C4E8 0220  22 	ai r0,array_ORM
     C4EA 211A     
5072 C4EC D401  30 	movb r1,*r0
5073 C4EE D020  34 	movb @cvb_BTX,r0
     C4F0 2096     
5074 C4F2 0220  22 	ai r0,2048	; 8
     C4F4 0800     
5075 C4F6 C040  18 	mov r0,r1
5076 C4F8 D020  34 	movb @cvb_BTC,r0
     C4FA 2092     
5077 C4FC 0980  32 	srl r0,8
5078 C4FE 0220  22 	ai r0,array_OBX
     C500 2106     
5079 C502 D401  30 	movb r1,*r0
5080 C504 D020  34 	movb @cvb_BTY,r0
     C506 2097     
5081 C508 0220  22 	ai r0,2560	; 10
     C50A 0A00     
5082 C50C C040  18 	mov r0,r1
5083 C50E D020  34 	movb @cvb_BTC,r0
     C510 2092     
5084 C512 0980  32 	srl r0,8
5085 C514 0220  22 	ai r0,array_OBY
     C516 210E     
5086 C518 D401  30 	movb r1,*r0
5087               cv336
5088               	; 	IF btcd = 0 THEN GOSUB batgrab
5089 C51A D020  34 	movb @cvb_BTCD,r0
     C51C 20B4     
5090 C51E 1302  14 	jeq cv339
5091 C520 0460  28 	b @cv338
     C522 C52A     
5092               cv339
5093 C524 06A0  32 	bl @jsr
     C526 A974     
5094 C528 C6BE     	data cvb_BATGRAB
5095               cv338
5096               	; 	END
5097 C52A C03A  30 	mov *r10+,r0
5098 C52C 0450  20 	b *r0
5099               	;
5100               	; batleft: PROCEDURE
5101               	even
5102               cvb_BATLEFT
5103               	; 	IF btx >= 10 THEN btx = btx - 2 : RETURN
5104 C52E D020  34 	movb @cvb_BTX,r0
     C530 2096     
5105 C532 0201  20 	li r1,2560   ; 10*256
     C534 0A00     
5106 C536 9040  18 	cb r0,r1
5107 C538 1402  14 	jhe cv341
5108 C53A 0460  28 	b @cv340
     C53C C54E     
5109               cv341
5110 C53E D020  34 	movb @cvb_BTX,r0
     C540 2096     
5111 C542 0220  22 	ai r0,65024	; -2
     C544 FE00     
5112 C546 D800  38 	movb r0,@cvb_BTX
     C548 2096     
5113 C54A C03A  30 	mov *r10+,r0
5114 C54C 0450  20 	b *r0
5115               cv340
5116               	; 	lkr = btr
5117 C54E D820  54 	movb @cvb_BTR,@cvb_LKR
     C550 2094     
     C552 2098     
5118               	; 	GOSUB getlnk
5119 C554 06A0  32 	bl @jsr
     C556 A974     
5120 C558 D076     	data cvb_GETLNK
5121               	; 	IF lkw = 255 THEN bfx = 1 : RETURN
5122 C55A D020  34 	movb @cvb_LKW,r0
     C55C 209A     
5123 C55E 0201  20 	li r1,65280   ; 255*256
     C560 FF00     
5124 C562 9001  18 	cb r1,r0
5125 C564 1302  14 	jeq cv343
5126 C566 0460  28 	b @cv342
     C568 C576     
5127               cv343
5128 C56A 0200  20 	li r0,256   ; 1*256
     C56C 0100     
5129 C56E D800  38 	movb r0,@cvb_BFX
     C570 2080     
5130 C572 C03A  30 	mov *r10+,r0
5131 C574 0450  20 	b *r0
5132               cv342
5133               	; 	IF lkw = 18 THEN bfx = 1 : RETURN
5134 C576 D020  34 	movb @cvb_LKW,r0
     C578 209A     
5135 C57A 0201  20 	li r1,4608   ; 18*256
     C57C 1200     
5136 C57E 9001  18 	cb r1,r0
5137 C580 1302  14 	jeq cv345
5138 C582 0460  28 	b @cv344
     C584 C592     
5139               cv345
5140 C586 0200  20 	li r0,256   ; 1*256
     C588 0100     
5141 C58A D800  38 	movb r0,@cvb_BFX
     C58C 2080     
5142 C58E C03A  30 	mov *r10+,r0
5143 C590 0450  20 	b *r0
5144               cv344
5145               	; 	btr = lkw : btx = 224
5146 C592 D820  54 	movb @cvb_LKW,@cvb_BTR
     C594 209A     
     C596 2094     
5147 C598 0200  20 	li r0,57344   ; 224*256
     C59A E000     
5148 C59C D800  38 	movb r0,@cvb_BTX
     C59E 2096     
5149               	; 	END
5150 C5A0 C03A  30 	mov *r10+,r0
5151 C5A2 0450  20 	b *r0
5152               	;
5153               	; batright: PROCEDURE
5154               	even
5155               cvb_BATRIGHT
5156               	; 	IF btx <= 222 THEN btx = btx + 2 : RETURN
5157 C5A4 D020  34 	movb @cvb_BTX,r0
     C5A6 2096     
5158 C5A8 0201  20 	li r1,57088   ; 223*256
     C5AA DF00     
5159 C5AC 9040  18 	cb r0,r1
5160 C5AE 1A02  14 	jl cv347
5161 C5B0 0460  28 	b @cv346
     C5B2 C5C4     
5162               cv347
5163 C5B4 D020  34 	movb @cvb_BTX,r0
     C5B6 2096     
5164 C5B8 0220  22 	ai r0,512	; 2
     C5BA 0200     
5165 C5BC D800  38 	movb r0,@cvb_BTX
     C5BE 2096     
5166 C5C0 C03A  30 	mov *r10+,r0
5167 C5C2 0450  20 	b *r0
5168               cv346
5169               	; 	lkr = btr
5170 C5C4 D820  54 	movb @cvb_BTR,@cvb_LKR
     C5C6 2094     
     C5C8 2098     
5171               	; 	GOSUB getlnk
5172 C5CA 06A0  32 	bl @jsr
     C5CC A974     
5173 C5CE D076     	data cvb_GETLNK
5174               	; 	IF lke = 255 THEN bfx = 0 : RETURN
5175 C5D0 D020  34 	movb @cvb_LKE,r0
     C5D2 2093     
5176 C5D4 0201  20 	li r1,65280   ; 255*256
     C5D6 FF00     
5177 C5D8 9001  18 	cb r1,r0
5178 C5DA 1302  14 	jeq cv349
5179 C5DC 0460  28 	b @cv348
     C5DE C5EA     
5180               cv349
5181 C5E0 04C0  14 	clr r0
5182 C5E2 D800  38 	movb r0,@cvb_BFX
     C5E4 2080     
5183 C5E6 C03A  30 	mov *r10+,r0
5184 C5E8 0450  20 	b *r0
5185               cv348
5186               	; 	IF lke = 18 THEN bfx = 0 : RETURN
5187 C5EA D020  34 	movb @cvb_LKE,r0
     C5EC 2093     
5188 C5EE 0201  20 	li r1,4608   ; 18*256
     C5F0 1200     
5189 C5F2 9001  18 	cb r1,r0
5190 C5F4 1302  14 	jeq cv351
5191 C5F6 0460  28 	b @cv350
     C5F8 C604     
5192               cv351
5193 C5FA 04C0  14 	clr r0
5194 C5FC D800  38 	movb r0,@cvb_BFX
     C5FE 2080     
5195 C600 C03A  30 	mov *r10+,r0
5196 C602 0450  20 	b *r0
5197               cv350
5198               	; 	btr = lke : btx = 12
5199 C604 D820  54 	movb @cvb_LKE,@cvb_BTR
     C606 2093     
     C608 2094     
5200 C60A 0200  20 	li r0,3072   ; 12*256
     C60C 0C00     
5201 C60E D800  38 	movb r0,@cvb_BTX
     C610 2096     
5202               	; 	END
5203 C612 C03A  30 	mov *r10+,r0
5204 C614 0450  20 	b *r0
5205               	;
5206               	; batnorth: PROCEDURE
5207               	even
5208               cvb_BATNORTH
5209               	; 	lkr = btr
5210 C616 D820  54 	movb @cvb_BTR,@cvb_LKR
     C618 2094     
     C61A 2098     
5211               	; 	GOSUB getlnk
5212 C61C 06A0  32 	bl @jsr
     C61E A974     
5213 C620 D076     	data cvb_GETLNK
5214               	; 	IF lkn = 255 THEN bfy = 1 : RETURN
5215 C622 D020  34 	movb @cvb_LKN,r0
     C624 2095     
5216 C626 0201  20 	li r1,65280   ; 255*256
     C628 FF00     
5217 C62A 9001  18 	cb r1,r0
5218 C62C 1302  14 	jeq cv353
5219 C62E 0460  28 	b @cv352
     C630 C63E     
5220               cv353
5221 C632 0200  20 	li r0,256   ; 1*256
     C634 0100     
5222 C636 D800  38 	movb r0,@cvb_BFY
     C638 2081     
5223 C63A C03A  30 	mov *r10+,r0
5224 C63C 0450  20 	b *r0
5225               cv352
5226               	; 	IF lkn = 18 THEN bfy = 1 : RETURN
5227 C63E D020  34 	movb @cvb_LKN,r0
     C640 2095     
5228 C642 0201  20 	li r1,4608   ; 18*256
     C644 1200     
5229 C646 9001  18 	cb r1,r0
5230 C648 1302  14 	jeq cv355
5231 C64A 0460  28 	b @cv354
     C64C C65A     
5232               cv355
5233 C64E 0200  20 	li r0,256   ; 1*256
     C650 0100     
5234 C652 D800  38 	movb r0,@cvb_BFY
     C654 2081     
5235 C656 C03A  30 	mov *r10+,r0
5236 C658 0450  20 	b *r0
5237               cv354
5238               	; 	btr = lkn : bty = 144
5239 C65A D820  54 	movb @cvb_LKN,@cvb_BTR
     C65C 2095     
     C65E 2094     
5240 C660 0200  20 	li r0,36864   ; 144*256
     C662 9000     
5241 C664 D800  38 	movb r0,@cvb_BTY
     C666 2097     
5242               	; 	END
5243 C668 C03A  30 	mov *r10+,r0
5244 C66A 0450  20 	b *r0
5245               	;
5246               	; batsouth: PROCEDURE
5247               	even
5248               cvb_BATSOUTH
5249               	; 	lkr = btr
5250 C66C D820  54 	movb @cvb_BTR,@cvb_LKR
     C66E 2094     
     C670 2098     
5251               	; 	GOSUB getlnk
5252 C672 06A0  32 	bl @jsr
     C674 A974     
5253 C676 D076     	data cvb_GETLNK
5254               	; 	IF lks = 255 THEN bfy = 0 : RETURN
5255 C678 D020  34 	movb @cvb_LKS,r0
     C67A 2099     
5256 C67C 0201  20 	li r1,65280   ; 255*256
     C67E FF00     
5257 C680 9001  18 	cb r1,r0
5258 C682 1302  14 	jeq cv357
5259 C684 0460  28 	b @cv356
     C686 C692     
5260               cv357
5261 C688 04C0  14 	clr r0
5262 C68A D800  38 	movb r0,@cvb_BFY
     C68C 2081     
5263 C68E C03A  30 	mov *r10+,r0
5264 C690 0450  20 	b *r0
5265               cv356
5266               	; 	IF lks = 18 THEN bfy = 0 : RETURN
5267 C692 D020  34 	movb @cvb_LKS,r0
     C694 2099     
5268 C696 0201  20 	li r1,4608   ; 18*256
     C698 1200     
5269 C69A 9001  18 	cb r1,r0
5270 C69C 1302  14 	jeq cv359
5271 C69E 0460  28 	b @cv358
     C6A0 C6AC     
5272               cv359
5273 C6A2 04C0  14 	clr r0
5274 C6A4 D800  38 	movb r0,@cvb_BFY
     C6A6 2081     
5275 C6A8 C03A  30 	mov *r10+,r0
5276 C6AA 0450  20 	b *r0
5277               cv358
5278               	; 	btr = lks : bty = 14
5279 C6AC D820  54 	movb @cvb_LKS,@cvb_BTR
     C6AE 2099     
     C6B0 2094     
5280 C6B2 0200  20 	li r0,3584   ; 14*256
     C6B4 0E00     
5281 C6B6 D800  38 	movb r0,@cvb_BTY
     C6B8 2097     
5282               	; 	END
5283 C6BA C03A  30 	mov *r10+,r0
5284 C6BC 0450  20 	b *r0
5285               	;
5286               	; batgrab: PROCEDURE
5287               	even
5288               cvb_BATGRAB
5289               	; 	FOR i = 0 TO 6
5290 C6BE 04C0  14 	clr r0
5291 C6C0 D800  38 	movb r0,@cvb_I
     C6C2 2086     
5292               cv360
5293               	; 	IF i <> btc THEN IF orm(i) = btr THEN GOSUB bgchk
5294 C6C4 D020  34 	movb @cvb_I,r0
     C6C6 2086     
5295 C6C8 9020  34 	cb @cvb_BTC,r0
     C6CA 2092     
5296 C6CC 1602  14 	jne cv362
5297 C6CE 0460  28 	b @cv361
     C6D0 C6EE     
5298               cv362
5299 C6D2 D020  34 	movb @cvb_I,r0
     C6D4 2086     
5300 C6D6 0980  32 	srl r0,8
5301 C6D8 0220  22 	ai r0,array_ORM
     C6DA 211A     
5302 C6DC D010  26 	movb *r0,r0
5303 C6DE 9020  34 	cb @cvb_BTR,r0
     C6E0 2094     
5304 C6E2 1302  14 	jeq cv364
5305 C6E4 0460  28 	b @cv363
     C6E6 C6EE     
5306               cv364
5307 C6E8 06A0  32 	bl @jsr
     C6EA A974     
5308 C6EC C70A     	data cvb_BGCHK
5309               cv363
5310               cv361
5311               	; 	NEXT i
5312 C6EE D020  34 	movb @cvb_I,r0
     C6F0 2086     
5313 C6F2 0220  22 	ai r0,256	; 1
     C6F4 0100     
5314 C6F6 D800  38 	movb r0,@cvb_I
     C6F8 2086     
5315 C6FA 0201  20 	li r1,1792   ; 7*256
     C6FC 0700     
5316 C6FE 9040  18 	cb r0,r1
5317 C700 1402  14 	jhe cv365
5318 C702 0460  28 	b @cv360
     C704 C6C4     
5319               cv365
5320               	; 	END
5321 C706 C03A  30 	mov *r10+,r0
5322 C708 0450  20 	b *r0
5323               	;
5324               	; bgchk: PROCEDURE
5325               	even
5326               cvb_BGCHK
5327               	; 	#ax = obx(i) + 8 : #bx = btx + 16
5328 C70A D020  34 	movb @cvb_I,r0
     C70C 2086     
5329 C70E 0980  32 	srl r0,8
5330 C710 0220  22 	ai r0,array_OBX
     C712 2106     
5331 C714 D010  26 	movb *r0,r0
5332 C716 0980  32 	srl r0,8
5333 C718 0220  22 	ai r0,8
     C71A 0008     
5334 C71C C800  38 	mov r0,@cvb__AX
     C71E 20AE     
5335 C720 D020  34 	movb @cvb_BTX,r0
     C722 2096     
5336 C724 0980  32 	srl r0,8
5337 C726 0220  22 	ai r0,16
     C728 0010     
5338 C72A C800  38 	mov r0,@cvb__BX
     C72C 20B0     
5339               	; 	GOSUB adiff
5340 C72E 06A0  32 	bl @jsr
     C730 A974     
5341 C732 C004     	data cvb_ADIFF
5342               	; 	IF #cx > 12 THEN RETURN
5343 C734 C020  34 	mov @cvb__CX,r0
     C736 20B2     
5344 C738 0201  20 	li r1,13
     C73A 000D     
5345 C73C 8040  18 	c r0,r1
5346 C73E 1402  14 	jhe cv367
5347 C740 0460  28 	b @cv366
     C742 C748     
5348               cv367
5349 C744 C03A  30 	mov *r10+,r0
5350 C746 0450  20 	b *r0
5351               cv366
5352               	; 	#ax = oby(i) + 6 : #bx = bty + 8
5353 C748 D020  34 	movb @cvb_I,r0
     C74A 2086     
5354 C74C 0980  32 	srl r0,8
5355 C74E 0220  22 	ai r0,array_OBY
     C750 210E     
5356 C752 D010  26 	movb *r0,r0
5357 C754 0980  32 	srl r0,8
5358 C756 0220  22 	ai r0,6
     C758 0006     
5359 C75A C800  38 	mov r0,@cvb__AX
     C75C 20AE     
5360 C75E D020  34 	movb @cvb_BTY,r0
     C760 2097     
5361 C762 0980  32 	srl r0,8
5362 C764 0220  22 	ai r0,8
     C766 0008     
5363 C768 C800  38 	mov r0,@cvb__BX
     C76A 20B0     
5364               	; 	GOSUB adiff
5365 C76C 06A0  32 	bl @jsr
     C76E A974     
5366 C770 C004     	data cvb_ADIFF
5367               	; 	IF #cx > 10 THEN RETURN
5368 C772 C020  34 	mov @cvb__CX,r0
     C774 20B2     
5369 C776 0201  20 	li r1,11
     C778 000B     
5370 C77A 8040  18 	c r0,r1
5371 C77C 1402  14 	jhe cv369
5372 C77E 0460  28 	b @cv368
     C780 C786     
5373               cv369
5374 C782 C03A  30 	mov *r10+,r0
5375 C784 0450  20 	b *r0
5376               cv368
5377               	; 	' anti-softlock guards:
5378               	; 	' never take the bridge out of a chamber room, and never
5379               	; 	' swap-drop a carried object inside a sealed chamber
5380               	; 	IF i = 4 THEN IF btr = 6 THEN RETURN
5381 C786 D020  34 	movb @cvb_I,r0
     C788 2086     
5382 C78A 0201  20 	li r1,1024   ; 4*256
     C78C 0400     
5383 C78E 9001  18 	cb r1,r0
5384 C790 1302  14 	jeq cv371
5385 C792 0460  28 	b @cv370
     C794 C7AA     
5386               cv371
5387 C796 D020  34 	movb @cvb_BTR,r0
     C798 2094     
5388 C79A 0201  20 	li r1,1536   ; 6*256
     C79C 0600     
5389 C79E 9001  18 	cb r1,r0
5390 C7A0 1302  14 	jeq cv373
5391 C7A2 0460  28 	b @cv372
     C7A4 C7AA     
5392               cv373
5393 C7A6 C03A  30 	mov *r10+,r0
5394 C7A8 0450  20 	b *r0
5395               cv372
5396               cv370
5397               	; 	IF i = 4 THEN IF btr = 28 THEN RETURN
5398 C7AA D020  34 	movb @cvb_I,r0
     C7AC 2086     
5399 C7AE 0201  20 	li r1,1024   ; 4*256
     C7B0 0400     
5400 C7B2 9001  18 	cb r1,r0
5401 C7B4 1302  14 	jeq cv375
5402 C7B6 0460  28 	b @cv374
     C7B8 C7CE     
5403               cv375
5404 C7BA D020  34 	movb @cvb_BTR,r0
     C7BC 2094     
5405 C7BE 0201  20 	li r1,7168   ; 28*256
     C7C0 1C00     
5406 C7C2 9001  18 	cb r1,r0
5407 C7C4 1302  14 	jeq cv377
5408 C7C6 0460  28 	b @cv376
     C7C8 C7CE     
5409               cv377
5410 C7CA C03A  30 	mov *r10+,r0
5411 C7CC 0450  20 	b *r0
5412               cv376
5413               cv374
5414               	; 	IF btc < 8 THEN IF (btr = 6) OR (btr = 28) THEN IF obx(i) > 160 THEN IF obx(i) < 216 THEN IF oby(i) < 64 THEN RETURN
5415 C7CE D020  34 	movb @cvb_BTC,r0
     C7D0 2092     
5416 C7D2 0201  20 	li r1,2048   ; 8*256
     C7D4 0800     
5417 C7D6 9040  18 	cb r0,r1
5418 C7D8 1A02  14 	jl cv379
5419 C7DA 0460  28 	b @cv378
     C7DC C85C     
5420               cv379
5421 C7DE D020  34 	movb @cvb_BTR,r0
     C7E0 2094     
5422 C7E2 0201  20 	li r1,7168   ; 28*256
     C7E4 1C00     
5423 C7E6 9001  18 	cb r1,r0
5424 C7E8 1302  14 	jeq cv381
5425 C7EA 04C0  14 	clr r0
5426 C7EC 1001  14 	jmp $+4
5427               cv381
5428 C7EE 0700  14 	seto r0
5429 C7F0 064A  14 	dect r10
5430 C7F2 C680  30 	mov r0,*r10
5431 C7F4 D020  34 	movb @cvb_BTR,r0
     C7F6 2094     
5432 C7F8 0201  20 	li r1,1536   ; 6*256
     C7FA 0600     
5433 C7FC 9001  18 	cb r1,r0
5434 C7FE 1302  14 	jeq cv382
5435 C800 04C0  14 	clr r0
5436 C802 1001  14 	jmp $+4
5437               cv382
5438 C804 0700  14 	seto r0
5439 C806 C07A  30 	mov *r10+,r1
5440 C808 F001  18 	socb r1,r0
5441 C80A 1602  14 	jne cv383
5442 C80C 0460  28 	b @cv380
     C80E C85C     
5443               cv383
5444 C810 D020  34 	movb @cvb_I,r0
     C812 2086     
5445 C814 0980  32 	srl r0,8
5446 C816 0220  22 	ai r0,array_OBX
     C818 2106     
5447 C81A D010  26 	movb *r0,r0
5448 C81C 0201  20 	li r1,41216   ; 161*256
     C81E A100     
5449 C820 9040  18 	cb r0,r1
5450 C822 1402  14 	jhe cv385
5451 C824 0460  28 	b @cv384
     C826 C85C     
5452               cv385
5453 C828 D020  34 	movb @cvb_I,r0
     C82A 2086     
5454 C82C 0980  32 	srl r0,8
5455 C82E 0220  22 	ai r0,array_OBX
     C830 2106     
5456 C832 D010  26 	movb *r0,r0
5457 C834 0201  20 	li r1,55296   ; 216*256
     C836 D800     
5458 C838 9040  18 	cb r0,r1
5459 C83A 1A02  14 	jl cv387
5460 C83C 0460  28 	b @cv386
     C83E C85C     
5461               cv387
5462 C840 D020  34 	movb @cvb_I,r0
     C842 2086     
5463 C844 0980  32 	srl r0,8
5464 C846 0220  22 	ai r0,array_OBY
     C848 210E     
5465 C84A D010  26 	movb *r0,r0
5466 C84C 0201  20 	li r1,16384   ; 64*256
     C84E 4000     
5467 C850 9040  18 	cb r0,r1
5468 C852 1A02  14 	jl cv389
5469 C854 0460  28 	b @cv388
     C856 C85C     
5470               cv389
5471 C858 C03A  30 	mov *r10+,r0
5472 C85A 0450  20 	b *r0
5473               cv388
5474               cv386
5475               cv384
5476               cv380
5477               cv378
5478               	; 	' steal it out of the player's hands if need be
5479               	; 	IF i = cr THEN cr = 255 : pkcd = 10
5480 C85C D020  34 	movb @cvb_I,r0
     C85E 2086     
5481 C860 9020  34 	cb @cvb_CR,r0
     C862 20C2     
5482 C864 1302  14 	jeq cv391
5483 C866 0460  28 	b @cv390
     C868 C87A     
5484               cv391
5485 C86A 0200  20 	li r0,65280   ; 255*256
     C86C FF00     
5486 C86E D800  38 	movb r0,@cvb_CR
     C870 20C2     
5487 C872 0200  20 	li r0,2560   ; 10*256
     C874 0A00     
5488 C876 D800  38 	movb r0,@cvb_PKCD
     C878 20A4     
5489               cv390
5490               	; 	t = btc : btc = i
5491 C87A D820  54 	movb @cvb_BTC,@cvb_T
     C87C 2092     
     C87E 208B     
5492 C880 D820  54 	movb @cvb_I,@cvb_BTC
     C882 2086     
     C884 2092     
5493               	; 	IF t < 8 THEN orm(t) = btr : obx(t) = obx(i) : oby(t) = oby(i)
5494 C886 D020  34 	movb @cvb_T,r0
     C888 208B     
5495 C88A 0201  20 	li r1,2048   ; 8*256
     C88C 0800     
5496 C88E 9040  18 	cb r0,r1
5497 C890 1A02  14 	jl cv393
5498 C892 0460  28 	b @cv392
     C894 C8D6     
5499               cv393
5500 C896 D060  34 	movb @cvb_BTR,r1
     C898 2094     
5501 C89A D020  34 	movb @cvb_T,r0
     C89C 208B     
5502 C89E 0980  32 	srl r0,8
5503 C8A0 0220  22 	ai r0,array_ORM
     C8A2 211A     
5504 C8A4 D401  30 	movb r1,*r0
5505 C8A6 D020  34 	movb @cvb_I,r0
     C8A8 2086     
5506 C8AA 0980  32 	srl r0,8
5507 C8AC 0220  22 	ai r0,array_OBX
     C8AE 2106     
5508 C8B0 D050  26 	movb *r0,r1
5509 C8B2 D020  34 	movb @cvb_T,r0
     C8B4 208B     
5510 C8B6 0980  32 	srl r0,8
5511 C8B8 0220  22 	ai r0,array_OBX
     C8BA 2106     
5512 C8BC D401  30 	movb r1,*r0
5513 C8BE D020  34 	movb @cvb_I,r0
     C8C0 2086     
5514 C8C2 0980  32 	srl r0,8
5515 C8C4 0220  22 	ai r0,array_OBY
     C8C6 210E     
5516 C8C8 D050  26 	movb *r0,r1
5517 C8CA D020  34 	movb @cvb_T,r0
     C8CC 208B     
5518 C8CE 0980  32 	srl r0,8
5519 C8D0 0220  22 	ai r0,array_OBY
     C8D2 210E     
5520 C8D4 D401  30 	movb r1,*r0
5521               cv392
5522               	; 	btcd = 150 : sfx = 6 : sfc = 10
5523 C8D6 0200  20 	li r0,38400   ; 150*256
     C8D8 9600     
5524 C8DA D800  38 	movb r0,@cvb_BTCD
     C8DC 20B4     
5525 C8DE 0200  20 	li r0,1536   ; 6*256
     C8E0 0600     
5526 C8E2 D800  38 	movb r0,@cvb_SFX
     C8E4 20D3     
5527 C8E6 0200  20 	li r0,2560   ; 10*256
     C8E8 0A00     
5528 C8EA D800  38 	movb r0,@cvb_SFC
     C8EC 20CC     
5529               	; 	END
5530 C8EE C03A  30 	mov *r10+,r0
5531 C8F0 0450  20 	b *r0
5532               	;
5533               	; 	' ------------------------------------------------------------
5534               	; 	' dragon: greedy chase (prefer the longer axis, slide on the
5535               	; 	' other), sword check, then bite check. Fast flag (dsp=1)
5536               	; 	' marks the red dragon. Shown 32x32; wall box = central 8x16.
5537               	; 	' ------------------------------------------------------------
5538               	; dragondo: PROCEDURE
5539               	even
5540               cvb_DRAGONDO
5541               	; 	IF dst(d) = 1 THEN RETURN
5542 C8F2 D020  34 	movb @cvb_D,r0
     C8F4 2083     
5543 C8F6 0980  32 	srl r0,8
5544 C8F8 0220  22 	ai r0,array_DST
     C8FA 20FA     
5545 C8FC D010  26 	movb *r0,r0
5546 C8FE 0201  20 	li r1,256   ; 1*256
     C900 0100     
5547 C902 9001  18 	cb r1,r0
5548 C904 1302  14 	jeq cv395
5549 C906 0460  28 	b @cv394
     C908 C90E     
5550               cv395
5551 C90A C03A  30 	mov *r10+,r0
5552 C90C 0450  20 	b *r0
5553               cv394
5554               	; 	tpx = px : IF tpx > 12 THEN tpx = tpx - 12
5555 C90E D820  54 	movb @cvb_PX,@cvb_TPX
     C910 20D0     
     C912 208C     
5556 C914 D020  34 	movb @cvb_TPX,r0
     C916 208C     
5557 C918 0201  20 	li r1,3328   ; 13*256
     C91A 0D00     
5558 C91C 9040  18 	cb r0,r1
5559 C91E 1402  14 	jhe cv397
5560 C920 0460  28 	b @cv396
     C922 C930     
5561               cv397
5562 C924 D020  34 	movb @cvb_TPX,r0
     C926 208C     
5563 C928 0220  22 	ai r0,62464	; -12
     C92A F400     
5564 C92C D800  38 	movb r0,@cvb_TPX
     C92E 208C     
5565               cv396
5566               	; 	tpy = py : IF tpy > 12 THEN tpy = tpy - 12
5567 C930 D820  54 	movb @cvb_PY,@cvb_TPY
     C932 20D1     
     C934 208D     
5568 C936 D020  34 	movb @cvb_TPY,r0
     C938 208D     
5569 C93A 0201  20 	li r1,3328   ; 13*256
     C93C 0D00     
5570 C93E 9040  18 	cb r0,r1
5571 C940 1402  14 	jhe cv399
5572 C942 0460  28 	b @cv398
     C944 C952     
5573               cv399
5574 C946 D020  34 	movb @cvb_TPY,r0
     C948 208D     
5575 C94A 0220  22 	ai r0,62464	; -12
     C94C F400     
5576 C94E D800  38 	movb r0,@cvb_TPY
     C950 208D     
5577               cv398
5578               	; 	ds = 2 + (tk AND 1)
5579 C952 D020  34 	movb @cvb_TK,r0
     C954 20D7     
5580 C956 0201  20 	li r1,256   ; 1*256
     C958 0100     
5581 C95A 0541  14 	inv r1
5582 C95C 5001  18 	szcb r1,r0
5583 C95E 0220  22 	ai r0,512	; 2
     C960 0200     
5584 C962 D800  38 	movb r0,@cvb_DS
     C964 20C5     
5585               	; 	IF dsp(d) = 1 THEN ds = 3
5586 C966 D020  34 	movb @cvb_D,r0
     C968 2083     
5587 C96A 0980  32 	srl r0,8
5588 C96C 0220  22 	ai r0,array_DSP
     C96E 20F6     
5589 C970 D010  26 	movb *r0,r0
5590 C972 0201  20 	li r1,256   ; 1*256
     C974 0100     
5591 C976 9001  18 	cb r1,r0
5592 C978 1302  14 	jeq cv401
5593 C97A 0460  28 	b @cv400
     C97C C986     
5594               cv401
5595 C97E 0200  20 	li r0,768   ; 3*256
     C980 0300     
5596 C982 D800  38 	movb r0,@cvb_DS
     C984 20C5     
5597               cv400
5598               	; 	#ax = ddx(d) : #bx = tpx
5599 C986 D020  34 	movb @cvb_D,r0
     C988 2083     
5600 C98A 0980  32 	srl r0,8
5601 C98C 0220  22 	ai r0,array_DDX
     C98E 20E2     
5602 C990 D010  26 	movb *r0,r0
5603 C992 0980  32 	srl r0,8
5604 C994 C800  38 	mov r0,@cvb__AX
     C996 20AE     
5605 C998 D020  34 	movb @cvb_TPX,r0
     C99A 208C     
5606 C99C 0980  32 	srl r0,8
5607 C99E C800  38 	mov r0,@cvb__BX
     C9A0 20B0     
5608               	; 	GOSUB adiff
5609 C9A2 06A0  32 	bl @jsr
     C9A4 A974     
5610 C9A6 C004     	data cvb_ADIFF
5611               	; 	#dx = #cx
5612 C9A8 C820  54 	mov @cvb__CX,@cvb__DX
     C9AA 20B2     
     C9AC 20B6     
5613               	; 	#ax = ddy(d) : #bx = tpy
5614 C9AE D020  34 	movb @cvb_D,r0
     C9B0 2083     
5615 C9B2 0980  32 	srl r0,8
5616 C9B4 0220  22 	ai r0,array_DDY
     C9B6 20E6     
5617 C9B8 D010  26 	movb *r0,r0
5618 C9BA 0980  32 	srl r0,8
5619 C9BC C800  38 	mov r0,@cvb__AX
     C9BE 20AE     
5620 C9C0 D020  34 	movb @cvb_TPY,r0
     C9C2 208D     
5621 C9C4 0980  32 	srl r0,8
5622 C9C6 C800  38 	mov r0,@cvb__BX
     C9C8 20B0     
5623               	; 	GOSUB adiff
5624 C9CA 06A0  32 	bl @jsr
     C9CC A974     
5625 C9CE C004     	data cvb_ADIFF
5626               	; 	m = 0
5627 C9D0 04C0  14 	clr r0
5628 C9D2 D800  38 	movb r0,@cvb_M
     C9D4 2087     
5629               	; 	IF #dx >= #cx THEN GOSUB dmovx ELSE GOSUB dmovy
5630 C9D6 C020  34 	mov @cvb__DX,r0
     C9D8 20B6     
5631 C9DA 8800  34 	c r0,@cvb__CX
     C9DC 20B2     
5632 C9DE 1402  14 	jhe cv403
5633 C9E0 0460  28 	b @cv402
     C9E2 C9EE     
5634               cv403
5635 C9E4 06A0  32 	bl @jsr
     C9E6 A974     
5636 C9E8 CACA     	data cvb_DMOVX
5637 C9EA 0460  28 	b @cv404
     C9EC C9F4     
5638               cv402
5639 C9EE 06A0  32 	bl @jsr
     C9F0 A974     
5640 C9F2 CB6A     	data cvb_DMOVY
5641               cv404
5642               	; 	IF m = 0 THEN IF #dx >= #cx THEN GOSUB dmovy ELSE GOSUB dmovx
5643 C9F4 D020  34 	movb @cvb_M,r0
     C9F6 2087     
5644 C9F8 1302  14 	jeq cv406
5645 C9FA 0460  28 	b @cv405
     C9FC CA1C     
5646               cv406
5647 C9FE C020  34 	mov @cvb__DX,r0
     CA00 20B6     
5648 CA02 8800  34 	c r0,@cvb__CX
     CA04 20B2     
5649 CA06 1402  14 	jhe cv408
5650 CA08 0460  28 	b @cv407
     CA0A CA16     
5651               cv408
5652 CA0C 06A0  32 	bl @jsr
     CA0E A974     
5653 CA10 CB6A     	data cvb_DMOVY
5654 CA12 0460  28 	b @cv409
     CA14 CA1C     
5655               cv407
5656 CA16 06A0  32 	bl @jsr
     CA18 A974     
5657 CA1A CACA     	data cvb_DMOVX
5658               cv409
5659               cv405
5660               	; 	GOSUB swordchk
5661 CA1C 06A0  32 	bl @jsr
     CA1E A974     
5662 CA20 CCA4     	data cvb_SWORDCHK
5663               	; 	IF dst(d) = 1 THEN RETURN
5664 CA22 D020  34 	movb @cvb_D,r0
     CA24 2083     
5665 CA26 0980  32 	srl r0,8
5666 CA28 0220  22 	ai r0,array_DST
     CA2A 20FA     
5667 CA2C D010  26 	movb *r0,r0
5668 CA2E 0201  20 	li r1,256   ; 1*256
     CA30 0100     
5669 CA32 9001  18 	cb r1,r0
5670 CA34 1302  14 	jeq cv411
5671 CA36 0460  28 	b @cv410
     CA38 CA3E     
5672               cv411
5673 CA3A C03A  30 	mov *r10+,r0
5674 CA3C 0450  20 	b *r0
5675               cv410
5676               	; 	' bite: dragon centre (32x64 shown) vs player centre
5677               	; 	#ax = ddx(d) + 16 : #bx = px + 4
5678 CA3E D020  34 	movb @cvb_D,r0
     CA40 2083     
5679 CA42 0980  32 	srl r0,8
5680 CA44 0220  22 	ai r0,array_DDX
     CA46 20E2     
5681 CA48 D010  26 	movb *r0,r0
5682 CA4A 0980  32 	srl r0,8
5683 CA4C 0220  22 	ai r0,16
     CA4E 0010     
5684 CA50 C800  38 	mov r0,@cvb__AX
     CA52 20AE     
5685 CA54 D020  34 	movb @cvb_PX,r0
     CA56 20D0     
5686 CA58 0980  32 	srl r0,8
5687 CA5A 0220  22 	ai r0,4
     CA5C 0004     
5688 CA5E C800  38 	mov r0,@cvb__BX
     CA60 20B0     
5689               	; 	GOSUB adiff
5690 CA62 06A0  32 	bl @jsr
     CA64 A974     
5691 CA66 C004     	data cvb_ADIFF
5692               	; 	IF #cx > 14 THEN RETURN
5693 CA68 C020  34 	mov @cvb__CX,r0
     CA6A 20B2     
5694 CA6C 0201  20 	li r1,15
     CA6E 000F     
5695 CA70 8040  18 	c r0,r1
5696 CA72 1402  14 	jhe cv413
5697 CA74 0460  28 	b @cv412
     CA76 CA7C     
5698               cv413
5699 CA78 C03A  30 	mov *r10+,r0
5700 CA7A 0450  20 	b *r0
5701               cv412
5702               	; 	#ax = ddy(d) + 32 : #bx = py + 4
5703 CA7C D020  34 	movb @cvb_D,r0
     CA7E 2083     
5704 CA80 0980  32 	srl r0,8
5705 CA82 0220  22 	ai r0,array_DDY
     CA84 20E6     
5706 CA86 D010  26 	movb *r0,r0
5707 CA88 0980  32 	srl r0,8
5708 CA8A 0220  22 	ai r0,32
     CA8C 0020     
5709 CA8E C800  38 	mov r0,@cvb__AX
     CA90 20AE     
5710 CA92 D020  34 	movb @cvb_PY,r0
     CA94 20D1     
5711 CA96 0980  32 	srl r0,8
5712 CA98 0220  22 	ai r0,4
     CA9A 0004     
5713 CA9C C800  38 	mov r0,@cvb__BX
     CA9E 20B0     
5714               	; 	GOSUB adiff
5715 CAA0 06A0  32 	bl @jsr
     CAA2 A974     
5716 CAA4 C004     	data cvb_ADIFF
5717               	; 	IF #cx > 24 THEN RETURN
5718 CAA6 C020  34 	mov @cvb__CX,r0
     CAA8 20B2     
5719 CAAA 0201  20 	li r1,25
     CAAC 0019     
5720 CAAE 8040  18 	c r0,r1
5721 CAB0 1402  14 	jhe cv415
5722 CAB2 0460  28 	b @cv414
     CAB4 CABA     
5723               cv415
5724 CAB6 C03A  30 	mov *r10+,r0
5725 CAB8 0450  20 	b *r0
5726               cv414
5727               	; 	eflag = d + 1
5728 CABA D020  34 	movb @cvb_D,r0
     CABC 2083     
5729 CABE 0220  22 	ai r0,256	; 1
     CAC0 0100     
5730 CAC2 D800  38 	movb r0,@cvb_EFLAG
     CAC4 209F     
5731               	; 	END
5732 CAC6 C03A  30 	mov *r10+,r0
5733 CAC8 0450  20 	b *r0
5734               	;
5735               	; 	' dragons glide OVER walls, like the cartridge's - the maze
5736               	; 	' never protects you, only the sword does
5737               	; dmovx: PROCEDURE
5738               	even
5739               cvb_DMOVX
5740               	; 	IF ddx(d) = tpx THEN RETURN
5741 CACA D020  34 	movb @cvb_D,r0
     CACC 2083     
5742 CACE 0980  32 	srl r0,8
5743 CAD0 0220  22 	ai r0,array_DDX
     CAD2 20E2     
5744 CAD4 D010  26 	movb *r0,r0
5745 CAD6 9020  34 	cb @cvb_TPX,r0
     CAD8 208C     
5746 CADA 1302  14 	jeq cv417
5747 CADC 0460  28 	b @cv416
     CADE CAE4     
5748               cv417
5749 CAE0 C03A  30 	mov *r10+,r0
5750 CAE2 0450  20 	b *r0
5751               cv416
5752               	; 	IF tpx > ddx(d) THEN t = ddx(d) + ds ELSE t = ddx(d) - ds
5753 CAE4 D020  34 	movb @cvb_D,r0
     CAE6 2083     
5754 CAE8 0980  32 	srl r0,8
5755 CAEA 0220  22 	ai r0,array_DDX
     CAEC 20E2     
5756 CAEE D010  26 	movb *r0,r0
5757 CAF0 9800  34 	cb r0,@cvb_TPX
     CAF2 208C     
5758 CAF4 1A02  14 	jl cv419
5759 CAF6 0460  28 	b @cv418
     CAF8 CB12     
5760               cv419
5761 CAFA D020  34 	movb @cvb_D,r0
     CAFC 2083     
5762 CAFE 0980  32 	srl r0,8
5763 CB00 0220  22 	ai r0,array_DDX
     CB02 20E2     
5764 CB04 D010  26 	movb *r0,r0
5765 CB06 B020  34 	ab @cvb_DS,r0
     CB08 20C5     
5766 CB0A D800  38 	movb r0,@cvb_T
     CB0C 208B     
5767 CB0E 0460  28 	b @cv420
     CB10 CB26     
5768               cv418
5769 CB12 D020  34 	movb @cvb_D,r0
     CB14 2083     
5770 CB16 0980  32 	srl r0,8
5771 CB18 0220  22 	ai r0,array_DDX
     CB1A 20E2     
5772 CB1C D010  26 	movb *r0,r0
5773 CB1E 7020  34 	sb @cvb_DS,r0
     CB20 20C5     
5774 CB22 D800  38 	movb r0,@cvb_T
     CB24 208B     
5775               cv420
5776               	; 	IF t < 4 THEN RETURN
5777 CB26 D020  34 	movb @cvb_T,r0
     CB28 208B     
5778 CB2A 0201  20 	li r1,1024   ; 4*256
     CB2C 0400     
5779 CB2E 9040  18 	cb r0,r1
5780 CB30 1A02  14 	jl cv422
5781 CB32 0460  28 	b @cv421
     CB34 CB3A     
5782               cv422
5783 CB36 C03A  30 	mov *r10+,r0
5784 CB38 0450  20 	b *r0
5785               cv421
5786               	; 	IF t > 220 THEN RETURN
5787 CB3A D020  34 	movb @cvb_T,r0
     CB3C 208B     
5788 CB3E 0201  20 	li r1,56576   ; 221*256
     CB40 DD00     
5789 CB42 9040  18 	cb r0,r1
5790 CB44 1402  14 	jhe cv424
5791 CB46 0460  28 	b @cv423
     CB48 CB4E     
5792               cv424
5793 CB4A C03A  30 	mov *r10+,r0
5794 CB4C 0450  20 	b *r0
5795               cv423
5796               	; 	ddx(d) = t : m = 1
5797 CB4E D060  34 	movb @cvb_T,r1
     CB50 208B     
5798 CB52 D020  34 	movb @cvb_D,r0
     CB54 2083     
5799 CB56 0980  32 	srl r0,8
5800 CB58 0220  22 	ai r0,array_DDX
     CB5A 20E2     
5801 CB5C D401  30 	movb r1,*r0
5802 CB5E 0200  20 	li r0,256   ; 1*256
     CB60 0100     
5803 CB62 D800  38 	movb r0,@cvb_M
     CB64 2087     
5804               	; 	END
5805 CB66 C03A  30 	mov *r10+,r0
5806 CB68 0450  20 	b *r0
5807               	;
5808               	; dmovy: PROCEDURE
5809               	even
5810               cvb_DMOVY
5811               	; 	IF ddy(d) = tpy THEN RETURN
5812 CB6A D020  34 	movb @cvb_D,r0
     CB6C 2083     
5813 CB6E 0980  32 	srl r0,8
5814 CB70 0220  22 	ai r0,array_DDY
     CB72 20E6     
5815 CB74 D010  26 	movb *r0,r0
5816 CB76 9020  34 	cb @cvb_TPY,r0
     CB78 208D     
5817 CB7A 1302  14 	jeq cv426
5818 CB7C 0460  28 	b @cv425
     CB7E CB84     
5819               cv426
5820 CB80 C03A  30 	mov *r10+,r0
5821 CB82 0450  20 	b *r0
5822               cv425
5823               	; 	IF tpy > ddy(d) THEN t = ddy(d) + ds ELSE t = ddy(d) - ds
5824 CB84 D020  34 	movb @cvb_D,r0
     CB86 2083     
5825 CB88 0980  32 	srl r0,8
5826 CB8A 0220  22 	ai r0,array_DDY
     CB8C 20E6     
5827 CB8E D010  26 	movb *r0,r0
5828 CB90 9800  34 	cb r0,@cvb_TPY
     CB92 208D     
5829 CB94 1A02  14 	jl cv428
5830 CB96 0460  28 	b @cv427
     CB98 CBB2     
5831               cv428
5832 CB9A D020  34 	movb @cvb_D,r0
     CB9C 2083     
5833 CB9E 0980  32 	srl r0,8
5834 CBA0 0220  22 	ai r0,array_DDY
     CBA2 20E6     
5835 CBA4 D010  26 	movb *r0,r0
5836 CBA6 B020  34 	ab @cvb_DS,r0
     CBA8 20C5     
5837 CBAA D800  38 	movb r0,@cvb_T
     CBAC 208B     
5838 CBAE 0460  28 	b @cv429
     CBB0 CBC6     
5839               cv427
5840 CBB2 D020  34 	movb @cvb_D,r0
     CBB4 2083     
5841 CBB6 0980  32 	srl r0,8
5842 CBB8 0220  22 	ai r0,array_DDY
     CBBA 20E6     
5843 CBBC D010  26 	movb *r0,r0
5844 CBBE 7020  34 	sb @cvb_DS,r0
     CBC0 20C5     
5845 CBC2 D800  38 	movb r0,@cvb_T
     CBC4 208B     
5846               cv429
5847               	; 	IF t < 4 THEN RETURN
5848 CBC6 D020  34 	movb @cvb_T,r0
     CBC8 208B     
5849 CBCA 0201  20 	li r1,1024   ; 4*256
     CBCC 0400     
5850 CBCE 9040  18 	cb r0,r1
5851 CBD0 1A02  14 	jl cv431
5852 CBD2 0460  28 	b @cv430
     CBD4 CBDA     
5853               cv431
5854 CBD6 C03A  30 	mov *r10+,r0
5855 CBD8 0450  20 	b *r0
5856               cv430
5857               	; 	IF t > 124 THEN RETURN
5858 CBDA D020  34 	movb @cvb_T,r0
     CBDC 208B     
5859 CBDE 0201  20 	li r1,32000   ; 125*256
     CBE0 7D00     
5860 CBE2 9040  18 	cb r0,r1
5861 CBE4 1402  14 	jhe cv433
5862 CBE6 0460  28 	b @cv432
     CBE8 CBEE     
5863               cv433
5864 CBEA C03A  30 	mov *r10+,r0
5865 CBEC 0450  20 	b *r0
5866               cv432
5867               	; 	ddy(d) = t : m = 1
5868 CBEE D060  34 	movb @cvb_T,r1
     CBF0 208B     
5869 CBF2 D020  34 	movb @cvb_D,r0
     CBF4 2083     
5870 CBF6 0980  32 	srl r0,8
5871 CBF8 0220  22 	ai r0,array_DDY
     CBFA 20E6     
5872 CBFC D401  30 	movb r1,*r0
5873 CBFE 0200  20 	li r0,256   ; 1*256
     CC00 0100     
5874 CC02 D800  38 	movb r0,@cvb_M
     CC04 2087     
5875               	; 	END
5876 CC06 C03A  30 	mov *r10+,r0
5877 CC08 0450  20 	b *r0
5878               	;
5879               	; 	' a live dragon left behind bursts into your room a beat later
5880               	; dfollow: PROCEDURE
5881               	even
5882               cvb_DFOLLOW
5883               	; 	fdl(d) = fdl(d) - 1
5884 CC0A D020  34 	movb @cvb_D,r0
     CC0C 2083     
5885 CC0E 0980  32 	srl r0,8
5886 CC10 0220  22 	ai r0,array_FDL
     CC12 2116     
5887 CC14 D010  26 	movb *r0,r0
5888 CC16 0220  22 	ai r0,65280	; -1
     CC18 FF00     
5889 CC1A C040  18 	mov r0,r1
5890 CC1C D020  34 	movb @cvb_D,r0
     CC1E 2083     
5891 CC20 0980  32 	srl r0,8
5892 CC22 0220  22 	ai r0,array_FDL
     CC24 2116     
5893 CC26 D401  30 	movb r1,*r0
5894               	; 	IF fdl(d) > 0 THEN RETURN
5895 CC28 D020  34 	movb @cvb_D,r0
     CC2A 2083     
5896 CC2C 0980  32 	srl r0,8
5897 CC2E 0220  22 	ai r0,array_FDL
     CC30 2116     
5898 CC32 D010  26 	movb *r0,r0
5899 CC34 0201  20 	li r1,256   ; 1*256
     CC36 0100     
5900 CC38 9040  18 	cb r0,r1
5901 CC3A 1402  14 	jhe cv435
5902 CC3C 0460  28 	b @cv434
     CC3E CC44     
5903               cv435
5904 CC40 C03A  30 	mov *r10+,r0
5905 CC42 0450  20 	b *r0
5906               cv434
5907               	; 	IF dst(d) = 1 THEN RETURN
5908 CC44 D020  34 	movb @cvb_D,r0
     CC46 2083     
5909 CC48 0980  32 	srl r0,8
5910 CC4A 0220  22 	ai r0,array_DST
     CC4C 20FA     
5911 CC4E D010  26 	movb *r0,r0
5912 CC50 0201  20 	li r1,256   ; 1*256
     CC52 0100     
5913 CC54 9001  18 	cb r1,r0
5914 CC56 1302  14 	jeq cv437
5915 CC58 0460  28 	b @cv436
     CC5A CC60     
5916               cv437
5917 CC5C C03A  30 	mov *r10+,r0
5918 CC5E 0450  20 	b *r0
5919               cv436
5920               	; 	drm(d) = rn : ddx(d) = 108 : ddy(d) = 64
5921 CC60 D060  34 	movb @cvb_RN,r1
     CC62 20D4     
5922 CC64 D020  34 	movb @cvb_D,r0
     CC66 2083     
5923 CC68 0980  32 	srl r0,8
5924 CC6A 0220  22 	ai r0,array_DRM
     CC6C 20F2     
5925 CC6E D401  30 	movb r1,*r0
5926 CC70 0201  20 	li r1,27648
     CC72 6C00     
5927 CC74 D020  34 	movb @cvb_D,r0
     CC76 2083     
5928 CC78 0980  32 	srl r0,8
5929 CC7A 0220  22 	ai r0,array_DDX
     CC7C 20E2     
5930 CC7E D401  30 	movb r1,*r0
5931 CC80 0201  20 	li r1,16384
     CC82 4000     
5932 CC84 D020  34 	movb @cvb_D,r0
     CC86 2083     
5933 CC88 0980  32 	srl r0,8
5934 CC8A 0220  22 	ai r0,array_DDY
     CC8C 20E6     
5935 CC8E D401  30 	movb r1,*r0
5936               	; 	sfx = 5 : sfc = 20
5937 CC90 0200  20 	li r0,1280   ; 5*256
     CC92 0500     
5938 CC94 D800  38 	movb r0,@cvb_SFX
     CC96 20D3     
5939 CC98 0200  20 	li r0,5120   ; 20*256
     CC9A 1400     
5940 CC9C D800  38 	movb r0,@cvb_SFC
     CC9E 20CC     
5941               	; 	END
5942 CCA0 C03A  30 	mov *r10+,r0
5943 CCA2 0450  20 	b *r0
5944               	;
5945               	; swordchk: PROCEDURE
5946               	even
5947               cvb_SWORDCHK
5948               	; 	' the sword (object 3) slays on contact, carried OR lying
5949               	; 	IF orm(3) <> drm(d) THEN RETURN
5950 CCA4 D020  34 	movb @cvb_D,r0
     CCA6 2083     
5951 CCA8 0980  32 	srl r0,8
5952 CCAA 0220  22 	ai r0,array_DRM
     CCAC 20F2     
5953 CCAE D050  26 	movb *r0,r1
5954 CCB0 D020  34 	movb @array_ORM+3,r0
     CCB2 211D     
5955 CCB4 9001  18 	cb r1,r0
5956 CCB6 1602  14 	jne cv439
5957 CCB8 0460  28 	b @cv438
     CCBA CCC0     
5958               cv439
5959 CCBC C03A  30 	mov *r10+,r0
5960 CCBE 0450  20 	b *r0
5961               cv438
5962               	; 	#ax = obx(3) + 12 : #bx = ddx(d) + 16
5963 CCC0 D020  34 	movb @array_OBX+3,r0
     CCC2 2109     
5964 CCC4 0980  32 	srl r0,8
5965 CCC6 0220  22 	ai r0,12
     CCC8 000C     
5966 CCCA C800  38 	mov r0,@cvb__AX
     CCCC 20AE     
5967 CCCE D020  34 	movb @cvb_D,r0
     CCD0 2083     
5968 CCD2 0980  32 	srl r0,8
5969 CCD4 0220  22 	ai r0,array_DDX
     CCD6 20E2     
5970 CCD8 D010  26 	movb *r0,r0
5971 CCDA 0980  32 	srl r0,8
5972 CCDC 0220  22 	ai r0,16
     CCDE 0010     
5973 CCE0 C800  38 	mov r0,@cvb__BX
     CCE2 20B0     
5974               	; 	GOSUB adiff
5975 CCE4 06A0  32 	bl @jsr
     CCE6 A974     
5976 CCE8 C004     	data cvb_ADIFF
5977               	; 	IF #cx > 17 THEN RETURN
5978 CCEA C020  34 	mov @cvb__CX,r0
     CCEC 20B2     
5979 CCEE 0201  20 	li r1,18
     CCF0 0012     
5980 CCF2 8040  18 	c r0,r1
5981 CCF4 1402  14 	jhe cv441
5982 CCF6 0460  28 	b @cv440
     CCF8 CCFE     
5983               cv441
5984 CCFA C03A  30 	mov *r10+,r0
5985 CCFC 0450  20 	b *r0
5986               cv440
5987               	; 	#ax = oby(3) + 7 : #bx = ddy(d) + 32
5988 CCFE D020  34 	movb @array_OBY+3,r0
     CD00 2111     
5989 CD02 0980  32 	srl r0,8
5990 CD04 0220  22 	ai r0,7
     CD06 0007     
5991 CD08 C800  38 	mov r0,@cvb__AX
     CD0A 20AE     
5992 CD0C D020  34 	movb @cvb_D,r0
     CD0E 2083     
5993 CD10 0980  32 	srl r0,8
5994 CD12 0220  22 	ai r0,array_DDY
     CD14 20E6     
5995 CD16 D010  26 	movb *r0,r0
5996 CD18 0980  32 	srl r0,8
5997 CD1A 0220  22 	ai r0,32
     CD1C 0020     
5998 CD1E C800  38 	mov r0,@cvb__BX
     CD20 20B0     
5999               	; 	GOSUB adiff
6000 CD22 06A0  32 	bl @jsr
     CD24 A974     
6001 CD26 C004     	data cvb_ADIFF
6002               	; 	IF #cx > 26 THEN RETURN
6003 CD28 C020  34 	mov @cvb__CX,r0
     CD2A 20B2     
6004 CD2C 0201  20 	li r1,27
     CD2E 001B     
6005 CD30 8040  18 	c r0,r1
6006 CD32 1402  14 	jhe cv443
6007 CD34 0460  28 	b @cv442
     CD36 CD3C     
6008               cv443
6009 CD38 C03A  30 	mov *r10+,r0
6010 CD3A 0450  20 	b *r0
6011               cv442
6012               	; 	dst(d) = 1 : sfx = 4 : sfc = 14
6013 CD3C 0201  20 	li r1,256
     CD3E 0100     
6014 CD40 D020  34 	movb @cvb_D,r0
     CD42 2083     
6015 CD44 0980  32 	srl r0,8
6016 CD46 0220  22 	ai r0,array_DST
     CD48 20FA     
6017 CD4A D401  30 	movb r1,*r0
6018 CD4C 0200  20 	li r0,1024   ; 4*256
     CD4E 0400     
6019 CD50 D800  38 	movb r0,@cvb_SFX
     CD52 20D3     
6020 CD54 0200  20 	li r0,3584   ; 14*256
     CD56 0E00     
6021 CD58 D800  38 	movb r0,@cvb_SFC
     CD5A 20CC     
6022               	; 	END
6023 CD5C C03A  30 	mov *r10+,r0
6024 CD5E 0450  20 	b *r0
6025               	;
6026               	; 	' ------------------------------------------------------------
6027               	; 	' swallowed: wail + player shown in the dragon's belly, then
6028               	; 	' FIRE returns to the caller (back to the title screen)
6029               	; 	' ------------------------------------------------------------
6030               	; eatenrt: PROCEDURE
6031               	even
6032               cvb_EATENRT
6033               	; 	e = eflag - 1 : eflag = 0
6034 CD60 D020  34 	movb @cvb_EFLAG,r0
     CD62 209F     
6035 CD64 0220  22 	ai r0,65280	; -1
     CD66 FF00     
6036 CD68 D800  38 	movb r0,@cvb_E
     CD6A 2084     
6037 CD6C 04C0  14 	clr r0
6038 CD6E D800  38 	movb r0,@cvb_EFLAG
     CD70 209F     
6039               	; 	sfx = 0 : SOUND 3, , 0
6040 CD72 04C0  14 	clr r0
6041 CD74 D800  38 	movb r0,@cvb_SFX
     CD76 20D3     
6042 CD78 04C0  14 	clr r0
6043 CD7A 0202  20 	li r2,>f000
     CD7C F000     
6044 CD7E 06A0  32 	bl @jsr
     CD80 A974     
6045 CD82 A2D6     	data sn76489_vol
6046               	; 	FOR i = 1 TO 56
6047 CD84 0200  20 	li r0,256   ; 1*256
     CD86 0100     
6048 CD88 D800  38 	movb r0,@cvb_I
     CD8A 2086     
6049               cv444
6050               	; 	WAIT
6051 CD8C 06A0  32 	bl @jsr
     CD8E A974     
6052 CD90 A64A     	data wait
6053               	; 	SOUND 0, 200 + i * 14, 13
6054 CD92 D020  34 	movb @cvb_I,r0
     CD94 2086     
6055 CD96 0980  32 	srl r0,8
6056 CD98 0201  20 	li r1,14
     CD9A 000E     
6057 CD9C 3801  58 	mpy r1,r0
6058 CD9E C001  18 	mov r1,r0
6059 CDA0 0220  22 	ai r0,200
     CDA2 00C8     
6060 CDA4 0202  20 	li r2,>8000
     CDA6 8000     
6061 CDA8 06A0  32 	bl @jsr
     CDAA A974     
6062 CDAC A2BA     	data sn76489_freq
6063 CDAE 0200  20 	li r0,3328   ; 13*256
     CDB0 0D00     
6064 CDB2 0202  20 	li r2,>9000
     CDB4 9000     
6065 CDB6 06A0  32 	bl @jsr
     CDB8 A974     
6066 CDBA A2D6     	data sn76489_vol
6067               	; 	GOSUB eatflash
6068 CDBC 06A0  32 	bl @jsr
     CDBE A974     
6069 CDC0 CE38     	data cvb_EATFLASH
6070               	; 	NEXT i
6071 CDC2 D020  34 	movb @cvb_I,r0
     CDC4 2086     
6072 CDC6 0220  22 	ai r0,256	; 1
     CDC8 0100     
6073 CDCA D800  38 	movb r0,@cvb_I
     CDCC 2086     
6074 CDCE 0201  20 	li r1,14592   ; 57*256
     CDD0 3900     
6075 CDD2 9040  18 	cb r0,r1
6076 CDD4 1402  14 	jhe cv445
6077 CDD6 0460  28 	b @cv444
     CDD8 CD8C     
6078               cv445
6079               	; 	SOUND 0, , 0
6080 CDDA 04C0  14 	clr r0
6081 CDDC 0202  20 	li r2,>9000
     CDDE 9000     
6082 CDE0 06A0  32 	bl @jsr
     CDE2 A974     
6083 CDE4 A2D6     	data sn76489_vol
6084               	; ewt1:	WAIT
6085               cvb_EWT1
6086 CDE6 06A0  32 	bl @jsr
     CDE8 A974     
6087 CDEA A64A     	data wait
6088               	; 	GOSUB eatflash
6089 CDEC 06A0  32 	bl @jsr
     CDEE A974     
6090 CDF0 CE38     	data cvb_EATFLASH
6091               	; 	IF cont1.button > 0 THEN GOTO ewt1
6092 CDF2 D020  30 	movb @joy1_data,r0
     CDF4 8346     
6093 CDF6 0201  20 	li r1,16384   ; 64*256
     CDF8 4000     
6094 CDFA 0541  14 	inv r1
6095 CDFC 5001  18 	szcb r1,r0
6096 CDFE 0201  20 	li r1,256   ; 1*256
     CE00 0100     
6097 CE02 9040  18 	cb r0,r1
6098 CE04 1402  14 	jhe cv447
6099 CE06 0460  28 	b @cv446
     CE08 CE0E     
6100               cv447
6101 CE0A 0460  28 	b @cvb_EWT1
     CE0C CDE6     
6102               cv446
6103               	; ewt2:	WAIT
6104               cvb_EWT2
6105 CE0E 06A0  32 	bl @jsr
     CE10 A974     
6106 CE12 A64A     	data wait
6107               	; 	GOSUB eatflash
6108 CE14 06A0  32 	bl @jsr
     CE16 A974     
6109 CE18 CE38     	data cvb_EATFLASH
6110               	; 	IF cont1.button = 0 THEN GOTO ewt2
6111 CE1A D020  30 	movb @joy1_data,r0
     CE1C 8346     
6112 CE1E 0201  20 	li r1,16384   ; 64*256
     CE20 4000     
6113 CE22 0541  14 	inv r1
6114 CE24 5001  18 	szcb r1,r0
6115 CE26 04C1  14 	clr r1
6116 CE28 9001  18 	cb r1,r0
6117 CE2A 1302  14 	jeq cv449
6118 CE2C 0460  28 	b @cv448
     CE2E CE34     
6119               cv449
6120 CE30 0460  28 	b @cvb_EWT2
     CE32 CE0E     
6121               cv448
6122               	; 	END
6123 CE34 C03A  30 	mov *r10+,r0
6124 CE36 0450  20 	b *r0
6125               	;
6126               	; 	' in the belly: flash black/white so the player is visible
6127               	; 	' whatever colour the dragon (or the room) happens to be
6128               	; eatflash: PROCEDURE
6129               	even
6130               cvb_EATFLASH
6131               	; 	t2 = 1
6132 CE38 0200  20 	li r0,256   ; 1*256
     CE3A 0100     
6133 CE3C D800  38 	movb r0,@cvb_T2
     CE3E 20D2     
6134               	; 	IF (FRAME AND 8) > 0 THEN t2 = 15
6135 CE40 C020  30 	mov @frame,r0
     CE42 834A     
6136 CE44 0240  22 	andi r0,8
     CE46 0008     
6137 CE48 0201  20 	li r1,1
     CE4A 0001     
6138 CE4C 8040  18 	c r0,r1
6139 CE4E 1402  14 	jhe cv451
6140 CE50 0460  28 	b @cv450
     CE52 CE5C     
6141               cv451
6142 CE54 0200  20 	li r0,3840   ; 15*256
     CE56 0F00     
6143 CE58 D800  38 	movb r0,@cvb_T2
     CE5A 20D2     
6144               cv450
6145               	; 	SPRITE 0, ddy(e) + 27, ddx(e) + 11, 0, t2
6146 CE5C 04C4  14 	clr r4
6147 CE5E D020  34 	movb @cvb_E,r0
     CE60 2084     
6148 CE62 0980  32 	srl r0,8
6149 CE64 0220  22 	ai r0,array_DDY
     CE66 20E6     
6150 CE68 D010  26 	movb *r0,r0
6151 CE6A 0220  22 	ai r0,6912	; 27
     CE6C 1B00     
6152 CE6E D140  18 	movb r0,r5
6153 CE70 D020  34 	movb @cvb_E,r0
     CE72 2084     
6154 CE74 0980  32 	srl r0,8
6155 CE76 0220  22 	ai r0,array_DDX
     CE78 20E2     
6156 CE7A D010  26 	movb *r0,r0
6157 CE7C 0220  22 	ai r0,2816	; 11
     CE7E 0B00     
6158 CE80 D180  18 	movb r0,r6
6159 CE82 04C7  14 	clr r7
6160 CE84 D020  34 	movb @cvb_T2,r0
     CE86 20D2     
6161 CE88 06A0  32 	bl @jsr
     CE8A A974     
6162 CE8C A24E     	data update_sprite
6163               	; 	END
6164 CE8E C03A  30 	mov *r10+,r0
6165 CE90 0450  20 	b *r0
6166               	;
6167               	; 	' ------------------------------------------------------------
6168               	; 	' point-vs-wall: RAM bitmap test + closed-gate special case
6169               	; 	' + the secret wall once it is open
6170               	; 	' ------------------------------------------------------------
6171               	; chkpt: PROCEDURE
6172               	even
6173               cvb_CHKPT
6174               	; 	' 8px cells: row 0-23, col 0-31; byte = row*4 + col/8
6175               	; 	r = ty / 8 : c2 = tx / 8
6176 CE92 D020  34 	movb @cvb_TY,r0
     CE94 20D9     
6177 CE96 0930  22 	srl r0,3
6178 CE98 D800  38 	movb r0,@cvb_R
     CE9A 208A     
6179 CE9C D020  34 	movb @cvb_TX,r0
     CE9E 20D8     
6180 CEA0 0930  22 	srl r0,3
6181 CEA2 D800  38 	movb r0,@cvb_C2
     CEA4 20BB     
6182               	; 	wf = rm(r * 4 + (c2 / 8)) AND msk(c2 AND 7)
6183 CEA6 0201  20 	li r1,1792   ; 7*256
     CEA8 0700     
6184 CEAA 0541  14 	inv r1
6185 CEAC 5001  18 	szcb r1,r0
6186 CEAE 0980  32 	srl r0,8
6187 CEB0 0220  22 	ai r0,array_MSK
     CEB2 20EA     
6188 CEB4 D010  26 	movb *r0,r0
6189 CEB6 064A  14 	dect r10
6190 CEB8 C680  30 	mov r0,*r10
6191 CEBA D020  34 	movb @cvb_C2,r0
     CEBC 20BB     
6192 CEBE 0980  32 	srl r0,8
6193 CEC0 0930  22 	srl r0,3
6194 CEC2 C040  18 	mov r0,r1
6195 CEC4 D020  34 	movb @cvb_R,r0
     CEC6 208A     
6196 CEC8 0980  32 	srl r0,8
6197 CECA 0A20  20 	sla r0,2
6198 CECC A001  18 	a r1,r0
6199 CECE 0220  22 	ai r0,array_RM
     CED0 2126     
6200 CED2 D010  26 	movb *r0,r0
6201 CED4 C07A  30 	mov *r10+,r1
6202 CED6 0541  14 	inv r1
6203 CED8 5001  18 	szcb r1,r0
6204 CEDA D800  38 	movb r0,@cvb_WF
     CEDC 20DB     
6205               	; 	IF wf = 0 THEN GOTO ckgate
6206 CEDE 04C1  14 	clr r1
6207 CEE0 9001  18 	cb r1,r0
6208 CEE2 1302  14 	jeq cv453
6209 CEE4 0460  28 	b @cv452
     CEE6 CEEC     
6210               cv453
6211 CEE8 0460  28 	b @cvb_CKGATE
     CEEA CF54     
6212               cv452
6213               	; 	' the flickering secret wall is passable
6214               	; 	IF eggon = 0 THEN RETURN
6215 CEEC D020  34 	movb @cvb_EGGON,r0
     CEEE 209C     
6216 CEF0 1302  14 	jeq cv455
6217 CEF2 0460  28 	b @cv454
     CEF4 CEFA     
6218               cv455
6219 CEF6 C03A  30 	mov *r10+,r0
6220 CEF8 0450  20 	b *r0
6221               cv454
6222               	; 	IF rn <> 17 THEN RETURN
6223 CEFA D020  34 	movb @cvb_RN,r0
     CEFC 20D4     
6224 CEFE 0201  20 	li r1,4352   ; 17*256
     CF00 1100     
6225 CF02 9001  18 	cb r1,r0
6226 CF04 1602  14 	jne cv457
6227 CF06 0460  28 	b @cv456
     CF08 CF0E     
6228               cv457
6229 CF0A C03A  30 	mov *r10+,r0
6230 CF0C 0450  20 	b *r0
6231               cv456
6232               	; 	IF c2 < 30 THEN RETURN
6233 CF0E D020  34 	movb @cvb_C2,r0
     CF10 20BB     
6234 CF12 0201  20 	li r1,7680   ; 30*256
     CF14 1E00     
6235 CF16 9040  18 	cb r0,r1
6236 CF18 1A02  14 	jl cv459
6237 CF1A 0460  28 	b @cv458
     CF1C CF22     
6238               cv459
6239 CF1E C03A  30 	mov *r10+,r0
6240 CF20 0450  20 	b *r0
6241               cv458
6242               	; 	IF r < 10 THEN RETURN
6243 CF22 D020  34 	movb @cvb_R,r0
     CF24 208A     
6244 CF26 0201  20 	li r1,2560   ; 10*256
     CF28 0A00     
6245 CF2A 9040  18 	cb r0,r1
6246 CF2C 1A02  14 	jl cv461
6247 CF2E 0460  28 	b @cv460
     CF30 CF36     
6248               cv461
6249 CF32 C03A  30 	mov *r10+,r0
6250 CF34 0450  20 	b *r0
6251               cv460
6252               	; 	IF r > 13 THEN RETURN
6253 CF36 D020  34 	movb @cvb_R,r0
     CF38 208A     
6254 CF3A 0201  20 	li r1,3584   ; 14*256
     CF3C 0E00     
6255 CF3E 9040  18 	cb r0,r1
6256 CF40 1402  14 	jhe cv463
6257 CF42 0460  28 	b @cv462
     CF44 CF4A     
6258               cv463
6259 CF46 C03A  30 	mov *r10+,r0
6260 CF48 0450  20 	b *r0
6261               cv462
6262               	; 	wf = 0
6263 CF4A 04C0  14 	clr r0
6264 CF4C D800  38 	movb r0,@cvb_WF
     CF4E 20DB     
6265               	; 	RETURN
6266 CF50 C03A  30 	mov *r10+,r0
6267 CF52 0450  20 	b *r0
6268               	; ckgate:
6269               cvb_CKGATE
6270               	; 	IF gz = 0 THEN RETURN
6271 CF54 D020  34 	movb @cvb_GZ,r0
     CF56 20CA     
6272 CF58 1302  14 	jeq cv465
6273 CF5A 0460  28 	b @cv464
     CF5C CF62     
6274               cv465
6275 CF5E C03A  30 	mov *r10+,r0
6276 CF60 0450  20 	b *r0
6277               cv464
6278               	; 	IF gopn = 1 THEN RETURN
6279 CF62 D020  34 	movb @cvb_GOPN,r0
     CF64 209B     
6280 CF66 0201  20 	li r1,256   ; 1*256
     CF68 0100     
6281 CF6A 9001  18 	cb r1,r0
6282 CF6C 1302  14 	jeq cv467
6283 CF6E 0460  28 	b @cv466
     CF70 CF76     
6284               cv467
6285 CF72 C03A  30 	mov *r10+,r0
6286 CF74 0450  20 	b *r0
6287               cv466
6288               	; 	IF r < 4 THEN RETURN
6289 CF76 D020  34 	movb @cvb_R,r0
     CF78 208A     
6290 CF7A 0201  20 	li r1,1024   ; 4*256
     CF7C 0400     
6291 CF7E 9040  18 	cb r0,r1
6292 CF80 1A02  14 	jl cv469
6293 CF82 0460  28 	b @cv468
     CF84 CF8A     
6294               cv469
6295 CF86 C03A  30 	mov *r10+,r0
6296 CF88 0450  20 	b *r0
6297               cv468
6298               	; 	IF r > 7 THEN RETURN
6299 CF8A D020  34 	movb @cvb_R,r0
     CF8C 208A     
6300 CF8E 0201  20 	li r1,2048   ; 8*256
     CF90 0800     
6301 CF92 9040  18 	cb r0,r1
6302 CF94 1402  14 	jhe cv471
6303 CF96 0460  28 	b @cv470
     CF98 CF9E     
6304               cv471
6305 CF9A C03A  30 	mov *r10+,r0
6306 CF9C 0450  20 	b *r0
6307               cv470
6308               	; 	IF c2 < 14 THEN RETURN
6309 CF9E D020  34 	movb @cvb_C2,r0
     CFA0 20BB     
6310 CFA2 0201  20 	li r1,3584   ; 14*256
     CFA4 0E00     
6311 CFA6 9040  18 	cb r0,r1
6312 CFA8 1A02  14 	jl cv473
6313 CFAA 0460  28 	b @cv472
     CFAC CFB2     
6314               cv473
6315 CFAE C03A  30 	mov *r10+,r0
6316 CFB0 0450  20 	b *r0
6317               cv472
6318               	; 	IF c2 > 17 THEN RETURN
6319 CFB2 D020  34 	movb @cvb_C2,r0
     CFB4 20BB     
6320 CFB6 0201  20 	li r1,4608   ; 18*256
     CFB8 1200     
6321 CFBA 9040  18 	cb r0,r1
6322 CFBC 1402  14 	jhe cv475
6323 CFBE 0460  28 	b @cv474
     CFC0 CFC6     
6324               cv475
6325 CFC2 C03A  30 	mov *r10+,r0
6326 CFC4 0450  20 	b *r0
6327               cv474
6328               	; 	wf = 1
6329 CFC6 0200  20 	li r0,256   ; 1*256
     CFC8 0100     
6330 CFCA D800  38 	movb r0,@cvb_WF
     CFCC 20DB     
6331               	; 	END
6332 CFCE C03A  30 	mov *r10+,r0
6333 CFD0 0450  20 	b *r0
6334               	;
6335               	; chkbox: PROCEDURE
6336               	even
6337               cvb_CHKBOX
6338               	; 	' blocks are 16px and boxes are <=16px, so 4 corners suffice
6339               	; 	bf = 1
6340 CFD2 0200  20 	li r0,256   ; 1*256
     CFD4 0100     
6341 CFD6 D800  38 	movb r0,@cvb_BF
     CFD8 20BD     
6342               	; 	tx = x0 : ty = y0
6343 CFDA D820  54 	movb @cvb_X0,@cvb_TX
     CFDC 20DA     
     CFDE 20D8     
6344 CFE0 D820  54 	movb @cvb_Y0,@cvb_TY
     CFE2 20DC     
     CFE4 20D9     
6345               	; 	GOSUB chkpt
6346 CFE6 06A0  32 	bl @jsr
     CFE8 A974     
6347 CFEA CE92     	data cvb_CHKPT
6348               	; 	IF wf > 0 THEN RETURN
6349 CFEC D020  34 	movb @cvb_WF,r0
     CFEE 20DB     
6350 CFF0 0201  20 	li r1,256   ; 1*256
     CFF2 0100     
6351 CFF4 9040  18 	cb r0,r1
6352 CFF6 1402  14 	jhe cv477
6353 CFF8 0460  28 	b @cv476
     CFFA D000     
6354               cv477
6355 CFFC C03A  30 	mov *r10+,r0
6356 CFFE 0450  20 	b *r0
6357               cv476
6358               	; 	tx = x0 + bw
6359 D000 D020  34 	movb @cvb_X0,r0
     D002 20DA     
6360 D004 B020  34 	ab @cvb_BW,r0
     D006 20C1     
6361 D008 D800  38 	movb r0,@cvb_TX
     D00A 20D8     
6362               	; 	GOSUB chkpt
6363 D00C 06A0  32 	bl @jsr
     D00E A974     
6364 D010 CE92     	data cvb_CHKPT
6365               	; 	IF wf > 0 THEN RETURN
6366 D012 D020  34 	movb @cvb_WF,r0
     D014 20DB     
6367 D016 0201  20 	li r1,256   ; 1*256
     D018 0100     
6368 D01A 9040  18 	cb r0,r1
6369 D01C 1402  14 	jhe cv479
6370 D01E 0460  28 	b @cv478
     D020 D026     
6371               cv479
6372 D022 C03A  30 	mov *r10+,r0
6373 D024 0450  20 	b *r0
6374               cv478
6375               	; 	ty = y0 + bh
6376 D026 D020  34 	movb @cvb_Y0,r0
     D028 20DC     
6377 D02A B020  34 	ab @cvb_BH,r0
     D02C 20BE     
6378 D02E D800  38 	movb r0,@cvb_TY
     D030 20D9     
6379               	; 	GOSUB chkpt
6380 D032 06A0  32 	bl @jsr
     D034 A974     
6381 D036 CE92     	data cvb_CHKPT
6382               	; 	IF wf > 0 THEN RETURN
6383 D038 D020  34 	movb @cvb_WF,r0
     D03A 20DB     
6384 D03C 0201  20 	li r1,256   ; 1*256
     D03E 0100     
6385 D040 9040  18 	cb r0,r1
6386 D042 1402  14 	jhe cv481
6387 D044 0460  28 	b @cv480
     D046 D04C     
6388               cv481
6389 D048 C03A  30 	mov *r10+,r0
6390 D04A 0450  20 	b *r0
6391               cv480
6392               	; 	tx = x0
6393 D04C D820  54 	movb @cvb_X0,@cvb_TX
     D04E 20DA     
     D050 20D8     
6394               	; 	GOSUB chkpt
6395 D052 06A0  32 	bl @jsr
     D054 A974     
6396 D056 CE92     	data cvb_CHKPT
6397               	; 	IF wf > 0 THEN RETURN
6398 D058 D020  34 	movb @cvb_WF,r0
     D05A 20DB     
6399 D05C 0201  20 	li r1,256   ; 1*256
     D05E 0100     
6400 D060 9040  18 	cb r0,r1
6401 D062 1402  14 	jhe cv483
6402 D064 0460  28 	b @cv482
     D066 D06C     
6403               cv483
6404 D068 C03A  30 	mov *r10+,r0
6405 D06A 0450  20 	b *r0
6406               cv482
6407               	; 	bf = 0
6408 D06C 04C0  14 	clr r0
6409 D06E D800  38 	movb r0,@cvb_BF
     D070 20BD     
6410               	; 	END
6411 D072 C03A  30 	mov *r10+,r0
6412 D074 0450  20 	b *r0
6413               	;
6414               	; 	' ------------------------------------------------------------
6415               	; 	' link + colour lookup: tables live in ROM, read on demand
6416               	; 	' (lkr in -> lkn/lke/lks/lkw). Game 1 = custom map table;
6417               	; 	' game 2 = small kingdom; games 3/4 = full kingdom.
6418               	; 	' ------------------------------------------------------------
6419               	; getlnk: PROCEDURE
6420               	even
6421               cvb_GETLNK
6422               	; 	IF gm = 1 THEN RESTORE lnkc
6423 D076 D020  34 	movb @cvb_GM,r0
     D078 20C9     
6424 D07A 0201  20 	li r1,256   ; 1*256
     D07C 0100     
6425 D07E 9001  18 	cb r1,r0
6426 D080 1302  14 	jeq cv485
6427 D082 0460  28 	b @cv484
     D084 D08E     
6428               cv485
6429 D086 0200  20 	li r0,cvb_LNKC
     D088 ECCE     
6430 D08A C800  30 	mov r0,@read_pointer
     D08C 8340     
6431               cv484
6432               	; 	IF gm = 2 THEN RESTORE lnkb
6433 D08E D020  34 	movb @cvb_GM,r0
     D090 20C9     
6434 D092 0201  20 	li r1,512   ; 2*256
     D094 0200     
6435 D096 9001  18 	cb r1,r0
6436 D098 1302  14 	jeq cv487
6437 D09A 0460  28 	b @cv486
     D09C D0A6     
6438               cv487
6439 D09E 0200  20 	li r0,cvb_LNKB
     D0A0 ED02     
6440 D0A2 C800  30 	mov r0,@read_pointer
     D0A4 8340     
6441               cv486
6442               	; 	IF gm > 2 THEN RESTORE lnka
6443 D0A6 D020  34 	movb @cvb_GM,r0
     D0A8 20C9     
6444 D0AA 0201  20 	li r1,768   ; 3*256
     D0AC 0300     
6445 D0AE 9040  18 	cb r0,r1
6446 D0B0 1402  14 	jhe cv489
6447 D0B2 0460  28 	b @cv488
     D0B4 D0BE     
6448               cv489
6449 D0B6 0200  20 	li r0,cvb_LNKA
     D0B8 ED6A     
6450 D0BA C800  30 	mov r0,@read_pointer
     D0BC 8340     
6451               cv488
6452               	; 	i2 = lkr : IF gm > 1 THEN i2 = lkr - 13
6453 D0BE D820  54 	movb @cvb_LKR,@cvb_I2
     D0C0 2098     
     D0C2 20C8     
6454 D0C4 D020  34 	movb @cvb_GM,r0
     D0C6 20C9     
6455 D0C8 0201  20 	li r1,512   ; 2*256
     D0CA 0200     
6456 D0CC 9040  18 	cb r0,r1
6457 D0CE 1402  14 	jhe cv491
6458 D0D0 0460  28 	b @cv490
     D0D2 D0E0     
6459               cv491
6460 D0D4 D020  34 	movb @cvb_LKR,r0
     D0D6 2098     
6461 D0D8 0220  22 	ai r0,62208	; -13
     D0DA F300     
6462 D0DC D800  38 	movb r0,@cvb_I2
     D0DE 20C8     
6463               cv490
6464               	; 	WHILE i2 > 0
6465               cv492
6466 D0E0 D020  34 	movb @cvb_I2,r0
     D0E2 20C8     
6467 D0E4 0201  20 	li r1,256   ; 1*256
     D0E6 0100     
6468 D0E8 9040  18 	cb r0,r1
6469 D0EA 1402  14 	jhe cv494
6470 D0EC 0460  28 	b @cv493
     D0EE D138     
6471               cv494
6472               	; 	READ BYTE t : READ BYTE t : READ BYTE t : READ BYTE t
6473 D0F0 C060  30 	mov @read_pointer,r1
     D0F2 8340     
6474 D0F4 D011  26 	movb *r1,r0
6475 D0F6 05A0  26 	inc @read_pointer
     D0F8 8340     
6476 D0FA D800  38 	movb r0,@cvb_T
     D0FC 208B     
6477 D0FE C060  30 	mov @read_pointer,r1
     D100 8340     
6478 D102 D011  26 	movb *r1,r0
6479 D104 05A0  26 	inc @read_pointer
     D106 8340     
6480 D108 D800  38 	movb r0,@cvb_T
     D10A 208B     
6481 D10C C060  30 	mov @read_pointer,r1
     D10E 8340     
6482 D110 D011  26 	movb *r1,r0
6483 D112 05A0  26 	inc @read_pointer
     D114 8340     
6484 D116 D800  38 	movb r0,@cvb_T
     D118 208B     
6485 D11A C060  30 	mov @read_pointer,r1
     D11C 8340     
6486 D11E D011  26 	movb *r1,r0
6487 D120 05A0  26 	inc @read_pointer
     D122 8340     
6488 D124 D800  38 	movb r0,@cvb_T
     D126 208B     
6489               	; 	i2 = i2 - 1
6490 D128 D020  34 	movb @cvb_I2,r0
     D12A 20C8     
6491 D12C 0220  22 	ai r0,65280	; -1
     D12E FF00     
6492 D130 D800  38 	movb r0,@cvb_I2
     D132 20C8     
6493               	; 	WEND
6494 D134 0460  28 	b @cv492
     D136 D0E0     
6495               cv493
6496               	; 	READ BYTE lkn : READ BYTE lke : READ BYTE lks : READ BYTE lkw
6497 D138 C060  30 	mov @read_pointer,r1
     D13A 8340     
6498 D13C D011  26 	movb *r1,r0
6499 D13E 05A0  26 	inc @read_pointer
     D140 8340     
6500 D142 D800  38 	movb r0,@cvb_LKN
     D144 2095     
6501 D146 C060  30 	mov @read_pointer,r1
     D148 8340     
6502 D14A D011  26 	movb *r1,r0
6503 D14C 05A0  26 	inc @read_pointer
     D14E 8340     
6504 D150 D800  38 	movb r0,@cvb_LKE
     D152 2093     
6505 D154 C060  30 	mov @read_pointer,r1
     D156 8340     
6506 D158 D011  26 	movb *r1,r0
6507 D15A 05A0  26 	inc @read_pointer
     D15C 8340     
6508 D15E D800  38 	movb r0,@cvb_LKS
     D160 2099     
6509 D162 C060  30 	mov @read_pointer,r1
     D164 8340     
6510 D166 D011  26 	movb *r1,r0
6511 D168 05A0  26 	inc @read_pointer
     D16A 8340     
6512 D16C D800  38 	movb r0,@cvb_LKW
     D16E 209A     
6513               	; 	END
6514 D170 C03A  30 	mov *r10+,r0
6515 D172 0450  20 	b *r0
6516               	;
6517               	; 	' ------------------------------------------------------------
6518               	; 	' room entry: load bitmap, colours (wall,bg,dark), redraw,
6519               	; 	' gate, fog window, secret-room text, dragons
6520               	; 	' ------------------------------------------------------------
6521               	; enterroom: PROCEDURE
6522               	even
6523               cvb_ENTERROOM
6524               	; 	FOR i = 1 TO 16 : SPRITE i, $d1, 0, 0, 0 : NEXT i
6525 D174 0200  20 	li r0,256   ; 1*256
     D176 0100     
6526 D178 D800  38 	movb r0,@cvb_I
     D17A 2086     
6527               cv495
6528 D17C D120  34 	movb @cvb_I,r4
     D17E 2086     
6529 D180 0205  20 	li r5,53504
     D182 D100     
6530 D184 04C6  14 	clr r6
6531 D186 04C7  14 	clr r7
6532 D188 04C0  14 	clr r0
6533 D18A 06A0  32 	bl @jsr
     D18C A974     
6534 D18E A24E     	data update_sprite
6535 D190 D020  34 	movb @cvb_I,r0
     D192 2086     
6536 D194 0220  22 	ai r0,256	; 1
     D196 0100     
6537 D198 D800  38 	movb r0,@cvb_I
     D19A 2086     
6538 D19C 0201  20 	li r1,4352   ; 17*256
     D19E 1100     
6539 D1A0 9040  18 	cb r0,r1
6540 D1A2 1402  14 	jhe cv496
6541 D1A4 0460  28 	b @cv495
     D1A6 D17C     
6542               cv496
6543               	; 	' any live dragon in the room we just left will pursue
6544               	; 	IF prn < 255 THEN IF prn <> rn THEN GOSUB dchase
6545 D1A8 D020  34 	movb @cvb_PRN,r0
     D1AA 20B8     
6546 D1AC 0201  20 	li r1,65280   ; 255*256
     D1AE FF00     
6547 D1B0 9040  18 	cb r0,r1
6548 D1B2 1A02  14 	jl cv498
6549 D1B4 0460  28 	b @cv497
     D1B6 D1CC     
6550               cv498
6551 D1B8 D020  34 	movb @cvb_PRN,r0
     D1BA 20B8     
6552 D1BC 9020  34 	cb @cvb_RN,r0
     D1BE 20D4     
6553 D1C0 1602  14 	jne cv500
6554 D1C2 0460  28 	b @cv499
     D1C4 D1CC     
6555               cv500
6556 D1C6 06A0  32 	bl @jsr
     D1C8 A974     
6557 D1CA D9D8     	data cvb_DCHASE
6558               cv499
6559               cv497
6560               	; 	prn = rn
6561 D1CC D820  54 	movb @cvb_RN,@cvb_PRN
     D1CE 20D4     
     D1D0 20B8     
6562               	; 	' room bitmap: 96 bytes, dispatched by label (skip-reading
6563               	; 	' rn*96 bytes would stall room entry)
6564               	; 	ON rn GOTO rb0, rb1, rb2, rb3, rb4, rb5, rb6, rb7, rb8, rb9, rb10, rb11, rb12, rb13, rb14, rb15, rb16, rb17, rb18, rb19, rb20, rb21, rb22, rb23, rb24, rb25, rb26, rb27, rb28, rb29, rb30, rb31, rb32, rb33, rb34, rb35, rb36, rb37, rb38
6565 D1D2 D020  34 	movb @cvb_RN,r0
     D1D4 20D4     
6566 D1D6 0280  22 	ci r0,9984   ; 39*256
     D1D8 2700     
6567 D1DA 1A02  14 	jl cv503
6568 D1DC 0460  28 	b @cv502
     D1DE D23A     
6569               cv503
6570 D1E0 0980  32 	srl r0,8
6571 D1E2 0A10  18 	sla r0,1
6572 D1E4 C040  18 	mov r0,r1
6573 D1E6 C021  34 	mov @cv501(r1),r0
     D1E8 D1EC     
6574 D1EA 0450  20 	b *r0
6575               cv501
6576 D1EC D23A     	data cvb_RB0
6577 D1EE D246     	data cvb_RB1
6578 D1F0 D252     	data cvb_RB2
6579 D1F2 D25E     	data cvb_RB3
6580 D1F4 D26A     	data cvb_RB4
6581 D1F6 D276     	data cvb_RB5
6582 D1F8 D282     	data cvb_RB6
6583 D1FA D28E     	data cvb_RB7
6584 D1FC D29A     	data cvb_RB8
6585 D1FE D2A6     	data cvb_RB9
6586 D200 D2B2     	data cvb_RB10
6587 D202 D2BE     	data cvb_RB11
6588 D204 D2CA     	data cvb_RB12
6589 D206 D2D6     	data cvb_RB13
6590 D208 D2E2     	data cvb_RB14
6591 D20A D2EE     	data cvb_RB15
6592 D20C D2FA     	data cvb_RB16
6593 D20E D306     	data cvb_RB17
6594 D210 D312     	data cvb_RB18
6595 D212 D31E     	data cvb_RB19
6596 D214 D32A     	data cvb_RB20
6597 D216 D336     	data cvb_RB21
6598 D218 D342     	data cvb_RB22
6599 D21A D34E     	data cvb_RB23
6600 D21C D35A     	data cvb_RB24
6601 D21E D366     	data cvb_RB25
6602 D220 D372     	data cvb_RB26
6603 D222 D37E     	data cvb_RB27
6604 D224 D38A     	data cvb_RB28
6605 D226 D396     	data cvb_RB29
6606 D228 D3A2     	data cvb_RB30
6607 D22A D3AE     	data cvb_RB31
6608 D22C D3BA     	data cvb_RB32
6609 D22E D3C6     	data cvb_RB33
6610 D230 D3D2     	data cvb_RB34
6611 D232 D3DE     	data cvb_RB35
6612 D234 D3EA     	data cvb_RB36
6613 D236 D3F6     	data cvb_RB37
6614 D238 D402     	data cvb_RB38
6615               cv502
6616               	; rb0:	RESTORE rd0
6617               cvb_RB0
6618 D23A 0200  20 	li r0,cvb_RD0
     D23C EECB     
6619 D23E C800  30 	mov r0,@read_pointer
     D240 8340     
6620               	; 	GOTO rbl
6621 D242 0460  28 	b @cvb_RBL
     D244 D40A     
6622               	; rb1:	RESTORE rd1
6623               cvb_RB1
6624 D246 0200  20 	li r0,cvb_RD1
     D248 EF2B     
6625 D24A C800  30 	mov r0,@read_pointer
     D24C 8340     
6626               	; 	GOTO rbl
6627 D24E 0460  28 	b @cvb_RBL
     D250 D40A     
6628               	; rb2:	RESTORE rd2
6629               cvb_RB2
6630 D252 0200  20 	li r0,cvb_RD2
     D254 EF8B     
6631 D256 C800  30 	mov r0,@read_pointer
     D258 8340     
6632               	; 	GOTO rbl
6633 D25A 0460  28 	b @cvb_RBL
     D25C D40A     
6634               	; rb3:	RESTORE rd3
6635               cvb_RB3
6636 D25E 0200  20 	li r0,cvb_RD3
     D260 EFEB     
6637 D262 C800  30 	mov r0,@read_pointer
     D264 8340     
6638               	; 	GOTO rbl
6639 D266 0460  28 	b @cvb_RBL
     D268 D40A     
6640               	; rb4:	RESTORE rd4
6641               cvb_RB4
6642 D26A 0200  20 	li r0,cvb_RD4
     D26C F04B     
6643 D26E C800  30 	mov r0,@read_pointer
     D270 8340     
6644               	; 	GOTO rbl
6645 D272 0460  28 	b @cvb_RBL
     D274 D40A     
6646               	; rb5:	RESTORE rd5
6647               cvb_RB5
6648 D276 0200  20 	li r0,cvb_RD5
     D278 F0AB     
6649 D27A C800  30 	mov r0,@read_pointer
     D27C 8340     
6650               	; 	GOTO rbl
6651 D27E 0460  28 	b @cvb_RBL
     D280 D40A     
6652               	; rb6:	RESTORE rd6
6653               cvb_RB6
6654 D282 0200  20 	li r0,cvb_RD6
     D284 F10B     
6655 D286 C800  30 	mov r0,@read_pointer
     D288 8340     
6656               	; 	GOTO rbl
6657 D28A 0460  28 	b @cvb_RBL
     D28C D40A     
6658               	; rb7:	RESTORE rd7
6659               cvb_RB7
6660 D28E 0200  20 	li r0,cvb_RD7
     D290 F16B     
6661 D292 C800  30 	mov r0,@read_pointer
     D294 8340     
6662               	; 	GOTO rbl
6663 D296 0460  28 	b @cvb_RBL
     D298 D40A     
6664               	; rb8:	RESTORE rd8
6665               cvb_RB8
6666 D29A 0200  20 	li r0,cvb_RD8
     D29C F1CB     
6667 D29E C800  30 	mov r0,@read_pointer
     D2A0 8340     
6668               	; 	GOTO rbl
6669 D2A2 0460  28 	b @cvb_RBL
     D2A4 D40A     
6670               	; rb9:	RESTORE rd9
6671               cvb_RB9
6672 D2A6 0200  20 	li r0,cvb_RD9
     D2A8 F22B     
6673 D2AA C800  30 	mov r0,@read_pointer
     D2AC 8340     
6674               	; 	GOTO rbl
6675 D2AE 0460  28 	b @cvb_RBL
     D2B0 D40A     
6676               	; rb10:	RESTORE rd10
6677               cvb_RB10
6678 D2B2 0200  20 	li r0,cvb_RD10
     D2B4 F28B     
6679 D2B6 C800  30 	mov r0,@read_pointer
     D2B8 8340     
6680               	; 	GOTO rbl
6681 D2BA 0460  28 	b @cvb_RBL
     D2BC D40A     
6682               	; rb11:	RESTORE rd11
6683               cvb_RB11
6684 D2BE 0200  20 	li r0,cvb_RD11
     D2C0 F2EB     
6685 D2C2 C800  30 	mov r0,@read_pointer
     D2C4 8340     
6686               	; 	GOTO rbl
6687 D2C6 0460  28 	b @cvb_RBL
     D2C8 D40A     
6688               	; rb12:	RESTORE rd12
6689               cvb_RB12
6690 D2CA 0200  20 	li r0,cvb_RD12
     D2CC F34B     
6691 D2CE C800  30 	mov r0,@read_pointer
     D2D0 8340     
6692               	; 	GOTO rbl
6693 D2D2 0460  28 	b @cvb_RBL
     D2D4 D40A     
6694               	; rb13:	RESTORE rd13
6695               cvb_RB13
6696 D2D6 0200  20 	li r0,cvb_RD13
     D2D8 F3AB     
6697 D2DA C800  30 	mov r0,@read_pointer
     D2DC 8340     
6698               	; 	GOTO rbl
6699 D2DE 0460  28 	b @cvb_RBL
     D2E0 D40A     
6700               	; rb14:	RESTORE rd14
6701               cvb_RB14
6702 D2E2 0200  20 	li r0,cvb_RD14
     D2E4 F40B     
6703 D2E6 C800  30 	mov r0,@read_pointer
     D2E8 8340     
6704               	; 	GOTO rbl
6705 D2EA 0460  28 	b @cvb_RBL
     D2EC D40A     
6706               	; rb15:	RESTORE rd15
6707               cvb_RB15
6708 D2EE 0200  20 	li r0,cvb_RD15
     D2F0 F46B     
6709 D2F2 C800  30 	mov r0,@read_pointer
     D2F4 8340     
6710               	; 	GOTO rbl
6711 D2F6 0460  28 	b @cvb_RBL
     D2F8 D40A     
6712               	; rb16:	RESTORE rd16
6713               cvb_RB16
6714 D2FA 0200  20 	li r0,cvb_RD16
     D2FC F4CB     
6715 D2FE C800  30 	mov r0,@read_pointer
     D300 8340     
6716               	; 	GOTO rbl
6717 D302 0460  28 	b @cvb_RBL
     D304 D40A     
6718               	; rb17:	RESTORE rd17
6719               cvb_RB17
6720 D306 0200  20 	li r0,cvb_RD17
     D308 F52B     
6721 D30A C800  30 	mov r0,@read_pointer
     D30C 8340     
6722               	; 	GOTO rbl
6723 D30E 0460  28 	b @cvb_RBL
     D310 D40A     
6724               	; rb18:	RESTORE rd18
6725               cvb_RB18
6726 D312 0200  20 	li r0,cvb_RD18
     D314 F58B     
6727 D316 C800  30 	mov r0,@read_pointer
     D318 8340     
6728               	; 	GOTO rbl
6729 D31A 0460  28 	b @cvb_RBL
     D31C D40A     
6730               	; rb19:	RESTORE rd19
6731               cvb_RB19
6732 D31E 0200  20 	li r0,cvb_RD19
     D320 F5EB     
6733 D322 C800  30 	mov r0,@read_pointer
     D324 8340     
6734               	; 	GOTO rbl
6735 D326 0460  28 	b @cvb_RBL
     D328 D40A     
6736               	; rb20:	RESTORE rd20
6737               cvb_RB20
6738 D32A 0200  20 	li r0,cvb_RD20
     D32C F64B     
6739 D32E C800  30 	mov r0,@read_pointer
     D330 8340     
6740               	; 	GOTO rbl
6741 D332 0460  28 	b @cvb_RBL
     D334 D40A     
6742               	; rb21:	RESTORE rd21
6743               cvb_RB21
6744 D336 0200  20 	li r0,cvb_RD21
     D338 F6AB     
6745 D33A C800  30 	mov r0,@read_pointer
     D33C 8340     
6746               	; 	GOTO rbl
6747 D33E 0460  28 	b @cvb_RBL
     D340 D40A     
6748               	; rb22:	RESTORE rd22
6749               cvb_RB22
6750 D342 0200  20 	li r0,cvb_RD22
     D344 F70B     
6751 D346 C800  30 	mov r0,@read_pointer
     D348 8340     
6752               	; 	GOTO rbl
6753 D34A 0460  28 	b @cvb_RBL
     D34C D40A     
6754               	; rb23:	RESTORE rd23
6755               cvb_RB23
6756 D34E 0200  20 	li r0,cvb_RD23
     D350 F76B     
6757 D352 C800  30 	mov r0,@read_pointer
     D354 8340     
6758               	; 	GOTO rbl
6759 D356 0460  28 	b @cvb_RBL
     D358 D40A     
6760               	; rb24:	RESTORE rd24
6761               cvb_RB24
6762 D35A 0200  20 	li r0,cvb_RD24
     D35C F7CB     
6763 D35E C800  30 	mov r0,@read_pointer
     D360 8340     
6764               	; 	GOTO rbl
6765 D362 0460  28 	b @cvb_RBL
     D364 D40A     
6766               	; rb25:	RESTORE rd25
6767               cvb_RB25
6768 D366 0200  20 	li r0,cvb_RD25
     D368 F82B     
6769 D36A C800  30 	mov r0,@read_pointer
     D36C 8340     
6770               	; 	GOTO rbl
6771 D36E 0460  28 	b @cvb_RBL
     D370 D40A     
6772               	; rb26:	RESTORE rd26
6773               cvb_RB26
6774 D372 0200  20 	li r0,cvb_RD26
     D374 F88B     
6775 D376 C800  30 	mov r0,@read_pointer
     D378 8340     
6776               	; 	GOTO rbl
6777 D37A 0460  28 	b @cvb_RBL
     D37C D40A     
6778               	; rb27:	RESTORE rd27
6779               cvb_RB27
6780 D37E 0200  20 	li r0,cvb_RD27
     D380 F8EB     
6781 D382 C800  30 	mov r0,@read_pointer
     D384 8340     
6782               	; 	GOTO rbl
6783 D386 0460  28 	b @cvb_RBL
     D388 D40A     
6784               	; rb28:	RESTORE rd28
6785               cvb_RB28
6786 D38A 0200  20 	li r0,cvb_RD28
     D38C F94B     
6787 D38E C800  30 	mov r0,@read_pointer
     D390 8340     
6788               	; 	GOTO rbl
6789 D392 0460  28 	b @cvb_RBL
     D394 D40A     
6790               	; rb29:	RESTORE rd29
6791               cvb_RB29
6792 D396 0200  20 	li r0,cvb_RD29
     D398 F9AB     
6793 D39A C800  30 	mov r0,@read_pointer
     D39C 8340     
6794               	; 	GOTO rbl
6795 D39E 0460  28 	b @cvb_RBL
     D3A0 D40A     
6796               	; rb30:	RESTORE rd30
6797               cvb_RB30
6798 D3A2 0200  20 	li r0,cvb_RD30
     D3A4 FA0B     
6799 D3A6 C800  30 	mov r0,@read_pointer
     D3A8 8340     
6800               	; 	GOTO rbl
6801 D3AA 0460  28 	b @cvb_RBL
     D3AC D40A     
6802               	; rb31:	RESTORE rd31
6803               cvb_RB31
6804 D3AE 0200  20 	li r0,cvb_RD31
     D3B0 FA6B     
6805 D3B2 C800  30 	mov r0,@read_pointer
     D3B4 8340     
6806               	; 	GOTO rbl
6807 D3B6 0460  28 	b @cvb_RBL
     D3B8 D40A     
6808               	; rb32:	RESTORE rd32
6809               cvb_RB32
6810 D3BA 0200  20 	li r0,cvb_RD32
     D3BC FACB     
6811 D3BE C800  30 	mov r0,@read_pointer
     D3C0 8340     
6812               	; 	GOTO rbl
6813 D3C2 0460  28 	b @cvb_RBL
     D3C4 D40A     
6814               	; rb33:	RESTORE rd33
6815               cvb_RB33
6816 D3C6 0200  20 	li r0,cvb_RD33
     D3C8 FB2B     
6817 D3CA C800  30 	mov r0,@read_pointer
     D3CC 8340     
6818               	; 	GOTO rbl
6819 D3CE 0460  28 	b @cvb_RBL
     D3D0 D40A     
6820               	; rb34:	RESTORE rd34
6821               cvb_RB34
6822 D3D2 0200  20 	li r0,cvb_RD34
     D3D4 FB8B     
6823 D3D6 C800  30 	mov r0,@read_pointer
     D3D8 8340     
6824               	; 	GOTO rbl
6825 D3DA 0460  28 	b @cvb_RBL
     D3DC D40A     
6826               	; rb35:	RESTORE rd35
6827               cvb_RB35
6828 D3DE 0200  20 	li r0,cvb_RD35
     D3E0 FBEB     
6829 D3E2 C800  30 	mov r0,@read_pointer
     D3E4 8340     
6830               	; 	GOTO rbl
6831 D3E6 0460  28 	b @cvb_RBL
     D3E8 D40A     
6832               	; rb36:	RESTORE rd36
6833               cvb_RB36
6834 D3EA 0200  20 	li r0,cvb_RD36
     D3EC FC4B     
6835 D3EE C800  30 	mov r0,@read_pointer
     D3F0 8340     
6836               	; 	GOTO rbl
6837 D3F2 0460  28 	b @cvb_RBL
     D3F4 D40A     
6838               	; rb37:	RESTORE rd37
6839               cvb_RB37
6840 D3F6 0200  20 	li r0,cvb_RD37
     D3F8 FCAB     
6841 D3FA C800  30 	mov r0,@read_pointer
     D3FC 8340     
6842               	; 	GOTO rbl
6843 D3FE 0460  28 	b @cvb_RBL
     D400 D40A     
6844               	; rb38:	RESTORE rd38
6845               cvb_RB38
6846 D402 0200  20 	li r0,cvb_RD38
     D404 FD0B     
6847 D406 C800  30 	mov r0,@read_pointer
     D408 8340     
6848               	; rbl:
6849               cvb_RBL
6850               	; 	FOR i = 0 TO 95 : READ BYTE rm(i) : NEXT i
6851 D40A 04C0  14 	clr r0
6852 D40C D800  38 	movb r0,@cvb_I
     D40E 2086     
6853               cv504
6854 D410 C060  30 	mov @read_pointer,r1
     D412 8340     
6855 D414 D011  26 	movb *r1,r0
6856 D416 05A0  26 	inc @read_pointer
     D418 8340     
6857 D41A C040  18 	mov r0,r1
6858 D41C D020  34 	movb @cvb_I,r0
     D41E 2086     
6859 D420 0980  32 	srl r0,8
6860 D422 0220  22 	ai r0,array_RM
     D424 2126     
6861 D426 D401  30 	movb r1,*r0
6862 D428 D020  34 	movb @cvb_I,r0
     D42A 2086     
6863 D42C 0220  22 	ai r0,256	; 1
     D42E 0100     
6864 D430 D800  38 	movb r0,@cvb_I
     D432 2086     
6865 D434 0201  20 	li r1,24576   ; 96*256
     D436 6000     
6866 D438 9040  18 	cb r0,r1
6867 D43A 1402  14 	jhe cv505
6868 D43C 0460  28 	b @cv504
     D43E D410     
6869               cv505
6870               	; 	' colours: (wall, bg, dark) per room
6871               	; 	IF gm = 1 THEN RESTORE colc ELSE RESTORE cola
6872 D440 D020  34 	movb @cvb_GM,r0
     D442 20C9     
6873 D444 0201  20 	li r1,256   ; 1*256
     D446 0100     
6874 D448 9001  18 	cb r1,r0
6875 D44A 1302  14 	jeq cv507
6876 D44C 0460  28 	b @cv506
     D44E D45C     
6877               cv507
6878 D450 0200  20 	li r0,cvb_COLC
     D452 EDD2     
6879 D454 C800  30 	mov r0,@read_pointer
     D456 8340     
6880 D458 0460  28 	b @cv508
     D45A D464     
6881               cv506
6882 D45C 0200  20 	li r0,cvb_COLA
     D45E EDF9     
6883 D460 C800  30 	mov r0,@read_pointer
     D462 8340     
6884               cv508
6885               	; 	i2 = rn : IF gm > 1 THEN i2 = rn - 13
6886 D464 D820  54 	movb @cvb_RN,@cvb_I2
     D466 20D4     
     D468 20C8     
6887 D46A D020  34 	movb @cvb_GM,r0
     D46C 20C9     
6888 D46E 0201  20 	li r1,512   ; 2*256
     D470 0200     
6889 D472 9040  18 	cb r0,r1
6890 D474 1402  14 	jhe cv510
6891 D476 0460  28 	b @cv509
     D478 D486     
6892               cv510
6893 D47A D020  34 	movb @cvb_RN,r0
     D47C 20D4     
6894 D47E 0220  22 	ai r0,62208	; -13
     D480 F300     
6895 D482 D800  38 	movb r0,@cvb_I2
     D484 20C8     
6896               cv509
6897               	; 	WHILE i2 > 0
6898               cv511
6899 D486 D020  34 	movb @cvb_I2,r0
     D488 20C8     
6900 D48A 0201  20 	li r1,256   ; 1*256
     D48C 0100     
6901 D48E 9040  18 	cb r0,r1
6902 D490 1402  14 	jhe cv513
6903 D492 0460  28 	b @cv512
     D494 D4D0     
6904               cv513
6905               	; 	READ BYTE t : READ BYTE t : READ BYTE t
6906 D496 C060  30 	mov @read_pointer,r1
     D498 8340     
6907 D49A D011  26 	movb *r1,r0
6908 D49C 05A0  26 	inc @read_pointer
     D49E 8340     
6909 D4A0 D800  38 	movb r0,@cvb_T
     D4A2 208B     
6910 D4A4 C060  30 	mov @read_pointer,r1
     D4A6 8340     
6911 D4A8 D011  26 	movb *r1,r0
6912 D4AA 05A0  26 	inc @read_pointer
     D4AC 8340     
6913 D4AE D800  38 	movb r0,@cvb_T
     D4B0 208B     
6914 D4B2 C060  30 	mov @read_pointer,r1
     D4B4 8340     
6915 D4B6 D011  26 	movb *r1,r0
6916 D4B8 05A0  26 	inc @read_pointer
     D4BA 8340     
6917 D4BC D800  38 	movb r0,@cvb_T
     D4BE 208B     
6918               	; 	i2 = i2 - 1
6919 D4C0 D020  34 	movb @cvb_I2,r0
     D4C2 20C8     
6920 D4C4 0220  22 	ai r0,65280	; -1
     D4C6 FF00     
6921 D4C8 D800  38 	movb r0,@cvb_I2
     D4CA 20C8     
6922               	; 	WEND
6923 D4CC 0460  28 	b @cv511
     D4CE D486     
6924               cv512
6925               	; 	READ BYTE cw : READ BYTE cb : READ BYTE drk
6926 D4D0 C060  30 	mov @read_pointer,r1
     D4D2 8340     
6927 D4D4 D011  26 	movb *r1,r0
6928 D4D6 05A0  26 	inc @read_pointer
     D4D8 8340     
6929 D4DA D800  38 	movb r0,@cvb_CW
     D4DC 20C4     
6930 D4DE C060  30 	mov @read_pointer,r1
     D4E0 8340     
6931 D4E2 D011  26 	movb *r1,r0
6932 D4E4 05A0  26 	inc @read_pointer
     D4E6 8340     
6933 D4E8 D800  38 	movb r0,@cvb_CB
     D4EA 20BF     
6934 D4EC C060  30 	mov @read_pointer,r1
     D4EE 8340     
6935 D4F0 D011  26 	movb *r1,r0
6936 D4F2 05A0  26 	inc @read_pointer
     D4F4 8340     
6937 D4F6 D800  38 	movb r0,@cvb_DRK
     D4F8 209D     
6938               	; 	' wall char 128: fg=wall, bg=room bg;
6939               	; 	' portcullis 129: castle doors are always BLACK
6940               	; 	t = cw * 16 + cb
6941 D4FA D020  34 	movb @cvb_CB,r0
     D4FC 20BF     
6942 D4FE 0980  32 	srl r0,8
6943 D500 C040  18 	mov r0,r1
6944 D502 D020  34 	movb @cvb_CW,r0
     D504 20C4     
6945 D506 0980  32 	srl r0,8
6946 D508 0A40  24 	sla r0,4
6947 D50A A001  18 	a r1,r0
6948 D50C 0A80  32 	sla r0,8
6949 D50E D800  38 	movb r0,@cvb_T
     D510 208B     
6950               	; 	t2 = 16 + cb
6951 D512 D020  34 	movb @cvb_CB,r0
     D514 20BF     
6952 D516 0220  22 	ai r0,4096	; 16
     D518 1000     
6953 D51A D800  38 	movb r0,@cvb_T2
     D51C 20D2     
6954               	; 	FOR i = 0 TO 7
6955 D51E 04C0  14 	clr r0
6956 D520 D800  38 	movb r0,@cvb_I
     D522 2086     
6957               cv514
6958               	; 	VPOKE $2400 + i, t : VPOKE $2C00 + i, t : VPOKE $3400 + i, t
6959 D524 D020  34 	movb @cvb_T,r0
     D526 208B     
6960 D528 064A  14 	dect r10
6961 D52A C680  30 	mov r0,*r10
6962 D52C D020  34 	movb @cvb_I,r0
     D52E 2086     
6963 D530 0980  32 	srl r0,8
6964 D532 0220  22 	ai r0,9216
     D534 2400     
6965 D536 C0BA  30 	mov *r10+,r2
6966 D538 0300  22 	limi 0
     D53A 0000     
6967 D53C 06A0  32 	bl @JSR
     D53E A974     
6968 D540 A018     	data WRTVRM
6969 D542 0300  22 	limi 2
     D544 0002     
6970 D546 D020  34 	movb @cvb_T,r0
     D548 208B     
6971 D54A 064A  14 	dect r10
6972 D54C C680  30 	mov r0,*r10
6973 D54E D020  34 	movb @cvb_I,r0
     D550 2086     
6974 D552 0980  32 	srl r0,8
6975 D554 0220  22 	ai r0,11264
     D556 2C00     
6976 D558 C0BA  30 	mov *r10+,r2
6977 D55A 0300  22 	limi 0
     D55C 0000     
6978 D55E 06A0  32 	bl @JSR
     D560 A974     
6979 D562 A018     	data WRTVRM
6980 D564 0300  22 	limi 2
     D566 0002     
6981 D568 D020  34 	movb @cvb_T,r0
     D56A 208B     
6982 D56C 064A  14 	dect r10
6983 D56E C680  30 	mov r0,*r10
6984 D570 D020  34 	movb @cvb_I,r0
     D572 2086     
6985 D574 0980  32 	srl r0,8
6986 D576 0220  22 	ai r0,13312
     D578 3400     
6987 D57A C0BA  30 	mov *r10+,r2
6988 D57C 0300  22 	limi 0
     D57E 0000     
6989 D580 06A0  32 	bl @JSR
     D582 A974     
6990 D584 A018     	data WRTVRM
6991 D586 0300  22 	limi 2
     D588 0002     
6992               	; 	VPOKE $2408 + i, t2 : VPOKE $2C08 + i, t2 : VPOKE $3408 + i, t2
6993 D58A D020  34 	movb @cvb_T2,r0
     D58C 20D2     
6994 D58E 064A  14 	dect r10
6995 D590 C680  30 	mov r0,*r10
6996 D592 D020  34 	movb @cvb_I,r0
     D594 2086     
6997 D596 0980  32 	srl r0,8
6998 D598 0220  22 	ai r0,9224
     D59A 2408     
6999 D59C C0BA  30 	mov *r10+,r2
7000 D59E 0300  22 	limi 0
     D5A0 0000     
7001 D5A2 06A0  32 	bl @JSR
     D5A4 A974     
7002 D5A6 A018     	data WRTVRM
7003 D5A8 0300  22 	limi 2
     D5AA 0002     
7004 D5AC D020  34 	movb @cvb_T2,r0
     D5AE 20D2     
7005 D5B0 064A  14 	dect r10
7006 D5B2 C680  30 	mov r0,*r10
7007 D5B4 D020  34 	movb @cvb_I,r0
     D5B6 2086     
7008 D5B8 0980  32 	srl r0,8
7009 D5BA 0220  22 	ai r0,11272
     D5BC 2C08     
7010 D5BE C0BA  30 	mov *r10+,r2
7011 D5C0 0300  22 	limi 0
     D5C2 0000     
7012 D5C4 06A0  32 	bl @JSR
     D5C6 A974     
7013 D5C8 A018     	data WRTVRM
7014 D5CA 0300  22 	limi 2
     D5CC 0002     
7015 D5CE D020  34 	movb @cvb_T2,r0
     D5D0 20D2     
7016 D5D2 064A  14 	dect r10
7017 D5D4 C680  30 	mov r0,*r10
7018 D5D6 D020  34 	movb @cvb_I,r0
     D5D8 2086     
7019 D5DA 0980  32 	srl r0,8
7020 D5DC 0220  22 	ai r0,13320
     D5DE 3408     
7021 D5E0 C0BA  30 	mov *r10+,r2
7022 D5E2 0300  22 	limi 0
     D5E4 0000     
7023 D5E6 06A0  32 	bl @JSR
     D5E8 A974     
7024 D5EA A018     	data WRTVRM
7025 D5EC 0300  22 	limi 2
     D5EE 0002     
7026               	; 	NEXT i
7027 D5F0 D020  34 	movb @cvb_I,r0
     D5F2 2086     
7028 D5F4 0220  22 	ai r0,256	; 1
     D5F6 0100     
7029 D5F8 D800  38 	movb r0,@cvb_I
     D5FA 2086     
7030 D5FC 0201  20 	li r1,2048   ; 8*256
     D5FE 0800     
7031 D600 9040  18 	cb r0,r1
7032 D602 1402  14 	jhe cv515
7033 D604 0460  28 	b @cv514
     D606 D524     
7034               cv515
7035               	; 	' the player square wears the room's wall colour, exactly
7036               	; 	' like the original avatar (walls always contrast with the
7037               	; 	' background, so it stays visible everywhere)
7038               	; 	pcol = cw
7039 D608 D820  54 	movb @cvb_CW,@cvb_PCOL
     D60A 20C4     
     D60C 20C3     
7040               	; 	' empty cells (char 32) show the background colour
7041               	; 	FOR i = 0 TO 7
7042 D60E 04C0  14 	clr r0
7043 D610 D800  38 	movb r0,@cvb_I
     D612 2086     
7044               cv516
7045               	; 	VPOKE $2100 + i, cb : VPOKE $2900 + i, cb : VPOKE $3100 + i, cb
7046 D614 D020  34 	movb @cvb_CB,r0
     D616 20BF     
7047 D618 064A  14 	dect r10
7048 D61A C680  30 	mov r0,*r10
7049 D61C D020  34 	movb @cvb_I,r0
     D61E 2086     
7050 D620 0980  32 	srl r0,8
7051 D622 0220  22 	ai r0,8448
     D624 2100     
7052 D626 C0BA  30 	mov *r10+,r2
7053 D628 0300  22 	limi 0
     D62A 0000     
7054 D62C 06A0  32 	bl @JSR
     D62E A974     
7055 D630 A018     	data WRTVRM
7056 D632 0300  22 	limi 2
     D634 0002     
7057 D636 D020  34 	movb @cvb_CB,r0
     D638 20BF     
7058 D63A 064A  14 	dect r10
7059 D63C C680  30 	mov r0,*r10
7060 D63E D020  34 	movb @cvb_I,r0
     D640 2086     
7061 D642 0980  32 	srl r0,8
7062 D644 0220  22 	ai r0,10496
     D646 2900     
7063 D648 C0BA  30 	mov *r10+,r2
7064 D64A 0300  22 	limi 0
     D64C 0000     
7065 D64E 06A0  32 	bl @JSR
     D650 A974     
7066 D652 A018     	data WRTVRM
7067 D654 0300  22 	limi 2
     D656 0002     
7068 D658 D020  34 	movb @cvb_CB,r0
     D65A 20BF     
7069 D65C 064A  14 	dect r10
7070 D65E C680  30 	mov r0,*r10
7071 D660 D020  34 	movb @cvb_I,r0
     D662 2086     
7072 D664 0980  32 	srl r0,8
7073 D666 0220  22 	ai r0,12544
     D668 3100     
7074 D66A C0BA  30 	mov *r10+,r2
7075 D66C 0300  22 	limi 0
     D66E 0000     
7076 D670 06A0  32 	bl @JSR
     D672 A974     
7077 D674 A018     	data WRTVRM
7078 D676 0300  22 	limi 2
     D678 0002     
7079               	; 	NEXT i
7080 D67A D020  34 	movb @cvb_I,r0
     D67C 2086     
7081 D67E 0220  22 	ai r0,256	; 1
     D680 0100     
7082 D682 D800  38 	movb r0,@cvb_I
     D684 2086     
7083 D686 0201  20 	li r1,2048   ; 8*256
     D688 0800     
7084 D68A 9040  18 	cb r0,r1
7085 D68C 1402  14 	jhe cv517
7086 D68E 0460  28 	b @cv516
     D690 D614     
7087               cv517
7088               	; 	BORDER cb
7089 D692 D020  34 	movb @cvb_CB,r0
     D694 20BF     
7090 D696 0980  32 	srl r0,8
7091 D698 0260  22 	ori r0,>8700
     D69A 8700     
7092 D69C 06C0  14 	swpb r0
7093 D69E 0300  22 	limi 0
     D6A0 0000     
7094 D6A2 D800  30 	movb r0,@VDPWADR
     D6A4 8C02     
7095 D6A6 06C0  14 	swpb r0
7096 D6A8 D800  30 	movb r0,@VDPWADR
     D6AA 8C02     
7097 D6AC 0300  22 	limi 2
     D6AE 0002     
7098               	; 	' player links cached for the exit routines
7099               	; 	lkr = rn
7100 D6B0 D820  54 	movb @cvb_RN,@cvb_LKR
     D6B2 20D4     
     D6B4 2098     
7101               	; 	GOSUB getlnk
7102 D6B6 06A0  32 	bl @jsr
     D6B8 A974     
7103 D6BA D076     	data cvb_GETLNK
7104               	; 	pn = lkn : pe = lke : ps = lks : pw = lkw
7105 D6BC D820  54 	movb @cvb_LKN,@cvb_PN
     D6BE 2095     
     D6C0 20CD     
7106 D6C2 D820  54 	movb @cvb_LKE,@cvb_PE
     D6C4 2093     
     D6C6 20CB     
7107 D6C8 D820  54 	movb @cvb_LKS,@cvb_PS
     D6CA 2099     
     D6CC 20CE     
7108 D6CE D820  54 	movb @cvb_LKW,@cvb_PW
     D6D0 209A     
     D6D2 20CF     
7109               	; 	' seal any doorway whose exit leads nowhere in THIS game, so
7110               	; 	' collision and visuals agree (game 2 shares screens with the
7111               	; 	' full kingdom but links fewer of them)
7112               	; 	IF pn = 255 THEN rm(1) = rm(1) OR 3 : rm(2) = rm(2) OR $C0 : rm(5) = rm(5) OR 3 : rm(6) = rm(6) OR $C0
7113 D6D4 D020  34 	movb @cvb_PN,r0
     D6D6 20CD     
7114 D6D8 0201  20 	li r1,65280   ; 255*256
     D6DA FF00     
7115 D6DC 9001  18 	cb r1,r0
7116 D6DE 1302  14 	jeq cv519
7117 D6E0 0460  28 	b @cv518
     D6E2 D71C     
7118               cv519
7119 D6E4 D020  34 	movb @array_RM+1,r0
     D6E6 2127     
7120 D6E8 0201  20 	li r1,768   ; 3*256
     D6EA 0300     
7121 D6EC F001  18 	socb r1,r0
7122 D6EE D800  38 	movb r0,@array_RM+1
     D6F0 2127     
7123 D6F2 D020  34 	movb @array_RM+2,r0
     D6F4 2128     
7124 D6F6 0201  20 	li r1,49152   ; 192*256
     D6F8 C000     
7125 D6FA F001  18 	socb r1,r0
7126 D6FC D800  38 	movb r0,@array_RM+2
     D6FE 2128     
7127 D700 D020  34 	movb @array_RM+5,r0
     D702 212B     
7128 D704 0201  20 	li r1,768   ; 3*256
     D706 0300     
7129 D708 F001  18 	socb r1,r0
7130 D70A D800  38 	movb r0,@array_RM+5
     D70C 212B     
7131 D70E D020  34 	movb @array_RM+6,r0
     D710 212C     
7132 D712 0201  20 	li r1,49152   ; 192*256
     D714 C000     
7133 D716 F001  18 	socb r1,r0
7134 D718 D800  38 	movb r0,@array_RM+6
     D71A 212C     
7135               cv518
7136               	; 	IF ps = 255 THEN rm(89) = rm(89) OR 3 : rm(90) = rm(90) OR $C0 : rm(93) = rm(93) OR 3 : rm(94) = rm(94) OR $C0
7137 D71C D020  34 	movb @cvb_PS,r0
     D71E 20CE     
7138 D720 0201  20 	li r1,65280   ; 255*256
     D722 FF00     
7139 D724 9001  18 	cb r1,r0
7140 D726 1302  14 	jeq cv521
7141 D728 0460  28 	b @cv520
     D72A D764     
7142               cv521
7143 D72C D020  34 	movb @array_RM+89,r0
     D72E 217F     
7144 D730 0201  20 	li r1,768   ; 3*256
     D732 0300     
7145 D734 F001  18 	socb r1,r0
7146 D736 D800  38 	movb r0,@array_RM+89
     D738 217F     
7147 D73A D020  34 	movb @array_RM+90,r0
     D73C 2180     
7148 D73E 0201  20 	li r1,49152   ; 192*256
     D740 C000     
7149 D742 F001  18 	socb r1,r0
7150 D744 D800  38 	movb r0,@array_RM+90
     D746 2180     
7151 D748 D020  34 	movb @array_RM+93,r0
     D74A 2183     
7152 D74C 0201  20 	li r1,768   ; 3*256
     D74E 0300     
7153 D750 F001  18 	socb r1,r0
7154 D752 D800  38 	movb r0,@array_RM+93
     D754 2183     
7155 D756 D020  34 	movb @array_RM+94,r0
     D758 2184     
7156 D75A 0201  20 	li r1,49152   ; 192*256
     D75C C000     
7157 D75E F001  18 	socb r1,r0
7158 D760 D800  38 	movb r0,@array_RM+94
     D762 2184     
7159               cv520
7160               	; 	IF pe = 255 THEN FOR i = 0 TO 23 : rm(i * 4 + 3) = rm(i * 4 + 3) OR 3 : NEXT i
7161 D764 D020  34 	movb @cvb_PE,r0
     D766 20CB     
7162 D768 0201  20 	li r1,65280   ; 255*256
     D76A FF00     
7163 D76C 9001  18 	cb r1,r0
7164 D76E 1302  14 	jeq cv523
7165 D770 0460  28 	b @cv522
     D772 D7BE     
7166               cv523
7167 D774 04C0  14 	clr r0
7168 D776 D800  38 	movb r0,@cvb_I
     D778 2086     
7169               cv524
7170 D77A D020  34 	movb @cvb_I,r0
     D77C 2086     
7171 D77E 0980  32 	srl r0,8
7172 D780 0A20  20 	sla r0,2
7173 D782 0220  22 	ai r0,3
     D784 0003     
7174 D786 0220  22 	ai r0,array_RM
     D788 2126     
7175 D78A D010  26 	movb *r0,r0
7176 D78C 0201  20 	li r1,768   ; 3*256
     D78E 0300     
7177 D790 F001  18 	socb r1,r0
7178 D792 C040  18 	mov r0,r1
7179 D794 D020  34 	movb @cvb_I,r0
     D796 2086     
7180 D798 0980  32 	srl r0,8
7181 D79A 0A20  20 	sla r0,2
7182 D79C 0220  22 	ai r0,3
     D79E 0003     
7183 D7A0 0220  22 	ai r0,array_RM
     D7A2 2126     
7184 D7A4 D401  30 	movb r1,*r0
7185 D7A6 D020  34 	movb @cvb_I,r0
     D7A8 2086     
7186 D7AA 0220  22 	ai r0,256	; 1
     D7AC 0100     
7187 D7AE D800  38 	movb r0,@cvb_I
     D7B0 2086     
7188 D7B2 0201  20 	li r1,6144   ; 24*256
     D7B4 1800     
7189 D7B6 9040  18 	cb r0,r1
7190 D7B8 1402  14 	jhe cv525
7191 D7BA 0460  28 	b @cv524
     D7BC D77A     
7192               cv525
7193               cv522
7194               	; 	IF pw = 255 THEN FOR i = 0 TO 23 : rm(i * 4) = rm(i * 4) OR $C0 : NEXT i
7195 D7BE D020  34 	movb @cvb_PW,r0
     D7C0 20CF     
7196 D7C2 0201  20 	li r1,65280   ; 255*256
     D7C4 FF00     
7197 D7C6 9001  18 	cb r1,r0
7198 D7C8 1302  14 	jeq cv527
7199 D7CA 0460  28 	b @cv526
     D7CC D810     
7200               cv527
7201 D7CE 04C0  14 	clr r0
7202 D7D0 D800  38 	movb r0,@cvb_I
     D7D2 2086     
7203               cv528
7204 D7D4 D020  34 	movb @cvb_I,r0
     D7D6 2086     
7205 D7D8 0980  32 	srl r0,8
7206 D7DA 0A20  20 	sla r0,2
7207 D7DC 0220  22 	ai r0,array_RM
     D7DE 2126     
7208 D7E0 D010  26 	movb *r0,r0
7209 D7E2 0201  20 	li r1,49152   ; 192*256
     D7E4 C000     
7210 D7E6 F001  18 	socb r1,r0
7211 D7E8 C040  18 	mov r0,r1
7212 D7EA D020  34 	movb @cvb_I,r0
     D7EC 2086     
7213 D7EE 0980  32 	srl r0,8
7214 D7F0 0A20  20 	sla r0,2
7215 D7F2 0220  22 	ai r0,array_RM
     D7F4 2126     
7216 D7F6 D401  30 	movb r1,*r0
7217 D7F8 D020  34 	movb @cvb_I,r0
     D7FA 2086     
7218 D7FC 0220  22 	ai r0,256	; 1
     D7FE 0100     
7219 D800 D800  38 	movb r0,@cvb_I
     D802 2086     
7220 D804 0201  20 	li r1,6144   ; 24*256
     D806 1800     
7221 D808 9040  18 	cb r0,r1
7222 D80A 1402  14 	jhe cv529
7223 D80C 0460  28 	b @cv528
     D80E D7D4     
7224               cv529
7225               cv526
7226               	; 	CLS
7227 D810 06A0  32 	bl @jsr
     D812 A974     
7228 D814 A0FC     	data cls
7229               	; 	fon = 0
7230 D816 04C0  14 	clr r0
7231 D818 D800  38 	movb r0,@cvb_FON
     D81A 20A7     
7232               	; 	IF drk = 1 THEN GOSUB fogenter ELSE GOSUB drawroom
7233 D81C D020  34 	movb @cvb_DRK,r0
     D81E 209D     
7234 D820 0201  20 	li r1,256   ; 1*256
     D822 0100     
7235 D824 9001  18 	cb r1,r0
7236 D826 1302  14 	jeq cv531
7237 D828 0460  28 	b @cv530
     D82A D836     
7238               cv531
7239 D82C 06A0  32 	bl @jsr
     D82E A974     
7240 D830 DB6C     	data cvb_FOGENTER
7241 D832 0460  28 	b @cv532
     D834 D83C     
7242               cv530
7243 D836 06A0  32 	bl @jsr
     D838 A974     
7244 D83A DA32     	data cvb_DRAWROOM
7245               cv532
7246               	; 	gz = 0 : gopn = 0
7247 D83C 04C0  14 	clr r0
7248 D83E D800  38 	movb r0,@cvb_GZ
     D840 20CA     
7249 D842 04C0  14 	clr r0
7250 D844 D800  38 	movb r0,@cvb_GOPN
     D846 209B     
7251               	; 	IF rn = 0 THEN gz = 1
7252 D848 D020  34 	movb @cvb_RN,r0
     D84A 20D4     
7253 D84C 1302  14 	jeq cv534
7254 D84E 0460  28 	b @cv533
     D850 D85A     
7255               cv534
7256 D852 0200  20 	li r0,256   ; 1*256
     D854 0100     
7257 D856 D800  38 	movb r0,@cvb_GZ
     D858 20CA     
7258               cv533
7259               	; 	IF rn = 13 THEN gz = 1
7260 D85A D020  34 	movb @cvb_RN,r0
     D85C 20D4     
7261 D85E 0201  20 	li r1,3328   ; 13*256
     D860 0D00     
7262 D862 9001  18 	cb r1,r0
7263 D864 1302  14 	jeq cv536
7264 D866 0460  28 	b @cv535
     D868 D872     
7265               cv536
7266 D86A 0200  20 	li r0,256   ; 1*256
     D86C 0100     
7267 D86E D800  38 	movb r0,@cvb_GZ
     D870 20CA     
7268               cv535
7269               	; 	IF rn = 8 THEN gz = 2
7270 D872 D020  34 	movb @cvb_RN,r0
     D874 20D4     
7271 D876 0201  20 	li r1,2048   ; 8*256
     D878 0800     
7272 D87A 9001  18 	cb r1,r0
7273 D87C 1302  14 	jeq cv538
7274 D87E 0460  28 	b @cv537
     D880 D88A     
7275               cv538
7276 D882 0200  20 	li r0,512   ; 2*256
     D884 0200     
7277 D886 D800  38 	movb r0,@cvb_GZ
     D888 20CA     
7278               cv537
7279               	; 	IF rn = 24 THEN gz = 2
7280 D88A D020  34 	movb @cvb_RN,r0
     D88C 20D4     
7281 D88E 0201  20 	li r1,6144   ; 24*256
     D890 1800     
7282 D892 9001  18 	cb r1,r0
7283 D894 1302  14 	jeq cv540
7284 D896 0460  28 	b @cv539
     D898 D8A2     
7285               cv540
7286 D89A 0200  20 	li r0,512   ; 2*256
     D89C 0200     
7287 D89E D800  38 	movb r0,@cvb_GZ
     D8A0 20CA     
7288               cv539
7289               	; 	IF rn = 11 THEN gz = 3
7290 D8A2 D020  34 	movb @cvb_RN,r0
     D8A4 20D4     
7291 D8A6 0201  20 	li r1,2816   ; 11*256
     D8A8 0B00     
7292 D8AA 9001  18 	cb r1,r0
7293 D8AC 1302  14 	jeq cv542
7294 D8AE 0460  28 	b @cv541
     D8B0 D8BA     
7295               cv542
7296 D8B2 0200  20 	li r0,768   ; 3*256
     D8B4 0300     
7297 D8B6 D800  38 	movb r0,@cvb_GZ
     D8B8 20CA     
7298               cv541
7299               	; 	IF rn = 32 THEN gz = 3
7300 D8BA D020  34 	movb @cvb_RN,r0
     D8BC 20D4     
7301 D8BE 0201  20 	li r1,8192   ; 32*256
     D8C0 2000     
7302 D8C2 9001  18 	cb r1,r0
7303 D8C4 1302  14 	jeq cv544
7304 D8C6 0460  28 	b @cv543
     D8C8 D8D2     
7305               cv544
7306 D8CA 0200  20 	li r0,768   ; 3*256
     D8CC 0300     
7307 D8CE D800  38 	movb r0,@cvb_GZ
     D8D0 20CA     
7308               cv543
7309               	; 	IF gz > 0 THEN gopn = gop(gz - 1)
7310 D8D2 D020  34 	movb @cvb_GZ,r0
     D8D4 20CA     
7311 D8D6 0201  20 	li r1,256   ; 1*256
     D8D8 0100     
7312 D8DA 9040  18 	cb r0,r1
7313 D8DC 1402  14 	jhe cv546
7314 D8DE 0460  28 	b @cv545
     D8E0 D8F2     
7315               cv546
7316 D8E2 D020  34 	movb @cvb_GZ,r0
     D8E4 20CA     
7317 D8E6 0980  32 	srl r0,8
7318 D8E8 0600  14 	dec r0
7319 D8EA 0220  22 	ai r0,array_GOP
     D8EC 2122     
7320 D8EE D810  46 	movb *r0,@cvb_GOPN
     D8F0 209B     
7321               cv545
7322               	; 	IF gz > 0 THEN IF gopn = 0 THEN GOSUB drawgate
7323 D8F2 D020  34 	movb @cvb_GZ,r0
     D8F4 20CA     
7324 D8F6 0201  20 	li r1,256   ; 1*256
     D8F8 0100     
7325 D8FA 9040  18 	cb r0,r1
7326 D8FC 1402  14 	jhe cv548
7327 D8FE 0460  28 	b @cv547
     D900 D912     
7328               cv548
7329 D902 D020  34 	movb @cvb_GOPN,r0
     D904 209B     
7330 D906 1302  14 	jeq cv550
7331 D908 0460  28 	b @cv549
     D90A D912     
7332               cv550
7333 D90C 06A0  32 	bl @jsr
     D90E A974     
7334 D910 DAFA     	data cvb_DRAWGATE
7335               cv549
7336               cv547
7337               	; 	IF rn = 18 THEN PRINT AT 32 * 10 + 11, "ADVENTIRE" : PRINT AT 32 * 13 + 4, "2026 UNHUMAN AND CLAUDE"
7338 D912 D020  34 	movb @cvb_RN,r0
     D914 20D4     
7339 D916 0201  20 	li r1,4608   ; 18*256
     D918 1200     
7340 D91A 9001  18 	cb r1,r0
7341 D91C 1302  14 	jeq cv552
7342 D91E 0460  28 	b @cv551
     D920 D978     
7343               cv552
7344 D922 0200  20 	li r0,331
     D924 014B     
7345 D926 C800  30 	mov r0,@cursor
     D928 8342     
7346 D92A 0202  20 	li r2,cv553
     D92C D93C     
7347 D92E 0203  20 	li r3,9
     D930 0009     
7348 D932 06A0  32 	bl @jsr
     D934 A974     
7349 D936 A11C     	data print_string
7350 D938 0460  28 	b @cv554
     D93A D946     
7351               cv553
7352 D93C 4144     	byte >41,>44,>56,>45,>4e,>54,>49,>52
     D93E 5645     
     D940 4E54     
     D942 4952     
7353 D944 45       	byte >45
7354               	even
7355               cv554
7356 D946 0200  20 	li r0,420
     D948 01A4     
7357 D94A C800  30 	mov r0,@cursor
     D94C 8342     
7358 D94E 0202  20 	li r2,cv555
     D950 D960     
7359 D952 0203  20 	li r3,23
     D954 0017     
7360 D956 06A0  32 	bl @jsr
     D958 A974     
7361 D95A A11C     	data print_string
7362 D95C 0460  28 	b @cv556
     D95E D978     
7363               cv555
7364 D960 3230     	byte >32,>30,>32,>36,>20,>55,>4e,>48
     D962 3236     
     D964 2055     
     D966 4E48     
7365 D968 554D     	byte >55,>4d,>41,>4e,>20,>41,>4e,>44
     D96A 414E     
     D96C 2041     
     D96E 4E44     
7366 D970 2043     	byte >20,>43,>4c,>41,>55,>44,>45
     D972 4C41     
     D974 5544     
     D976 45       
7367               	even
7368               cv556
7369               cv551
7370               	; 	FOR d = 0 TO 2
7371 D978 04C0  14 	clr r0
7372 D97A D800  38 	movb r0,@cvb_D
     D97C 2083     
7373               cv557
7374               	; 	IF drm(d) = rn THEN IF dst(d) = 0 THEN GOSUB dsafe : sfx = 5 : sfc = 20
7375 D97E D020  34 	movb @cvb_D,r0
     D980 2083     
7376 D982 0980  32 	srl r0,8
7377 D984 0220  22 	ai r0,array_DRM
     D986 20F2     
7378 D988 D010  26 	movb *r0,r0
7379 D98A 9020  34 	cb @cvb_RN,r0
     D98C 20D4     
7380 D98E 1302  14 	jeq cv559
7381 D990 0460  28 	b @cv558
     D992 D9BC     
7382               cv559
7383 D994 D020  34 	movb @cvb_D,r0
     D996 2083     
7384 D998 0980  32 	srl r0,8
7385 D99A 0220  22 	ai r0,array_DST
     D99C 20FA     
7386 D99E D010  26 	movb *r0,r0
7387 D9A0 1302  14 	jeq cv561
7388 D9A2 0460  28 	b @cv560
     D9A4 D9BC     
7389               cv561
7390 D9A6 06A0  32 	bl @jsr
     D9A8 A974     
7391 D9AA E200     	data cvb_DSAFE
7392 D9AC 0200  20 	li r0,1280   ; 5*256
     D9AE 0500     
7393 D9B0 D800  38 	movb r0,@cvb_SFX
     D9B2 20D3     
7394 D9B4 0200  20 	li r0,5120   ; 20*256
     D9B6 1400     
7395 D9B8 D800  38 	movb r0,@cvb_SFC
     D9BA 20CC     
7396               cv560
7397               cv558
7398               	; 	NEXT d
7399 D9BC D020  34 	movb @cvb_D,r0
     D9BE 2083     
7400 D9C0 0220  22 	ai r0,256	; 1
     D9C2 0100     
7401 D9C4 D800  38 	movb r0,@cvb_D
     D9C6 2083     
7402 D9C8 0201  20 	li r1,768   ; 3*256
     D9CA 0300     
7403 D9CC 9040  18 	cb r0,r1
7404 D9CE 1402  14 	jhe cv562
7405 D9D0 0460  28 	b @cv557
     D9D2 D97E     
7406               cv562
7407               	; 	END
7408 D9D4 C03A  30 	mov *r10+,r0
7409 D9D6 0450  20 	b *r0
7410               	;
7411               	; dchase: PROCEDURE
7412               	even
7413               cvb_DCHASE
7414               	; 	' schedule pursuit for live dragons in the abandoned room
7415               	; 	FOR d = 0 TO 2
7416 D9D8 04C0  14 	clr r0
7417 D9DA D800  38 	movb r0,@cvb_D
     D9DC 2083     
7418               cv563
7419               	; 	IF drm(d) = prn THEN IF dst(d) = 0 THEN fdl(d) = 40
7420 D9DE D020  34 	movb @cvb_D,r0
     D9E0 2083     
7421 D9E2 0980  32 	srl r0,8
7422 D9E4 0220  22 	ai r0,array_DRM
     D9E6 20F2     
7423 D9E8 D010  26 	movb *r0,r0
7424 D9EA 9020  34 	cb @cvb_PRN,r0
     D9EC 20B8     
7425 D9EE 1302  14 	jeq cv565
7426 D9F0 0460  28 	b @cv564
     D9F2 DA16     
7427               cv565
7428 D9F4 D020  34 	movb @cvb_D,r0
     D9F6 2083     
7429 D9F8 0980  32 	srl r0,8
7430 D9FA 0220  22 	ai r0,array_DST
     D9FC 20FA     
7431 D9FE D010  26 	movb *r0,r0
7432 DA00 1302  14 	jeq cv567
7433 DA02 0460  28 	b @cv566
     DA04 DA16     
7434               cv567
7435 DA06 0201  20 	li r1,10240
     DA08 2800     
7436 DA0A D020  34 	movb @cvb_D,r0
     DA0C 2083     
7437 DA0E 0980  32 	srl r0,8
7438 DA10 0220  22 	ai r0,array_FDL
     DA12 2116     
7439 DA14 D401  30 	movb r1,*r0
7440               cv566
7441               cv564
7442               	; 	NEXT d
7443 DA16 D020  34 	movb @cvb_D,r0
     DA18 2083     
7444 DA1A 0220  22 	ai r0,256	; 1
     DA1C 0100     
7445 DA1E D800  38 	movb r0,@cvb_D
     DA20 2083     
7446 DA22 0201  20 	li r1,768   ; 3*256
     DA24 0300     
7447 DA26 9040  18 	cb r0,r1
7448 DA28 1402  14 	jhe cv568
7449 DA2A 0460  28 	b @cv563
     DA2C D9DE     
7450               cv568
7451               	; 	END
7452 DA2E C03A  30 	mov *r10+,r0
7453 DA30 0450  20 	b *r0
7454               	;
7455               	; drawroom: PROCEDURE
7456               	even
7457               cvb_DRAWROOM
7458               	; 	' one char per 8px cell (CLS already blanked the screen)
7459               	; 	FOR r = 0 TO 23
7460 DA32 04C0  14 	clr r0
7461 DA34 D800  38 	movb r0,@cvb_R
     DA36 208A     
7462               cv569
7463               	; 	#ad = $1800 + r * 32
7464 DA38 D020  34 	movb @cvb_R,r0
     DA3A 208A     
7465 DA3C 0980  32 	srl r0,8
7466 DA3E 0A50  26 	sla r0,5
7467 DA40 0220  22 	ai r0,6144
     DA42 1800     
7468 DA44 C800  38 	mov r0,@cvb__AD
     DA46 20AA     
7469               	; 	FOR t2 = 0 TO 3
7470 DA48 04C0  14 	clr r0
7471 DA4A D800  38 	movb r0,@cvb_T2
     DA4C 20D2     
7472               cv570
7473               	; 	t = rm(r * 4 + t2)
7474 DA4E D020  34 	movb @cvb_T2,r0
     DA50 20D2     
7475 DA52 0980  32 	srl r0,8
7476 DA54 C040  18 	mov r0,r1
7477 DA56 D020  34 	movb @cvb_R,r0
     DA58 208A     
7478 DA5A 0980  32 	srl r0,8
7479 DA5C 0A20  20 	sla r0,2
7480 DA5E A001  18 	a r1,r0
7481 DA60 0220  22 	ai r0,array_RM
     DA62 2126     
7482 DA64 D810  46 	movb *r0,@cvb_T
     DA66 208B     
7483               	; 	FOR i = 0 TO 7
7484 DA68 04C0  14 	clr r0
7485 DA6A D800  38 	movb r0,@cvb_I
     DA6C 2086     
7486               cv571
7487               	; 	IF (t AND msk(i)) > 0 THEN VPOKE #ad, 128
7488 DA6E D020  34 	movb @cvb_I,r0
     DA70 2086     
7489 DA72 0980  32 	srl r0,8
7490 DA74 0220  22 	ai r0,array_MSK
     DA76 20EA     
7491 DA78 D050  26 	movb *r0,r1
7492 DA7A D020  34 	movb @cvb_T,r0
     DA7C 208B     
7493 DA7E 0541  14 	inv r1
7494 DA80 5001  18 	szcb r1,r0
7495 DA82 0201  20 	li r1,256   ; 1*256
     DA84 0100     
7496 DA86 9040  18 	cb r0,r1
7497 DA88 1402  14 	jhe cv573
7498 DA8A 0460  28 	b @cv572
     DA8C DAAA     
7499               cv573
7500 DA8E 0200  20 	li r0,32768   ; 128*256
     DA90 8000     
7501 DA92 064A  14 	dect r10
7502 DA94 C680  30 	mov r0,*r10
7503 DA96 C020  34 	mov @cvb__AD,r0
     DA98 20AA     
7504 DA9A C0BA  30 	mov *r10+,r2
7505 DA9C 0300  22 	limi 0
     DA9E 0000     
7506 DAA0 06A0  32 	bl @JSR
     DAA2 A974     
7507 DAA4 A018     	data WRTVRM
7508 DAA6 0300  22 	limi 2
     DAA8 0002     
7509               cv572
7510               	; 	#ad = #ad + 1
7511 DAAA 05A0  34 	inc @cvb__AD
     DAAC 20AA     
7512               	; 	NEXT i
7513 DAAE D020  34 	movb @cvb_I,r0
     DAB0 2086     
7514 DAB2 0220  22 	ai r0,256	; 1
     DAB4 0100     
7515 DAB6 D800  38 	movb r0,@cvb_I
     DAB8 2086     
7516 DABA 0201  20 	li r1,2048   ; 8*256
     DABC 0800     
7517 DABE 9040  18 	cb r0,r1
7518 DAC0 1402  14 	jhe cv574
7519 DAC2 0460  28 	b @cv571
     DAC4 DA6E     
7520               cv574
7521               	; 	NEXT t2
7522 DAC6 D020  34 	movb @cvb_T2,r0
     DAC8 20D2     
7523 DACA 0220  22 	ai r0,256	; 1
     DACC 0100     
7524 DACE D800  38 	movb r0,@cvb_T2
     DAD0 20D2     
7525 DAD2 0201  20 	li r1,1024   ; 4*256
     DAD4 0400     
7526 DAD6 9040  18 	cb r0,r1
7527 DAD8 1402  14 	jhe cv575
7528 DADA 0460  28 	b @cv570
     DADC DA4E     
7529               cv575
7530               	; 	NEXT r
7531 DADE D020  34 	movb @cvb_R,r0
     DAE0 208A     
7532 DAE2 0220  22 	ai r0,256	; 1
     DAE4 0100     
7533 DAE6 D800  38 	movb r0,@cvb_R
     DAE8 208A     
7534 DAEA 0201  20 	li r1,6144   ; 24*256
     DAEC 1800     
7535 DAEE 9040  18 	cb r0,r1
7536 DAF0 1402  14 	jhe cv576
7537 DAF2 0460  28 	b @cv569
     DAF4 DA38     
7538               cv576
7539               	; 	END
7540 DAF6 C03A  30 	mov *r10+,r0
7541 DAF8 0450  20 	b *r0
7542               	;
7543               	; drawgate: PROCEDURE
7544               	even
7545               cvb_DRAWGATE
7546               	; 	FOR r = 4 TO 7
7547 DAFA 0200  20 	li r0,1024   ; 4*256
     DAFC 0400     
7548 DAFE D800  38 	movb r0,@cvb_R
     DB00 208A     
7549               cv577
7550               	; 	FOR c2 = 14 TO 17 : VPOKE $1800 + r * 32 + c2, 129 : NEXT c2
7551 DB02 0200  20 	li r0,3584   ; 14*256
     DB04 0E00     
7552 DB06 D800  38 	movb r0,@cvb_C2
     DB08 20BB     
7553               cv578
7554 DB0A 0200  20 	li r0,33024   ; 129*256
     DB0C 8100     
7555 DB0E 064A  14 	dect r10
7556 DB10 C680  30 	mov r0,*r10
7557 DB12 D020  34 	movb @cvb_C2,r0
     DB14 20BB     
7558 DB16 0980  32 	srl r0,8
7559 DB18 C040  18 	mov r0,r1
7560 DB1A D020  34 	movb @cvb_R,r0
     DB1C 208A     
7561 DB1E 0980  32 	srl r0,8
7562 DB20 0A50  26 	sla r0,5
7563 DB22 0220  22 	ai r0,6144
     DB24 1800     
7564 DB26 A001  18 	a r1,r0
7565 DB28 C0BA  30 	mov *r10+,r2
7566 DB2A 0300  22 	limi 0
     DB2C 0000     
7567 DB2E 06A0  32 	bl @JSR
     DB30 A974     
7568 DB32 A018     	data WRTVRM
7569 DB34 0300  22 	limi 2
     DB36 0002     
7570 DB38 D020  34 	movb @cvb_C2,r0
     DB3A 20BB     
7571 DB3C 0220  22 	ai r0,256	; 1
     DB3E 0100     
7572 DB40 D800  38 	movb r0,@cvb_C2
     DB42 20BB     
7573 DB44 0201  20 	li r1,4608   ; 18*256
     DB46 1200     
7574 DB48 9040  18 	cb r0,r1
7575 DB4A 1402  14 	jhe cv579
7576 DB4C 0460  28 	b @cv578
     DB4E DB0A     
7577               cv579
7578               	; 	NEXT r
7579 DB50 D020  34 	movb @cvb_R,r0
     DB52 208A     
7580 DB54 0220  22 	ai r0,256	; 1
     DB56 0100     
7581 DB58 D800  38 	movb r0,@cvb_R
     DB5A 208A     
7582 DB5C 0201  20 	li r1,2048   ; 8*256
     DB5E 0800     
7583 DB60 9040  18 	cb r0,r1
7584 DB62 1402  14 	jhe cv580
7585 DB64 0460  28 	b @cv577
     DB66 DB02     
7586               cv580
7587               	; 	END
7588 DB68 C03A  30 	mov *r10+,r0
7589 DB6A 0450  20 	b *r0
7590               	;
7591               	; 	' ------------------------------------------------------------
7592               	; 	' fog of war (dark rooms): only wall blocks within 2 blocks
7593               	; 	' of the player are drawn; window is redrawn when the player
7594               	; 	' crosses a block boundary
7595               	; 	' ------------------------------------------------------------
7596               	; fogenter: PROCEDURE
7597               	even
7598               cvb_FOGENTER
7599               	; 	fon = 1
7600 DB6C 0200  20 	li r0,256   ; 1*256
     DB6E 0100     
7601 DB70 D800  38 	movb r0,@cvb_FON
     DB72 20A7     
7602               	; 	fpr = (py + 4) / 8 : fpc = (px + 4) / 8
7603 DB74 D020  34 	movb @cvb_PY,r0
     DB76 20D1     
7604 DB78 0980  32 	srl r0,8
7605 DB7A 0220  22 	ai r0,4
     DB7C 0004     
7606 DB7E 0930  22 	srl r0,3
7607 DB80 0A80  32 	sla r0,8
7608 DB82 D800  38 	movb r0,@cvb_FPR
     DB84 20AC     
7609 DB86 D020  34 	movb @cvb_PX,r0
     DB88 20D0     
7610 DB8A 0980  32 	srl r0,8
7611 DB8C 0220  22 	ai r0,4
     DB8E 0004     
7612 DB90 0930  22 	srl r0,3
7613 DB92 0A80  32 	sla r0,8
7614 DB94 D800  38 	movb r0,@cvb_FPC
     DB96 20A6     
7615               	; 	GOSUB fogdraw
7616 DB98 06A0  32 	bl @jsr
     DB9A A974     
7617 DB9C E0B0     	data cvb_FOGDRAW
7618               	; 	END
7619 DB9E C03A  30 	mov *r10+,r0
7620 DBA0 0450  20 	b *r0
7621               	;
7622               	; fogupd: PROCEDURE
7623               	even
7624               cvb_FOGUPD
7625               	; 	' differential update: the player crosses at most one cell
7626               	; 	' boundary per axis per tick, so only the trailing edge is
7627               	; 	' erased and the leading edge drawn (a full window wipe+draw
7628               	; 	' every crossing dragged the TI-99 below 30Hz in dark rooms)
7629               	; 	t = (py + 4) / 8 : t2 = (px + 4) / 8
7630 DBA2 D020  34 	movb @cvb_PY,r0
     DBA4 20D1     
7631 DBA6 0980  32 	srl r0,8
7632 DBA8 0220  22 	ai r0,4
     DBAA 0004     
7633 DBAC 0930  22 	srl r0,3
7634 DBAE 0A80  32 	sla r0,8
7635 DBB0 D800  38 	movb r0,@cvb_T
     DBB2 208B     
7636 DBB4 D020  34 	movb @cvb_PX,r0
     DBB6 20D0     
7637 DBB8 0980  32 	srl r0,8
7638 DBBA 0220  22 	ai r0,4
     DBBC 0004     
7639 DBBE 0930  22 	srl r0,3
7640 DBC0 0A80  32 	sla r0,8
7641 DBC2 D800  38 	movb r0,@cvb_T2
     DBC4 20D2     
7642               	; 	IF t2 <> fpc THEN GOSUB foghz
7643 DBC6 9020  34 	cb @cvb_FPC,r0
     DBC8 20A6     
7644 DBCA 1602  14 	jne cv582
7645 DBCC 0460  28 	b @cv581
     DBCE DBD6     
7646               cv582
7647 DBD0 06A0  32 	bl @jsr
     DBD2 A974     
7648 DBD4 DBEE     	data cvb_FOGHZ
7649               cv581
7650               	; 	IF t <> fpr THEN GOSUB fogvt
7651 DBD6 D020  34 	movb @cvb_T,r0
     DBD8 208B     
7652 DBDA 9020  34 	cb @cvb_FPR,r0
     DBDC 20AC     
7653 DBDE 1602  14 	jne cv584
7654 DBE0 0460  28 	b @cv583
     DBE2 DBEA     
7655               cv584
7656 DBE4 06A0  32 	bl @jsr
     DBE6 A974     
7657 DBE8 DC4C     	data cvb_FOGVT
7658               cv583
7659               	; 	END
7660 DBEA C03A  30 	mov *r10+,r0
7661 DBEC 0450  20 	b *r0
7662               	;
7663               	; foghz: PROCEDURE
7664               	even
7665               cvb_FOGHZ
7666               	; 	IF t2 > fpc THEN fc = fpc - 5 : fl = t2 + 5 ELSE fc = fpc + 5 : fl = t2 - 5
7667 DBEE D020  34 	movb @cvb_FPC,r0
     DBF0 20A6     
7668 DBF2 9800  34 	cb r0,@cvb_T2
     DBF4 20D2     
7669 DBF6 1A02  14 	jl cv586
7670 DBF8 0460  28 	b @cv585
     DBFA DC18     
7671               cv586
7672 DBFC D020  34 	movb @cvb_FPC,r0
     DBFE 20A6     
7673 DC00 0220  22 	ai r0,64256	; -5
     DC02 FB00     
7674 DC04 D800  38 	movb r0,@cvb_FC
     DC06 20C6     
7675 DC08 D020  34 	movb @cvb_T2,r0
     DC0A 20D2     
7676 DC0C 0220  22 	ai r0,1280	; 5
     DC0E 0500     
7677 DC10 D800  38 	movb r0,@cvb_FL
     DC12 20C7     
7678 DC14 0460  28 	b @cv587
     DC16 DC30     
7679               cv585
7680 DC18 D020  34 	movb @cvb_FPC,r0
     DC1A 20A6     
7681 DC1C 0220  22 	ai r0,1280	; 5
     DC1E 0500     
7682 DC20 D800  38 	movb r0,@cvb_FC
     DC22 20C6     
7683 DC24 D020  34 	movb @cvb_T2,r0
     DC26 20D2     
7684 DC28 0220  22 	ai r0,64256	; -5
     DC2A FB00     
7685 DC2C D800  38 	movb r0,@cvb_FL
     DC2E 20C7     
7686               cv587
7687               	; 	GOSUB fogecol
7688 DC30 06A0  32 	bl @jsr
     DC32 A974     
7689 DC34 DCAA     	data cvb_FOGECOL
7690               	; 	fpc = t2
7691 DC36 D820  54 	movb @cvb_T2,@cvb_FPC
     DC38 20D2     
     DC3A 20A6     
7692               	; 	fc = fl
7693 DC3C D820  54 	movb @cvb_FL,@cvb_FC
     DC3E 20C7     
     DC40 20C6     
7694               	; 	GOSUB fogdcol
7695 DC42 06A0  32 	bl @jsr
     DC44 A974     
7696 DC46 DD66     	data cvb_FOGDCOL
7697               	; 	END
7698 DC48 C03A  30 	mov *r10+,r0
7699 DC4A 0450  20 	b *r0
7700               	;
7701               	; fogvt: PROCEDURE
7702               	even
7703               cvb_FOGVT
7704               	; 	IF t > fpr THEN fc = fpr - 5 : fl = t + 5 ELSE fc = fpr + 5 : fl = t - 5
7705 DC4C D020  34 	movb @cvb_FPR,r0
     DC4E 20AC     
7706 DC50 9800  34 	cb r0,@cvb_T
     DC52 208B     
7707 DC54 1A02  14 	jl cv589
7708 DC56 0460  28 	b @cv588
     DC58 DC76     
7709               cv589
7710 DC5A D020  34 	movb @cvb_FPR,r0
     DC5C 20AC     
7711 DC5E 0220  22 	ai r0,64256	; -5
     DC60 FB00     
7712 DC62 D800  38 	movb r0,@cvb_FC
     DC64 20C6     
7713 DC66 D020  34 	movb @cvb_T,r0
     DC68 208B     
7714 DC6A 0220  22 	ai r0,1280	; 5
     DC6C 0500     
7715 DC6E D800  38 	movb r0,@cvb_FL
     DC70 20C7     
7716 DC72 0460  28 	b @cv590
     DC74 DC8E     
7717               cv588
7718 DC76 D020  34 	movb @cvb_FPR,r0
     DC78 20AC     
7719 DC7A 0220  22 	ai r0,1280	; 5
     DC7C 0500     
7720 DC7E D800  38 	movb r0,@cvb_FC
     DC80 20C6     
7721 DC82 D020  34 	movb @cvb_T,r0
     DC84 208B     
7722 DC86 0220  22 	ai r0,64256	; -5
     DC88 FB00     
7723 DC8A D800  38 	movb r0,@cvb_FL
     DC8C 20C7     
7724               cv590
7725               	; 	GOSUB fogerow
7726 DC8E 06A0  32 	bl @jsr
     DC90 A974     
7727 DC92 DE74     	data cvb_FOGEROW
7728               	; 	fpr = t
7729 DC94 D820  54 	movb @cvb_T,@cvb_FPR
     DC96 208B     
     DC98 20AC     
7730               	; 	fc = fl
7731 DC9A D820  54 	movb @cvb_FL,@cvb_FC
     DC9C 20C7     
     DC9E 20C6     
7732               	; 	GOSUB fogdrow
7733 DCA0 06A0  32 	bl @jsr
     DCA2 A974     
7734 DCA4 DF28     	data cvb_FOGDROW
7735               	; 	END
7736 DCA6 C03A  30 	mov *r10+,r0
7737 DCA8 0450  20 	b *r0
7738               	;
7739               	; fogecol: PROCEDURE
7740               	even
7741               cvb_FOGECOL
7742               	; 	IF fc > 31 THEN RETURN
7743 DCAA D020  34 	movb @cvb_FC,r0
     DCAC 20C6     
7744 DCAE 0201  20 	li r1,8192   ; 32*256
     DCB0 2000     
7745 DCB2 9040  18 	cb r0,r1
7746 DCB4 1402  14 	jhe cv592
7747 DCB6 0460  28 	b @cv591
     DCB8 DCBE     
7748               cv592
7749 DCBA C03A  30 	mov *r10+,r0
7750 DCBC 0450  20 	b *r0
7751               cv591
7752               	; 	r0f = 0 : IF fpr > 5 THEN r0f = fpr - 5
7753 DCBE 04C0  14 	clr r0
7754 DCC0 D800  38 	movb r0,@cvb_R0F
     DCC2 20A5     
7755 DCC4 D020  34 	movb @cvb_FPR,r0
     DCC6 20AC     
7756 DCC8 0201  20 	li r1,1536   ; 6*256
     DCCA 0600     
7757 DCCC 9040  18 	cb r0,r1
7758 DCCE 1402  14 	jhe cv594
7759 DCD0 0460  28 	b @cv593
     DCD2 DCE0     
7760               cv594
7761 DCD4 D020  34 	movb @cvb_FPR,r0
     DCD6 20AC     
7762 DCD8 0220  22 	ai r0,64256	; -5
     DCDA FB00     
7763 DCDC D800  38 	movb r0,@cvb_R0F
     DCDE 20A5     
7764               cv593
7765               	; 	r1f = fpr + 5 : IF r1f > 23 THEN r1f = 23
7766 DCE0 D020  34 	movb @cvb_FPR,r0
     DCE2 20AC     
7767 DCE4 0220  22 	ai r0,1280	; 5
     DCE6 0500     
7768 DCE8 D800  38 	movb r0,@cvb_R1F
     DCEA 20A8     
7769 DCEC 0201  20 	li r1,6144   ; 24*256
     DCEE 1800     
7770 DCF0 9040  18 	cb r0,r1
7771 DCF2 1402  14 	jhe cv596
7772 DCF4 0460  28 	b @cv595
     DCF6 DD00     
7773               cv596
7774 DCF8 0200  20 	li r0,5888   ; 23*256
     DCFA 1700     
7775 DCFC D800  38 	movb r0,@cvb_R1F
     DCFE 20A8     
7776               cv595
7777               	; 	#ad = $1800 + r0f * 32 + fc
7778 DD00 D020  34 	movb @cvb_FC,r0
     DD02 20C6     
7779 DD04 0980  32 	srl r0,8
7780 DD06 C040  18 	mov r0,r1
7781 DD08 D020  34 	movb @cvb_R0F,r0
     DD0A 20A5     
7782 DD0C 0980  32 	srl r0,8
7783 DD0E 0A50  26 	sla r0,5
7784 DD10 0220  22 	ai r0,6144
     DD12 1800     
7785 DD14 A001  18 	a r1,r0
7786 DD16 C800  38 	mov r0,@cvb__AD
     DD18 20AA     
7787               	; 	FOR r = r0f TO r1f
7788 DD1A D820  54 	movb @cvb_R0F,@cvb_R
     DD1C 20A5     
     DD1E 208A     
7789               cv597
7790               	; 	VPOKE #ad, 32
7791 DD20 0200  20 	li r0,8192   ; 32*256
     DD22 2000     
7792 DD24 064A  14 	dect r10
7793 DD26 C680  30 	mov r0,*r10
7794 DD28 C020  34 	mov @cvb__AD,r0
     DD2A 20AA     
7795 DD2C C0BA  30 	mov *r10+,r2
7796 DD2E 0300  22 	limi 0
     DD30 0000     
7797 DD32 06A0  32 	bl @JSR
     DD34 A974     
7798 DD36 A018     	data WRTVRM
7799 DD38 0300  22 	limi 2
     DD3A 0002     
7800               	; 	#ad = #ad + 32
7801 DD3C C020  34 	mov @cvb__AD,r0
     DD3E 20AA     
7802 DD40 0220  22 	ai r0,32
     DD42 0020     
7803 DD44 C800  38 	mov r0,@cvb__AD
     DD46 20AA     
7804               	; 	NEXT r
7805 DD48 D020  34 	movb @cvb_R,r0
     DD4A 208A     
7806 DD4C 0220  22 	ai r0,256	; 1
     DD4E 0100     
7807 DD50 D800  38 	movb r0,@cvb_R
     DD52 208A     
7808 DD54 D020  34 	movb @cvb_R1F,r0
     DD56 20A8     
7809 DD58 9800  34 	cb r0,@cvb_R
     DD5A 208A     
7810 DD5C 1A02  14 	jl cv598
7811 DD5E 0460  28 	b @cv597
     DD60 DD20     
7812               cv598
7813               	; 	END
7814 DD62 C03A  30 	mov *r10+,r0
7815 DD64 0450  20 	b *r0
7816               	;
7817               	; fogdcol: PROCEDURE
7818               	even
7819               cvb_FOGDCOL
7820               	; 	IF fc > 31 THEN RETURN
7821 DD66 D020  34 	movb @cvb_FC,r0
     DD68 20C6     
7822 DD6A 0201  20 	li r1,8192   ; 32*256
     DD6C 2000     
7823 DD6E 9040  18 	cb r0,r1
7824 DD70 1402  14 	jhe cv600
7825 DD72 0460  28 	b @cv599
     DD74 DD7A     
7826               cv600
7827 DD76 C03A  30 	mov *r10+,r0
7828 DD78 0450  20 	b *r0
7829               cv599
7830               	; 	r0f = 0 : IF fpr > 5 THEN r0f = fpr - 5
7831 DD7A 04C0  14 	clr r0
7832 DD7C D800  38 	movb r0,@cvb_R0F
     DD7E 20A5     
7833 DD80 D020  34 	movb @cvb_FPR,r0
     DD82 20AC     
7834 DD84 0201  20 	li r1,1536   ; 6*256
     DD86 0600     
7835 DD88 9040  18 	cb r0,r1
7836 DD8A 1402  14 	jhe cv602
7837 DD8C 0460  28 	b @cv601
     DD8E DD9C     
7838               cv602
7839 DD90 D020  34 	movb @cvb_FPR,r0
     DD92 20AC     
7840 DD94 0220  22 	ai r0,64256	; -5
     DD96 FB00     
7841 DD98 D800  38 	movb r0,@cvb_R0F
     DD9A 20A5     
7842               cv601
7843               	; 	r1f = fpr + 5 : IF r1f > 23 THEN r1f = 23
7844 DD9C D020  34 	movb @cvb_FPR,r0
     DD9E 20AC     
7845 DDA0 0220  22 	ai r0,1280	; 5
     DDA2 0500     
7846 DDA4 D800  38 	movb r0,@cvb_R1F
     DDA6 20A8     
7847 DDA8 0201  20 	li r1,6144   ; 24*256
     DDAA 1800     
7848 DDAC 9040  18 	cb r0,r1
7849 DDAE 1402  14 	jhe cv604
7850 DDB0 0460  28 	b @cv603
     DDB2 DDBC     
7851               cv604
7852 DDB4 0200  20 	li r0,5888   ; 23*256
     DDB6 1700     
7853 DDB8 D800  38 	movb r0,@cvb_R1F
     DDBA 20A8     
7854               cv603
7855               	; 	i2 = fc / 8 : f = msk(fc AND 7)
7856 DDBC D020  34 	movb @cvb_FC,r0
     DDBE 20C6     
7857 DDC0 0930  22 	srl r0,3
7858 DDC2 D800  38 	movb r0,@cvb_I2
     DDC4 20C8     
7859 DDC6 D020  34 	movb @cvb_FC,r0
     DDC8 20C6     
7860 DDCA 0201  20 	li r1,1792   ; 7*256
     DDCC 0700     
7861 DDCE 0541  14 	inv r1
7862 DDD0 5001  18 	szcb r1,r0
7863 DDD2 0980  32 	srl r0,8
7864 DDD4 0220  22 	ai r0,array_MSK
     DDD6 20EA     
7865 DDD8 D810  46 	movb *r0,@cvb_F
     DDDA 2085     
7866               	; 	#ad = $1800 + r0f * 32 + fc
7867 DDDC D020  34 	movb @cvb_FC,r0
     DDDE 20C6     
7868 DDE0 0980  32 	srl r0,8
7869 DDE2 C040  18 	mov r0,r1
7870 DDE4 D020  34 	movb @cvb_R0F,r0
     DDE6 20A5     
7871 DDE8 0980  32 	srl r0,8
7872 DDEA 0A50  26 	sla r0,5
7873 DDEC 0220  22 	ai r0,6144
     DDEE 1800     
7874 DDF0 A001  18 	a r1,r0
7875 DDF2 C800  38 	mov r0,@cvb__AD
     DDF4 20AA     
7876               	; 	FOR r = r0f TO r1f
7877 DDF6 D820  54 	movb @cvb_R0F,@cvb_R
     DDF8 20A5     
     DDFA 208A     
7878               cv605
7879               	; 	IF (rm(r * 4 + i2) AND f) > 0 THEN VPOKE #ad, 128
7880 DDFC D020  34 	movb @cvb_F,r0
     DDFE 2085     
7881 DE00 064A  14 	dect r10
7882 DE02 C680  30 	mov r0,*r10
7883 DE04 D020  34 	movb @cvb_I2,r0
     DE06 20C8     
7884 DE08 0980  32 	srl r0,8
7885 DE0A C040  18 	mov r0,r1
7886 DE0C D020  34 	movb @cvb_R,r0
     DE0E 208A     
7887 DE10 0980  32 	srl r0,8
7888 DE12 0A20  20 	sla r0,2
7889 DE14 A001  18 	a r1,r0
7890 DE16 0220  22 	ai r0,array_RM
     DE18 2126     
7891 DE1A D010  26 	movb *r0,r0
7892 DE1C C07A  30 	mov *r10+,r1
7893 DE1E 0541  14 	inv r1
7894 DE20 5001  18 	szcb r1,r0
7895 DE22 0201  20 	li r1,256   ; 1*256
     DE24 0100     
7896 DE26 9040  18 	cb r0,r1
7897 DE28 1402  14 	jhe cv607
7898 DE2A 0460  28 	b @cv606
     DE2C DE4A     
7899               cv607
7900 DE2E 0200  20 	li r0,32768   ; 128*256
     DE30 8000     
7901 DE32 064A  14 	dect r10
7902 DE34 C680  30 	mov r0,*r10
7903 DE36 C020  34 	mov @cvb__AD,r0
     DE38 20AA     
7904 DE3A C0BA  30 	mov *r10+,r2
7905 DE3C 0300  22 	limi 0
     DE3E 0000     
7906 DE40 06A0  32 	bl @JSR
     DE42 A974     
7907 DE44 A018     	data WRTVRM
7908 DE46 0300  22 	limi 2
     DE48 0002     
7909               cv606
7910               	; 	#ad = #ad + 32
7911 DE4A C020  34 	mov @cvb__AD,r0
     DE4C 20AA     
7912 DE4E 0220  22 	ai r0,32
     DE50 0020     
7913 DE52 C800  38 	mov r0,@cvb__AD
     DE54 20AA     
7914               	; 	NEXT r
7915 DE56 D020  34 	movb @cvb_R,r0
     DE58 208A     
7916 DE5A 0220  22 	ai r0,256	; 1
     DE5C 0100     
7917 DE5E D800  38 	movb r0,@cvb_R
     DE60 208A     
7918 DE62 D020  34 	movb @cvb_R1F,r0
     DE64 20A8     
7919 DE66 9800  34 	cb r0,@cvb_R
     DE68 208A     
7920 DE6A 1A02  14 	jl cv608
7921 DE6C 0460  28 	b @cv605
     DE6E DDFC     
7922               cv608
7923               	; 	END
7924 DE70 C03A  30 	mov *r10+,r0
7925 DE72 0450  20 	b *r0
7926               	;
7927               	; fogerow: PROCEDURE
7928               	even
7929               cvb_FOGEROW
7930               	; 	IF fc > 23 THEN RETURN
7931 DE74 D020  34 	movb @cvb_FC,r0
     DE76 20C6     
7932 DE78 0201  20 	li r1,6144   ; 24*256
     DE7A 1800     
7933 DE7C 9040  18 	cb r0,r1
7934 DE7E 1402  14 	jhe cv610
7935 DE80 0460  28 	b @cv609
     DE82 DE88     
7936               cv610
7937 DE84 C03A  30 	mov *r10+,r0
7938 DE86 0450  20 	b *r0
7939               cv609
7940               	; 	c0f = 0 : IF fpc > 5 THEN c0f = fpc - 5
7941 DE88 04C0  14 	clr r0
7942 DE8A D800  38 	movb r0,@cvb_C0F
     DE8C 20D5     
7943 DE8E D020  34 	movb @cvb_FPC,r0
     DE90 20A6     
7944 DE92 0201  20 	li r1,1536   ; 6*256
     DE94 0600     
7945 DE96 9040  18 	cb r0,r1
7946 DE98 1402  14 	jhe cv612
7947 DE9A 0460  28 	b @cv611
     DE9C DEAA     
7948               cv612
7949 DE9E D020  34 	movb @cvb_FPC,r0
     DEA0 20A6     
7950 DEA2 0220  22 	ai r0,64256	; -5
     DEA4 FB00     
7951 DEA6 D800  38 	movb r0,@cvb_C0F
     DEA8 20D5     
7952               cv611
7953               	; 	c1f = fpc + 5 : IF c1f > 31 THEN c1f = 31
7954 DEAA D020  34 	movb @cvb_FPC,r0
     DEAC 20A6     
7955 DEAE 0220  22 	ai r0,1280	; 5
     DEB0 0500     
7956 DEB2 D800  38 	movb r0,@cvb_C1F
     DEB4 20D6     
7957 DEB6 0201  20 	li r1,8192   ; 32*256
     DEB8 2000     
7958 DEBA 9040  18 	cb r0,r1
7959 DEBC 1402  14 	jhe cv614
7960 DEBE 0460  28 	b @cv613
     DEC0 DECA     
7961               cv614
7962 DEC2 0200  20 	li r0,7936   ; 31*256
     DEC4 1F00     
7963 DEC6 D800  38 	movb r0,@cvb_C1F
     DEC8 20D6     
7964               cv613
7965               	; 	#ad = $1800 + fc * 32 + c0f
7966 DECA D020  34 	movb @cvb_C0F,r0
     DECC 20D5     
7967 DECE 0980  32 	srl r0,8
7968 DED0 C040  18 	mov r0,r1
7969 DED2 D020  34 	movb @cvb_FC,r0
     DED4 20C6     
7970 DED6 0980  32 	srl r0,8
7971 DED8 0A50  26 	sla r0,5
7972 DEDA 0220  22 	ai r0,6144
     DEDC 1800     
7973 DEDE A001  18 	a r1,r0
7974 DEE0 C800  38 	mov r0,@cvb__AD
     DEE2 20AA     
7975               	; 	FOR c2 = c0f TO c1f
7976 DEE4 D820  54 	movb @cvb_C0F,@cvb_C2
     DEE6 20D5     
     DEE8 20BB     
7977               cv615
7978               	; 	VPOKE #ad, 32
7979 DEEA 0200  20 	li r0,8192   ; 32*256
     DEEC 2000     
7980 DEEE 064A  14 	dect r10
7981 DEF0 C680  30 	mov r0,*r10
7982 DEF2 C020  34 	mov @cvb__AD,r0
     DEF4 20AA     
7983 DEF6 C0BA  30 	mov *r10+,r2
7984 DEF8 0300  22 	limi 0
     DEFA 0000     
7985 DEFC 06A0  32 	bl @JSR
     DEFE A974     
7986 DF00 A018     	data WRTVRM
7987 DF02 0300  22 	limi 2
     DF04 0002     
7988               	; 	#ad = #ad + 1
7989 DF06 05A0  34 	inc @cvb__AD
     DF08 20AA     
7990               	; 	NEXT c2
7991 DF0A D020  34 	movb @cvb_C2,r0
     DF0C 20BB     
7992 DF0E 0220  22 	ai r0,256	; 1
     DF10 0100     
7993 DF12 D800  38 	movb r0,@cvb_C2
     DF14 20BB     
7994 DF16 D020  34 	movb @cvb_C1F,r0
     DF18 20D6     
7995 DF1A 9800  34 	cb r0,@cvb_C2
     DF1C 20BB     
7996 DF1E 1A02  14 	jl cv616
7997 DF20 0460  28 	b @cv615
     DF22 DEEA     
7998               cv616
7999               	; 	END
8000 DF24 C03A  30 	mov *r10+,r0
8001 DF26 0450  20 	b *r0
8002               	;
8003               	; fogdrow: PROCEDURE
8004               	even
8005               cvb_FOGDROW
8006               	; 	IF fc > 23 THEN RETURN
8007 DF28 D020  34 	movb @cvb_FC,r0
     DF2A 20C6     
8008 DF2C 0201  20 	li r1,6144   ; 24*256
     DF2E 1800     
8009 DF30 9040  18 	cb r0,r1
8010 DF32 1402  14 	jhe cv618
8011 DF34 0460  28 	b @cv617
     DF36 DF3C     
8012               cv618
8013 DF38 C03A  30 	mov *r10+,r0
8014 DF3A 0450  20 	b *r0
8015               cv617
8016               	; 	c0f = 0 : IF fpc > 5 THEN c0f = fpc - 5
8017 DF3C 04C0  14 	clr r0
8018 DF3E D800  38 	movb r0,@cvb_C0F
     DF40 20D5     
8019 DF42 D020  34 	movb @cvb_FPC,r0
     DF44 20A6     
8020 DF46 0201  20 	li r1,1536   ; 6*256
     DF48 0600     
8021 DF4A 9040  18 	cb r0,r1
8022 DF4C 1402  14 	jhe cv620
8023 DF4E 0460  28 	b @cv619
     DF50 DF5E     
8024               cv620
8025 DF52 D020  34 	movb @cvb_FPC,r0
     DF54 20A6     
8026 DF56 0220  22 	ai r0,64256	; -5
     DF58 FB00     
8027 DF5A D800  38 	movb r0,@cvb_C0F
     DF5C 20D5     
8028               cv619
8029               	; 	c1f = fpc + 5 : IF c1f > 31 THEN c1f = 31
8030 DF5E D020  34 	movb @cvb_FPC,r0
     DF60 20A6     
8031 DF62 0220  22 	ai r0,1280	; 5
     DF64 0500     
8032 DF66 D800  38 	movb r0,@cvb_C1F
     DF68 20D6     
8033 DF6A 0201  20 	li r1,8192   ; 32*256
     DF6C 2000     
8034 DF6E 9040  18 	cb r0,r1
8035 DF70 1402  14 	jhe cv622
8036 DF72 0460  28 	b @cv621
     DF74 DF7E     
8037               cv622
8038 DF76 0200  20 	li r0,7936   ; 31*256
     DF78 1F00     
8039 DF7A D800  38 	movb r0,@cvb_C1F
     DF7C 20D6     
8040               cv621
8041               	; 	i2 = fc * 4
8042 DF7E D020  34 	movb @cvb_FC,r0
     DF80 20C6     
8043 DF82 0240  22 	andi r0,>ff00
     DF84 FF00     
8044 DF86 0A20  20 	sla r0,2
8045 DF88 D800  38 	movb r0,@cvb_I2
     DF8A 20C8     
8046               	; 	#ad = $1800 + fc * 32 + c0f
8047 DF8C D020  34 	movb @cvb_C0F,r0
     DF8E 20D5     
8048 DF90 0980  32 	srl r0,8
8049 DF92 C040  18 	mov r0,r1
8050 DF94 D020  34 	movb @cvb_FC,r0
     DF96 20C6     
8051 DF98 0980  32 	srl r0,8
8052 DF9A 0A50  26 	sla r0,5
8053 DF9C 0220  22 	ai r0,6144
     DF9E 1800     
8054 DFA0 A001  18 	a r1,r0
8055 DFA2 C800  38 	mov r0,@cvb__AD
     DFA4 20AA     
8056               	; 	FOR c2 = c0f TO c1f
8057 DFA6 D820  54 	movb @cvb_C0F,@cvb_C2
     DFA8 20D5     
     DFAA 20BB     
8058               cv623
8059               	; 	IF (rm(i2 + (c2 / 8)) AND msk(c2 AND 7)) > 0 THEN VPOKE #ad, 128
8060 DFAC D020  34 	movb @cvb_C2,r0
     DFAE 20BB     
8061 DFB0 0201  20 	li r1,1792   ; 7*256
     DFB2 0700     
8062 DFB4 0541  14 	inv r1
8063 DFB6 5001  18 	szcb r1,r0
8064 DFB8 0980  32 	srl r0,8
8065 DFBA 0220  22 	ai r0,array_MSK
     DFBC 20EA     
8066 DFBE D010  26 	movb *r0,r0
8067 DFC0 064A  14 	dect r10
8068 DFC2 C680  30 	mov r0,*r10
8069 DFC4 D020  34 	movb @cvb_C2,r0
     DFC6 20BB     
8070 DFC8 0980  32 	srl r0,8
8071 DFCA 0930  22 	srl r0,3
8072 DFCC C040  18 	mov r0,r1
8073 DFCE D020  34 	movb @cvb_I2,r0
     DFD0 20C8     
8074 DFD2 0980  32 	srl r0,8
8075 DFD4 A001  18 	a r1,r0
8076 DFD6 0220  22 	ai r0,array_RM
     DFD8 2126     
8077 DFDA D010  26 	movb *r0,r0
8078 DFDC C07A  30 	mov *r10+,r1
8079 DFDE 0541  14 	inv r1
8080 DFE0 5001  18 	szcb r1,r0
8081 DFE2 0201  20 	li r1,256   ; 1*256
     DFE4 0100     
8082 DFE6 9040  18 	cb r0,r1
8083 DFE8 1402  14 	jhe cv625
8084 DFEA 0460  28 	b @cv624
     DFEC E00A     
8085               cv625
8086 DFEE 0200  20 	li r0,32768   ; 128*256
     DFF0 8000     
8087 DFF2 064A  14 	dect r10
8088 DFF4 C680  30 	mov r0,*r10
8089 DFF6 C020  34 	mov @cvb__AD,r0
     DFF8 20AA     
8090 DFFA C0BA  30 	mov *r10+,r2
8091 DFFC 0300  22 	limi 0
     DFFE 0000     
8092 E000 06A0  32 	bl @JSR
     E002 A974     
8093 E004 A018     	data WRTVRM
8094 E006 0300  22 	limi 2
     E008 0002     
8095               cv624
8096               	; 	#ad = #ad + 1
8097 E00A 05A0  34 	inc @cvb__AD
     E00C 20AA     
8098               	; 	NEXT c2
8099 E00E D020  34 	movb @cvb_C2,r0
     E010 20BB     
8100 E012 0220  22 	ai r0,256	; 1
     E014 0100     
8101 E016 D800  38 	movb r0,@cvb_C2
     E018 20BB     
8102 E01A D020  34 	movb @cvb_C1F,r0
     E01C 20D6     
8103 E01E 9800  34 	cb r0,@cvb_C2
     E020 20BB     
8104 E022 1A02  14 	jl cv626
8105 E024 0460  28 	b @cv623
     E026 DFAC     
8106               cv626
8107               	; 	END
8108 E028 C03A  30 	mov *r10+,r0
8109 E02A 0450  20 	b *r0
8110               	;
8111               	; fogwipe: PROCEDURE
8112               	even
8113               cvb_FOGWIPE
8114               	; 	' blank the whole window (room entry / arrival snaps only)
8115               	; 	GOSUB fogbnd
8116 E02C 06A0  32 	bl @jsr
     E02E A974     
8117 E030 E178     	data cvb_FOGBND
8118               	; 	FOR r = r0f TO r1f
8119 E032 D820  54 	movb @cvb_R0F,@cvb_R
     E034 20A5     
     E036 208A     
8120               cv627
8121               	; 	#ad = $1800 + r * 32 + c0f
8122 E038 D020  34 	movb @cvb_C0F,r0
     E03A 20D5     
8123 E03C 0980  32 	srl r0,8
8124 E03E C040  18 	mov r0,r1
8125 E040 D020  34 	movb @cvb_R,r0
     E042 208A     
8126 E044 0980  32 	srl r0,8
8127 E046 0A50  26 	sla r0,5
8128 E048 0220  22 	ai r0,6144
     E04A 1800     
8129 E04C A001  18 	a r1,r0
8130 E04E C800  38 	mov r0,@cvb__AD
     E050 20AA     
8131               	; 	FOR c2 = c0f TO c1f
8132 E052 D820  54 	movb @cvb_C0F,@cvb_C2
     E054 20D5     
     E056 20BB     
8133               cv628
8134               	; 	VPOKE #ad, 32
8135 E058 0200  20 	li r0,8192   ; 32*256
     E05A 2000     
8136 E05C 064A  14 	dect r10
8137 E05E C680  30 	mov r0,*r10
8138 E060 C020  34 	mov @cvb__AD,r0
     E062 20AA     
8139 E064 C0BA  30 	mov *r10+,r2
8140 E066 0300  22 	limi 0
     E068 0000     
8141 E06A 06A0  32 	bl @JSR
     E06C A974     
8142 E06E A018     	data WRTVRM
8143 E070 0300  22 	limi 2
     E072 0002     
8144               	; 	#ad = #ad + 1
8145 E074 05A0  34 	inc @cvb__AD
     E076 20AA     
8146               	; 	NEXT c2
8147 E078 D020  34 	movb @cvb_C2,r0
     E07A 20BB     
8148 E07C 0220  22 	ai r0,256	; 1
     E07E 0100     
8149 E080 D800  38 	movb r0,@cvb_C2
     E082 20BB     
8150 E084 D020  34 	movb @cvb_C1F,r0
     E086 20D6     
8151 E088 9800  34 	cb r0,@cvb_C2
     E08A 20BB     
8152 E08C 1A02  14 	jl cv629
8153 E08E 0460  28 	b @cv628
     E090 E058     
8154               cv629
8155               	; 	NEXT r
8156 E092 D020  34 	movb @cvb_R,r0
     E094 208A     
8157 E096 0220  22 	ai r0,256	; 1
     E098 0100     
8158 E09A D800  38 	movb r0,@cvb_R
     E09C 208A     
8159 E09E D020  34 	movb @cvb_R1F,r0
     E0A0 20A8     
8160 E0A2 9800  34 	cb r0,@cvb_R
     E0A4 208A     
8161 E0A6 1A02  14 	jl cv630
8162 E0A8 0460  28 	b @cv627
     E0AA E038     
8163               cv630
8164               	; 	END
8165 E0AC C03A  30 	mov *r10+,r0
8166 E0AE 0450  20 	b *r0
8167               	;
8168               	; fogdraw: PROCEDURE
8169               	even
8170               cvb_FOGDRAW
8171               	; 	GOSUB fogbnd
8172 E0B0 06A0  32 	bl @jsr
     E0B2 A974     
8173 E0B4 E178     	data cvb_FOGBND
8174               	; 	FOR r = r0f TO r1f
8175 E0B6 D820  54 	movb @cvb_R0F,@cvb_R
     E0B8 20A5     
     E0BA 208A     
8176               cv631
8177               	; 	#ad = $1800 + r * 32 + c0f
8178 E0BC D020  34 	movb @cvb_C0F,r0
     E0BE 20D5     
8179 E0C0 0980  32 	srl r0,8
8180 E0C2 C040  18 	mov r0,r1
8181 E0C4 D020  34 	movb @cvb_R,r0
     E0C6 208A     
8182 E0C8 0980  32 	srl r0,8
8183 E0CA 0A50  26 	sla r0,5
8184 E0CC 0220  22 	ai r0,6144
     E0CE 1800     
8185 E0D0 A001  18 	a r1,r0
8186 E0D2 C800  38 	mov r0,@cvb__AD
     E0D4 20AA     
8187               	; 	FOR c2 = c0f TO c1f
8188 E0D6 D820  54 	movb @cvb_C0F,@cvb_C2
     E0D8 20D5     
     E0DA 20BB     
8189               cv632
8190               	; 	IF (rm(r * 4 + (c2 / 8)) AND msk(c2 AND 7)) > 0 THEN VPOKE #ad, 128
8191 E0DC D020  34 	movb @cvb_C2,r0
     E0DE 20BB     
8192 E0E0 0201  20 	li r1,1792   ; 7*256
     E0E2 0700     
8193 E0E4 0541  14 	inv r1
8194 E0E6 5001  18 	szcb r1,r0
8195 E0E8 0980  32 	srl r0,8
8196 E0EA 0220  22 	ai r0,array_MSK
     E0EC 20EA     
8197 E0EE D010  26 	movb *r0,r0
8198 E0F0 064A  14 	dect r10
8199 E0F2 C680  30 	mov r0,*r10
8200 E0F4 D020  34 	movb @cvb_C2,r0
     E0F6 20BB     
8201 E0F8 0980  32 	srl r0,8
8202 E0FA 0930  22 	srl r0,3
8203 E0FC C040  18 	mov r0,r1
8204 E0FE D020  34 	movb @cvb_R,r0
     E100 208A     
8205 E102 0980  32 	srl r0,8
8206 E104 0A20  20 	sla r0,2
8207 E106 A001  18 	a r1,r0
8208 E108 0220  22 	ai r0,array_RM
     E10A 2126     
8209 E10C D010  26 	movb *r0,r0
8210 E10E C07A  30 	mov *r10+,r1
8211 E110 0541  14 	inv r1
8212 E112 5001  18 	szcb r1,r0
8213 E114 0201  20 	li r1,256   ; 1*256
     E116 0100     
8214 E118 9040  18 	cb r0,r1
8215 E11A 1402  14 	jhe cv634
8216 E11C 0460  28 	b @cv633
     E11E E13C     
8217               cv634
8218 E120 0200  20 	li r0,32768   ; 128*256
     E122 8000     
8219 E124 064A  14 	dect r10
8220 E126 C680  30 	mov r0,*r10
8221 E128 C020  34 	mov @cvb__AD,r0
     E12A 20AA     
8222 E12C C0BA  30 	mov *r10+,r2
8223 E12E 0300  22 	limi 0
     E130 0000     
8224 E132 06A0  32 	bl @JSR
     E134 A974     
8225 E136 A018     	data WRTVRM
8226 E138 0300  22 	limi 2
     E13A 0002     
8227               cv633
8228               	; 	#ad = #ad + 1
8229 E13C 05A0  34 	inc @cvb__AD
     E13E 20AA     
8230               	; 	NEXT c2
8231 E140 D020  34 	movb @cvb_C2,r0
     E142 20BB     
8232 E144 0220  22 	ai r0,256	; 1
     E146 0100     
8233 E148 D800  38 	movb r0,@cvb_C2
     E14A 20BB     
8234 E14C D020  34 	movb @cvb_C1F,r0
     E14E 20D6     
8235 E150 9800  34 	cb r0,@cvb_C2
     E152 20BB     
8236 E154 1A02  14 	jl cv635
8237 E156 0460  28 	b @cv632
     E158 E0DC     
8238               cv635
8239               	; 	NEXT r
8240 E15A D020  34 	movb @cvb_R,r0
     E15C 208A     
8241 E15E 0220  22 	ai r0,256	; 1
     E160 0100     
8242 E162 D800  38 	movb r0,@cvb_R
     E164 208A     
8243 E166 D020  34 	movb @cvb_R1F,r0
     E168 20A8     
8244 E16A 9800  34 	cb r0,@cvb_R
     E16C 208A     
8245 E16E 1A02  14 	jl cv636
8246 E170 0460  28 	b @cv631
     E172 E0BC     
8247               cv636
8248               	; 	END
8249 E174 C03A  30 	mov *r10+,r0
8250 E176 0450  20 	b *r0
8251               	;
8252               	; fogbnd: PROCEDURE
8253               	even
8254               cvb_FOGBND
8255               	; 	' 5-cell radius = 40px lamplight
8256               	; 	r0f = 0 : IF fpr > 5 THEN r0f = fpr - 5
8257 E178 04C0  14 	clr r0
8258 E17A D800  38 	movb r0,@cvb_R0F
     E17C 20A5     
8259 E17E D020  34 	movb @cvb_FPR,r0
     E180 20AC     
8260 E182 0201  20 	li r1,1536   ; 6*256
     E184 0600     
8261 E186 9040  18 	cb r0,r1
8262 E188 1402  14 	jhe cv638
8263 E18A 0460  28 	b @cv637
     E18C E19A     
8264               cv638
8265 E18E D020  34 	movb @cvb_FPR,r0
     E190 20AC     
8266 E192 0220  22 	ai r0,64256	; -5
     E194 FB00     
8267 E196 D800  38 	movb r0,@cvb_R0F
     E198 20A5     
8268               cv637
8269               	; 	r1f = fpr + 5 : IF r1f > 23 THEN r1f = 23
8270 E19A D020  34 	movb @cvb_FPR,r0
     E19C 20AC     
8271 E19E 0220  22 	ai r0,1280	; 5
     E1A0 0500     
8272 E1A2 D800  38 	movb r0,@cvb_R1F
     E1A4 20A8     
8273 E1A6 0201  20 	li r1,6144   ; 24*256
     E1A8 1800     
8274 E1AA 9040  18 	cb r0,r1
8275 E1AC 1402  14 	jhe cv640
8276 E1AE 0460  28 	b @cv639
     E1B0 E1BA     
8277               cv640
8278 E1B2 0200  20 	li r0,5888   ; 23*256
     E1B4 1700     
8279 E1B6 D800  38 	movb r0,@cvb_R1F
     E1B8 20A8     
8280               cv639
8281               	; 	c0f = 0 : IF fpc > 5 THEN c0f = fpc - 5
8282 E1BA 04C0  14 	clr r0
8283 E1BC D800  38 	movb r0,@cvb_C0F
     E1BE 20D5     
8284 E1C0 D020  34 	movb @cvb_FPC,r0
     E1C2 20A6     
8285 E1C4 0201  20 	li r1,1536   ; 6*256
     E1C6 0600     
8286 E1C8 9040  18 	cb r0,r1
8287 E1CA 1402  14 	jhe cv642
8288 E1CC 0460  28 	b @cv641
     E1CE E1DC     
8289               cv642
8290 E1D0 D020  34 	movb @cvb_FPC,r0
     E1D2 20A6     
8291 E1D4 0220  22 	ai r0,64256	; -5
     E1D6 FB00     
8292 E1D8 D800  38 	movb r0,@cvb_C0F
     E1DA 20D5     
8293               cv641
8294               	; 	c1f = fpc + 5 : IF c1f > 31 THEN c1f = 31
8295 E1DC D020  34 	movb @cvb_FPC,r0
     E1DE 20A6     
8296 E1E0 0220  22 	ai r0,1280	; 5
     E1E2 0500     
8297 E1E4 D800  38 	movb r0,@cvb_C1F
     E1E6 20D6     
8298 E1E8 0201  20 	li r1,8192   ; 32*256
     E1EA 2000     
8299 E1EC 9040  18 	cb r0,r1
8300 E1EE 1402  14 	jhe cv644
8301 E1F0 0460  28 	b @cv643
     E1F2 E1FC     
8302               cv644
8303 E1F4 0200  20 	li r0,7936   ; 31*256
     E1F6 1F00     
8304 E1F8 D800  38 	movb r0,@cvb_C1F
     E1FA 20D6     
8305               cv643
8306               	; 	END
8307 E1FC C03A  30 	mov *r10+,r0
8308 E1FE 0450  20 	b *r0
8309               	;
8310               	; dsafe: PROCEDURE
8311               	even
8312               cvb_DSAFE
8313               	; 	' never let a dragon camp the doorway you enter through
8314               	; 	#ax = ddx(d) : #bx = px
8315 E200 D020  34 	movb @cvb_D,r0
     E202 2083     
8316 E204 0980  32 	srl r0,8
8317 E206 0220  22 	ai r0,array_DDX
     E208 20E2     
8318 E20A D010  26 	movb *r0,r0
8319 E20C 0980  32 	srl r0,8
8320 E20E C800  38 	mov r0,@cvb__AX
     E210 20AE     
8321 E212 D020  34 	movb @cvb_PX,r0
     E214 20D0     
8322 E216 0980  32 	srl r0,8
8323 E218 C800  38 	mov r0,@cvb__BX
     E21A 20B0     
8324               	; 	GOSUB adiff
8325 E21C 06A0  32 	bl @jsr
     E21E A974     
8326 E220 C004     	data cvb_ADIFF
8327               	; 	IF #cx > 40 THEN RETURN
8328 E222 C020  34 	mov @cvb__CX,r0
     E224 20B2     
8329 E226 0201  20 	li r1,41
     E228 0029     
8330 E22A 8040  18 	c r0,r1
8331 E22C 1402  14 	jhe cv646
8332 E22E 0460  28 	b @cv645
     E230 E236     
8333               cv646
8334 E232 C03A  30 	mov *r10+,r0
8335 E234 0450  20 	b *r0
8336               cv645
8337               	; 	#ax = ddy(d) : #bx = py
8338 E236 D020  34 	movb @cvb_D,r0
     E238 2083     
8339 E23A 0980  32 	srl r0,8
8340 E23C 0220  22 	ai r0,array_DDY
     E23E 20E6     
8341 E240 D010  26 	movb *r0,r0
8342 E242 0980  32 	srl r0,8
8343 E244 C800  38 	mov r0,@cvb__AX
     E246 20AE     
8344 E248 D020  34 	movb @cvb_PY,r0
     E24A 20D1     
8345 E24C 0980  32 	srl r0,8
8346 E24E C800  38 	mov r0,@cvb__BX
     E250 20B0     
8347               	; 	GOSUB adiff
8348 E252 06A0  32 	bl @jsr
     E254 A974     
8349 E256 C004     	data cvb_ADIFF
8350               	; 	IF #cx > 40 THEN RETURN
8351 E258 C020  34 	mov @cvb__CX,r0
     E25A 20B2     
8352 E25C 0201  20 	li r1,41
     E25E 0029     
8353 E260 8040  18 	c r0,r1
8354 E262 1402  14 	jhe cv648
8355 E264 0460  28 	b @cv647
     E266 E26C     
8356               cv648
8357 E268 C03A  30 	mov *r10+,r0
8358 E26A 0450  20 	b *r0
8359               cv647
8360               	; 	ddx(d) = 108 : ddy(d) = 64
8361 E26C 0201  20 	li r1,27648
     E26E 6C00     
8362 E270 D020  34 	movb @cvb_D,r0
     E272 2083     
8363 E274 0980  32 	srl r0,8
8364 E276 0220  22 	ai r0,array_DDX
     E278 20E2     
8365 E27A D401  30 	movb r1,*r0
8366 E27C 0201  20 	li r1,16384
     E27E 4000     
8367 E280 D020  34 	movb @cvb_D,r0
     E282 2083     
8368 E284 0980  32 	srl r0,8
8369 E286 0220  22 	ai r0,array_DDY
     E288 20E6     
8370 E28A D401  30 	movb r1,*r0
8371               	; 	END
8372 E28C C03A  30 	mov *r10+,r0
8373 E28E 0450  20 	b *r0
8374               	;
8375               	; 	' ------------------------------------------------------------
8376               	; 	' game 4: scramble the objects across the open kingdom.
8377               	; 	' The white key must not land inside the white castle's own
8378               	; 	' red maze (rooms 34/35) - that would seal it away.
8379               	; 	' ------------------------------------------------------------
8380               	; rndobj: PROCEDURE
8381               	even
8382               cvb_RNDOBJ
8383               	; 	FOR o = 0 TO 6
8384 E290 04C0  14 	clr r0
8385 E292 D800  38 	movb r0,@cvb_O
     E294 2089     
8386               cv649
8387               	; rrty:	t2 = RANDOM(16)
8388               cvb_RRTY
8389 E296 06A0  32 	bl @jsr
     E298 A974     
8390 E29A A2A6     	data random
8391 E29C 0A80  32 	sla r0,8
8392 E29E 0201  20 	li r1,3840   ; 15*256
     E2A0 0F00     
8393 E2A2 0541  14 	inv r1
8394 E2A4 5001  18 	szcb r1,r0
8395 E2A6 D800  38 	movb r0,@cvb_T2
     E2A8 20D2     
8396               	; 	RESTORE rndrm
8397 E2AA 0200  20 	li r0,cvb_RNDRM
     E2AC ECBE     
8398 E2AE C800  30 	mov r0,@read_pointer
     E2B0 8340     
8399               	; 	WHILE t2 > 0 : READ BYTE t : t2 = t2 - 1 : WEND
8400               cv650
8401 E2B2 D020  34 	movb @cvb_T2,r0
     E2B4 20D2     
8402 E2B6 0201  20 	li r1,256   ; 1*256
     E2B8 0100     
8403 E2BA 9040  18 	cb r0,r1
8404 E2BC 1402  14 	jhe cv652
8405 E2BE 0460  28 	b @cv651
     E2C0 E2E0     
8406               cv652
8407 E2C2 C060  30 	mov @read_pointer,r1
     E2C4 8340     
8408 E2C6 D011  26 	movb *r1,r0
8409 E2C8 05A0  26 	inc @read_pointer
     E2CA 8340     
8410 E2CC D800  38 	movb r0,@cvb_T
     E2CE 208B     
8411 E2D0 D020  34 	movb @cvb_T2,r0
     E2D2 20D2     
8412 E2D4 0220  22 	ai r0,65280	; -1
     E2D6 FF00     
8413 E2D8 D800  38 	movb r0,@cvb_T2
     E2DA 20D2     
8414 E2DC 0460  28 	b @cv650
     E2DE E2B2     
8415               cv651
8416               	; 	READ BYTE t
8417 E2E0 C060  30 	mov @read_pointer,r1
     E2E2 8340     
8418 E2E4 D011  26 	movb *r1,r0
8419 E2E6 05A0  26 	inc @read_pointer
     E2E8 8340     
8420 E2EA D800  38 	movb r0,@cvb_T
     E2EC 208B     
8421               	; 	IF o = 2 THEN IF (t = 34) OR (t = 35) THEN GOTO rrty
8422 E2EE D020  34 	movb @cvb_O,r0
     E2F0 2089     
8423 E2F2 0201  20 	li r1,512   ; 2*256
     E2F4 0200     
8424 E2F6 9001  18 	cb r1,r0
8425 E2F8 1302  14 	jeq cv654
8426 E2FA 0460  28 	b @cv653
     E2FC E334     
8427               cv654
8428 E2FE D020  34 	movb @cvb_T,r0
     E300 208B     
8429 E302 0201  20 	li r1,8960   ; 35*256
     E304 2300     
8430 E306 9001  18 	cb r1,r0
8431 E308 1302  14 	jeq cv656
8432 E30A 04C0  14 	clr r0
8433 E30C 1001  14 	jmp $+4
8434               cv656
8435 E30E 0700  14 	seto r0
8436 E310 064A  14 	dect r10
8437 E312 C680  30 	mov r0,*r10
8438 E314 D020  34 	movb @cvb_T,r0
     E316 208B     
8439 E318 0201  20 	li r1,8704   ; 34*256
     E31A 2200     
8440 E31C 9001  18 	cb r1,r0
8441 E31E 1302  14 	jeq cv657
8442 E320 04C0  14 	clr r0
8443 E322 1001  14 	jmp $+4
8444               cv657
8445 E324 0700  14 	seto r0
8446 E326 C07A  30 	mov *r10+,r1
8447 E328 F001  18 	socb r1,r0
8448 E32A 1602  14 	jne cv658
8449 E32C 0460  28 	b @cv655
     E32E E334     
8450               cv658
8451 E330 0460  28 	b @cvb_RRTY
     E332 E296     
8452               cv655
8453               cv653
8454               	; 	orm(o) = t : obx(o) = 96 + o * 8 : oby(o) = 88
8455 E334 D060  34 	movb @cvb_T,r1
     E336 208B     
8456 E338 D020  34 	movb @cvb_O,r0
     E33A 2089     
8457 E33C 0980  32 	srl r0,8
8458 E33E 0220  22 	ai r0,array_ORM
     E340 211A     
8459 E342 D401  30 	movb r1,*r0
8460 E344 D020  34 	movb @cvb_O,r0
     E346 2089     
8461 E348 0240  22 	andi r0,>ff00
     E34A FF00     
8462 E34C 0A30  22 	sla r0,3
8463 E34E 0220  22 	ai r0,24576	; 96
     E350 6000     
8464 E352 C040  18 	mov r0,r1
8465 E354 D020  34 	movb @cvb_O,r0
     E356 2089     
8466 E358 0980  32 	srl r0,8
8467 E35A 0220  22 	ai r0,array_OBX
     E35C 2106     
8468 E35E D401  30 	movb r1,*r0
8469 E360 0201  20 	li r1,22528
     E362 5800     
8470 E364 D020  34 	movb @cvb_O,r0
     E366 2089     
8471 E368 0980  32 	srl r0,8
8472 E36A 0220  22 	ai r0,array_OBY
     E36C 210E     
8473 E36E D401  30 	movb r1,*r0
8474               	; 	NEXT o
8475 E370 D020  34 	movb @cvb_O,r0
     E372 2089     
8476 E374 0220  22 	ai r0,256	; 1
     E376 0100     
8477 E378 D800  38 	movb r0,@cvb_O
     E37A 2089     
8478 E37C 0201  20 	li r1,1792   ; 7*256
     E37E 0700     
8479 E380 9040  18 	cb r0,r1
8480 E382 1402  14 	jhe cv659
8481 E384 0460  28 	b @cv649
     E386 E296     
8482               cv659
8483               	; 	END
8484 E388 C03A  30 	mov *r10+,r0
8485 E38A 0450  20 	b *r0
8486               	;
8487               	; 	' ------------------------------------------------------------
8488               	; 	' one-channel sound effect driver (1=pickup 2=drop 3=gate
8489               	; 	' 4=slay-noise 5=dragon roar 6=bat squeak); swallow/win inline
8490               	; 	' ------------------------------------------------------------
8491               	; dosfx: PROCEDURE
8492               	even
8493               cvb_DOSFX
8494               	; 	IF sfx = 0 THEN RETURN
8495 E38C D020  34 	movb @cvb_SFX,r0
     E38E 20D3     
8496 E390 1302  14 	jeq cv661
8497 E392 0460  28 	b @cv660
     E394 E39A     
8498               cv661
8499 E396 C03A  30 	mov *r10+,r0
8500 E398 0450  20 	b *r0
8501               cv660
8502               	; 	IF sfx = 1 THEN SOUND 0, 90, 12
8503 E39A D020  34 	movb @cvb_SFX,r0
     E39C 20D3     
8504 E39E 0201  20 	li r1,256   ; 1*256
     E3A0 0100     
8505 E3A2 9001  18 	cb r1,r0
8506 E3A4 1302  14 	jeq cv663
8507 E3A6 0460  28 	b @cv662
     E3A8 E3C6     
8508               cv663
8509 E3AA 0200  20 	li r0,90
     E3AC 005A     
8510 E3AE 0202  20 	li r2,>8000
     E3B0 8000     
8511 E3B2 06A0  32 	bl @jsr
     E3B4 A974     
8512 E3B6 A2BA     	data sn76489_freq
8513 E3B8 0200  20 	li r0,3072   ; 12*256
     E3BA 0C00     
8514 E3BC 0202  20 	li r2,>9000
     E3BE 9000     
8515 E3C0 06A0  32 	bl @jsr
     E3C2 A974     
8516 E3C4 A2D6     	data sn76489_vol
8517               cv662
8518               	; 	IF sfx = 2 THEN SOUND 0, 320, 10
8519 E3C6 D020  34 	movb @cvb_SFX,r0
     E3C8 20D3     
8520 E3CA 0201  20 	li r1,512   ; 2*256
     E3CC 0200     
8521 E3CE 9001  18 	cb r1,r0
8522 E3D0 1302  14 	jeq cv665
8523 E3D2 0460  28 	b @cv664
     E3D4 E3F2     
8524               cv665
8525 E3D6 0200  20 	li r0,320
     E3D8 0140     
8526 E3DA 0202  20 	li r2,>8000
     E3DC 8000     
8527 E3DE 06A0  32 	bl @jsr
     E3E0 A974     
8528 E3E2 A2BA     	data sn76489_freq
8529 E3E4 0200  20 	li r0,2560   ; 10*256
     E3E6 0A00     
8530 E3E8 0202  20 	li r2,>9000
     E3EA 9000     
8531 E3EC 06A0  32 	bl @jsr
     E3EE A974     
8532 E3F0 A2D6     	data sn76489_vol
8533               cv664
8534               	; 	IF sfx = 3 THEN SOUND 0, #sfq, 11 : #sfq = #sfq - 25
8535 E3F2 D020  34 	movb @cvb_SFX,r0
     E3F4 20D3     
8536 E3F6 0201  20 	li r1,768   ; 3*256
     E3F8 0300     
8537 E3FA 9001  18 	cb r1,r0
8538 E3FC 1302  14 	jeq cv667
8539 E3FE 0460  28 	b @cv666
     E400 E42A     
8540               cv667
8541 E402 C020  34 	mov @cvb__SFQ,r0
     E404 208E     
8542 E406 0202  20 	li r2,>8000
     E408 8000     
8543 E40A 06A0  32 	bl @jsr
     E40C A974     
8544 E40E A2BA     	data sn76489_freq
8545 E410 0200  20 	li r0,2816   ; 11*256
     E412 0B00     
8546 E414 0202  20 	li r2,>9000
     E416 9000     
8547 E418 06A0  32 	bl @jsr
     E41A A974     
8548 E41C A2D6     	data sn76489_vol
8549 E41E C020  34 	mov @cvb__SFQ,r0
     E420 208E     
8550 E422 0220  22 	ai r0,-25
     E424 FFE7     
8551 E426 C800  38 	mov r0,@cvb__SFQ
     E428 208E     
8552               cv666
8553               	; 	IF sfx = 4 THEN SOUND 3, 5, sfc
8554 E42A D020  34 	movb @cvb_SFX,r0
     E42C 20D3     
8555 E42E 0201  20 	li r1,1024   ; 4*256
     E430 0400     
8556 E432 9001  18 	cb r1,r0
8557 E434 1302  14 	jeq cv669
8558 E436 0460  28 	b @cv668
     E438 E452     
8559               cv669
8560 E43A 0200  20 	li r0,1280   ; 5*256
     E43C 0500     
8561 E43E 06A0  32 	bl @jsr
     E440 A974     
8562 E442 A2E4     	data sn76489_control
8563 E444 D020  34 	movb @cvb_SFC,r0
     E446 20CC     
8564 E448 0202  20 	li r2,>f000
     E44A F000     
8565 E44C 06A0  32 	bl @jsr
     E44E A974     
8566 E450 A2D6     	data sn76489_vol
8567               cv668
8568               	; 	IF sfx = 5 THEN SOUND 0, 880 + ((sfc AND 2) * 30), 10
8569 E452 D020  34 	movb @cvb_SFX,r0
     E454 20D3     
8570 E456 0201  20 	li r1,1280   ; 5*256
     E458 0500     
8571 E45A 9001  18 	cb r1,r0
8572 E45C 1302  14 	jeq cv671
8573 E45E 0460  28 	b @cv670
     E460 E494     
8574               cv671
8575 E462 D020  34 	movb @cvb_SFC,r0
     E464 20CC     
8576 E466 0201  20 	li r1,512   ; 2*256
     E468 0200     
8577 E46A 0541  14 	inv r1
8578 E46C 5001  18 	szcb r1,r0
8579 E46E 0980  32 	srl r0,8
8580 E470 0201  20 	li r1,30
     E472 001E     
8581 E474 3801  58 	mpy r1,r0
8582 E476 C001  18 	mov r1,r0
8583 E478 0220  22 	ai r0,880
     E47A 0370     
8584 E47C 0202  20 	li r2,>8000
     E47E 8000     
8585 E480 06A0  32 	bl @jsr
     E482 A974     
8586 E484 A2BA     	data sn76489_freq
8587 E486 0200  20 	li r0,2560   ; 10*256
     E488 0A00     
8588 E48A 0202  20 	li r2,>9000
     E48C 9000     
8589 E48E 06A0  32 	bl @jsr
     E490 A974     
8590 E492 A2D6     	data sn76489_vol
8591               cv670
8592               	; 	IF sfx = 6 THEN SOUND 0, 60 + ((sfc AND 2) * 6), 9
8593 E494 D020  34 	movb @cvb_SFX,r0
     E496 20D3     
8594 E498 0201  20 	li r1,1536   ; 6*256
     E49A 0600     
8595 E49C 9001  18 	cb r1,r0
8596 E49E 1302  14 	jeq cv673
8597 E4A0 0460  28 	b @cv672
     E4A2 E4D6     
8598               cv673
8599 E4A4 D020  34 	movb @cvb_SFC,r0
     E4A6 20CC     
8600 E4A8 0201  20 	li r1,512   ; 2*256
     E4AA 0200     
8601 E4AC 0541  14 	inv r1
8602 E4AE 5001  18 	szcb r1,r0
8603 E4B0 0980  32 	srl r0,8
8604 E4B2 0201  20 	li r1,6
     E4B4 0006     
8605 E4B6 3801  58 	mpy r1,r0
8606 E4B8 C001  18 	mov r1,r0
8607 E4BA 0220  22 	ai r0,60
     E4BC 003C     
8608 E4BE 0202  20 	li r2,>8000
     E4C0 8000     
8609 E4C2 06A0  32 	bl @jsr
     E4C4 A974     
8610 E4C6 A2BA     	data sn76489_freq
8611 E4C8 0200  20 	li r0,2304   ; 9*256
     E4CA 0900     
8612 E4CC 0202  20 	li r2,>9000
     E4CE 9000     
8613 E4D0 06A0  32 	bl @jsr
     E4D2 A974     
8614 E4D4 A2D6     	data sn76489_vol
8615               cv672
8616               	; 	sfc = sfc - 1
8617 E4D6 D020  34 	movb @cvb_SFC,r0
     E4D8 20CC     
8618 E4DA 0220  22 	ai r0,65280	; -1
     E4DC FF00     
8619 E4DE D800  38 	movb r0,@cvb_SFC
     E4E0 20CC     
8620               	; 	IF sfc = 0 THEN sfx = 0 : SOUND 0, , 0 : SOUND 3, , 0
8621 E4E2 04C1  14 	clr r1
8622 E4E4 9001  18 	cb r1,r0
8623 E4E6 1302  14 	jeq cv675
8624 E4E8 0460  28 	b @cv674
     E4EA E50A     
8625               cv675
8626 E4EC 04C0  14 	clr r0
8627 E4EE D800  38 	movb r0,@cvb_SFX
     E4F0 20D3     
8628 E4F2 04C0  14 	clr r0
8629 E4F4 0202  20 	li r2,>9000
     E4F6 9000     
8630 E4F8 06A0  32 	bl @jsr
     E4FA A974     
8631 E4FC A2D6     	data sn76489_vol
8632 E4FE 04C0  14 	clr r0
8633 E500 0202  20 	li r2,>f000
     E502 F000     
8634 E504 06A0  32 	bl @jsr
     E506 A974     
8635 E508 A2D6     	data sn76489_vol
8636               cv674
8637               	; 	END
8638 E50A C03A  30 	mov *r10+,r0
8639 E50C 0450  20 	b *r0
8640               	;
8641               	; 	' ------------------------------------------------------------
8642               	; 	' win: colour-cycling walls + fanfare, then back to the title
8643               	; 	' ------------------------------------------------------------
8644               	; winseq:
8645               cvb_WINSEQ
8646               	; 	FOR i = 0 TO 95
8647 E50E 04C0  14 	clr r0
8648 E510 D800  38 	movb r0,@cvb_I
     E512 2086     
8649               cv676
8650               	; 	WAIT
8651 E514 06A0  32 	bl @jsr
     E516 A974     
8652 E518 A64A     	data wait
8653               	; 	t = (i AND 15) * 16 + cb
8654 E51A D020  34 	movb @cvb_CB,r0
     E51C 20BF     
8655 E51E 0980  32 	srl r0,8
8656 E520 064A  14 	dect r10
8657 E522 C680  30 	mov r0,*r10
8658 E524 D020  34 	movb @cvb_I,r0
     E526 2086     
8659 E528 0201  20 	li r1,3840   ; 15*256
     E52A 0F00     
8660 E52C 0541  14 	inv r1
8661 E52E 5001  18 	szcb r1,r0
8662 E530 0980  32 	srl r0,8
8663 E532 0A40  24 	sla r0,4
8664 E534 C07A  30 	mov *r10+,r1
8665 E536 A001  18 	a r1,r0
8666 E538 0A80  32 	sla r0,8
8667 E53A D800  38 	movb r0,@cvb_T
     E53C 208B     
8668               	; 	FOR r = 0 TO 7
8669 E53E 04C0  14 	clr r0
8670 E540 D800  38 	movb r0,@cvb_R
     E542 208A     
8671               cv677
8672               	; 	VPOKE $2400 + r, t : VPOKE $2C00 + r, t : VPOKE $3400 + r, t
8673 E544 D020  34 	movb @cvb_T,r0
     E546 208B     
8674 E548 064A  14 	dect r10
8675 E54A C680  30 	mov r0,*r10
8676 E54C D020  34 	movb @cvb_R,r0
     E54E 208A     
8677 E550 0980  32 	srl r0,8
8678 E552 0220  22 	ai r0,9216
     E554 2400     
8679 E556 C0BA  30 	mov *r10+,r2
8680 E558 0300  22 	limi 0
     E55A 0000     
8681 E55C 06A0  32 	bl @JSR
     E55E A974     
8682 E560 A018     	data WRTVRM
8683 E562 0300  22 	limi 2
     E564 0002     
8684 E566 D020  34 	movb @cvb_T,r0
     E568 208B     
8685 E56A 064A  14 	dect r10
8686 E56C C680  30 	mov r0,*r10
8687 E56E D020  34 	movb @cvb_R,r0
     E570 208A     
8688 E572 0980  32 	srl r0,8
8689 E574 0220  22 	ai r0,11264
     E576 2C00     
8690 E578 C0BA  30 	mov *r10+,r2
8691 E57A 0300  22 	limi 0
     E57C 0000     
8692 E57E 06A0  32 	bl @JSR
     E580 A974     
8693 E582 A018     	data WRTVRM
8694 E584 0300  22 	limi 2
     E586 0002     
8695 E588 D020  34 	movb @cvb_T,r0
     E58A 208B     
8696 E58C 064A  14 	dect r10
8697 E58E C680  30 	mov r0,*r10
8698 E590 D020  34 	movb @cvb_R,r0
     E592 208A     
8699 E594 0980  32 	srl r0,8
8700 E596 0220  22 	ai r0,13312
     E598 3400     
8701 E59A C0BA  30 	mov *r10+,r2
8702 E59C 0300  22 	limi 0
     E59E 0000     
8703 E5A0 06A0  32 	bl @JSR
     E5A2 A974     
8704 E5A4 A018     	data WRTVRM
8705 E5A6 0300  22 	limi 2
     E5A8 0002     
8706               	; 	NEXT r
8707 E5AA D020  34 	movb @cvb_R,r0
     E5AC 208A     
8708 E5AE 0220  22 	ai r0,256	; 1
     E5B0 0100     
8709 E5B2 D800  38 	movb r0,@cvb_R
     E5B4 208A     
8710 E5B6 0201  20 	li r1,2048   ; 8*256
     E5B8 0800     
8711 E5BA 9040  18 	cb r0,r1
8712 E5BC 1402  14 	jhe cv678
8713 E5BE 0460  28 	b @cv677
     E5C0 E544     
8714               cv678
8715               	; 	t = i AND 3
8716 E5C2 D020  34 	movb @cvb_I,r0
     E5C4 2086     
8717 E5C6 0201  20 	li r1,768   ; 3*256
     E5C8 0300     
8718 E5CA 0541  14 	inv r1
8719 E5CC 5001  18 	szcb r1,r0
8720 E5CE D800  38 	movb r0,@cvb_T
     E5D0 208B     
8721               	; 	IF t = 0 THEN SOUND 0, 214, 12
8722 E5D2 04C1  14 	clr r1
8723 E5D4 9001  18 	cb r1,r0
8724 E5D6 1302  14 	jeq cv680
8725 E5D8 0460  28 	b @cv679
     E5DA E5F8     
8726               cv680
8727 E5DC 0200  20 	li r0,214
     E5DE 00D6     
8728 E5E0 0202  20 	li r2,>8000
     E5E2 8000     
8729 E5E4 06A0  32 	bl @jsr
     E5E6 A974     
8730 E5E8 A2BA     	data sn76489_freq
8731 E5EA 0200  20 	li r0,3072   ; 12*256
     E5EC 0C00     
8732 E5EE 0202  20 	li r2,>9000
     E5F0 9000     
8733 E5F2 06A0  32 	bl @jsr
     E5F4 A974     
8734 E5F6 A2D6     	data sn76489_vol
8735               cv679
8736               	; 	IF t = 1 THEN SOUND 0, 170, 12
8737 E5F8 D020  34 	movb @cvb_T,r0
     E5FA 208B     
8738 E5FC 0201  20 	li r1,256   ; 1*256
     E5FE 0100     
8739 E600 9001  18 	cb r1,r0
8740 E602 1302  14 	jeq cv682
8741 E604 0460  28 	b @cv681
     E606 E624     
8742               cv682
8743 E608 0200  20 	li r0,170
     E60A 00AA     
8744 E60C 0202  20 	li r2,>8000
     E60E 8000     
8745 E610 06A0  32 	bl @jsr
     E612 A974     
8746 E614 A2BA     	data sn76489_freq
8747 E616 0200  20 	li r0,3072   ; 12*256
     E618 0C00     
8748 E61A 0202  20 	li r2,>9000
     E61C 9000     
8749 E61E 06A0  32 	bl @jsr
     E620 A974     
8750 E622 A2D6     	data sn76489_vol
8751               cv681
8752               	; 	IF t = 2 THEN SOUND 0, 143, 12
8753 E624 D020  34 	movb @cvb_T,r0
     E626 208B     
8754 E628 0201  20 	li r1,512   ; 2*256
     E62A 0200     
8755 E62C 9001  18 	cb r1,r0
8756 E62E 1302  14 	jeq cv684
8757 E630 0460  28 	b @cv683
     E632 E650     
8758               cv684
8759 E634 0200  20 	li r0,143
     E636 008F     
8760 E638 0202  20 	li r2,>8000
     E63A 8000     
8761 E63C 06A0  32 	bl @jsr
     E63E A974     
8762 E640 A2BA     	data sn76489_freq
8763 E642 0200  20 	li r0,3072   ; 12*256
     E644 0C00     
8764 E646 0202  20 	li r2,>9000
     E648 9000     
8765 E64A 06A0  32 	bl @jsr
     E64C A974     
8766 E64E A2D6     	data sn76489_vol
8767               cv683
8768               	; 	IF t = 3 THEN SOUND 0, 107, 12
8769 E650 D020  34 	movb @cvb_T,r0
     E652 208B     
8770 E654 0201  20 	li r1,768   ; 3*256
     E656 0300     
8771 E658 9001  18 	cb r1,r0
8772 E65A 1302  14 	jeq cv686
8773 E65C 0460  28 	b @cv685
     E65E E67C     
8774               cv686
8775 E660 0200  20 	li r0,107
     E662 006B     
8776 E664 0202  20 	li r2,>8000
     E666 8000     
8777 E668 06A0  32 	bl @jsr
     E66A A974     
8778 E66C A2BA     	data sn76489_freq
8779 E66E 0200  20 	li r0,3072   ; 12*256
     E670 0C00     
8780 E672 0202  20 	li r2,>9000
     E674 9000     
8781 E676 06A0  32 	bl @jsr
     E678 A974     
8782 E67A A2D6     	data sn76489_vol
8783               cv685
8784               	; 	NEXT i
8785 E67C D020  34 	movb @cvb_I,r0
     E67E 2086     
8786 E680 0220  22 	ai r0,256	; 1
     E682 0100     
8787 E684 D800  38 	movb r0,@cvb_I
     E686 2086     
8788 E688 0201  20 	li r1,24576   ; 96*256
     E68A 6000     
8789 E68C 9040  18 	cb r0,r1
8790 E68E 1402  14 	jhe cv687
8791 E690 0460  28 	b @cv676
     E692 E514     
8792               cv687
8793               	; 	SOUND 0, , 0
8794 E694 04C0  14 	clr r0
8795 E696 0202  20 	li r2,>9000
     E698 9000     
8796 E69A 06A0  32 	bl @jsr
     E69C A974     
8797 E69E A2D6     	data sn76489_vol
8798               	; 	PRINT AT 32 * 13 + 10, "THE CHALICE"
8799 E6A0 0200  20 	li r0,426
     E6A2 01AA     
8800 E6A4 C800  30 	mov r0,@cursor
     E6A6 8342     
8801 E6A8 0202  20 	li r2,cv688
     E6AA E6BA     
8802 E6AC 0203  20 	li r3,11
     E6AE 000B     
8803 E6B0 06A0  32 	bl @jsr
     E6B2 A974     
8804 E6B4 A11C     	data print_string
8805 E6B6 0460  28 	b @cv689
     E6B8 E6C6     
8806               cv688
8807 E6BA 5448     	byte >54,>48,>45,>20,>43,>48,>41,>4c
     E6BC 4520     
     E6BE 4348     
     E6C0 414C     
8808 E6C2 4943     	byte >49,>43,>45
     E6C4 45       
8809               	even
8810               cv689
8811               	; 	PRINT AT 32 * 14 + 10, "  IS HOME! "
8812 E6C6 0200  20 	li r0,458
     E6C8 01CA     
8813 E6CA C800  30 	mov r0,@cursor
     E6CC 8342     
8814 E6CE 0202  20 	li r2,cv690
     E6D0 E6E0     
8815 E6D2 0203  20 	li r3,11
     E6D4 000B     
8816 E6D6 06A0  32 	bl @jsr
     E6D8 A974     
8817 E6DA A11C     	data print_string
8818 E6DC 0460  28 	b @cv691
     E6DE E6EC     
8819               cv690
8820 E6E0 2020     	byte >20,>20,>49,>53,>20,>48,>4f,>4d
     E6E2 4953     
     E6E4 2048     
     E6E6 4F4D     
8821 E6E8 4521     	byte >45,>21,>20
     E6EA 20       
8822               	even
8823               cv691
8824               	; 	PRINT AT 32 * 16 + 7, "PRESS FIRE TO PLAY"
8825 E6EC 0200  20 	li r0,519
     E6EE 0207     
8826 E6F0 C800  30 	mov r0,@cursor
     E6F2 8342     
8827 E6F4 0202  20 	li r2,cv692
     E6F6 E706     
8828 E6F8 0203  20 	li r3,18
     E6FA 0012     
8829 E6FC 06A0  32 	bl @jsr
     E6FE A974     
8830 E700 A11C     	data print_string
8831 E702 0460  28 	b @cv693
     E704 E718     
8832               cv692
8833 E706 5052     	byte >50,>52,>45,>53,>53,>20,>46,>49
     E708 4553     
     E70A 5320     
     E70C 4649     
8834 E70E 5245     	byte >52,>45,>20,>54,>4f,>20,>50,>4c
     E710 2054     
     E712 4F20     
     E714 504C     
8835 E716 4159     	byte >41,>59
8836               	even
8837               cv693
8838               	; ww1:	WAIT : IF cont1.button > 0 THEN GOTO ww1
8839               cvb_WW1
8840 E718 06A0  32 	bl @jsr
     E71A A974     
8841 E71C A64A     	data wait
8842 E71E D020  30 	movb @joy1_data,r0
     E720 8346     
8843 E722 0201  20 	li r1,16384   ; 64*256
     E724 4000     
8844 E726 0541  14 	inv r1
8845 E728 5001  18 	szcb r1,r0
8846 E72A 0201  20 	li r1,256   ; 1*256
     E72C 0100     
8847 E72E 9040  18 	cb r0,r1
8848 E730 1402  14 	jhe cv695
8849 E732 0460  28 	b @cv694
     E734 E73A     
8850               cv695
8851 E736 0460  28 	b @cvb_WW1
     E738 E718     
8852               cv694
8853               	; ww2:	WAIT : IF cont1.button = 0 THEN GOTO ww2
8854               cvb_WW2
8855 E73A 06A0  32 	bl @jsr
     E73C A974     
8856 E73E A64A     	data wait
8857 E740 D020  30 	movb @joy1_data,r0
     E742 8346     
8858 E744 0201  20 	li r1,16384   ; 64*256
     E746 4000     
8859 E748 0541  14 	inv r1
8860 E74A 5001  18 	szcb r1,r0
8861 E74C 04C1  14 	clr r1
8862 E74E 9001  18 	cb r1,r0
8863 E750 1302  14 	jeq cv697
8864 E752 0460  28 	b @cv696
     E754 E75A     
8865               cv697
8866 E756 0460  28 	b @cvb_WW2
     E758 E73A     
8867               cv696
8868               	; 	GOTO restart
8869 E75A 0460  28 	b @cvb_RESTART
     E75C AA96     
8870               	;
8871               	; 	' ------------------------------------------------------------
8872               	; 	' title + game select (UP/DOWN choose, FIRE start)
8873               	; 	' ------------------------------------------------------------
8874               	; title: PROCEDURE
8875               	even
8876               cvb_TITLE
8877               	; 	CLS
8878 E75E 06A0  32 	bl @jsr
     E760 A974     
8879 E762 A0FC     	data cls
8880               	; 	' clear every sprite left over from the game just played
8881               	; 	FOR i = 0 TO 16 : SPRITE i, $d1, 0, 0, 0 : NEXT i
8882 E764 04C0  14 	clr r0
8883 E766 D800  38 	movb r0,@cvb_I
     E768 2086     
8884               cv698
8885 E76A D120  34 	movb @cvb_I,r4
     E76C 2086     
8886 E76E 0205  20 	li r5,53504
     E770 D100     
8887 E772 04C6  14 	clr r6
8888 E774 04C7  14 	clr r7
8889 E776 04C0  14 	clr r0
8890 E778 06A0  32 	bl @jsr
     E77A A974     
8891 E77C A24E     	data update_sprite
8892 E77E D020  34 	movb @cvb_I,r0
     E780 2086     
8893 E782 0220  22 	ai r0,256	; 1
     E784 0100     
8894 E786 D800  38 	movb r0,@cvb_I
     E788 2086     
8895 E78A 0201  20 	li r1,4352   ; 17*256
     E78C 1100     
8896 E78E 9040  18 	cb r0,r1
8897 E790 1402  14 	jhe cv699
8898 E792 0460  28 	b @cv698
     E794 E76A     
8899               cv699
8900               	; 	BORDER 1
8901 E796 0200  20 	li r0,256   ; 1*256
     E798 0100     
8902 E79A 0980  32 	srl r0,8
8903 E79C 0260  22 	ori r0,>8700
     E79E 8700     
8904 E7A0 06C0  14 	swpb r0
8905 E7A2 0300  22 	limi 0
     E7A4 0000     
8906 E7A6 D800  30 	movb r0,@VDPWADR
     E7A8 8C02     
8907 E7AA 06C0  14 	swpb r0
8908 E7AC D800  30 	movb r0,@VDPWADR
     E7AE 8C02     
8909 E7B0 0300  22 	limi 2
     E7B2 0002     
8910               	; 	t = 11 * 16 + 1
8911 E7B4 0200  20 	li r0,45312   ; 177*256
     E7B6 B100     
8912 E7B8 D800  38 	movb r0,@cvb_T
     E7BA 208B     
8913               	; 	FOR i = 0 TO 7
8914 E7BC 04C0  14 	clr r0
8915 E7BE D800  38 	movb r0,@cvb_I
     E7C0 2086     
8916               cv700
8917               	; 	VPOKE $2400 + i, t : VPOKE $2C00 + i, t : VPOKE $3400 + i, t
8918 E7C2 D020  34 	movb @cvb_T,r0
     E7C4 208B     
8919 E7C6 064A  14 	dect r10
8920 E7C8 C680  30 	mov r0,*r10
8921 E7CA D020  34 	movb @cvb_I,r0
     E7CC 2086     
8922 E7CE 0980  32 	srl r0,8
8923 E7D0 0220  22 	ai r0,9216
     E7D2 2400     
8924 E7D4 C0BA  30 	mov *r10+,r2
8925 E7D6 0300  22 	limi 0
     E7D8 0000     
8926 E7DA 06A0  32 	bl @JSR
     E7DC A974     
8927 E7DE A018     	data WRTVRM
8928 E7E0 0300  22 	limi 2
     E7E2 0002     
8929 E7E4 D020  34 	movb @cvb_T,r0
     E7E6 208B     
8930 E7E8 064A  14 	dect r10
8931 E7EA C680  30 	mov r0,*r10
8932 E7EC D020  34 	movb @cvb_I,r0
     E7EE 2086     
8933 E7F0 0980  32 	srl r0,8
8934 E7F2 0220  22 	ai r0,11264
     E7F4 2C00     
8935 E7F6 C0BA  30 	mov *r10+,r2
8936 E7F8 0300  22 	limi 0
     E7FA 0000     
8937 E7FC 06A0  32 	bl @JSR
     E7FE A974     
8938 E800 A018     	data WRTVRM
8939 E802 0300  22 	limi 2
     E804 0002     
8940 E806 D020  34 	movb @cvb_T,r0
     E808 208B     
8941 E80A 064A  14 	dect r10
8942 E80C C680  30 	mov r0,*r10
8943 E80E D020  34 	movb @cvb_I,r0
     E810 2086     
8944 E812 0980  32 	srl r0,8
8945 E814 0220  22 	ai r0,13312
     E816 3400     
8946 E818 C0BA  30 	mov *r10+,r2
8947 E81A 0300  22 	limi 0
     E81C 0000     
8948 E81E 06A0  32 	bl @JSR
     E820 A974     
8949 E822 A018     	data WRTVRM
8950 E824 0300  22 	limi 2
     E826 0002     
8951               	; 	VPOKE $2100 + i, 1 : VPOKE $2900 + i, 1 : VPOKE $3100 + i, 1
8952 E828 0200  20 	li r0,256   ; 1*256
     E82A 0100     
8953 E82C 064A  14 	dect r10
8954 E82E C680  30 	mov r0,*r10
8955 E830 D020  34 	movb @cvb_I,r0
     E832 2086     
8956 E834 0980  32 	srl r0,8
8957 E836 0220  22 	ai r0,8448
     E838 2100     
8958 E83A C0BA  30 	mov *r10+,r2
8959 E83C 0300  22 	limi 0
     E83E 0000     
8960 E840 06A0  32 	bl @JSR
     E842 A974     
8961 E844 A018     	data WRTVRM
8962 E846 0300  22 	limi 2
     E848 0002     
8963 E84A 0200  20 	li r0,256   ; 1*256
     E84C 0100     
8964 E84E 064A  14 	dect r10
8965 E850 C680  30 	mov r0,*r10
8966 E852 D020  34 	movb @cvb_I,r0
     E854 2086     
8967 E856 0980  32 	srl r0,8
8968 E858 0220  22 	ai r0,10496
     E85A 2900     
8969 E85C C0BA  30 	mov *r10+,r2
8970 E85E 0300  22 	limi 0
     E860 0000     
8971 E862 06A0  32 	bl @JSR
     E864 A974     
8972 E866 A018     	data WRTVRM
8973 E868 0300  22 	limi 2
     E86A 0002     
8974 E86C 0200  20 	li r0,256   ; 1*256
     E86E 0100     
8975 E870 064A  14 	dect r10
8976 E872 C680  30 	mov r0,*r10
8977 E874 D020  34 	movb @cvb_I,r0
     E876 2086     
8978 E878 0980  32 	srl r0,8
8979 E87A 0220  22 	ai r0,12544
     E87C 3100     
8980 E87E C0BA  30 	mov *r10+,r2
8981 E880 0300  22 	limi 0
     E882 0000     
8982 E884 06A0  32 	bl @JSR
     E886 A974     
8983 E888 A018     	data WRTVRM
8984 E88A 0300  22 	limi 2
     E88C 0002     
8985               	; 	NEXT i
8986 E88E D020  34 	movb @cvb_I,r0
     E890 2086     
8987 E892 0220  22 	ai r0,256	; 1
     E894 0100     
8988 E896 D800  38 	movb r0,@cvb_I
     E898 2086     
8989 E89A 0201  20 	li r1,2048   ; 8*256
     E89C 0800     
8990 E89E 9040  18 	cb r0,r1
8991 E8A0 1402  14 	jhe cv701
8992 E8A2 0460  28 	b @cv700
     E8A4 E7C2     
8993               cv701
8994               	; 	' undo any secret-room glyph colour cycling (middle third)
8995               	; 	RESTORE eggch
8996 E8A6 0200  20 	li r0,cvb_EGGCH
     E8A8 ECAE     
8997 E8AA C800  30 	mov r0,@read_pointer
     E8AC 8340     
8998               	; 	FOR i2 = 0 TO 15
8999 E8AE 04C0  14 	clr r0
9000 E8B0 D800  38 	movb r0,@cvb_I2
     E8B2 20C8     
9001               cv702
9002               	; 	READ BYTE t
9003 E8B4 C060  30 	mov @read_pointer,r1
     E8B6 8340     
9004 E8B8 D011  26 	movb *r1,r0
9005 E8BA 05A0  26 	inc @read_pointer
     E8BC 8340     
9006 E8BE D800  38 	movb r0,@cvb_T
     E8C0 208B     
9007               	; 	#ad = $2800 + t * 8
9008 E8C2 0980  32 	srl r0,8
9009 E8C4 0A30  22 	sla r0,3
9010 E8C6 0220  22 	ai r0,10240
     E8C8 2800     
9011 E8CA C800  38 	mov r0,@cvb__AD
     E8CC 20AA     
9012               	; 	FOR i = 0 TO 7 : VPOKE #ad + i, $F0 : NEXT i
9013 E8CE 04C0  14 	clr r0
9014 E8D0 D800  38 	movb r0,@cvb_I
     E8D2 2086     
9015               cv703
9016 E8D4 0200  20 	li r0,61440   ; 240*256
     E8D6 F000     
9017 E8D8 064A  14 	dect r10
9018 E8DA C680  30 	mov r0,*r10
9019 E8DC D020  34 	movb @cvb_I,r0
     E8DE 2086     
9020 E8E0 0980  32 	srl r0,8
9021 E8E2 C040  18 	mov r0,r1
9022 E8E4 C020  34 	mov @cvb__AD,r0
     E8E6 20AA     
9023 E8E8 A001  18 	a r1,r0
9024 E8EA C0BA  30 	mov *r10+,r2
9025 E8EC 0300  22 	limi 0
     E8EE 0000     
9026 E8F0 06A0  32 	bl @JSR
     E8F2 A974     
9027 E8F4 A018     	data WRTVRM
9028 E8F6 0300  22 	limi 2
     E8F8 0002     
9029 E8FA D020  34 	movb @cvb_I,r0
     E8FC 2086     
9030 E8FE 0220  22 	ai r0,256	; 1
     E900 0100     
9031 E902 D800  38 	movb r0,@cvb_I
     E904 2086     
9032 E906 0201  20 	li r1,2048   ; 8*256
     E908 0800     
9033 E90A 9040  18 	cb r0,r1
9034 E90C 1402  14 	jhe cv704
9035 E90E 0460  28 	b @cv703
     E910 E8D4     
9036               cv704
9037               	; 	NEXT i2
9038 E912 D020  34 	movb @cvb_I2,r0
     E914 20C8     
9039 E916 0220  22 	ai r0,256	; 1
     E918 0100     
9040 E91A D800  38 	movb r0,@cvb_I2
     E91C 20C8     
9041 E91E 0201  20 	li r1,4096   ; 16*256
     E920 1000     
9042 E922 9040  18 	cb r0,r1
9043 E924 1402  14 	jhe cv705
9044 E926 0460  28 	b @cv702
     E928 E8B4     
9045               cv705
9046               	; 	PRINT AT 32 * 2 + 7, "A D V E N T I R E"
9047 E92A 0200  20 	li r0,71
     E92C 0047     
9048 E92E C800  30 	mov r0,@cursor
     E930 8342     
9049 E932 0202  20 	li r2,cv706
     E934 E944     
9050 E936 0203  20 	li r3,17
     E938 0011     
9051 E93A 06A0  32 	bl @jsr
     E93C A974     
9052 E93E A11C     	data print_string
9053 E940 0460  28 	b @cv707
     E942 E956     
9054               cv706
9055 E944 4120     	byte >41,>20,>44,>20,>56,>20,>45,>20
     E946 4420     
     E948 5620     
     E94A 4520     
9056 E94C 4E20     	byte >4e,>20,>54,>20,>49,>20,>52,>20
     E94E 5420     
     E950 4920     
     E952 5220     
9057 E954 45       	byte >45
9058               	even
9059               cv707
9060               	; 	PRINT AT 32 * 5 + 10, "\128\128 \128\128 \128\128 \128\128"
9061 E956 0200  20 	li r0,170
     E958 00AA     
9062 E95A C800  30 	mov r0,@cursor
     E95C 8342     
9063 E95E 0202  20 	li r2,cv708
     E960 E970     
9064 E962 0203  20 	li r3,11
     E964 000B     
9065 E966 06A0  32 	bl @jsr
     E968 A974     
9066 E96A A11C     	data print_string
9067 E96C 0460  28 	b @cv709
     E96E E97C     
9068               cv708
9069 E970 8080     	byte >80,>80,>20,>80,>80,>20,>80,>80
     E972 2080     
     E974 8020     
     E976 8080     
9070 E978 2080     	byte >20,>80,>80
     E97A 80       
9071               	even
9072               cv709
9073               	; 	PRINT AT 32 * 6 + 10, "\128\128\128\128\128\128\128\128\128\128\128"
9074 E97C 0200  20 	li r0,202
     E97E 00CA     
9075 E980 C800  30 	mov r0,@cursor
     E982 8342     
9076 E984 0202  20 	li r2,cv710
     E986 E996     
9077 E988 0203  20 	li r3,11
     E98A 000B     
9078 E98C 06A0  32 	bl @jsr
     E98E A974     
9079 E990 A11C     	data print_string
9080 E992 0460  28 	b @cv711
     E994 E9A2     
9081               cv710
9082 E996 8080     	byte >80,>80,>80,>80,>80,>80,>80,>80
     E998 8080     
     E99A 8080     
     E99C 8080     
9083 E99E 8080     	byte >80,>80,>80
     E9A0 80       
9084               	even
9085               cv711
9086               	; 	PRINT AT 32 * 7 + 10, "\128\128\128\128\129\129\129\128\128\128\128"
9087 E9A2 0200  20 	li r0,234
     E9A4 00EA     
9088 E9A6 C800  30 	mov r0,@cursor
     E9A8 8342     
9089 E9AA 0202  20 	li r2,cv712
     E9AC E9BC     
9090 E9AE 0203  20 	li r3,11
     E9B0 000B     
9091 E9B2 06A0  32 	bl @jsr
     E9B4 A974     
9092 E9B6 A11C     	data print_string
9093 E9B8 0460  28 	b @cv713
     E9BA E9C8     
9094               cv712
9095 E9BC 8080     	byte >80,>80,>80,>80,>81,>81,>81,>80
     E9BE 8080     
     E9C0 8181     
     E9C2 8180     
9096 E9C4 8080     	byte >80,>80,>80
     E9C6 80       
9097               	even
9098               cv713
9099               	; 	PRINT AT 32 * 8 + 10, "\128\128\128\128\129\129\129\128\128\128\128"
9100 E9C8 0200  20 	li r0,266
     E9CA 010A     
9101 E9CC C800  30 	mov r0,@cursor
     E9CE 8342     
9102 E9D0 0202  20 	li r2,cv714
     E9D2 E9E2     
9103 E9D4 0203  20 	li r3,11
     E9D6 000B     
9104 E9D8 06A0  32 	bl @jsr
     E9DA A974     
9105 E9DC A11C     	data print_string
9106 E9DE 0460  28 	b @cv715
     E9E0 E9EE     
9107               cv714
9108 E9E2 8080     	byte >80,>80,>80,>80,>81,>81,>81,>80
     E9E4 8080     
     E9E6 8181     
     E9E8 8180     
9109 E9EA 8080     	byte >80,>80,>80
     E9EC 80       
9110               	even
9111               cv715
9112               	; 	PRINT AT 32 * 11 + 7, "GAME 1  INTRO KINGDOM"
9113 E9EE 0200  20 	li r0,359
     E9F0 0167     
9114 E9F2 C800  30 	mov r0,@cursor
     E9F4 8342     
9115 E9F6 0202  20 	li r2,cv716
     E9F8 EA08     
9116 E9FA 0203  20 	li r3,21
     E9FC 0015     
9117 E9FE 06A0  32 	bl @jsr
     EA00 A974     
9118 EA02 A11C     	data print_string
9119 EA04 0460  28 	b @cv717
     EA06 EA1E     
9120               cv716
9121 EA08 4741     	byte >47,>41,>4d,>45,>20,>31,>20,>20
     EA0A 4D45     
     EA0C 2031     
     EA0E 2020     
9122 EA10 494E     	byte >49,>4e,>54,>52,>4f,>20,>4b,>49
     EA12 5452     
     EA14 4F20     
     EA16 4B49     
9123 EA18 4E47     	byte >4e,>47,>44,>4f,>4d
     EA1A 444F     
     EA1C 4D       
9124               	even
9125               cv717
9126               	; 	PRINT AT 32 * 13 + 7, "GAME 2  SMALL KINGDOM"
9127 EA1E 0200  20 	li r0,423
     EA20 01A7     
9128 EA22 C800  30 	mov r0,@cursor
     EA24 8342     
9129 EA26 0202  20 	li r2,cv718
     EA28 EA38     
9130 EA2A 0203  20 	li r3,21
     EA2C 0015     
9131 EA2E 06A0  32 	bl @jsr
     EA30 A974     
9132 EA32 A11C     	data print_string
9133 EA34 0460  28 	b @cv719
     EA36 EA4E     
9134               cv718
9135 EA38 4741     	byte >47,>41,>4d,>45,>20,>32,>20,>20
     EA3A 4D45     
     EA3C 2032     
     EA3E 2020     
9136 EA40 534D     	byte >53,>4d,>41,>4c,>4c,>20,>4b,>49
     EA42 414C     
     EA44 4C20     
     EA46 4B49     
9137 EA48 4E47     	byte >4e,>47,>44,>4f,>4d
     EA4A 444F     
     EA4C 4D       
9138               	even
9139               cv719
9140               	; 	PRINT AT 32 * 15 + 7, "GAME 3  FULL KINGDOM"
9141 EA4E 0200  20 	li r0,487
     EA50 01E7     
9142 EA52 C800  30 	mov r0,@cursor
     EA54 8342     
9143 EA56 0202  20 	li r2,cv720
     EA58 EA68     
9144 EA5A 0203  20 	li r3,20
     EA5C 0014     
9145 EA5E 06A0  32 	bl @jsr
     EA60 A974     
9146 EA62 A11C     	data print_string
9147 EA64 0460  28 	b @cv721
     EA66 EA7C     
9148               cv720
9149 EA68 4741     	byte >47,>41,>4d,>45,>20,>33,>20,>20
     EA6A 4D45     
     EA6C 2033     
     EA6E 2020     
9150 EA70 4655     	byte >46,>55,>4c,>4c,>20,>4b,>49,>4e
     EA72 4C4C     
     EA74 204B     
     EA76 494E     
9151 EA78 4744     	byte >47,>44,>4f,>4d
     EA7A 4F4D     
9152               	even
9153               cv721
9154               	; 	PRINT AT 32 * 17 + 7, "GAME 4  RANDOM KINGDOM"
9155 EA7C 0200  20 	li r0,551
     EA7E 0227     
9156 EA80 C800  30 	mov r0,@cursor
     EA82 8342     
9157 EA84 0202  20 	li r2,cv722
     EA86 EA96     
9158 EA88 0203  20 	li r3,22
     EA8A 0016     
9159 EA8C 06A0  32 	bl @jsr
     EA8E A974     
9160 EA90 A11C     	data print_string
9161 EA92 0460  28 	b @cv723
     EA94 EAAC     
9162               cv722
9163 EA96 4741     	byte >47,>41,>4d,>45,>20,>34,>20,>20
     EA98 4D45     
     EA9A 2034     
     EA9C 2020     
9164 EA9E 5241     	byte >52,>41,>4e,>44,>4f,>4d,>20,>4b
     EAA0 4E44     
     EAA2 4F4D     
     EAA4 204B     
9165 EAA6 494E     	byte >49,>4e,>47,>44,>4f,>4d
     EAA8 4744     
     EAAA 4F4D     
9166               	even
9167               cv723
9168               	; 	PRINT AT 32 * 21 + 6, "PRESS FIRE TO START"
9169 EAAC 0200  20 	li r0,678
     EAAE 02A6     
9170 EAB0 C800  30 	mov r0,@cursor
     EAB2 8342     
9171 EAB4 0202  20 	li r2,cv724
     EAB6 EAC6     
9172 EAB8 0203  20 	li r3,19
     EABA 0013     
9173 EABC 06A0  32 	bl @jsr
     EABE A974     
9174 EAC0 A11C     	data print_string
9175 EAC2 0460  28 	b @cv725
     EAC4 EADA     
9176               cv724
9177 EAC6 5052     	byte >50,>52,>45,>53,>53,>20,>46,>49
     EAC8 4553     
     EACA 5320     
     EACC 4649     
9178 EACE 5245     	byte >52,>45,>20,>54,>4f,>20,>53,>54
     EAD0 2054     
     EAD2 4F20     
     EAD4 5354     
9179 EAD6 4152     	byte >41,>52,>54
     EAD8 54       
9180               	even
9181               cv725
9182               	; 	' debounce: the press that ended the last game must not start
9183               	; 	' the next one - require the button quiet for ~2/3 second
9184               	; 	udl = 0 : t2 = 20
9185 EADA 04C0  14 	clr r0
9186 EADC D800  38 	movb r0,@cvb_UDL
     EADE 2088     
9187 EAE0 0200  20 	li r0,5120   ; 20*256
     EAE2 1400     
9188 EAE4 D800  38 	movb r0,@cvb_T2
     EAE6 20D2     
9189               	; tdb:	WAIT
9190               cvb_TDB
9191 EAE8 06A0  32 	bl @jsr
     EAEA A974     
9192 EAEC A64A     	data wait
9193               	; 	IF cont1.button > 0 THEN t2 = 20 : GOTO tdb
9194 EAEE D020  30 	movb @joy1_data,r0
     EAF0 8346     
9195 EAF2 0201  20 	li r1,16384   ; 64*256
     EAF4 4000     
9196 EAF6 0541  14 	inv r1
9197 EAF8 5001  18 	szcb r1,r0
9198 EAFA 0201  20 	li r1,256   ; 1*256
     EAFC 0100     
9199 EAFE 9040  18 	cb r0,r1
9200 EB00 1402  14 	jhe cv727
9201 EB02 0460  28 	b @cv726
     EB04 EB12     
9202               cv727
9203 EB06 0200  20 	li r0,5120   ; 20*256
     EB08 1400     
9204 EB0A D800  38 	movb r0,@cvb_T2
     EB0C 20D2     
9205 EB0E 0460  28 	b @cvb_TDB
     EB10 EAE8     
9206               cv726
9207               	; 	t2 = t2 - 1
9208 EB12 D020  34 	movb @cvb_T2,r0
     EB14 20D2     
9209 EB16 0220  22 	ai r0,65280	; -1
     EB18 FF00     
9210 EB1A D800  38 	movb r0,@cvb_T2
     EB1C 20D2     
9211               	; 	IF t2 > 0 THEN GOTO tdb
9212 EB1E 0201  20 	li r1,256   ; 1*256
     EB20 0100     
9213 EB22 9040  18 	cb r0,r1
9214 EB24 1402  14 	jhe cv729
9215 EB26 0460  28 	b @cv728
     EB28 EB2E     
9216               cv729
9217 EB2A 0460  28 	b @cvb_TDB
     EB2C EAE8     
9218               cv728
9219               	; tsel:
9220               cvb_TSEL
9221               	; 	WAIT
9222 EB2E 06A0  32 	bl @jsr
     EB30 A974     
9223 EB32 A64A     	data wait
9224               	; 	IF udl > 0 THEN udl = udl - 1
9225 EB34 D020  34 	movb @cvb_UDL,r0
     EB36 2088     
9226 EB38 0201  20 	li r1,256   ; 1*256
     EB3A 0100     
9227 EB3C 9040  18 	cb r0,r1
9228 EB3E 1402  14 	jhe cv731
9229 EB40 0460  28 	b @cv730
     EB42 EB50     
9230               cv731
9231 EB44 D020  34 	movb @cvb_UDL,r0
     EB46 2088     
9232 EB48 0220  22 	ai r0,65280	; -1
     EB4A FF00     
9233 EB4C D800  38 	movb r0,@cvb_UDL
     EB4E 2088     
9234               cv730
9235               	; 	FOR i = 0 TO 3
9236 EB50 04C0  14 	clr r0
9237 EB52 D800  38 	movb r0,@cvb_I
     EB54 2086     
9238               cv732
9239               	; 	IF i = gm - 1 THEN PRINT AT 32 * (11 + i * 2) + 5, ">" ELSE PRINT AT 32 * (11 + i * 2) + 5, " "
9240 EB56 D020  34 	movb @cvb_GM,r0
     EB58 20C9     
9241 EB5A 0980  32 	srl r0,8
9242 EB5C 0600  14 	dec r0
9243 EB5E C040  18 	mov r0,r1
9244 EB60 D020  34 	movb @cvb_I,r0
     EB62 2086     
9245 EB64 0980  32 	srl r0,8
9246 EB66 8040  18 	c r0,r1
9247 EB68 1302  14 	jeq cv734
9248 EB6A 0460  28 	b @cv733
     EB6C EB9C     
9249               cv734
9250 EB6E D020  34 	movb @cvb_I,r0
     EB70 2086     
9251 EB72 0980  32 	srl r0,8
9252 EB74 0A10  18 	sla r0,1
9253 EB76 0220  22 	ai r0,11
     EB78 000B     
9254 EB7A 0A50  26 	sla r0,5
9255 EB7C 0220  22 	ai r0,5
     EB7E 0005     
9256 EB80 C800  30 	mov r0,@cursor
     EB82 8342     
9257 EB84 0202  20 	li r2,cv735
     EB86 EB96     
9258 EB88 0203  20 	li r3,1
     EB8A 0001     
9259 EB8C 06A0  32 	bl @jsr
     EB8E A974     
9260 EB90 A11C     	data print_string
9261 EB92 0460  28 	b @cv736
     EB94 EB98     
9262               cv735
9263 EB96 3E       	byte >3e
9264               	even
9265               cv736
9266 EB98 0460  28 	b @cv737
     EB9A EBC6     
9267               cv733
9268 EB9C D020  34 	movb @cvb_I,r0
     EB9E 2086     
9269 EBA0 0980  32 	srl r0,8
9270 EBA2 0A10  18 	sla r0,1
9271 EBA4 0220  22 	ai r0,11
     EBA6 000B     
9272 EBA8 0A50  26 	sla r0,5
9273 EBAA 0220  22 	ai r0,5
     EBAC 0005     
9274 EBAE C800  30 	mov r0,@cursor
     EBB0 8342     
9275 EBB2 0202  20 	li r2,cv738
     EBB4 EBC4     
9276 EBB6 0203  20 	li r3,1
     EBB8 0001     
9277 EBBA 06A0  32 	bl @jsr
     EBBC A974     
9278 EBBE A11C     	data print_string
9279 EBC0 0460  28 	b @cv739
     EBC2 EBC6     
9280               cv738
9281 EBC4 20       	byte >20
9282               	even
9283               cv739
9284               cv737
9285               	; 	NEXT i
9286 EBC6 D020  34 	movb @cvb_I,r0
     EBC8 2086     
9287 EBCA 0220  22 	ai r0,256	; 1
     EBCC 0100     
9288 EBCE D800  38 	movb r0,@cvb_I
     EBD0 2086     
9289 EBD2 0201  20 	li r1,1024   ; 4*256
     EBD4 0400     
9290 EBD6 9040  18 	cb r0,r1
9291 EBD8 1402  14 	jhe cv740
9292 EBDA 0460  28 	b @cv732
     EBDC EB56     
9293               cv740
9294               	; 	IF udl = 0 THEN IF cont1.up THEN IF gm > 1 THEN gm = gm - 1 : udl = 8
9295 EBDE D020  34 	movb @cvb_UDL,r0
     EBE0 2088     
9296 EBE2 1302  14 	jeq cv742
9297 EBE4 0460  28 	b @cv741
     EBE6 EC1E     
9298               cv742
9299 EBE8 D020  30 	movb @joy1_data,r0
     EBEA 8346     
9300 EBEC 0201  20 	li r1,256   ; 1*256
     EBEE 0100     
9301 EBF0 0541  14 	inv r1
9302 EBF2 5001  18 	szcb r1,r0
9303 EBF4 1602  14 	jne cv744
9304 EBF6 0460  28 	b @cv743
     EBF8 EC1E     
9305               cv744
9306 EBFA D020  34 	movb @cvb_GM,r0
     EBFC 20C9     
9307 EBFE 0201  20 	li r1,512   ; 2*256
     EC00 0200     
9308 EC02 9040  18 	cb r0,r1
9309 EC04 1402  14 	jhe cv746
9310 EC06 0460  28 	b @cv745
     EC08 EC1E     
9311               cv746
9312 EC0A D020  34 	movb @cvb_GM,r0
     EC0C 20C9     
9313 EC0E 0220  22 	ai r0,65280	; -1
     EC10 FF00     
9314 EC12 D800  38 	movb r0,@cvb_GM
     EC14 20C9     
9315 EC16 0200  20 	li r0,2048   ; 8*256
     EC18 0800     
9316 EC1A D800  38 	movb r0,@cvb_UDL
     EC1C 2088     
9317               cv745
9318               cv743
9319               cv741
9320               	; 	IF udl = 0 THEN IF cont1.down THEN IF gm < 4 THEN gm = gm + 1 : udl = 8
9321 EC1E D020  34 	movb @cvb_UDL,r0
     EC20 2088     
9322 EC22 1302  14 	jeq cv748
9323 EC24 0460  28 	b @cv747
     EC26 EC5E     
9324               cv748
9325 EC28 D020  30 	movb @joy1_data,r0
     EC2A 8346     
9326 EC2C 0201  20 	li r1,1024   ; 4*256
     EC2E 0400     
9327 EC30 0541  14 	inv r1
9328 EC32 5001  18 	szcb r1,r0
9329 EC34 1602  14 	jne cv750
9330 EC36 0460  28 	b @cv749
     EC38 EC5E     
9331               cv750
9332 EC3A D020  34 	movb @cvb_GM,r0
     EC3C 20C9     
9333 EC3E 0201  20 	li r1,1024   ; 4*256
     EC40 0400     
9334 EC42 9040  18 	cb r0,r1
9335 EC44 1A02  14 	jl cv752
9336 EC46 0460  28 	b @cv751
     EC48 EC5E     
9337               cv752
9338 EC4A D020  34 	movb @cvb_GM,r0
     EC4C 20C9     
9339 EC4E 0220  22 	ai r0,256	; 1
     EC50 0100     
9340 EC52 D800  38 	movb r0,@cvb_GM
     EC54 20C9     
9341 EC56 0200  20 	li r0,2048   ; 8*256
     EC58 0800     
9342 EC5A D800  38 	movb r0,@cvb_UDL
     EC5C 2088     
9343               cv751
9344               cv749
9345               cv747
9346               	; 	IF cont1.button = 0 THEN GOTO tsel
9347 EC5E D020  30 	movb @joy1_data,r0
     EC60 8346     
9348 EC62 0201  20 	li r1,16384   ; 64*256
     EC64 4000     
9349 EC66 0541  14 	inv r1
9350 EC68 5001  18 	szcb r1,r0
9351 EC6A 04C1  14 	clr r1
9352 EC6C 9001  18 	cb r1,r0
9353 EC6E 1302  14 	jeq cv754
9354 EC70 0460  28 	b @cv753
     EC72 EC78     
9355               cv754
9356 EC74 0460  28 	b @cvb_TSEL
     EC76 EB2E     
9357               cv753
9358               	; tw2:	WAIT : IF cont1.button > 0 THEN GOTO tw2
9359               cvb_TW2
9360 EC78 06A0  32 	bl @jsr
     EC7A A974     
9361 EC7C A64A     	data wait
9362 EC7E D020  30 	movb @joy1_data,r0
     EC80 8346     
9363 EC82 0201  20 	li r1,16384   ; 64*256
     EC84 4000     
9364 EC86 0541  14 	inv r1
9365 EC88 5001  18 	szcb r1,r0
9366 EC8A 0201  20 	li r1,256   ; 1*256
     EC8C 0100     
9367 EC8E 9040  18 	cb r0,r1
9368 EC90 1402  14 	jhe cv756
9369 EC92 0460  28 	b @cv755
     EC94 EC9A     
9370               cv756
9371 EC96 0460  28 	b @cvb_TW2
     EC98 EC78     
9372               cv755
9373               	; 	btnp = 1
9374 EC9A 0200  20 	li r0,256   ; 1*256
     EC9C 0100     
9375 EC9E D800  38 	movb r0,@cvb_BTNP
     ECA0 20BA     
9376               	; 	END
9377 ECA2 C03A  30 	mov *r10+,r0
9378 ECA4 0450  20 	b *r0
9379               	;
9380               	; 	' ============================================================
9381               	; 	' DATA
9382               	; 	' ============================================================
9383               	;
9384               	; mskdat:
9385               cvb_MSKDAT
9386               	; 	DATA BYTE $80, $40, $20, $10, $08, $04, $02, $01
9387 ECA6 8040     	byte >80,>40,>20,>10,>08,>04,>02,>01
     ECA8 2010     
     ECAA 0804     
     ECAC 0201     
9388               	;
9389               	; 	' secret-room glyphs whose colours ripple (16 codes)
9390               	; eggch:
9391               cvb_EGGCH
9392               	; 	DATA BYTE 65, 68, 86, 69, 78, 84, 73, 82
9393 ECAE 4144     	byte >41,>44,>56,>45,>4e,>54,>49,>52
     ECB0 5645     
     ECB2 4E54     
     ECB4 4952     
9394               	; 	DATA BYTE 50, 48, 54, 85, 72, 77, 67, 76
9395 ECB6 3230     	byte >32,>30,>36,>55,>48,>4d,>43,>4c
     ECB8 3655     
     ECBA 484D     
     ECBC 434C     
9396               	;
9397               	; 	' game 4 scatter rooms (16 open/maze/corridor rooms)
9398               	; rndrm:
9399               cvb_RNDRM
9400               	; 	DATA BYTE 15, 16, 17, 19, 20, 21, 22, 23
9401 ECBE 0F10     	byte >0f,>10,>11,>13,>14,>15,>16,>17
     ECC0 1113     
     ECC2 1415     
     ECC4 1617     
9402               	; 	DATA BYTE 29, 30, 31, 34, 35, 36, 37, 38
9403 ECC6 1D1E     	byte >1d,>1e,>1f,>22,>23,>24,>25,>26
     ECC8 1F22     
     ECCA 2324     
     ECCC 2526     
9404               	;
9405               	; 	' ------------------------------------------------------------
9406               	; 	' links: N,E,S,W per room (255 = none). Castle halls have no
9407               	; 	' inbound edge links (gate warps only), so the bat can never
9408               	; 	' carry loot into a locked castle.
9409               	; 	' ------------------------------------------------------------
9410               	; lnkc:	' game 1 - custom intro map, rooms 0-12
9411               cvb_LNKC
9412               	; 	DATA BYTE 255, 255, 1, 255
9413 ECCE FFFF     	byte >ff,>ff,>01,>ff
     ECD0 01FF     
9414               	; 	DATA BYTE 0, 3, 4, 11
9415 ECD2 0003     	byte >00,>03,>04,>0b
     ECD4 040B     
9416               	; 	DATA BYTE 255, 255, 0, 255
9417 ECD6 FFFF     	byte >ff,>ff,>00,>ff
     ECD8 00FF     
9418               	; 	DATA BYTE 255, 5, 255, 1
9419 ECDA FF05     	byte >ff,>05,>ff,>01
     ECDC FF01     
9420               	; 	DATA BYTE 1, 6, 255, 255
9421 ECDE 0106     	byte >01,>06,>ff,>ff
     ECE0 FFFF     
9422               	; 	DATA BYTE 255, 255, 7, 3
9423 ECE2 FFFF     	byte >ff,>ff,>07,>03
     ECE4 0703     
9424               	; 	DATA BYTE 255, 7, 255, 4
9425 ECE6 FF07     	byte >ff,>07,>ff,>04
     ECE8 FF04     
9426               	; 	DATA BYTE 5, 8, 255, 6
9427 ECEA 0508     	byte >05,>08,>ff,>06
     ECEC FF06     
9428               	; 	DATA BYTE 255, 255, 255, 7
9429 ECEE FFFF     	byte >ff,>ff,>ff,>07
     ECF0 FF07     
9430               	; 	DATA BYTE 255, 10, 8, 255
9431 ECF2 FF0A     	byte >ff,>0a,>08,>ff
     ECF4 08FF     
9432               	; 	DATA BYTE 255, 255, 255, 9
9433 ECF6 FFFF     	byte >ff,>ff,>ff,>09
     ECF8 FF09     
9434               	; 	DATA BYTE 255, 1, 255, 255
9435 ECFA FF01     	byte >ff,>01,>ff,>ff
     ECFC FFFF     
9436               	; 	DATA BYTE 255, 255, 11, 255
9437 ECFE FFFF     	byte >ff,>ff,>0b,>ff
     ED00 0BFF     
9438               	;
9439               	; lnkb:	' game 2 - small kingdom (rooms 13-38; sealed = 255)
9440               cvb_LNKB
9441               	; 	DATA BYTE 255, 255, 16, 255	' 13 gold grounds
9442 ED02 FFFF     	byte >ff,>ff,>10,>ff
     ED04 10FF     
9443               	; 	DATA BYTE 255, 255, 13, 255	' 14 gold hall
9444 ED06 FFFF     	byte >ff,>ff,>0d,>ff
     ED08 0DFF     
9445               	; 	DATA BYTE 255, 16, 255, 19	' 15 corridor W
9446 ED0A FF10     	byte >ff,>10,>ff,>13
     ED0C FF13     
9447               	; 	DATA BYTE 13, 17, 255, 15	' 16 corridor mid
9448 ED0E 0D11     	byte >0d,>11,>ff,>0f
     ED10 FF0F     
9449               	; 	DATA BYTE 255, 255, 255, 16	' 17 corridor E (dead end here)
9450 ED12 FFFF     	byte >ff,>ff,>ff,>10
     ED14 FF10     
9451               	; 	DATA BYTE 255, 255, 255, 255	' 18 secret (absent)
9452 ED16 FFFF     	byte >ff,>ff,>ff,>ff
     ED18 FFFF     
9453               	; 	DATA BYTE 20, 15, 255, 21	' 19 blue maze
9454 ED1A 140F     	byte >14,>0f,>ff,>15
     ED1C FF15     
9455               	; 	DATA BYTE 23, 21, 19, 21	' 20 blue maze
9456 ED1E 1715     	byte >17,>15,>13,>15
     ED20 1315     
9457               	; 	DATA BYTE 22, 20, 19, 20	' 21 blue maze
9458 ED22 1614     	byte >16,>14,>13,>14
     ED24 1314     
9459               	; 	DATA BYTE 23, 23, 21, 255	' 22 blue maze
9460 ED26 1717     	byte >17,>17,>15,>ff
     ED28 15FF     
9461               	; 	DATA BYTE 24, 20, 20, 22	' 23 blue maze top
9462 ED2A 1814     	byte >18,>14,>14,>16
     ED2C 1416     
9463               	; 	DATA BYTE 255, 255, 23, 255	' 24 black grounds
9464 ED2E FFFF     	byte >ff,>ff,>17,>ff
     ED30 17FF     
9465               	; 	DATA BYTE 255, 255, 24, 255	' 25 black hall (chalice+magnet)
9466 ED32 FFFF     	byte >ff,>ff,>18,>ff
     ED34 18FF     
9467               	; 	DATA BYTE 255, 255, 255, 255	' 26
9468 ED36 FFFF     	byte >ff,>ff,>ff,>ff
     ED38 FFFF     
9469               	; 	DATA BYTE 255, 255, 255, 255	' 27
9470 ED3A FFFF     	byte >ff,>ff,>ff,>ff
     ED3C FFFF     
9471               	; 	DATA BYTE 255, 255, 255, 255	' 28
9472 ED3E FFFF     	byte >ff,>ff,>ff,>ff
     ED40 FFFF     
9473               	; 	DATA BYTE 255, 255, 255, 255	' 29
9474 ED42 FFFF     	byte >ff,>ff,>ff,>ff
     ED44 FFFF     
9475               	; 	DATA BYTE 255, 255, 255, 255	' 30
9476 ED46 FFFF     	byte >ff,>ff,>ff,>ff
     ED48 FFFF     
9477               	; 	DATA BYTE 255, 255, 255, 255	' 31
9478 ED4A FFFF     	byte >ff,>ff,>ff,>ff
     ED4C FFFF     
9479               	; 	DATA BYTE 255, 255, 255, 255	' 32
9480 ED4E FFFF     	byte >ff,>ff,>ff,>ff
     ED50 FFFF     
9481               	; 	DATA BYTE 255, 255, 255, 255	' 33
9482 ED52 FFFF     	byte >ff,>ff,>ff,>ff
     ED54 FFFF     
9483               	; 	DATA BYTE 255, 255, 255, 255	' 34
9484 ED56 FFFF     	byte >ff,>ff,>ff,>ff
     ED58 FFFF     
9485               	; 	DATA BYTE 255, 255, 255, 255	' 35
9486 ED5A FFFF     	byte >ff,>ff,>ff,>ff
     ED5C FFFF     
9487               	; 	DATA BYTE 255, 255, 255, 255	' 36
9488 ED5E FFFF     	byte >ff,>ff,>ff,>ff
     ED60 FFFF     
9489               	; 	DATA BYTE 255, 255, 255, 255	' 37
9490 ED62 FFFF     	byte >ff,>ff,>ff,>ff
     ED64 FFFF     
9491               	; 	DATA BYTE 255, 255, 255, 255	' 38
9492 ED66 FFFF     	byte >ff,>ff,>ff,>ff
     ED68 FFFF     
9493               	;
9494               	; lnka:	' games 3/4 - full kingdom (rooms 13-38)
9495               cvb_LNKA
9496               	; 	DATA BYTE 255, 255, 16, 255	' 13 gold grounds
9497 ED6A FFFF     	byte >ff,>ff,>10,>ff
     ED6C 10FF     
9498               	; 	DATA BYTE 255, 255, 13, 255	' 14 gold hall (WIN)
9499 ED6E FFFF     	byte >ff,>ff,>0d,>ff
     ED70 0DFF     
9500               	; 	DATA BYTE 255, 16, 255, 19	' 15 corridor W -> blue maze
9501 ED72 FF10     	byte >ff,>10,>ff,>13
     ED74 FF13     
9502               	; 	DATA BYTE 13, 17, 255, 15	' 16 corridor mid (N to castle)
9503 ED76 0D11     	byte >0d,>11,>ff,>0f
     ED78 FF0F     
9504               	; 	DATA BYTE 255, 18, 29, 16	' 17 corridor E (egg wall E, catacombs S)
9505 ED7A FF12     	byte >ff,>12,>1d,>10
     ED7C 1D10     
9506               	; 	DATA BYTE 255, 255, 255, 17	' 18 SECRET room
9507 ED7E FFFF     	byte >ff,>ff,>ff,>11
     ED80 FF11     
9508               	; 	DATA BYTE 20, 15, 255, 21	' 19 blue maze
9509 ED82 140F     	byte >14,>0f,>ff,>15
     ED84 FF15     
9510               	; 	DATA BYTE 23, 21, 19, 21	' 20 blue maze (hyperspace W)
9511 ED86 1715     	byte >17,>15,>13,>15
     ED88 1315     
9512               	; 	DATA BYTE 22, 20, 19, 20	' 21 blue maze
9513 ED8A 1614     	byte >16,>14,>13,>14
     ED8C 1314     
9514               	; 	DATA BYTE 23, 23, 21, 255	' 22 blue maze (hyperspace E)
9515 ED8E 1717     	byte >17,>17,>15,>ff
     ED90 15FF     
9516               	; 	DATA BYTE 24, 20, 20, 22	' 23 blue maze top -> black castle
9517 ED92 1814     	byte >18,>14,>14,>16
     ED94 1416     
9518               	; 	'   (23 E goes to 20, whose west edge is open; 22's west
9519               	; 	'   edge is walled, so an E-link into it would trap you)
9520               	; 	DATA BYTE 255, 255, 23, 255	' 24 black grounds
9521 ED96 FFFF     	byte >ff,>ff,>17,>ff
     ED98 17FF     
9522               	; 	DATA BYTE 255, 26, 24, 255	' 25 black hall -> dark maze
9523 ED9A FF1A     	byte >ff,>1a,>18,>ff
     ED9C 18FF     
9524               	; 	DATA BYTE 27, 27, 255, 25	' 26 black maze (dark)
9525 ED9E 1B1B     	byte >1b,>1b,>ff,>19
     EDA0 FF19     
9526               	; 	DATA BYTE 28, 26, 26, 26	' 27 black maze (dark)
9527 EDA2 1C1A     	byte >1c,>1a,>1a,>1a
     EDA4 1A1A     
9528               	; 	DATA BYTE 255, 255, 27, 27	' 28 black maze + dot chamber (dark)
9529 EDA6 FFFF     	byte >ff,>ff,>1b,>1b
     EDA8 1B1B     
9530               	; 	DATA BYTE 17, 30, 30, 31	' 29 catacombs (dark)
9531 EDAA 111E     	byte >11,>1e,>1e,>1f
     EDAC 1E1F     
9532               	; 	DATA BYTE 29, 31, 31, 29	' 30 catacombs (dark)
9533 EDAE 1D1F     	byte >1d,>1f,>1f,>1d
     EDB0 1F1D     
9534               	; 	DATA BYTE 30, 36, 255, 32	' 31 catacombs (dark)
9535 EDB2 1E24     	byte >1e,>24,>ff,>20
     EDB4 FF20     
9536               	; 	DATA BYTE 255, 31, 255, 255	' 32 white grounds
9537 EDB6 FF1F     	byte >ff,>1f,>ff,>ff
     EDB8 FFFF     
9538               	; 	DATA BYTE 255, 34, 32, 255	' 33 white hall -> red maze
9539 EDBA FF22     	byte >ff,>22,>20,>ff
     EDBC 20FF     
9540               	; 	DATA BYTE 35, 35, 255, 33	' 34 red maze
9541 EDBE 2323     	byte >23,>23,>ff,>21
     EDC0 FF21     
9542               	; 	DATA BYTE 255, 255, 34, 34	' 35 red maze end (black key)
9543 EDC2 FFFF     	byte >ff,>ff,>22,>22
     EDC4 2222     
9544               	; 	DATA BYTE 255, 255, 37, 31	' 36 purple side room
9545 EDC6 FFFF     	byte >ff,>ff,>25,>1f
     EDC8 251F     
9546               	; 	DATA BYTE 36, 255, 38, 255	' 37 cyan side room
9547 EDCA 24FF     	byte >24,>ff,>26,>ff
     EDCC 26FF     
9548               	; 	DATA BYTE 37, 255, 255, 255	' 38 rose side room
9549 EDCE 25FF     	byte >25,>ff,>ff,>ff
     EDD0 FFFF     
9550               	;
9551               	; 	' ------------------------------------------------------------
9552               	; 	' colours: (wall, background, dark) per room
9553               	; 	' ------------------------------------------------------------
9554               	; colc:	' game 1 custom map: coloured walls on GRAY (so the black
9555               cvb_COLC
9556               	; 	' bat reads everywhere); its black castle is black too
9557               	; 	DATA BYTE 11, 14, 0
9558 EDD2 0B0E     	byte >0b,>0e,>00
     EDD4 00       
9559               	; 	DATA BYTE 2, 14, 0
9560 EDD5   02     	byte >02,>0e,>00
     EDD6 0E00     
9561               	; 	DATA BYTE 10, 14, 0
9562 EDD8 0A0E     	byte >0a,>0e,>00
     EDDA 00       
9563               	; 	DATA BYTE 8, 14, 0
9564 EDDB   08     	byte >08,>0e,>00
     EDDC 0E00     
9565               	; 	DATA BYTE 3, 14, 0
9566 EDDE 030E     	byte >03,>0e,>00
     EDE0 00       
9567               	; 	DATA BYTE 5, 14, 0
9568 EDE1   05     	byte >05,>0e,>00
     EDE2 0E00     
9569               	; 	DATA BYTE 13, 14, 0
9570 EDE4 0D0E     	byte >0d,>0e,>00
     EDE6 00       
9571               	; 	DATA BYTE 4, 14, 0
9572 EDE7   04     	byte >04,>0e,>00
     EDE8 0E00     
9573               	; 	DATA BYTE 1, 14, 0
9574 EDEA 010E     	byte >01,>0e,>00
     EDEC 00       
9575               	; 	DATA BYTE 1, 14, 0
9576 EDED   01     	byte >01,>0e,>00
     EDEE 0E00     
9577               	; 	DATA BYTE 6, 14, 0
9578 EDF0 060E     	byte >06,>0e,>00
     EDF2 00       
9579               	; 	DATA BYTE 15, 14, 0
9580 EDF3   0F     	byte >0f,>0e,>00
     EDF4 0E00     
9581               	; 	DATA BYTE 15, 14, 0
9582 EDF6 0F0E     	byte >0f,>0e,>00
     EDF8 00       
9583               	;
9584               	; cola:	' rooms 13-38: coloured walls on GRAY, except the dark
9585               cvb_COLA
9586               	; 	' mazes (gray walls on black) - the black castle is BLACK
9587               	; 	DATA BYTE 11, 14, 0	' 13 gold grounds
9588 EDF9   0B     	byte >0b,>0e,>00
     EDFA 0E00     
9589               	; 	DATA BYTE 10, 14, 0	' 14 gold hall
9590 EDFC 0A0E     	byte >0a,>0e,>00
     EDFE 00       
9591               	; 	DATA BYTE 12, 14, 0	' 15 corridor W (olive)
9592 EDFF   0C     	byte >0c,>0e,>00
     EE00 0E00     
9593               	; 	DATA BYTE 2, 14, 0	' 16 corridor mid (green)
9594 EE02 020E     	byte >02,>0e,>00
     EE04 00       
9595               	; 	DATA BYTE 11, 14, 0	' 17 corridor E (yellow)
9596 EE05   0B     	byte >0b,>0e,>00
     EE06 0E00     
9597               	; 	DATA BYTE 13, 14, 0	' 18 secret room (purple)
9598 EE08 0D0E     	byte >0d,>0e,>00
     EE0A 00       
9599               	; 	DATA BYTE 4, 14, 0	' 19 blue maze
9600 EE0B   04     	byte >04,>0e,>00
     EE0C 0E00     
9601               	; 	DATA BYTE 4, 14, 0	' 20
9602 EE0E 040E     	byte >04,>0e,>00
     EE10 00       
9603               	; 	DATA BYTE 4, 14, 0	' 21
9604 EE11   04     	byte >04,>0e,>00
     EE12 0E00     
9605               	; 	DATA BYTE 4, 14, 0	' 22
9606 EE14 040E     	byte >04,>0e,>00
     EE16 00       
9607               	; 	DATA BYTE 4, 14, 0	' 23
9608 EE17   04     	byte >04,>0e,>00
     EE18 0E00     
9609               	; 	DATA BYTE 1, 14, 0	' 24 BLACK castle on gray
9610 EE1A 010E     	byte >01,>0e,>00
     EE1C 00       
9611               	; 	DATA BYTE 1, 14, 0	' 25 black hall
9612 EE1D   01     	byte >01,>0e,>00
     EE1E 0E00     
9613               	; 	DATA BYTE 14, 1, 1	' 26 black maze: dark
9614 EE20 0E01     	byte >0e,>01,>01
     EE22 01       
9615               	; 	DATA BYTE 14, 1, 1	' 27
9616 EE23   0E     	byte >0e,>01,>01
     EE24 0101     
9617               	; 	DATA BYTE 14, 1, 1	' 28
9618 EE26 0E01     	byte >0e,>01,>01
     EE28 01       
9619               	; 	DATA BYTE 14, 1, 1	' 29 catacombs: dark
9620 EE29   0E     	byte >0e,>01,>01
     EE2A 0101     
9621               	; 	DATA BYTE 14, 1, 1	' 30
9622 EE2C 0E01     	byte >0e,>01,>01
     EE2E 01       
9623               	; 	DATA BYTE 14, 1, 1	' 31
9624 EE2F   0E     	byte >0e,>01,>01
     EE30 0101     
9625               	; 	DATA BYTE 15, 14, 0	' 32 white castle
9626 EE32 0F0E     	byte >0f,>0e,>00
     EE34 00       
9627               	; 	DATA BYTE 15, 14, 0	' 33 white hall
9628 EE35   0F     	byte >0f,>0e,>00
     EE36 0E00     
9629               	; 	DATA BYTE 8, 14, 0	' 34 red maze
9630 EE38 080E     	byte >08,>0e,>00
     EE3A 00       
9631               	; 	DATA BYTE 8, 14, 0	' 35
9632 EE3B   08     	byte >08,>0e,>00
     EE3C 0E00     
9633               	; 	DATA BYTE 13, 14, 0	' 36 purple room
9634 EE3E 0D0E     	byte >0d,>0e,>00
     EE40 00       
9635               	; 	DATA BYTE 7, 14, 0	' 37 cyan room
9636 EE41   07     	byte >07,>0e,>00
     EE42 0E00     
9637               	; 	DATA BYTE 9, 14, 0	' 38 rose room
9638 EE44 090E     	byte >09,>0e,>00
     EE46 00       
9639               	;
9640               	; 	' ------------------------------------------------------------
9641               	; 	' per-game world: 8 objects (room,x,y) in order gold key,
9642               	; 	' black key, white key, sword, bridge, chalice, magnet, dot;
9643               	; 	' then 3 dragons (room,x,y,colour,fast); bat (room,x,y);
9644               	; 	' start room; win room. room 255 = not in this game.
9645               	; 	' ------------------------------------------------------------
9646               	; objd1:	' GAME 1 custom intro map
9647               cvb_OBJD1
9648               	; 	DATA BYTE 4, 180, 120
9649 EE47   04     	byte >04,>b4,>78
     EE48 B478     
9650               	; 	DATA BYTE 6, 180, 20
9651 EE4A 06B4     	byte >06,>b4,>14
     EE4C 14       
9652               	; 	DATA BYTE 7, 120, 88
9653 EE4D   07     	byte >07,>78,>58
     EE4E 7858     
9654               	; 	DATA BYTE 3, 120, 24
9655 EE50 0378     	byte >03,>78,>18
     EE52 18       
9656               	; 	DATA BYTE 12, 96, 80
9657 EE53   0C     	byte >0c,>60,>50
     EE54 6050     
9658               	; 	DATA BYTE 10, 120, 88
9659 EE56 0A78     	byte >0a,>78,>58
     EE58 58       
9660               	; 	DATA BYTE 255, 0, 0
9661 EE59   FF     	byte >ff,>00,>00
     EE5A 0000     
9662               	; 	DATA BYTE 255, 0, 0
9663 EE5C FF00     	byte >ff,>00,>00
     EE5E 00       
9664               	; 	DATA BYTE 8, 36, 80, 11, 0
9665 EE5F   08     	byte >08,>24,>50,>0b,>00
     EE60 2450     
     EE62 0B00     
9666               	; 	DATA BYTE 6, 140, 72, 2, 0
9667 EE64 068C     	byte >06,>8c,>48,>02,>00
     EE66 4802     
     EE68 00       
9668               	; 	DATA BYTE 7, 104, 40, 8, 1
9669 EE69   07     	byte >07,>68,>28,>08,>01
     EE6A 6828     
     EE6C 0801     
9670               	; 	DATA BYTE 5, 120, 60
9671 EE6E 0578     	byte >05,>78,>3c
     EE70 3C       
9672               	; 	DATA BYTE 0, 2
9673 EE71   00     	byte >00,>02
     EE72 02       
9674               	;
9675               	; objd2:	' GAME 2 small kingdom: two castles, two dragons, no bat
9676               cvb_OBJD2
9677               	; 	DATA BYTE 15, 60, 88
9678 EE73   0F     	byte >0f,>3c,>58
     EE74 3C58     
9679               	; 	DATA BYTE 21, 180, 120
9680 EE76 15B4     	byte >15,>b4,>78
     EE78 78       
9681               	; 	DATA BYTE 255, 0, 0
9682 EE79   FF     	byte >ff,>00,>00
     EE7A 0000     
9683               	; 	DATA BYTE 14, 120, 120
9684 EE7C 0E78     	byte >0e,>78,>78
     EE7E 78       
9685               	; 	DATA BYTE 255, 0, 0
9686 EE7F   FF     	byte >ff,>00,>00
     EE80 0000     
9687               	; 	DATA BYTE 25, 180, 120
9688 EE82 19B4     	byte >19,>b4,>78
     EE84 78       
9689               	; 	DATA BYTE 25, 60, 120
9690 EE85   19     	byte >19,>3c,>78
     EE86 3C78     
9691               	; 	DATA BYTE 255, 0, 0
9692 EE88 FF00     	byte >ff,>00,>00
     EE8A 00       
9693               	; 	DATA BYTE 23, 104, 72, 11, 0
9694 EE8B   17     	byte >17,>68,>48,>0b,>00
     EE8C 6848     
     EE8E 0B00     
9695               	; 	DATA BYTE 24, 48, 88, 2, 0
9696 EE90 1830     	byte >18,>30,>58,>02,>00
     EE92 5802     
     EE94 00       
9697               	; 	DATA BYTE 255, 0, 0, 8, 1
9698 EE95   FF     	byte >ff,>00,>00,>08,>01
     EE96 0000     
     EE98 0801     
9699               	; 	DATA BYTE 255, 0, 0
9700 EE9A FF00     	byte >ff,>00,>00
     EE9C 00       
9701               	; 	DATA BYTE 13, 14
9702 EE9D   0D     	byte >0d,>0e
     EE9E 0E       
9703               	;
9704               	; objd3:	' GAMES 3/4 full kingdom
9705               cvb_OBJD3
9706               	; 	DATA BYTE 30, 116, 88
9707 EE9F   1E     	byte >1e,>74,>58
     EEA0 7458     
9708               	; 	DATA BYTE 35, 116, 88
9709 EEA2 2374     	byte >23,>74,>58
     EEA4 58       
9710               	; 	DATA BYTE 21, 36, 40
9711 EEA5   15     	byte >15,>24,>28
     EEA6 2428     
9712               	; 	DATA BYTE 16, 60, 88
9713 EEA8 103C     	byte >10,>3c,>58
     EEAA 58       
9714               	; 	DATA BYTE 31, 180, 88
9715 EEAB   1F     	byte >1f,>b4,>58
     EEAC B458     
9716               	; 	DATA BYTE 28, 60, 88
9717 EEAE 1C3C     	byte >1c,>3c,>58
     EEB0 58       
9718               	; 	DATA BYTE 27, 116, 152
9719 EEB1   1B     	byte >1b,>74,>98
     EEB2 7498     
9720               	; 	DATA BYTE 28, 184, 24
9721 EEB4 1CB8     	byte >1c,>b8,>18
     EEB6 18       
9722               	; 	DATA BYTE 17, 48, 88, 11, 0
9723 EEB7   11     	byte >11,>30,>58,>0b,>00
     EEB8 3058     
     EEBA 0B00     
9724               	; 	DATA BYTE 29, 104, 64, 2, 0
9725 EEBC 1D68     	byte >1d,>68,>40,>02,>00
     EEBE 4002     
     EEC0 00       
9726               	; 	DATA BYTE 20, 104, 60, 8, 1
9727 EEC1   14     	byte >14,>68,>3c,>08,>01
     EEC2 683C     
     EEC4 0801     
9728               	; 	DATA BYTE 19, 120, 60
9729 EEC6 1378     	byte >13,>78,>3c
     EEC8 3C       
9730               	; 	DATA BYTE 13, 14
9731 EEC9   0D     	byte >0d,>0e
     EECA 0E       
9732               	;
9733               	; 	' ------------------------------------------------------------
9734               	; 	' rooms: 24 rows x 32 cells, 4 bytes/row (MSB = leftmost).
9735               	; 	' Rooms 0-12 (custom intro map) are the old block layouts
9736               	; 	' mechanically doubled to the fine grid - game 1 is pixel-
9737               	; 	' identical. Rooms 13-38 are fine-grid originals (BITMAP art,
9738               	; 	' two 16-cell halves per row).
9739               	; 	' ------------------------------------------------------------
9740               	; rd0:	' --- 0 gold castle grounds ---
9741               cvb_RD0
9742               	; 	DATA BYTE $FF, $FF, $FF, $FF
9743 EECB   FF     	byte >ff,>ff,>ff,>ff
     EECC FFFF     
     EECE FF       
9744               	; 	DATA BYTE $FF, $FF, $FF, $FF
9745 EECF   FF     	byte >ff,>ff,>ff,>ff
     EED0 FFFF     
     EED2 FF       
9746               	; 	DATA BYTE $CF, $00, $00, $F3
9747 EED3   CF     	byte >cf,>00,>00,>f3
     EED4 0000     
     EED6 F3       
9748               	; 	DATA BYTE $CF, $00, $00, $F3
9749 EED7   CF     	byte >cf,>00,>00,>f3
     EED8 0000     
     EEDA F3       
9750               	; 	DATA BYTE $FF, $FC, $3F, $FF
9751 EEDB   FF     	byte >ff,>fc,>3f,>ff
     EEDC FC3F     
     EEDE FF       
9752               	; 	DATA BYTE $FF, $FC, $3F, $FF
9753 EEDF   FF     	byte >ff,>fc,>3f,>ff
     EEE0 FC3F     
     EEE2 FF       
9754               	; 	DATA BYTE $FF, $FC, $3F, $FF
9755 EEE3   FF     	byte >ff,>fc,>3f,>ff
     EEE4 FC3F     
     EEE6 FF       
9756               	; 	DATA BYTE $FF, $FC, $3F, $FF
9757 EEE7   FF     	byte >ff,>fc,>3f,>ff
     EEE8 FC3F     
     EEEA FF       
9758               	; 	DATA BYTE $C0, $00, $00, $03
9759 EEEB   C0     	byte >c0,>00,>00,>03
     EEEC 0000     
     EEEE 03       
9760               	; 	DATA BYTE $C0, $00, $00, $03
9761 EEEF   C0     	byte >c0,>00,>00,>03
     EEF0 0000     
     EEF2 03       
9762               	; 	DATA BYTE $C0, $00, $00, $03
9763 EEF3   C0     	byte >c0,>00,>00,>03
     EEF4 0000     
     EEF6 03       
9764               	; 	DATA BYTE $C0, $00, $00, $03
9765 EEF7   C0     	byte >c0,>00,>00,>03
     EEF8 0000     
     EEFA 03       
9766               	; 	DATA BYTE $C0, $00, $00, $03
9767 EEFB   C0     	byte >c0,>00,>00,>03
     EEFC 0000     
     EEFE 03       
9768               	; 	DATA BYTE $C0, $00, $00, $03
9769 EEFF   C0     	byte >c0,>00,>00,>03
     EF00 0000     
     EF02 03       
9770               	; 	DATA BYTE $C0, $00, $00, $03
9771 EF03   C0     	byte >c0,>00,>00,>03
     EF04 0000     
     EF06 03       
9772               	; 	DATA BYTE $C0, $00, $00, $03
9773 EF07   C0     	byte >c0,>00,>00,>03
     EF08 0000     
     EF0A 03       
9774               	; 	DATA BYTE $C0, $00, $00, $03
9775 EF0B   C0     	byte >c0,>00,>00,>03
     EF0C 0000     
     EF0E 03       
9776               	; 	DATA BYTE $C0, $00, $00, $03
9777 EF0F   C0     	byte >c0,>00,>00,>03
     EF10 0000     
     EF12 03       
9778               	; 	DATA BYTE $C0, $00, $00, $03
9779 EF13   C0     	byte >c0,>00,>00,>03
     EF14 0000     
     EF16 03       
9780               	; 	DATA BYTE $C0, $00, $00, $03
9781 EF17   C0     	byte >c0,>00,>00,>03
     EF18 0000     
     EF1A 03       
9782               	; 	DATA BYTE $C0, $00, $00, $03
9783 EF1B   C0     	byte >c0,>00,>00,>03
     EF1C 0000     
     EF1E 03       
9784               	; 	DATA BYTE $C0, $00, $00, $03
9785 EF1F   C0     	byte >c0,>00,>00,>03
     EF20 0000     
     EF22 03       
9786               	; 	DATA BYTE $FF, $FC, $3F, $FF
9787 EF23   FF     	byte >ff,>fc,>3f,>ff
     EF24 FC3F     
     EF26 FF       
9788               	; 	DATA BYTE $FF, $FC, $3F, $FF
9789 EF27   FF     	byte >ff,>fc,>3f,>ff
     EF28 FC3F     
     EF2A FF       
9790               	; rd1:	' --- 1 north meadow ---
9791               cvb_RD1
9792               	; 	DATA BYTE $FF, $FC, $3F, $FF
9793 EF2B   FF     	byte >ff,>fc,>3f,>ff
     EF2C FC3F     
     EF2E FF       
9794               	; 	DATA BYTE $FF, $FC, $3F, $FF
9795 EF2F   FF     	byte >ff,>fc,>3f,>ff
     EF30 FC3F     
     EF32 FF       
9796               	; 	DATA BYTE $C0, $00, $00, $03
9797 EF33   C0     	byte >c0,>00,>00,>03
     EF34 0000     
     EF36 03       
9798               	; 	DATA BYTE $C0, $00, $00, $03
9799 EF37   C0     	byte >c0,>00,>00,>03
     EF38 0000     
     EF3A 03       
9800               	; 	DATA BYTE $C0, $00, $00, $03
9801 EF3B   C0     	byte >c0,>00,>00,>03
     EF3C 0000     
     EF3E 03       
9802               	; 	DATA BYTE $C0, $00, $00, $03
9803 EF3F   C0     	byte >c0,>00,>00,>03
     EF40 0000     
     EF42 03       
9804               	; 	DATA BYTE $C0, $00, $00, $03
9805 EF43   C0     	byte >c0,>00,>00,>03
     EF44 0000     
     EF46 03       
9806               	; 	DATA BYTE $C0, $00, $00, $03
9807 EF47   C0     	byte >c0,>00,>00,>03
     EF48 0000     
     EF4A 03       
9808               	; 	DATA BYTE $C0, $00, $00, $03
9809 EF4B   C0     	byte >c0,>00,>00,>03
     EF4C 0000     
     EF4E 03       
9810               	; 	DATA BYTE $C0, $00, $00, $03
9811 EF4F   C0     	byte >c0,>00,>00,>03
     EF50 0000     
     EF52 03       
9812               	; 	DATA BYTE $00, $00, $00, $00
9813 EF53   00     	byte >00,>00,>00,>00
     EF54 0000     
     EF56 00       
9814               	; 	DATA BYTE $00, $00, $00, $00
9815 EF57   00     	byte >00,>00,>00,>00
     EF58 0000     
     EF5A 00       
9816               	; 	DATA BYTE $00, $00, $00, $00
9817 EF5B   00     	byte >00,>00,>00,>00
     EF5C 0000     
     EF5E 00       
9818               	; 	DATA BYTE $00, $00, $00, $00
9819 EF5F   00     	byte >00,>00,>00,>00
     EF60 0000     
     EF62 00       
9820               	; 	DATA BYTE $C0, $00, $00, $03
9821 EF63   C0     	byte >c0,>00,>00,>03
     EF64 0000     
     EF66 03       
9822               	; 	DATA BYTE $C0, $00, $00, $03
9823 EF67   C0     	byte >c0,>00,>00,>03
     EF68 0000     
     EF6A 03       
9824               	; 	DATA BYTE $C0, $00, $00, $03
9825 EF6B   C0     	byte >c0,>00,>00,>03
     EF6C 0000     
     EF6E 03       
9826               	; 	DATA BYTE $C0, $00, $00, $03
9827 EF6F   C0     	byte >c0,>00,>00,>03
     EF70 0000     
     EF72 03       
9828               	; 	DATA BYTE $C0, $00, $00, $03
9829 EF73   C0     	byte >c0,>00,>00,>03
     EF74 0000     
     EF76 03       
9830               	; 	DATA BYTE $C0, $00, $00, $03
9831 EF77   C0     	byte >c0,>00,>00,>03
     EF78 0000     
     EF7A 03       
9832               	; 	DATA BYTE $C0, $00, $00, $03
9833 EF7B   C0     	byte >c0,>00,>00,>03
     EF7C 0000     
     EF7E 03       
9834               	; 	DATA BYTE $C0, $00, $00, $03
9835 EF7F   C0     	byte >c0,>00,>00,>03
     EF80 0000     
     EF82 03       
9836               	; 	DATA BYTE $FF, $FC, $3F, $FF
9837 EF83   FF     	byte >ff,>fc,>3f,>ff
     EF84 FC3F     
     EF86 FF       
9838               	; 	DATA BYTE $FF, $FC, $3F, $FF
9839 EF87   FF     	byte >ff,>fc,>3f,>ff
     EF88 FC3F     
     EF8A FF       
9840               	; rd2:	' --- 2 gold castle hall (custom WIN) ---
9841               cvb_RD2
9842               	; 	DATA BYTE $FF, $FF, $FF, $FF
9843 EF8B   FF     	byte >ff,>ff,>ff,>ff
     EF8C FFFF     
     EF8E FF       
9844               	; 	DATA BYTE $FF, $FF, $FF, $FF
9845 EF8F   FF     	byte >ff,>ff,>ff,>ff
     EF90 FFFF     
     EF92 FF       
9846               	; 	DATA BYTE $C0, $00, $00, $03
9847 EF93   C0     	byte >c0,>00,>00,>03
     EF94 0000     
     EF96 03       
9848               	; 	DATA BYTE $C0, $00, $00, $03
9849 EF97   C0     	byte >c0,>00,>00,>03
     EF98 0000     
     EF9A 03       
9850               	; 	DATA BYTE $C0, $00, $00, $03
9851 EF9B   C0     	byte >c0,>00,>00,>03
     EF9C 0000     
     EF9E 03       
9852               	; 	DATA BYTE $C0, $00, $00, $03
9853 EF9F   C0     	byte >c0,>00,>00,>03
     EFA0 0000     
     EFA2 03       
9854               	; 	DATA BYTE $C0, $00, $00, $03
9855 EFA3   C0     	byte >c0,>00,>00,>03
     EFA4 0000     
     EFA6 03       
9856               	; 	DATA BYTE $C0, $00, $00, $03
9857 EFA7   C0     	byte >c0,>00,>00,>03
     EFA8 0000     
     EFAA 03       
9858               	; 	DATA BYTE $C3, $C0, $03, $C3
9859 EFAB   C3     	byte >c3,>c0,>03,>c3
     EFAC C003     
     EFAE C3       
9860               	; 	DATA BYTE $C3, $C0, $03, $C3
9861 EFAF   C3     	byte >c3,>c0,>03,>c3
     EFB0 C003     
     EFB2 C3       
9862               	; 	DATA BYTE $C3, $C0, $03, $C3
9863 EFB3   C3     	byte >c3,>c0,>03,>c3
     EFB4 C003     
     EFB6 C3       
9864               	; 	DATA BYTE $C3, $C0, $03, $C3
9865 EFB7   C3     	byte >c3,>c0,>03,>c3
     EFB8 C003     
     EFBA C3       
9866               	; 	DATA BYTE $C0, $00, $00, $03
9867 EFBB   C0     	byte >c0,>00,>00,>03
     EFBC 0000     
     EFBE 03       
9868               	; 	DATA BYTE $C0, $00, $00, $03
9869 EFBF   C0     	byte >c0,>00,>00,>03
     EFC0 0000     
     EFC2 03       
9870               	; 	DATA BYTE $C0, $00, $00, $03
9871 EFC3   C0     	byte >c0,>00,>00,>03
     EFC4 0000     
     EFC6 03       
9872               	; 	DATA BYTE $C0, $00, $00, $03
9873 EFC7   C0     	byte >c0,>00,>00,>03
     EFC8 0000     
     EFCA 03       
9874               	; 	DATA BYTE $C0, $00, $00, $03
9875 EFCB   C0     	byte >c0,>00,>00,>03
     EFCC 0000     
     EFCE 03       
9876               	; 	DATA BYTE $C0, $00, $00, $03
9877 EFCF   C0     	byte >c0,>00,>00,>03
     EFD0 0000     
     EFD2 03       
9878               	; 	DATA BYTE $C0, $00, $00, $03
9879 EFD3   C0     	byte >c0,>00,>00,>03
     EFD4 0000     
     EFD6 03       
9880               	; 	DATA BYTE $C0, $00, $00, $03
9881 EFD7   C0     	byte >c0,>00,>00,>03
     EFD8 0000     
     EFDA 03       
9882               	; 	DATA BYTE $C0, $00, $00, $03
9883 EFDB   C0     	byte >c0,>00,>00,>03
     EFDC 0000     
     EFDE 03       
9884               	; 	DATA BYTE $C0, $00, $00, $03
9885 EFDF   C0     	byte >c0,>00,>00,>03
     EFE0 0000     
     EFE2 03       
9886               	; 	DATA BYTE $FF, $FC, $3F, $FF
9887 EFE3   FF     	byte >ff,>fc,>3f,>ff
     EFE4 FC3F     
     EFE6 FF       
9888               	; 	DATA BYTE $FF, $FC, $3F, $FF
9889 EFE7   FF     	byte >ff,>fc,>3f,>ff
     EFE8 FC3F     
     EFEA FF       
9890               	; rd3:	' --- 3 red corridor ---
9891               cvb_RD3
9892               	; 	DATA BYTE $FF, $FF, $FF, $FF
9893 EFEB   FF     	byte >ff,>ff,>ff,>ff
     EFEC FFFF     
     EFEE FF       
9894               	; 	DATA BYTE $FF, $FF, $FF, $FF
9895 EFEF   FF     	byte >ff,>ff,>ff,>ff
     EFF0 FFFF     
     EFF2 FF       
9896               	; 	DATA BYTE $C0, $00, $00, $03
9897 EFF3   C0     	byte >c0,>00,>00,>03
     EFF4 0000     
     EFF6 03       
9898               	; 	DATA BYTE $C0, $00, $00, $03
9899 EFF7   C0     	byte >c0,>00,>00,>03
     EFF8 0000     
     EFFA 03       
9900               	; 	DATA BYTE $C0, $00, $00, $03
9901 EFFB   C0     	byte >c0,>00,>00,>03
     EFFC 0000     
     EFFE 03       
9902               	; 	DATA BYTE $C0, $00, $00, $03
9903 EFFF   C0     	byte >c0,>00,>00,>03
     F000 0000     
     F002 03       
9904               	; 	DATA BYTE $C0, $FF, $FF, $03
9905 F003   C0     	byte >c0,>ff,>ff,>03
     F004 FFFF     
     F006 03       
9906               	; 	DATA BYTE $C0, $FF, $FF, $03
9907 F007   C0     	byte >c0,>ff,>ff,>03
     F008 FFFF     
     F00A 03       
9908               	; 	DATA BYTE $C0, $00, $00, $03
9909 F00B   C0     	byte >c0,>00,>00,>03
     F00C 0000     
     F00E 03       
9910               	; 	DATA BYTE $C0, $00, $00, $03
9911 F00F   C0     	byte >c0,>00,>00,>03
     F010 0000     
     F012 03       
9912               	; 	DATA BYTE $00, $00, $00, $00
9913 F013   00     	byte >00,>00,>00,>00
     F014 0000     
     F016 00       
9914               	; 	DATA BYTE $00, $00, $00, $00
9915 F017   00     	byte >00,>00,>00,>00
     F018 0000     
     F01A 00       
9916               	; 	DATA BYTE $00, $00, $00, $00
9917 F01B   00     	byte >00,>00,>00,>00
     F01C 0000     
     F01E 00       
9918               	; 	DATA BYTE $00, $00, $00, $00
9919 F01F   00     	byte >00,>00,>00,>00
     F020 0000     
     F022 00       
9920               	; 	DATA BYTE $C0, $00, $00, $03
9921 F023   C0     	byte >c0,>00,>00,>03
     F024 0000     
     F026 03       
9922               	; 	DATA BYTE $C0, $00, $00, $03
9923 F027   C0     	byte >c0,>00,>00,>03
     F028 0000     
     F02A 03       
9924               	; 	DATA BYTE $C0, $FF, $FF, $03
9925 F02B   C0     	byte >c0,>ff,>ff,>03
     F02C FFFF     
     F02E 03       
9926               	; 	DATA BYTE $C0, $FF, $FF, $03
9927 F02F   C0     	byte >c0,>ff,>ff,>03
     F030 FFFF     
     F032 03       
9928               	; 	DATA BYTE $C0, $00, $00, $03
9929 F033   C0     	byte >c0,>00,>00,>03
     F034 0000     
     F036 03       
9930               	; 	DATA BYTE $C0, $00, $00, $03
9931 F037   C0     	byte >c0,>00,>00,>03
     F038 0000     
     F03A 03       
9932               	; 	DATA BYTE $C0, $00, $00, $03
9933 F03B   C0     	byte >c0,>00,>00,>03
     F03C 0000     
     F03E 03       
9934               	; 	DATA BYTE $C0, $00, $00, $03
9935 F03F   C0     	byte >c0,>00,>00,>03
     F040 0000     
     F042 03       
9936               	; 	DATA BYTE $FF, $FF, $FF, $FF
9937 F043   FF     	byte >ff,>ff,>ff,>ff
     F044 FFFF     
     F046 FF       
9938               	; 	DATA BYTE $FF, $FF, $FF, $FF
9939 F047   FF     	byte >ff,>ff,>ff,>ff
     F048 FFFF     
     F04A FF       
9940               	; rd4:	' --- 4 south meadow ---
9941               cvb_RD4
9942               	; 	DATA BYTE $FF, $FC, $3F, $FF
9943 F04B   FF     	byte >ff,>fc,>3f,>ff
     F04C FC3F     
     F04E FF       
9944               	; 	DATA BYTE $FF, $FC, $3F, $FF
9945 F04F   FF     	byte >ff,>fc,>3f,>ff
     F050 FC3F     
     F052 FF       
9946               	; 	DATA BYTE $C0, $00, $00, $03
9947 F053   C0     	byte >c0,>00,>00,>03
     F054 0000     
     F056 03       
9948               	; 	DATA BYTE $C0, $00, $00, $03
9949 F057   C0     	byte >c0,>00,>00,>03
     F058 0000     
     F05A 03       
9950               	; 	DATA BYTE $C0, $00, $00, $03
9951 F05B   C0     	byte >c0,>00,>00,>03
     F05C 0000     
     F05E 03       
9952               	; 	DATA BYTE $C0, $00, $00, $03
9953 F05F   C0     	byte >c0,>00,>00,>03
     F060 0000     
     F062 03       
9954               	; 	DATA BYTE $C0, $00, $00, $03
9955 F063   C0     	byte >c0,>00,>00,>03
     F064 0000     
     F066 03       
9956               	; 	DATA BYTE $C0, $00, $00, $03
9957 F067   C0     	byte >c0,>00,>00,>03
     F068 0000     
     F06A 03       
9958               	; 	DATA BYTE $C0, $00, $00, $03
9959 F06B   C0     	byte >c0,>00,>00,>03
     F06C 0000     
     F06E 03       
9960               	; 	DATA BYTE $C0, $00, $00, $03
9961 F06F   C0     	byte >c0,>00,>00,>03
     F070 0000     
     F072 03       
9962               	; 	DATA BYTE $C0, $00, $00, $00
9963 F073   C0     	byte >c0,>00,>00,>00
     F074 0000     
     F076 00       
9964               	; 	DATA BYTE $C0, $00, $00, $00
9965 F077   C0     	byte >c0,>00,>00,>00
     F078 0000     
     F07A 00       
9966               	; 	DATA BYTE $C0, $00, $00, $00
9967 F07B   C0     	byte >c0,>00,>00,>00
     F07C 0000     
     F07E 00       
9968               	; 	DATA BYTE $C0, $00, $00, $00
9969 F07F   C0     	byte >c0,>00,>00,>00
     F080 0000     
     F082 00       
9970               	; 	DATA BYTE $C0, $00, $00, $03
9971 F083   C0     	byte >c0,>00,>00,>03
     F084 0000     
     F086 03       
9972               	; 	DATA BYTE $C0, $00, $00, $03
9973 F087   C0     	byte >c0,>00,>00,>03
     F088 0000     
     F08A 03       
9974               	; 	DATA BYTE $C0, $3F, $FC, $03
9975 F08B   C0     	byte >c0,>3f,>fc,>03
     F08C 3FFC     
     F08E 03       
9976               	; 	DATA BYTE $C0, $3F, $FC, $03
9977 F08F   C0     	byte >c0,>3f,>fc,>03
     F090 3FFC     
     F092 03       
9978               	; 	DATA BYTE $C0, $00, $00, $03
9979 F093   C0     	byte >c0,>00,>00,>03
     F094 0000     
     F096 03       
9980               	; 	DATA BYTE $C0, $00, $00, $03
9981 F097   C0     	byte >c0,>00,>00,>03
     F098 0000     
     F09A 03       
9982               	; 	DATA BYTE $C0, $00, $00, $03
9983 F09B   C0     	byte >c0,>00,>00,>03
     F09C 0000     
     F09E 03       
9984               	; 	DATA BYTE $C0, $00, $00, $03
9985 F09F   C0     	byte >c0,>00,>00,>03
     F0A0 0000     
     F0A2 03       
9986               	; 	DATA BYTE $FF, $FF, $FF, $FF
9987 F0A3   FF     	byte >ff,>ff,>ff,>ff
     F0A4 FFFF     
     F0A6 FF       
9988               	; 	DATA BYTE $FF, $FF, $FF, $FF
9989 F0A7   FF     	byte >ff,>ff,>ff,>ff
     F0A8 FFFF     
     F0AA FF       
9990               	; rd5:	' --- 5 blue maze north ---
9991               cvb_RD5
9992               	; 	DATA BYTE $FF, $FF, $FF, $FF
9993 F0AB   FF     	byte >ff,>ff,>ff,>ff
     F0AC FFFF     
     F0AE FF       
9994               	; 	DATA BYTE $FF, $FF, $FF, $FF
9995 F0AF   FF     	byte >ff,>ff,>ff,>ff
     F0B0 FFFF     
     F0B2 FF       
9996               	; 	DATA BYTE $C0, $00, $00, $03
9997 F0B3   C0     	byte >c0,>00,>00,>03
     F0B4 0000     
     F0B6 03       
9998               	; 	DATA BYTE $C0, $00, $00, $03
9999 F0B7   C0     	byte >c0,>00,>00,>03
     F0B8 0000     
     F0BA 03       
10000               	; 	DATA BYTE $CF, $FC, $3F, $F3
10001 F0BB   CF     	byte >cf,>fc,>3f,>f3
     F0BC FC3F     
     F0BE F3       
10002               	; 	DATA BYTE $CF, $FC, $3F, $F3
10003 F0BF   CF     	byte >cf,>fc,>3f,>f3
     F0C0 FC3F     
     F0C2 F3       
10004               	; 	DATA BYTE $C0, $0C, $30, $03
10005 F0C3   C0     	byte >c0,>0c,>30,>03
     F0C4 0C30     
     F0C6 03       
10006               	; 	DATA BYTE $C0, $0C, $30, $03
10007 F0C7   C0     	byte >c0,>0c,>30,>03
     F0C8 0C30     
     F0CA 03       
10008               	; 	DATA BYTE $CF, $0C, $30, $F3
10009 F0CB   CF     	byte >cf,>0c,>30,>f3
     F0CC 0C30     
     F0CE F3       
10010               	; 	DATA BYTE $CF, $0C, $30, $F3
10011 F0CF   CF     	byte >cf,>0c,>30,>f3
     F0D0 0C30     
     F0D2 F3       
10012               	; 	DATA BYTE $00, $0C, $30, $03
10013 F0D3   00     	byte >00,>0c,>30,>03
     F0D4 0C30     
     F0D6 03       
10014               	; 	DATA BYTE $00, $0C, $30, $03
10015 F0D7   00     	byte >00,>0c,>30,>03
     F0D8 0C30     
     F0DA 03       
10016               	; 	DATA BYTE $00, $0C, $30, $03
10017 F0DB   00     	byte >00,>0c,>30,>03
     F0DC 0C30     
     F0DE 03       
10018               	; 	DATA BYTE $00, $0C, $30, $03
10019 F0DF   00     	byte >00,>0c,>30,>03
     F0E0 0C30     
     F0E2 03       
10020               	; 	DATA BYTE $CF, $0C, $30, $F3
10021 F0E3   CF     	byte >cf,>0c,>30,>f3
     F0E4 0C30     
     F0E6 F3       
10022               	; 	DATA BYTE $CF, $0C, $30, $F3
10023 F0E7   CF     	byte >cf,>0c,>30,>f3
     F0E8 0C30     
     F0EA F3       
10024               	; 	DATA BYTE $C0, $0C, $30, $03
10025 F0EB   C0     	byte >c0,>0c,>30,>03
     F0EC 0C30     
     F0EE 03       
10026               	; 	DATA BYTE $C0, $0C, $30, $03
10027 F0EF   C0     	byte >c0,>0c,>30,>03
     F0F0 0C30     
     F0F2 03       
10028               	; 	DATA BYTE $CF, $FC, $3F, $F3
10029 F0F3   CF     	byte >cf,>fc,>3f,>f3
     F0F4 FC3F     
     F0F6 F3       
10030               	; 	DATA BYTE $CF, $FC, $3F, $F3
10031 F0F7   CF     	byte >cf,>fc,>3f,>f3
     F0F8 FC3F     
     F0FA F3       
10032               	; 	DATA BYTE $C0, $00, $00, $03
10033 F0FB   C0     	byte >c0,>00,>00,>03
     F0FC 0000     
     F0FE 03       
10034               	; 	DATA BYTE $C0, $00, $00, $03
10035 F0FF   C0     	byte >c0,>00,>00,>03
     F100 0000     
     F102 03       
10036               	; 	DATA BYTE $FF, $FC, $3F, $FF
10037 F103   FF     	byte >ff,>fc,>3f,>ff
     F104 FC3F     
     F106 FF       
10038               	; 	DATA BYTE $FF, $FC, $3F, $FF
10039 F107   FF     	byte >ff,>fc,>3f,>ff
     F108 FC3F     
     F10A FF       
10040               	; rd6:	' --- 6 purple cave + sealed chamber ---
10041               cvb_RD6
10042               	; 	DATA BYTE $FF, $FF, $FF, $FF
10043 F10B   FF     	byte >ff,>ff,>ff,>ff
     F10C FFFF     
     F10E FF       
10044               	; 	DATA BYTE $FF, $FF, $FF, $FF
10045 F10F   FF     	byte >ff,>ff,>ff,>ff
     F110 FFFF     
     F112 FF       
10046               	; 	DATA BYTE $C0, $00, $0C, $33
10047 F113   C0     	byte >c0,>00,>0c,>33
     F114 000C     
     F116 33       
10048               	; 	DATA BYTE $C0, $00, $0C, $33
10049 F117   C0     	byte >c0,>00,>0c,>33
     F118 000C     
     F11A 33       
10050               	; 	DATA BYTE $C0, $00, $0C, $33
10051 F11B   C0     	byte >c0,>00,>0c,>33
     F11C 000C     
     F11E 33       
10052               	; 	DATA BYTE $C0, $00, $0C, $33
10053 F11F   C0     	byte >c0,>00,>0c,>33
     F120 000C     
     F122 33       
10054               	; 	DATA BYTE $C0, $00, $0F, $F3
10055 F123   C0     	byte >c0,>00,>0f,>f3
     F124 000F     
     F126 F3       
10056               	; 	DATA BYTE $C0, $00, $0F, $F3
10057 F127   C0     	byte >c0,>00,>0f,>f3
     F128 000F     
     F12A F3       
10058               	; 	DATA BYTE $C0, $00, $00, $03
10059 F12B   C0     	byte >c0,>00,>00,>03
     F12C 0000     
     F12E 03       
10060               	; 	DATA BYTE $C0, $00, $00, $03
10061 F12F   C0     	byte >c0,>00,>00,>03
     F130 0000     
     F132 03       
10062               	; 	DATA BYTE $00, $00, $00, $00
10063 F133   00     	byte >00,>00,>00,>00
     F134 0000     
     F136 00       
10064               	; 	DATA BYTE $00, $00, $00, $00
10065 F137   00     	byte >00,>00,>00,>00
     F138 0000     
     F13A 00       
10066               	; 	DATA BYTE $00, $00, $00, $00
10067 F13B   00     	byte >00,>00,>00,>00
     F13C 0000     
     F13E 00       
10068               	; 	DATA BYTE $00, $00, $00, $00
10069 F13F   00     	byte >00,>00,>00,>00
     F140 0000     
     F142 00       
10070               	; 	DATA BYTE $C0, $00, $00, $03
10071 F143   C0     	byte >c0,>00,>00,>03
     F144 0000     
     F146 03       
10072               	; 	DATA BYTE $C0, $00, $00, $03
10073 F147   C0     	byte >c0,>00,>00,>03
     F148 0000     
     F14A 03       
10074               	; 	DATA BYTE $C0, $3F, $FC, $03
10075 F14B   C0     	byte >c0,>3f,>fc,>03
     F14C 3FFC     
     F14E 03       
10076               	; 	DATA BYTE $C0, $3F, $FC, $03
10077 F14F   C0     	byte >c0,>3f,>fc,>03
     F150 3FFC     
     F152 03       
10078               	; 	DATA BYTE $C0, $00, $00, $03
10079 F153   C0     	byte >c0,>00,>00,>03
     F154 0000     
     F156 03       
10080               	; 	DATA BYTE $C0, $00, $00, $03
10081 F157   C0     	byte >c0,>00,>00,>03
     F158 0000     
     F15A 03       
10082               	; 	DATA BYTE $C0, $00, $00, $03
10083 F15B   C0     	byte >c0,>00,>00,>03
     F15C 0000     
     F15E 03       
10084               	; 	DATA BYTE $C0, $00, $00, $03
10085 F15F   C0     	byte >c0,>00,>00,>03
     F160 0000     
     F162 03       
10086               	; 	DATA BYTE $FF, $FF, $FF, $FF
10087 F163   FF     	byte >ff,>ff,>ff,>ff
     F164 FFFF     
     F166 FF       
10088               	; 	DATA BYTE $FF, $FF, $FF, $FF
10089 F167   FF     	byte >ff,>ff,>ff,>ff
     F168 FFFF     
     F16A FF       
10090               	; rd7:	' --- 7 blue maze south ---
10091               cvb_RD7
10092               	; 	DATA BYTE $FF, $FC, $3F, $FF
10093 F16B   FF     	byte >ff,>fc,>3f,>ff
     F16C FC3F     
     F16E FF       
10094               	; 	DATA BYTE $FF, $FC, $3F, $FF
10095 F16F   FF     	byte >ff,>fc,>3f,>ff
     F170 FC3F     
     F172 FF       
10096               	; 	DATA BYTE $C0, $00, $00, $03
10097 F173   C0     	byte >c0,>00,>00,>03
     F174 0000     
     F176 03       
10098               	; 	DATA BYTE $C0, $00, $00, $03
10099 F177   C0     	byte >c0,>00,>00,>03
     F178 0000     
     F17A 03       
10100               	; 	DATA BYTE $C3, $FC, $3F, $C3
10101 F17B   C3     	byte >c3,>fc,>3f,>c3
     F17C FC3F     
     F17E C3       
10102               	; 	DATA BYTE $C3, $FC, $3F, $C3
10103 F17F   C3     	byte >c3,>fc,>3f,>c3
     F180 FC3F     
     F182 C3       
10104               	; 	DATA BYTE $C3, $0C, $30, $C3
10105 F183   C3     	byte >c3,>0c,>30,>c3
     F184 0C30     
     F186 C3       
10106               	; 	DATA BYTE $C3, $0C, $30, $C3
10107 F187   C3     	byte >c3,>0c,>30,>c3
     F188 0C30     
     F18A C3       
10108               	; 	DATA BYTE $C3, $0C, $30, $C3
10109 F18B   C3     	byte >c3,>0c,>30,>c3
     F18C 0C30     
     F18E C3       
10110               	; 	DATA BYTE $C3, $0C, $30, $C3
10111 F18F   C3     	byte >c3,>0c,>30,>c3
     F190 0C30     
     F192 C3       
10112               	; 	DATA BYTE $03, $0C, $30, $C0
10113 F193   03     	byte >03,>0c,>30,>c0
     F194 0C30     
     F196 C0       
10114               	; 	DATA BYTE $03, $0C, $30, $C0
10115 F197   03     	byte >03,>0c,>30,>c0
     F198 0C30     
     F19A C0       
10116               	; 	DATA BYTE $03, $0C, $30, $C0
10117 F19B   03     	byte >03,>0c,>30,>c0
     F19C 0C30     
     F19E C0       
10118               	; 	DATA BYTE $03, $0C, $30, $C0
10119 F19F   03     	byte >03,>0c,>30,>c0
     F1A0 0C30     
     F1A2 C0       
10120               	; 	DATA BYTE $C3, $0C, $30, $C3
10121 F1A3   C3     	byte >c3,>0c,>30,>c3
     F1A4 0C30     
     F1A6 C3       
10122               	; 	DATA BYTE $C3, $0C, $30, $C3
10123 F1A7   C3     	byte >c3,>0c,>30,>c3
     F1A8 0C30     
     F1AA C3       
10124               	; 	DATA BYTE $C3, $0C, $30, $C3
10125 F1AB   C3     	byte >c3,>0c,>30,>c3
     F1AC 0C30     
     F1AE C3       
10126               	; 	DATA BYTE $C3, $0C, $30, $C3
10127 F1AF   C3     	byte >c3,>0c,>30,>c3
     F1B0 0C30     
     F1B2 C3       
10128               	; 	DATA BYTE $C3, $FC, $3F, $C3
10129 F1B3   C3     	byte >c3,>fc,>3f,>c3
     F1B4 FC3F     
     F1B6 C3       
10130               	; 	DATA BYTE $C3, $FC, $3F, $C3
10131 F1B7   C3     	byte >c3,>fc,>3f,>c3
     F1B8 FC3F     
     F1BA C3       
10132               	; 	DATA BYTE $C0, $00, $00, $03
10133 F1BB   C0     	byte >c0,>00,>00,>03
     F1BC 0000     
     F1BE 03       
10134               	; 	DATA BYTE $C0, $00, $00, $03
10135 F1BF   C0     	byte >c0,>00,>00,>03
     F1C0 0000     
     F1C2 03       
10136               	; 	DATA BYTE $FF, $FF, $FF, $FF
10137 F1C3   FF     	byte >ff,>ff,>ff,>ff
     F1C4 FFFF     
     F1C6 FF       
10138               	; 	DATA BYTE $FF, $FF, $FF, $FF
10139 F1C7   FF     	byte >ff,>ff,>ff,>ff
     F1C8 FFFF     
     F1CA FF       
10140               	; rd8:	' --- 8 black castle grounds (custom) ---
10141               cvb_RD8
10142               	; 	DATA BYTE $FF, $FF, $FF, $FF
10143 F1CB   FF     	byte >ff,>ff,>ff,>ff
     F1CC FFFF     
     F1CE FF       
10144               	; 	DATA BYTE $FF, $FF, $FF, $FF
10145 F1CF   FF     	byte >ff,>ff,>ff,>ff
     F1D0 FFFF     
     F1D2 FF       
10146               	; 	DATA BYTE $CF, $00, $00, $F3
10147 F1D3   CF     	byte >cf,>00,>00,>f3
     F1D4 0000     
     F1D6 F3       
10148               	; 	DATA BYTE $CF, $00, $00, $F3
10149 F1D7   CF     	byte >cf,>00,>00,>f3
     F1D8 0000     
     F1DA F3       
10150               	; 	DATA BYTE $FF, $FC, $3F, $FF
10151 F1DB   FF     	byte >ff,>fc,>3f,>ff
     F1DC FC3F     
     F1DE FF       
10152               	; 	DATA BYTE $FF, $FC, $3F, $FF
10153 F1DF   FF     	byte >ff,>fc,>3f,>ff
     F1E0 FC3F     
     F1E2 FF       
10154               	; 	DATA BYTE $FF, $FC, $3F, $FF
10155 F1E3   FF     	byte >ff,>fc,>3f,>ff
     F1E4 FC3F     
     F1E6 FF       
10156               	; 	DATA BYTE $FF, $FC, $3F, $FF
10157 F1E7   FF     	byte >ff,>fc,>3f,>ff
     F1E8 FC3F     
     F1EA FF       
10158               	; 	DATA BYTE $C0, $00, $00, $03
10159 F1EB   C0     	byte >c0,>00,>00,>03
     F1EC 0000     
     F1EE 03       
10160               	; 	DATA BYTE $C0, $00, $00, $03
10161 F1EF   C0     	byte >c0,>00,>00,>03
     F1F0 0000     
     F1F2 03       
10162               	; 	DATA BYTE $00, $00, $00, $03
10163 F1F3   00     	byte >00,>00,>00,>03
     F1F4 0000     
     F1F6 03       
10164               	; 	DATA BYTE $00, $00, $00, $03
10165 F1F7   00     	byte >00,>00,>00,>03
     F1F8 0000     
     F1FA 03       
10166               	; 	DATA BYTE $00, $00, $00, $03
10167 F1FB   00     	byte >00,>00,>00,>03
     F1FC 0000     
     F1FE 03       
10168               	; 	DATA BYTE $00, $00, $00, $03
10169 F1FF   00     	byte >00,>00,>00,>03
     F200 0000     
     F202 03       
10170               	; 	DATA BYTE $C0, $00, $00, $03
10171 F203   C0     	byte >c0,>00,>00,>03
     F204 0000     
     F206 03       
10172               	; 	DATA BYTE $C0, $00, $00, $03
10173 F207   C0     	byte >c0,>00,>00,>03
     F208 0000     
     F20A 03       
10174               	; 	DATA BYTE $C0, $00, $00, $03
10175 F20B   C0     	byte >c0,>00,>00,>03
     F20C 0000     
     F20E 03       
10176               	; 	DATA BYTE $C0, $00, $00, $03
10177 F20F   C0     	byte >c0,>00,>00,>03
     F210 0000     
     F212 03       
10178               	; 	DATA BYTE $C0, $00, $00, $03
10179 F213   C0     	byte >c0,>00,>00,>03
     F214 0000     
     F216 03       
10180               	; 	DATA BYTE $C0, $00, $00, $03
10181 F217   C0     	byte >c0,>00,>00,>03
     F218 0000     
     F21A 03       
10182               	; 	DATA BYTE $C0, $00, $00, $03
10183 F21B   C0     	byte >c0,>00,>00,>03
     F21C 0000     
     F21E 03       
10184               	; 	DATA BYTE $C0, $00, $00, $03
10185 F21F   C0     	byte >c0,>00,>00,>03
     F220 0000     
     F222 03       
10186               	; 	DATA BYTE $FF, $FF, $FF, $FF
10187 F223   FF     	byte >ff,>ff,>ff,>ff
     F224 FFFF     
     F226 FF       
10188               	; 	DATA BYTE $FF, $FF, $FF, $FF
10189 F227   FF     	byte >ff,>ff,>ff,>ff
     F228 FFFF     
     F22A FF       
10190               	; rd9:	' --- 9 black castle hall (custom) ---
10191               cvb_RD9
10192               	; 	DATA BYTE $FF, $FF, $FF, $FF
10193 F22B   FF     	byte >ff,>ff,>ff,>ff
     F22C FFFF     
     F22E FF       
10194               	; 	DATA BYTE $FF, $FF, $FF, $FF
10195 F22F   FF     	byte >ff,>ff,>ff,>ff
     F230 FFFF     
     F232 FF       
10196               	; 	DATA BYTE $C0, $00, $00, $03
10197 F233   C0     	byte >c0,>00,>00,>03
     F234 0000     
     F236 03       
10198               	; 	DATA BYTE $C0, $00, $00, $03
10199 F237   C0     	byte >c0,>00,>00,>03
     F238 0000     
     F23A 03       
10200               	; 	DATA BYTE $C0, $00, $00, $03
10201 F23B   C0     	byte >c0,>00,>00,>03
     F23C 0000     
     F23E 03       
10202               	; 	DATA BYTE $C0, $00, $00, $03
10203 F23F   C0     	byte >c0,>00,>00,>03
     F240 0000     
     F242 03       
10204               	; 	DATA BYTE $C3, $C0, $03, $C3
10205 F243   C3     	byte >c3,>c0,>03,>c3
     F244 C003     
     F246 C3       
10206               	; 	DATA BYTE $C3, $C0, $03, $C3
10207 F247   C3     	byte >c3,>c0,>03,>c3
     F248 C003     
     F24A C3       
10208               	; 	DATA BYTE $C3, $C0, $03, $C3
10209 F24B   C3     	byte >c3,>c0,>03,>c3
     F24C C003     
     F24E C3       
10210               	; 	DATA BYTE $C3, $C0, $03, $C3
10211 F24F   C3     	byte >c3,>c0,>03,>c3
     F250 C003     
     F252 C3       
10212               	; 	DATA BYTE $C0, $00, $00, $00
10213 F253   C0     	byte >c0,>00,>00,>00
     F254 0000     
     F256 00       
10214               	; 	DATA BYTE $C0, $00, $00, $00
10215 F257   C0     	byte >c0,>00,>00,>00
     F258 0000     
     F25A 00       
10216               	; 	DATA BYTE $C0, $00, $00, $00
10217 F25B   C0     	byte >c0,>00,>00,>00
     F25C 0000     
     F25E 00       
10218               	; 	DATA BYTE $C0, $00, $00, $00
10219 F25F   C0     	byte >c0,>00,>00,>00
     F260 0000     
     F262 00       
10220               	; 	DATA BYTE $C0, $00, $00, $03
10221 F263   C0     	byte >c0,>00,>00,>03
     F264 0000     
     F266 03       
10222               	; 	DATA BYTE $C0, $00, $00, $03
10223 F267   C0     	byte >c0,>00,>00,>03
     F268 0000     
     F26A 03       
10224               	; 	DATA BYTE $C0, $00, $00, $03
10225 F26B   C0     	byte >c0,>00,>00,>03
     F26C 0000     
     F26E 03       
10226               	; 	DATA BYTE $C0, $00, $00, $03
10227 F26F   C0     	byte >c0,>00,>00,>03
     F270 0000     
     F272 03       
10228               	; 	DATA BYTE $C0, $00, $00, $03
10229 F273   C0     	byte >c0,>00,>00,>03
     F274 0000     
     F276 03       
10230               	; 	DATA BYTE $C0, $00, $00, $03
10231 F277   C0     	byte >c0,>00,>00,>03
     F278 0000     
     F27A 03       
10232               	; 	DATA BYTE $C0, $00, $00, $03
10233 F27B   C0     	byte >c0,>00,>00,>03
     F27C 0000     
     F27E 03       
10234               	; 	DATA BYTE $C0, $00, $00, $03
10235 F27F   C0     	byte >c0,>00,>00,>03
     F280 0000     
     F282 03       
10236               	; 	DATA BYTE $FF, $FC, $3F, $FF
10237 F283   FF     	byte >ff,>fc,>3f,>ff
     F284 FC3F     
     F286 FF       
10238               	; 	DATA BYTE $FF, $FC, $3F, $FF
10239 F287   FF     	byte >ff,>fc,>3f,>ff
     F288 FC3F     
     F28A FF       
10240               	; rd10:	' --- 10 dungeon (custom) ---
10241               cvb_RD10
10242               	; 	DATA BYTE $FF, $FF, $FF, $FF
10243 F28B   FF     	byte >ff,>ff,>ff,>ff
     F28C FFFF     
     F28E FF       
10244               	; 	DATA BYTE $FF, $FF, $FF, $FF
10245 F28F   FF     	byte >ff,>ff,>ff,>ff
     F290 FFFF     
     F292 FF       
10246               	; 	DATA BYTE $C0, $00, $00, $03
10247 F293   C0     	byte >c0,>00,>00,>03
     F294 0000     
     F296 03       
10248               	; 	DATA BYTE $C0, $00, $00, $03
10249 F297   C0     	byte >c0,>00,>00,>03
     F298 0000     
     F29A 03       
10250               	; 	DATA BYTE $CF, $C0, $03, $F3
10251 F29B   CF     	byte >cf,>c0,>03,>f3
     F29C C003     
     F29E F3       
10252               	; 	DATA BYTE $CF, $C0, $03, $F3
10253 F29F   CF     	byte >cf,>c0,>03,>f3
     F2A0 C003     
     F2A2 F3       
10254               	; 	DATA BYTE $C0, $C0, $03, $03
10255 F2A3   C0     	byte >c0,>c0,>03,>03
     F2A4 C003     
     F2A6 03       
10256               	; 	DATA BYTE $C0, $C0, $03, $03
10257 F2A7   C0     	byte >c0,>c0,>03,>03
     F2A8 C003     
     F2AA 03       
10258               	; 	DATA BYTE $C0, $00, $00, $03
10259 F2AB   C0     	byte >c0,>00,>00,>03
     F2AC 0000     
     F2AE 03       
10260               	; 	DATA BYTE $C0, $00, $00, $03
10261 F2AF   C0     	byte >c0,>00,>00,>03
     F2B0 0000     
     F2B2 03       
10262               	; 	DATA BYTE $00, $00, $00, $03
10263 F2B3   00     	byte >00,>00,>00,>03
     F2B4 0000     
     F2B6 03       
10264               	; 	DATA BYTE $00, $00, $00, $03
10265 F2B7   00     	byte >00,>00,>00,>03
     F2B8 0000     
     F2BA 03       
10266               	; 	DATA BYTE $00, $00, $00, $03
10267 F2BB   00     	byte >00,>00,>00,>03
     F2BC 0000     
     F2BE 03       
10268               	; 	DATA BYTE $00, $00, $00, $03
10269 F2BF   00     	byte >00,>00,>00,>03
     F2C0 0000     
     F2C2 03       
10270               	; 	DATA BYTE $C0, $00, $00, $03
10271 F2C3   C0     	byte >c0,>00,>00,>03
     F2C4 0000     
     F2C6 03       
10272               	; 	DATA BYTE $C0, $00, $00, $03
10273 F2C7   C0     	byte >c0,>00,>00,>03
     F2C8 0000     
     F2CA 03       
10274               	; 	DATA BYTE $C0, $C0, $03, $03
10275 F2CB   C0     	byte >c0,>c0,>03,>03
     F2CC C003     
     F2CE 03       
10276               	; 	DATA BYTE $C0, $C0, $03, $03
10277 F2CF   C0     	byte >c0,>c0,>03,>03
     F2D0 C003     
     F2D2 03       
10278               	; 	DATA BYTE $CF, $C0, $03, $F3
10279 F2D3   CF     	byte >cf,>c0,>03,>f3
     F2D4 C003     
     F2D6 F3       
10280               	; 	DATA BYTE $CF, $C0, $03, $F3
10281 F2D7   CF     	byte >cf,>c0,>03,>f3
     F2D8 C003     
     F2DA F3       
10282               	; 	DATA BYTE $C0, $00, $00, $03
10283 F2DB   C0     	byte >c0,>00,>00,>03
     F2DC 0000     
     F2DE 03       
10284               	; 	DATA BYTE $C0, $00, $00, $03
10285 F2DF   C0     	byte >c0,>00,>00,>03
     F2E0 0000     
     F2E2 03       
10286               	; 	DATA BYTE $FF, $FF, $FF, $FF
10287 F2E3   FF     	byte >ff,>ff,>ff,>ff
     F2E4 FFFF     
     F2E6 FF       
10288               	; 	DATA BYTE $FF, $FF, $FF, $FF
10289 F2E7   FF     	byte >ff,>ff,>ff,>ff
     F2E8 FFFF     
     F2EA FF       
10290               	; rd11:	' --- 11 white castle grounds (custom) ---
10291               cvb_RD11
10292               	; 	DATA BYTE $FF, $FF, $FF, $FF
10293 F2EB   FF     	byte >ff,>ff,>ff,>ff
     F2EC FFFF     
     F2EE FF       
10294               	; 	DATA BYTE $FF, $FF, $FF, $FF
10295 F2EF   FF     	byte >ff,>ff,>ff,>ff
     F2F0 FFFF     
     F2F2 FF       
10296               	; 	DATA BYTE $CF, $00, $00, $F3
10297 F2F3   CF     	byte >cf,>00,>00,>f3
     F2F4 0000     
     F2F6 F3       
10298               	; 	DATA BYTE $CF, $00, $00, $F3
10299 F2F7   CF     	byte >cf,>00,>00,>f3
     F2F8 0000     
     F2FA F3       
10300               	; 	DATA BYTE $FF, $FC, $3F, $FF
10301 F2FB   FF     	byte >ff,>fc,>3f,>ff
     F2FC FC3F     
     F2FE FF       
10302               	; 	DATA BYTE $FF, $FC, $3F, $FF
10303 F2FF   FF     	byte >ff,>fc,>3f,>ff
     F300 FC3F     
     F302 FF       
10304               	; 	DATA BYTE $FF, $FC, $3F, $FF
10305 F303   FF     	byte >ff,>fc,>3f,>ff
     F304 FC3F     
     F306 FF       
10306               	; 	DATA BYTE $FF, $FC, $3F, $FF
10307 F307   FF     	byte >ff,>fc,>3f,>ff
     F308 FC3F     
     F30A FF       
10308               	; 	DATA BYTE $C0, $00, $00, $03
10309 F30B   C0     	byte >c0,>00,>00,>03
     F30C 0000     
     F30E 03       
10310               	; 	DATA BYTE $C0, $00, $00, $03
10311 F30F   C0     	byte >c0,>00,>00,>03
     F310 0000     
     F312 03       
10312               	; 	DATA BYTE $C0, $00, $00, $00
10313 F313   C0     	byte >c0,>00,>00,>00
     F314 0000     
     F316 00       
10314               	; 	DATA BYTE $C0, $00, $00, $00
10315 F317   C0     	byte >c0,>00,>00,>00
     F318 0000     
     F31A 00       
10316               	; 	DATA BYTE $C0, $00, $00, $00
10317 F31B   C0     	byte >c0,>00,>00,>00
     F31C 0000     
     F31E 00       
10318               	; 	DATA BYTE $C0, $00, $00, $00
10319 F31F   C0     	byte >c0,>00,>00,>00
     F320 0000     
     F322 00       
10320               	; 	DATA BYTE $C0, $00, $00, $03
10321 F323   C0     	byte >c0,>00,>00,>03
     F324 0000     
     F326 03       
10322               	; 	DATA BYTE $C0, $00, $00, $03
10323 F327   C0     	byte >c0,>00,>00,>03
     F328 0000     
     F32A 03       
10324               	; 	DATA BYTE $C0, $00, $00, $03
10325 F32B   C0     	byte >c0,>00,>00,>03
     F32C 0000     
     F32E 03       
10326               	; 	DATA BYTE $C0, $00, $00, $03
10327 F32F   C0     	byte >c0,>00,>00,>03
     F330 0000     
     F332 03       
10328               	; 	DATA BYTE $C0, $00, $00, $03
10329 F333   C0     	byte >c0,>00,>00,>03
     F334 0000     
     F336 03       
10330               	; 	DATA BYTE $C0, $00, $00, $03
10331 F337   C0     	byte >c0,>00,>00,>03
     F338 0000     
     F33A 03       
10332               	; 	DATA BYTE $C0, $00, $00, $03
10333 F33B   C0     	byte >c0,>00,>00,>03
     F33C 0000     
     F33E 03       
10334               	; 	DATA BYTE $C0, $00, $00, $03
10335 F33F   C0     	byte >c0,>00,>00,>03
     F340 0000     
     F342 03       
10336               	; 	DATA BYTE $FF, $FF, $FF, $FF
10337 F343   FF     	byte >ff,>ff,>ff,>ff
     F344 FFFF     
     F346 FF       
10338               	; 	DATA BYTE $FF, $FF, $FF, $FF
10339 F347   FF     	byte >ff,>ff,>ff,>ff
     F348 FFFF     
     F34A FF       
10340               	; rd12:	' --- 12 white castle hall (custom) ---
10341               cvb_RD12
10342               	; 	DATA BYTE $FF, $FF, $FF, $FF
10343 F34B   FF     	byte >ff,>ff,>ff,>ff
     F34C FFFF     
     F34E FF       
10344               	; 	DATA BYTE $FF, $FF, $FF, $FF
10345 F34F   FF     	byte >ff,>ff,>ff,>ff
     F350 FFFF     
     F352 FF       
10346               	; 	DATA BYTE $C0, $00, $00, $03
10347 F353   C0     	byte >c0,>00,>00,>03
     F354 0000     
     F356 03       
10348               	; 	DATA BYTE $C0, $00, $00, $03
10349 F357   C0     	byte >c0,>00,>00,>03
     F358 0000     
     F35A 03       
10350               	; 	DATA BYTE $C0, $00, $00, $03
10351 F35B   C0     	byte >c0,>00,>00,>03
     F35C 0000     
     F35E 03       
10352               	; 	DATA BYTE $C0, $00, $00, $03
10353 F35F   C0     	byte >c0,>00,>00,>03
     F360 0000     
     F362 03       
10354               	; 	DATA BYTE $C3, $C0, $03, $C3
10355 F363   C3     	byte >c3,>c0,>03,>c3
     F364 C003     
     F366 C3       
10356               	; 	DATA BYTE $C3, $C0, $03, $C3
10357 F367   C3     	byte >c3,>c0,>03,>c3
     F368 C003     
     F36A C3       
10358               	; 	DATA BYTE $C3, $C0, $03, $C3
10359 F36B   C3     	byte >c3,>c0,>03,>c3
     F36C C003     
     F36E C3       
10360               	; 	DATA BYTE $C3, $C0, $03, $C3
10361 F36F   C3     	byte >c3,>c0,>03,>c3
     F370 C003     
     F372 C3       
10362               	; 	DATA BYTE $C0, $00, $00, $03
10363 F373   C0     	byte >c0,>00,>00,>03
     F374 0000     
     F376 03       
10364               	; 	DATA BYTE $C0, $00, $00, $03
10365 F377   C0     	byte >c0,>00,>00,>03
     F378 0000     
     F37A 03       
10366               	; 	DATA BYTE $C0, $00, $00, $03
10367 F37B   C0     	byte >c0,>00,>00,>03
     F37C 0000     
     F37E 03       
10368               	; 	DATA BYTE $C0, $00, $00, $03
10369 F37F   C0     	byte >c0,>00,>00,>03
     F380 0000     
     F382 03       
10370               	; 	DATA BYTE $C0, $00, $00, $03
10371 F383   C0     	byte >c0,>00,>00,>03
     F384 0000     
     F386 03       
10372               	; 	DATA BYTE $C0, $00, $00, $03
10373 F387   C0     	byte >c0,>00,>00,>03
     F388 0000     
     F38A 03       
10374               	; 	DATA BYTE $C0, $00, $00, $03
10375 F38B   C0     	byte >c0,>00,>00,>03
     F38C 0000     
     F38E 03       
10376               	; 	DATA BYTE $C0, $00, $00, $03
10377 F38F   C0     	byte >c0,>00,>00,>03
     F390 0000     
     F392 03       
10378               	; 	DATA BYTE $C0, $00, $00, $03
10379 F393   C0     	byte >c0,>00,>00,>03
     F394 0000     
     F396 03       
10380               	; 	DATA BYTE $C0, $00, $00, $03
10381 F397   C0     	byte >c0,>00,>00,>03
     F398 0000     
     F39A 03       
10382               	; 	DATA BYTE $C0, $00, $00, $03
10383 F39B   C0     	byte >c0,>00,>00,>03
     F39C 0000     
     F39E 03       
10384               	; 	DATA BYTE $C0, $00, $00, $03
10385 F39F   C0     	byte >c0,>00,>00,>03
     F3A0 0000     
     F3A2 03       
10386               	; 	DATA BYTE $FF, $FC, $3F, $FF
10387 F3A3   FF     	byte >ff,>fc,>3f,>ff
     F3A4 FC3F     
     F3A6 FF       
10388               	; 	DATA BYTE $FF, $FC, $3F, $FF
10389 F3A7   FF     	byte >ff,>fc,>3f,>ff
     F3A8 FC3F     
     F3AA FF       
10390               	; rd13:	' --- 13 gold castle grounds (kingdom): crenellated keep ---
10391               cvb_RD13
10392               	; 	DATA BYTE $FF, $FF, $FF, $FF	' XXXXXXXXXXXXXXXXXXXXXXXXXXXXXXXX
10393 F3AB   FF     	byte >ff,>ff,>ff,>ff
     F3AC FFFF     
     F3AE FF       
10394               	; 	DATA BYTE $80, $00, $00, $01	' X______________________________X
10395 F3AF   80     	byte >80,>00,>00,>01
     F3B0 0000     
     F3B2 01       
10396               	; 	DATA BYTE $9B, $6C, $36, $D9	' X__XX_XX_XX_XX____XX_XX_XX_XX__X
10397 F3B3   9B     	byte >9b,>6c,>36,>d9
     F3B4 6C36     
     F3B6 D9       
10398               	; 	DATA BYTE $9F, $FF, $FF, $F9	' X__XXXXXXXXXXXXXXXXXXXXXXXXXX__X
10399 F3B7   9F     	byte >9f,>ff,>ff,>f9
     F3B8 FFFF     
     F3BA F9       
10400               	; 	DATA BYTE $9F, $FC, $3F, $F9	' X__XXXXXXXXXXX____XXXXXXXXXXX__X
10401 F3BB   9F     	byte >9f,>fc,>3f,>f9
     F3BC FC3F     
     F3BE F9       
10402               	; 	DATA BYTE $9F, $FC, $3F, $F9	' X__XXXXXXXXXXX____XXXXXXXXXXX__X
10403 F3BF   9F     	byte >9f,>fc,>3f,>f9
     F3C0 FC3F     
     F3C2 F9       
10404               	; 	DATA BYTE $9F, $FC, $3F, $F9	' X__XXXXXXXXXXX____XXXXXXXXXXX__X
10405 F3C3   9F     	byte >9f,>fc,>3f,>f9
     F3C4 FC3F     
     F3C6 F9       
10406               	; 	DATA BYTE $9F, $FC, $3F, $F9	' X__XXXXXXXXXXX____XXXXXXXXXXX__X
10407 F3C7   9F     	byte >9f,>fc,>3f,>f9
     F3C8 FC3F     
     F3CA F9       
10408               	; 	DATA BYTE $80, $00, $00, $01	' X______________________________X
10409 F3CB   80     	byte >80,>00,>00,>01
     F3CC 0000     
     F3CE 01       
10410               	; 	DATA BYTE $80, $00, $00, $01	' X______________________________X
10411 F3CF   80     	byte >80,>00,>00,>01
     F3D0 0000     
     F3D2 01       
10412               	; 	DATA BYTE $80, $00, $00, $01	' X______________________________X
10413 F3D3   80     	byte >80,>00,>00,>01
     F3D4 0000     
     F3D6 01       
10414               	; 	DATA BYTE $80, $00, $00, $01	' X______________________________X
10415 F3D7   80     	byte >80,>00,>00,>01
     F3D8 0000     
     F3DA 01       
10416               	; 	DATA BYTE $80, $00, $00, $01	' X______________________________X
10417 F3DB   80     	byte >80,>00,>00,>01
     F3DC 0000     
     F3DE 01       
10418               	; 	DATA BYTE $80, $00, $00, $01	' X______________________________X
10419 F3DF   80     	byte >80,>00,>00,>01
     F3E0 0000     
     F3E2 01       
10420               	; 	DATA BYTE $80, $00, $00, $01	' X______________________________X
10421 F3E3   80     	byte >80,>00,>00,>01
     F3E4 0000     
     F3E6 01       
10422               	; 	DATA BYTE $80, $00, $00, $01	' X______________________________X
10423 F3E7   80     	byte >80,>00,>00,>01
     F3E8 0000     
     F3EA 01       
10424               	; 	DATA BYTE $80, $00, $00, $01	' X______________________________X
10425 F3EB   80     	byte >80,>00,>00,>01
     F3EC 0000     
     F3EE 01       
10426               	; 	DATA BYTE $80, $00, $00, $01	' X______________________________X
10427 F3EF   80     	byte >80,>00,>00,>01
     F3F0 0000     
     F3F2 01       
10428               	; 	DATA BYTE $80, $00, $00, $01	' X______________________________X
10429 F3F3   80     	byte >80,>00,>00,>01
     F3F4 0000     
     F3F6 01       
10430               	; 	DATA BYTE $80, $00, $00, $01	' X______________________________X
10431 F3F7   80     	byte >80,>00,>00,>01
     F3F8 0000     
     F3FA 01       
10432               	; 	DATA BYTE $80, $00, $00, $01	' X______________________________X
10433 F3FB   80     	byte >80,>00,>00,>01
     F3FC 0000     
     F3FE 01       
10434               	; 	DATA BYTE $80, $00, $00, $01	' X______________________________X
10435 F3FF   80     	byte >80,>00,>00,>01
     F400 0000     
     F402 01       
10436               	; 	DATA BYTE $FF, $FC, $3F, $FF	' XXXXXXXXXXXXXX____XXXXXXXXXXXXXX
10437 F403   FF     	byte >ff,>fc,>3f,>ff
     F404 FC3F     
     F406 FF       
10438               	; 	DATA BYTE $FF, $FC, $3F, $FF	' XXXXXXXXXXXXXX____XXXXXXXXXXXXXX
10439 F407   FF     	byte >ff,>fc,>3f,>ff
     F408 FC3F     
     F40A FF       
10440               	; rd14:	' --- 14 gold castle hall (kingdom WIN) ---
10441               cvb_RD14
10442               	; 	DATA BYTE $FF, $FF, $FF, $FF	' XXXXXXXXXXXXXXXXXXXXXXXXXXXXXXXX
10443 F40B   FF     	byte >ff,>ff,>ff,>ff
     F40C FFFF     
     F40E FF       
10444               	; 	DATA BYTE $80, $00, $00, $01	' X______________________________X
10445 F40F   80     	byte >80,>00,>00,>01
     F410 0000     
     F412 01       
10446               	; 	DATA BYTE $80, $00, $00, $01	' X______________________________X
10447 F413   80     	byte >80,>00,>00,>01
     F414 0000     
     F416 01       
10448               	; 	DATA BYTE $80, $00, $00, $01	' X______________________________X
10449 F417   80     	byte >80,>00,>00,>01
     F418 0000     
     F41A 01       
10450               	; 	DATA BYTE $80, $00, $00, $01	' X______________________________X
10451 F41B   80     	byte >80,>00,>00,>01
     F41C 0000     
     F41E 01       
10452               	; 	DATA BYTE $80, $00, $00, $01	' X______________________________X
10453 F41F   80     	byte >80,>00,>00,>01
     F420 0000     
     F422 01       
10454               	; 	DATA BYTE $80, $00, $00, $01	' X______________________________X
10455 F423   80     	byte >80,>00,>00,>01
     F424 0000     
     F426 01       
10456               	; 	DATA BYTE $80, $00, $00, $01	' X______________________________X
10457 F427   80     	byte >80,>00,>00,>01
     F428 0000     
     F42A 01       
10458               	; 	DATA BYTE $83, $C0, $03, $C1	' X_____XXXX____________XXXX_____X
10459 F42B   83     	byte >83,>c0,>03,>c1
     F42C C003     
     F42E C1       
10460               	; 	DATA BYTE $83, $C0, $03, $C1	' X_____XXXX____________XXXX_____X
10461 F42F   83     	byte >83,>c0,>03,>c1
     F430 C003     
     F432 C1       
10462               	; 	DATA BYTE $83, $C0, $03, $C1	' X_____XXXX____________XXXX_____X
10463 F433   83     	byte >83,>c0,>03,>c1
     F434 C003     
     F436 C1       
10464               	; 	DATA BYTE $83, $C0, $03, $C1	' X_____XXXX____________XXXX_____X
10465 F437   83     	byte >83,>c0,>03,>c1
     F438 C003     
     F43A C1       
10466               	; 	DATA BYTE $80, $00, $00, $01	' X______________________________X
10467 F43B   80     	byte >80,>00,>00,>01
     F43C 0000     
     F43E 01       
10468               	; 	DATA BYTE $80, $00, $00, $01	' X______________________________X
10469 F43F   80     	byte >80,>00,>00,>01
     F440 0000     
     F442 01       
10470               	; 	DATA BYTE $80, $00, $00, $01	' X______________________________X
10471 F443   80     	byte >80,>00,>00,>01
     F444 0000     
     F446 01       
10472               	; 	DATA BYTE $80, $00, $00, $01	' X______________________________X
10473 F447   80     	byte >80,>00,>00,>01
     F448 0000     
     F44A 01       
10474               	; 	DATA BYTE $80, $00, $00, $01	' X______________________________X
10475 F44B   80     	byte >80,>00,>00,>01
     F44C 0000     
     F44E 01       
10476               	; 	DATA BYTE $80, $00, $00, $01	' X______________________________X
10477 F44F   80     	byte >80,>00,>00,>01
     F450 0000     
     F452 01       
10478               	; 	DATA BYTE $80, $00, $00, $01	' X______________________________X
10479 F453   80     	byte >80,>00,>00,>01
     F454 0000     
     F456 01       
10480               	; 	DATA BYTE $80, $00, $00, $01	' X______________________________X
10481 F457   80     	byte >80,>00,>00,>01
     F458 0000     
     F45A 01       
10482               	; 	DATA BYTE $80, $00, $00, $01	' X______________________________X
10483 F45B   80     	byte >80,>00,>00,>01
     F45C 0000     
     F45E 01       
10484               	; 	DATA BYTE $80, $00, $00, $01	' X______________________________X
10485 F45F   80     	byte >80,>00,>00,>01
     F460 0000     
     F462 01       
10486               	; 	DATA BYTE $FF, $FC, $3F, $FF	' XXXXXXXXXXXXXX____XXXXXXXXXXXXXX
10487 F463   FF     	byte >ff,>fc,>3f,>ff
     F464 FC3F     
     F466 FF       
10488               	; 	DATA BYTE $FF, $FC, $3F, $FF	' XXXXXXXXXXXXXX____XXXXXXXXXXXXXX
10489 F467   FF     	byte >ff,>fc,>3f,>ff
     F468 FC3F     
     F46A FF       
10490               	; rd15:	' --- 15 corridor west (open E/W) ---
10491               cvb_RD15
10492               	; 	DATA BYTE $FF, $FF, $FF, $FF	' XXXXXXXXXXXXXXXXXXXXXXXXXXXXXXXX
10493 F46B   FF     	byte >ff,>ff,>ff,>ff
     F46C FFFF     
     F46E FF       
10494               	; 	DATA BYTE $FF, $FF, $FF, $FF	' XXXXXXXXXXXXXXXXXXXXXXXXXXXXXXXX
10495 F46F   FF     	byte >ff,>ff,>ff,>ff
     F470 FFFF     
     F472 FF       
10496               	; 	DATA BYTE $FF, $FF, $FF, $FF	' XXXXXXXXXXXXXXXXXXXXXXXXXXXXXXXX
10497 F473   FF     	byte >ff,>ff,>ff,>ff
     F474 FFFF     
     F476 FF       
10498               	; 	DATA BYTE $00, $00, $00, $00	' ________________________________
10499 F477   00     	byte >00,>00,>00,>00
     F478 0000     
     F47A 00       
10500               	; 	DATA BYTE $00, $00, $00, $00	' ________________________________
10501 F47B   00     	byte >00,>00,>00,>00
     F47C 0000     
     F47E 00       
10502               	; 	DATA BYTE $00, $00, $00, $00	' ________________________________
10503 F47F   00     	byte >00,>00,>00,>00
     F480 0000     
     F482 00       
10504               	; 	DATA BYTE $00, $00, $00, $00	' ________________________________
10505 F483   00     	byte >00,>00,>00,>00
     F484 0000     
     F486 00       
10506               	; 	DATA BYTE $00, $00, $00, $00	' ________________________________
10507 F487   00     	byte >00,>00,>00,>00
     F488 0000     
     F48A 00       
10508               	; 	DATA BYTE $00, $00, $00, $00	' ________________________________
10509 F48B   00     	byte >00,>00,>00,>00
     F48C 0000     
     F48E 00       
10510               	; 	DATA BYTE $00, $00, $00, $00	' ________________________________
10511 F48F   00     	byte >00,>00,>00,>00
     F490 0000     
     F492 00       
10512               	; 	DATA BYTE $00, $00, $00, $00	' ________________________________
10513 F493   00     	byte >00,>00,>00,>00
     F494 0000     
     F496 00       
10514               	; 	DATA BYTE $00, $00, $00, $00	' ________________________________
10515 F497   00     	byte >00,>00,>00,>00
     F498 0000     
     F49A 00       
10516               	; 	DATA BYTE $00, $00, $00, $00	' ________________________________
10517 F49B   00     	byte >00,>00,>00,>00
     F49C 0000     
     F49E 00       
10518               	; 	DATA BYTE $00, $00, $00, $00	' ________________________________
10519 F49F   00     	byte >00,>00,>00,>00
     F4A0 0000     
     F4A2 00       
10520               	; 	DATA BYTE $00, $00, $00, $00	' ________________________________
10521 F4A3   00     	byte >00,>00,>00,>00
     F4A4 0000     
     F4A6 00       
10522               	; 	DATA BYTE $00, $00, $00, $00	' ________________________________
10523 F4A7   00     	byte >00,>00,>00,>00
     F4A8 0000     
     F4AA 00       
10524               	; 	DATA BYTE $00, $00, $00, $00	' ________________________________
10525 F4AB   00     	byte >00,>00,>00,>00
     F4AC 0000     
     F4AE 00       
10526               	; 	DATA BYTE $00, $00, $00, $00	' ________________________________
10527 F4AF   00     	byte >00,>00,>00,>00
     F4B0 0000     
     F4B2 00       
10528               	; 	DATA BYTE $00, $00, $00, $00	' ________________________________
10529 F4B3   00     	byte >00,>00,>00,>00
     F4B4 0000     
     F4B6 00       
10530               	; 	DATA BYTE $00, $00, $00, $00	' ________________________________
10531 F4B7   00     	byte >00,>00,>00,>00
     F4B8 0000     
     F4BA 00       
10532               	; 	DATA BYTE $00, $00, $00, $00	' ________________________________
10533 F4BB   00     	byte >00,>00,>00,>00
     F4BC 0000     
     F4BE 00       
10534               	; 	DATA BYTE $FF, $FF, $FF, $FF	' XXXXXXXXXXXXXXXXXXXXXXXXXXXXXXXX
10535 F4BF   FF     	byte >ff,>ff,>ff,>ff
     F4C0 FFFF     
     F4C2 FF       
10536               	; 	DATA BYTE $FF, $FF, $FF, $FF	' XXXXXXXXXXXXXXXXXXXXXXXXXXXXXXXX
10537 F4C3   FF     	byte >ff,>ff,>ff,>ff
     F4C4 FFFF     
     F4C6 FF       
10538               	; 	DATA BYTE $FF, $FF, $FF, $FF	' XXXXXXXXXXXXXXXXXXXXXXXXXXXXXXXX
10539 F4C7   FF     	byte >ff,>ff,>ff,>ff
     F4C8 FFFF     
     F4CA FF       
10540               	; rd16:	' --- 16 corridor mid (N gap to the gold castle) ---
10541               cvb_RD16
10542               	; 	DATA BYTE $FF, $FC, $3F, $FF	' XXXXXXXXXXXXXX____XXXXXXXXXXXXXX
10543 F4CB   FF     	byte >ff,>fc,>3f,>ff
     F4CC FC3F     
     F4CE FF       
10544               	; 	DATA BYTE $FF, $FC, $3F, $FF	' XXXXXXXXXXXXXX____XXXXXXXXXXXXXX
10545 F4CF   FF     	byte >ff,>fc,>3f,>ff
     F4D0 FC3F     
     F4D2 FF       
10546               	; 	DATA BYTE $FF, $FC, $3F, $FF	' XXXXXXXXXXXXXX____XXXXXXXXXXXXXX
10547 F4D3   FF     	byte >ff,>fc,>3f,>ff
     F4D4 FC3F     
     F4D6 FF       
10548               	; 	DATA BYTE $00, $00, $00, $00	' ________________________________
10549 F4D7   00     	byte >00,>00,>00,>00
     F4D8 0000     
     F4DA 00       
10550               	; 	DATA BYTE $00, $00, $00, $00	' ________________________________
10551 F4DB   00     	byte >00,>00,>00,>00
     F4DC 0000     
     F4DE 00       
10552               	; 	DATA BYTE $00, $00, $00, $00	' ________________________________
10553 F4DF   00     	byte >00,>00,>00,>00
     F4E0 0000     
     F4E2 00       
10554               	; 	DATA BYTE $00, $00, $00, $00	' ________________________________
10555 F4E3   00     	byte >00,>00,>00,>00
     F4E4 0000     
     F4E6 00       
10556               	; 	DATA BYTE $00, $00, $00, $00	' ________________________________
10557 F4E7   00     	byte >00,>00,>00,>00
     F4E8 0000     
     F4EA 00       
10558               	; 	DATA BYTE $00, $00, $00, $00	' ________________________________
10559 F4EB   00     	byte >00,>00,>00,>00
     F4EC 0000     
     F4EE 00       
10560               	; 	DATA BYTE $00, $00, $00, $00	' ________________________________
10561 F4EF   00     	byte >00,>00,>00,>00
     F4F0 0000     
     F4F2 00       
10562               	; 	DATA BYTE $00, $00, $00, $00	' ________________________________
10563 F4F3   00     	byte >00,>00,>00,>00
     F4F4 0000     
     F4F6 00       
10564               	; 	DATA BYTE $00, $00, $00, $00	' ________________________________
10565 F4F7   00     	byte >00,>00,>00,>00
     F4F8 0000     
     F4FA 00       
10566               	; 	DATA BYTE $00, $00, $00, $00	' ________________________________
10567 F4FB   00     	byte >00,>00,>00,>00
     F4FC 0000     
     F4FE 00       
10568               	; 	DATA BYTE $00, $00, $00, $00	' ________________________________
10569 F4FF   00     	byte >00,>00,>00,>00
     F500 0000     
     F502 00       
10570               	; 	DATA BYTE $00, $00, $00, $00	' ________________________________
10571 F503   00     	byte >00,>00,>00,>00
     F504 0000     
     F506 00       
10572               	; 	DATA BYTE $00, $00, $00, $00	' ________________________________
10573 F507   00     	byte >00,>00,>00,>00
     F508 0000     
     F50A 00       
10574               	; 	DATA BYTE $00, $00, $00, $00	' ________________________________
10575 F50B   00     	byte >00,>00,>00,>00
     F50C 0000     
     F50E 00       
10576               	; 	DATA BYTE $00, $00, $00, $00	' ________________________________
10577 F50F   00     	byte >00,>00,>00,>00
     F510 0000     
     F512 00       
10578               	; 	DATA BYTE $00, $00, $00, $00	' ________________________________
10579 F513   00     	byte >00,>00,>00,>00
     F514 0000     
     F516 00       
10580               	; 	DATA BYTE $00, $00, $00, $00	' ________________________________
10581 F517   00     	byte >00,>00,>00,>00
     F518 0000     
     F51A 00       
10582               	; 	DATA BYTE $00, $00, $00, $00	' ________________________________
10583 F51B   00     	byte >00,>00,>00,>00
     F51C 0000     
     F51E 00       
10584               	; 	DATA BYTE $FF, $FF, $FF, $FF	' XXXXXXXXXXXXXXXXXXXXXXXXXXXXXXXX
10585 F51F   FF     	byte >ff,>ff,>ff,>ff
     F520 FFFF     
     F522 FF       
10586               	; 	DATA BYTE $FF, $FF, $FF, $FF	' XXXXXXXXXXXXXXXXXXXXXXXXXXXXXXXX
10587 F523   FF     	byte >ff,>ff,>ff,>ff
     F524 FFFF     
     F526 FF       
10588               	; 	DATA BYTE $FF, $FF, $FF, $FF	' XXXXXXXXXXXXXXXXXXXXXXXXXXXXXXXX
10589 F527   FF     	byte >ff,>ff,>ff,>ff
     F528 FFFF     
     F52A FF       
10590               	; rd17:	' --- 17 corridor east (secret wall E, catacombs S) ---
10591               cvb_RD17
10592               	; 	DATA BYTE $FF, $FF, $FF, $FF	' XXXXXXXXXXXXXXXXXXXXXXXXXXXXXXXX
10593 F52B   FF     	byte >ff,>ff,>ff,>ff
     F52C FFFF     
     F52E FF       
10594               	; 	DATA BYTE $FF, $FF, $FF, $FF	' XXXXXXXXXXXXXXXXXXXXXXXXXXXXXXXX
10595 F52F   FF     	byte >ff,>ff,>ff,>ff
     F530 FFFF     
     F532 FF       
10596               	; 	DATA BYTE $FF, $FF, $FF, $FF	' XXXXXXXXXXXXXXXXXXXXXXXXXXXXXXXX
10597 F533   FF     	byte >ff,>ff,>ff,>ff
     F534 FFFF     
     F536 FF       
10598               	; 	DATA BYTE $00, $00, $00, $03	' ______________________________XX
10599 F537   00     	byte >00,>00,>00,>03
     F538 0000     
     F53A 03       
10600               	; 	DATA BYTE $00, $00, $00, $03	' ______________________________XX
10601 F53B   00     	byte >00,>00,>00,>03
     F53C 0000     
     F53E 03       
10602               	; 	DATA BYTE $00, $00, $00, $03	' ______________________________XX
10603 F53F   00     	byte >00,>00,>00,>03
     F540 0000     
     F542 03       
10604               	; 	DATA BYTE $00, $00, $00, $03	' ______________________________XX
10605 F543   00     	byte >00,>00,>00,>03
     F544 0000     
     F546 03       
10606               	; 	DATA BYTE $00, $00, $00, $03	' ______________________________XX
10607 F547   00     	byte >00,>00,>00,>03
     F548 0000     
     F54A 03       
10608               	; 	DATA BYTE $00, $00, $00, $03	' ______________________________XX
10609 F54B   00     	byte >00,>00,>00,>03
     F54C 0000     
     F54E 03       
10610               	; 	DATA BYTE $00, $00, $00, $03	' ______________________________XX
10611 F54F   00     	byte >00,>00,>00,>03
     F550 0000     
     F552 03       
10612               	; 	DATA BYTE $00, $00, $00, $03	' ______________________________XX
10613 F553   00     	byte >00,>00,>00,>03
     F554 0000     
     F556 03       
10614               	; 	DATA BYTE $00, $00, $00, $03	' ______________________________XX
10615 F557   00     	byte >00,>00,>00,>03
     F558 0000     
     F55A 03       
10616               	; 	DATA BYTE $00, $00, $00, $03	' ______________________________XX
10617 F55B   00     	byte >00,>00,>00,>03
     F55C 0000     
     F55E 03       
10618               	; 	DATA BYTE $00, $00, $00, $03	' ______________________________XX
10619 F55F   00     	byte >00,>00,>00,>03
     F560 0000     
     F562 03       
10620               	; 	DATA BYTE $00, $00, $00, $03	' ______________________________XX
10621 F563   00     	byte >00,>00,>00,>03
     F564 0000     
     F566 03       
10622               	; 	DATA BYTE $00, $00, $00, $03	' ______________________________XX
10623 F567   00     	byte >00,>00,>00,>03
     F568 0000     
     F56A 03       
10624               	; 	DATA BYTE $00, $00, $00, $03	' ______________________________XX
10625 F56B   00     	byte >00,>00,>00,>03
     F56C 0000     
     F56E 03       
10626               	; 	DATA BYTE $00, $00, $00, $03	' ______________________________XX
10627 F56F   00     	byte >00,>00,>00,>03
     F570 0000     
     F572 03       
10628               	; 	DATA BYTE $00, $00, $00, $03	' ______________________________XX
10629 F573   00     	byte >00,>00,>00,>03
     F574 0000     
     F576 03       
10630               	; 	DATA BYTE $00, $00, $00, $03	' ______________________________XX
10631 F577   00     	byte >00,>00,>00,>03
     F578 0000     
     F57A 03       
10632               	; 	DATA BYTE $00, $00, $00, $03	' ______________________________XX
10633 F57B   00     	byte >00,>00,>00,>03
     F57C 0000     
     F57E 03       
10634               	; 	DATA BYTE $FF, $FC, $3F, $FF	' XXXXXXXXXXXXXX____XXXXXXXXXXXXXX
10635 F57F   FF     	byte >ff,>fc,>3f,>ff
     F580 FC3F     
     F582 FF       
10636               	; 	DATA BYTE $FF, $FC, $3F, $FF	' XXXXXXXXXXXXXX____XXXXXXXXXXXXXX
10637 F583   FF     	byte >ff,>fc,>3f,>ff
     F584 FC3F     
     F586 FF       
10638               	; 	DATA BYTE $FF, $FC, $3F, $FF	' XXXXXXXXXXXXXX____XXXXXXXXXXXXXX
10639 F587   FF     	byte >ff,>fc,>3f,>ff
     F588 FC3F     
     F58A FF       
10640               	; rd18:	' --- 18 SECRET room ---
10641               cvb_RD18
10642               	; 	DATA BYTE $FF, $FF, $FF, $FF	' XXXXXXXXXXXXXXXXXXXXXXXXXXXXXXXX
10643 F58B   FF     	byte >ff,>ff,>ff,>ff
     F58C FFFF     
     F58E FF       
10644               	; 	DATA BYTE $80, $00, $00, $01	' X______________________________X
10645 F58F   80     	byte >80,>00,>00,>01
     F590 0000     
     F592 01       
10646               	; 	DATA BYTE $80, $00, $00, $01	' X______________________________X
10647 F593   80     	byte >80,>00,>00,>01
     F594 0000     
     F596 01       
10648               	; 	DATA BYTE $80, $00, $00, $01	' X______________________________X
10649 F597   80     	byte >80,>00,>00,>01
     F598 0000     
     F59A 01       
10650               	; 	DATA BYTE $80, $00, $00, $01	' X______________________________X
10651 F59B   80     	byte >80,>00,>00,>01
     F59C 0000     
     F59E 01       
10652               	; 	DATA BYTE $80, $00, $00, $01	' X______________________________X
10653 F59F   80     	byte >80,>00,>00,>01
     F5A0 0000     
     F5A2 01       
10654               	; 	DATA BYTE $80, $00, $00, $01	' X______________________________X
10655 F5A3   80     	byte >80,>00,>00,>01
     F5A4 0000     
     F5A6 01       
10656               	; 	DATA BYTE $80, $00, $00, $01	' X______________________________X
10657 F5A7   80     	byte >80,>00,>00,>01
     F5A8 0000     
     F5AA 01       
10658               	; 	DATA BYTE $80, $00, $00, $01	' X______________________________X
10659 F5AB   80     	byte >80,>00,>00,>01
     F5AC 0000     
     F5AE 01       
10660               	; 	DATA BYTE $80, $00, $00, $01	' X______________________________X
10661 F5AF   80     	byte >80,>00,>00,>01
     F5B0 0000     
     F5B2 01       
10662               	; 	DATA BYTE $00, $00, $00, $01	' _______________________________X
10663 F5B3   00     	byte >00,>00,>00,>01
     F5B4 0000     
     F5B6 01       
10664               	; 	DATA BYTE $00, $00, $00, $01	' _______________________________X
10665 F5B7   00     	byte >00,>00,>00,>01
     F5B8 0000     
     F5BA 01       
10666               	; 	DATA BYTE $00, $00, $00, $01	' _______________________________X
10667 F5BB   00     	byte >00,>00,>00,>01
     F5BC 0000     
     F5BE 01       
10668               	; 	DATA BYTE $00, $00, $00, $01	' _______________________________X
10669 F5BF   00     	byte >00,>00,>00,>01
     F5C0 0000     
     F5C2 01       
10670               	; 	DATA BYTE $80, $00, $00, $01	' X______________________________X
10671 F5C3   80     	byte >80,>00,>00,>01
     F5C4 0000     
     F5C6 01       
10672               	; 	DATA BYTE $80, $00, $00, $01	' X______________________________X
10673 F5C7   80     	byte >80,>00,>00,>01
     F5C8 0000     
     F5CA 01       
10674               	; 	DATA BYTE $80, $00, $00, $01	' X______________________________X
10675 F5CB   80     	byte >80,>00,>00,>01
     F5CC 0000     
     F5CE 01       
10676               	; 	DATA BYTE $80, $00, $00, $01	' X______________________________X
10677 F5CF   80     	byte >80,>00,>00,>01
     F5D0 0000     
     F5D2 01       
10678               	; 	DATA BYTE $80, $00, $00, $01	' X______________________________X
10679 F5D3   80     	byte >80,>00,>00,>01
     F5D4 0000     
     F5D6 01       
10680               	; 	DATA BYTE $80, $00, $00, $01	' X______________________________X
10681 F5D7   80     	byte >80,>00,>00,>01
     F5D8 0000     
     F5DA 01       
10682               	; 	DATA BYTE $80, $00, $00, $01	' X______________________________X
10683 F5DB   80     	byte >80,>00,>00,>01
     F5DC 0000     
     F5DE 01       
10684               	; 	DATA BYTE $80, $00, $00, $01	' X______________________________X
10685 F5DF   80     	byte >80,>00,>00,>01
     F5E0 0000     
     F5E2 01       
10686               	; 	DATA BYTE $FF, $FF, $FF, $FF	' XXXXXXXXXXXXXXXXXXXXXXXXXXXXXXXX
10687 F5E3   FF     	byte >ff,>ff,>ff,>ff
     F5E4 FFFF     
     F5E6 FF       
10688               	; 	DATA BYTE $FF, $FF, $FF, $FF	' XXXXXXXXXXXXXXXXXXXXXXXXXXXXXXXX
10689 F5E7   FF     	byte >ff,>ff,>ff,>ff
     F5E8 FFFF     
     F5EA FF       
10690               	; rd19:	' --- 19 blue maze SE (E to corridor, N, W-hyper) ---
10691               cvb_RD19
10692               	; 	DATA BYTE $FF, $FC, $3F, $FF	' XXXXXXXXXXXXXX____XXXXXXXXXXXXXX
10693 F5EB   FF     	byte >ff,>fc,>3f,>ff
     F5EC FC3F     
     F5EE FF       
10694               	; 	DATA BYTE $80, $00, $00, $01	' X______________________________X
10695 F5EF   80     	byte >80,>00,>00,>01
     F5F0 0000     
     F5F2 01       
10696               	; 	DATA BYTE $80, $00, $00, $01	' X______________________________X
10697 F5F3   80     	byte >80,>00,>00,>01
     F5F4 0000     
     F5F6 01       
10698               	; 	DATA BYTE $CF, $F3, $CF, $F3	' XX__XXXXXXXX__XXXX__XXXXXXXX__XX
10699 F5F7   CF     	byte >cf,>f3,>cf,>f3
     F5F8 F3CF     
     F5FA F3       
10700               	; 	DATA BYTE $80, $00, $00, $01	' X______________________________X
10701 F5FB   80     	byte >80,>00,>00,>01
     F5FC 0000     
     F5FE 01       
10702               	; 	DATA BYTE $80, $00, $00, $01	' X______________________________X
10703 F5FF   80     	byte >80,>00,>00,>01
     F600 0000     
     F602 01       
10704               	; 	DATA BYTE $FC, $FF, $FF, $3F	' XXXXXX__XXXXXXXXXXXXXXXX__XXXXXX
10705 F603   FC     	byte >fc,>ff,>ff,>3f
     F604 FFFF     
     F606 3F       
10706               	; 	DATA BYTE $80, $00, $00, $01	' X______________________________X
10707 F607   80     	byte >80,>00,>00,>01
     F608 0000     
     F60A 01       
10708               	; 	DATA BYTE $80, $00, $00, $01	' X______________________________X
10709 F60B   80     	byte >80,>00,>00,>01
     F60C 0000     
     F60E 01       
10710               	; 	DATA BYTE $FF, $FC, $3F, $FF	' XXXXXXXXXXXXXX____XXXXXXXXXXXXXX
10711 F60F   FF     	byte >ff,>fc,>3f,>ff
     F610 FC3F     
     F612 FF       
10712               	; 	DATA BYTE $00, $00, $00, $00	' ________________________________
10713 F613   00     	byte >00,>00,>00,>00
     F614 0000     
     F616 00       
10714               	; 	DATA BYTE $00, $00, $00, $00	' ________________________________
10715 F617   00     	byte >00,>00,>00,>00
     F618 0000     
     F61A 00       
10716               	; 	DATA BYTE $F3, $FF, $FF, $CF	' XXXX__XXXXXXXXXXXXXXXXXXXX__XXXX
10717 F61B   F3     	byte >f3,>ff,>ff,>cf
     F61C FFFF     
     F61E CF       
10718               	; 	DATA BYTE $80, $80, $01, $01	' X_______X______________X_______X
10719 F61F   80     	byte >80,>80,>01,>01
     F620 8001     
     F622 01       
10720               	; 	DATA BYTE $80, $80, $01, $01	' X_______X______________X_______X
10721 F623   80     	byte >80,>80,>01,>01
     F624 8001     
     F626 01       
10722               	; 	DATA BYTE $80, $00, $00, $01	' X______________________________X
10723 F627   80     	byte >80,>00,>00,>01
     F628 0000     
     F62A 01       
10724               	; 	DATA BYTE $FF, $9F, $F9, $FF	' XXXXXXXXX__XXXXXXXXXX__XXXXXXXXX
10725 F62B   FF     	byte >ff,>9f,>f9,>ff
     F62C 9FF9     
     F62E FF       
10726               	; 	DATA BYTE $80, $00, $00, $01	' X______________________________X
10727 F62F   80     	byte >80,>00,>00,>01
     F630 0000     
     F632 01       
10728               	; 	DATA BYTE $84, $00, $00, $21	' X____X____________________X____X
10729 F633   84     	byte >84,>00,>00,>21
     F634 0000     
     F636 21       
10730               	; 	DATA BYTE $84, $00, $00, $21	' X____X____________________X____X
10731 F637   84     	byte >84,>00,>00,>21
     F638 0000     
     F63A 21       
10732               	; 	DATA BYTE $CF, $F3, $CF, $F3	' XX__XXXXXXXX__XXXX__XXXXXXXX__XX
10733 F63B   CF     	byte >cf,>f3,>cf,>f3
     F63C F3CF     
     F63E F3       
10734               	; 	DATA BYTE $80, $00, $00, $01	' X______________________________X
10735 F63F   80     	byte >80,>00,>00,>01
     F640 0000     
     F642 01       
10736               	; 	DATA BYTE $80, $00, $00, $01	' X______________________________X
10737 F643   80     	byte >80,>00,>00,>01
     F644 0000     
     F646 01       
10738               	; 	DATA BYTE $FF, $FF, $FF, $FF	' XXXXXXXXXXXXXXXXXXXXXXXXXXXXXXXX
10739 F647   FF     	byte >ff,>ff,>ff,>ff
     F648 FFFF     
     F64A FF       
10740               	; rd20:	' --- 20 blue maze mid ---
10741               cvb_RD20
10742               	; 	DATA BYTE $FF, $FC, $3F, $FF	' XXXXXXXXXXXXXX____XXXXXXXXXXXXXX
10743 F64B   FF     	byte >ff,>fc,>3f,>ff
     F64C FC3F     
     F64E FF       
10744               	; 	DATA BYTE $80, $00, $00, $01	' X______________________________X
10745 F64F   80     	byte >80,>00,>00,>01
     F650 0000     
     F652 01       
10746               	; 	DATA BYTE $80, $00, $00, $01	' X______________________________X
10747 F653   80     	byte >80,>00,>00,>01
     F654 0000     
     F656 01       
10748               	; 	DATA BYTE $FF, $FC, $3F, $FF	' XXXXXXXXXXXXXX____XXXXXXXXXXXXXX
10749 F657   FF     	byte >ff,>fc,>3f,>ff
     F658 FC3F     
     F65A FF       
10750               	; 	DATA BYTE $80, $00, $00, $01	' X______________________________X
10751 F65B   80     	byte >80,>00,>00,>01
     F65C 0000     
     F65E 01       
10752               	; 	DATA BYTE $80, $00, $00, $01	' X______________________________X
10753 F65F   80     	byte >80,>00,>00,>01
     F660 0000     
     F662 01       
10754               	; 	DATA BYTE $CF, $9F, $F9, $F3	' XX__XXXXX__XXXXXXXXXX__XXXXX__XX
10755 F663   CF     	byte >cf,>9f,>f9,>f3
     F664 9FF9     
     F666 F3       
10756               	; 	DATA BYTE $80, $10, $08, $01	' X__________X________X__________X
10757 F667   80     	byte >80,>10,>08,>01
     F668 1008     
     F66A 01       
10758               	; 	DATA BYTE $80, $10, $08, $01	' X__________X________X__________X
10759 F66B   80     	byte >80,>10,>08,>01
     F66C 1008     
     F66E 01       
10760               	; 	DATA BYTE $FC, $FF, $FF, $3F	' XXXXXX__XXXXXXXXXXXXXXXX__XXXXXX
10761 F66F   FC     	byte >fc,>ff,>ff,>3f
     F670 FFFF     
     F672 3F       
10762               	; 	DATA BYTE $00, $00, $00, $00	' ________________________________
10763 F673   00     	byte >00,>00,>00,>00
     F674 0000     
     F676 00       
10764               	; 	DATA BYTE $00, $00, $00, $00	' ________________________________
10765 F677   00     	byte >00,>00,>00,>00
     F678 0000     
     F67A 00       
10766               	; 	DATA BYTE $FF, $FC, $3F, $FF	' XXXXXXXXXXXXXX____XXXXXXXXXXXXXX
10767 F67B   FF     	byte >ff,>fc,>3f,>ff
     F67C FC3F     
     F67E FF       
10768               	; 	DATA BYTE $80, $00, $00, $01	' X______________________________X
10769 F67F   80     	byte >80,>00,>00,>01
     F680 0000     
     F682 01       
10770               	; 	DATA BYTE $80, $00, $00, $01	' X______________________________X
10771 F683   80     	byte >80,>00,>00,>01
     F684 0000     
     F686 01       
10772               	; 	DATA BYTE $80, $00, $00, $01	' X______________________________X
10773 F687   80     	byte >80,>00,>00,>01
     F688 0000     
     F68A 01       
10774               	; 	DATA BYTE $CF, $F3, $CF, $F3	' XX__XXXXXXXX__XXXX__XXXXXXXX__XX
10775 F68B   CF     	byte >cf,>f3,>cf,>f3
     F68C F3CF     
     F68E F3       
10776               	; 	DATA BYTE $80, $00, $00, $01	' X______________________________X
10777 F68F   80     	byte >80,>00,>00,>01
     F690 0000     
     F692 01       
10778               	; 	DATA BYTE $80, $00, $00, $01	' X______________________________X
10779 F693   80     	byte >80,>00,>00,>01
     F694 0000     
     F696 01       
10780               	; 	DATA BYTE $80, $00, $00, $01	' X______________________________X
10781 F697   80     	byte >80,>00,>00,>01
     F698 0000     
     F69A 01       
10782               	; 	DATA BYTE $FF, $9F, $F9, $FF	' XXXXXXXXX__XXXXXXXXXX__XXXXXXXXX
10783 F69B   FF     	byte >ff,>9f,>f9,>ff
     F69C 9FF9     
     F69E FF       
10784               	; 	DATA BYTE $80, $00, $00, $01	' X______________________________X
10785 F69F   80     	byte >80,>00,>00,>01
     F6A0 0000     
     F6A2 01       
10786               	; 	DATA BYTE $80, $00, $00, $01	' X______________________________X
10787 F6A3   80     	byte >80,>00,>00,>01
     F6A4 0000     
     F6A6 01       
10788               	; 	DATA BYTE $FF, $FC, $3F, $FF	' XXXXXXXXXXXXXX____XXXXXXXXXXXXXX
10789 F6A7   FF     	byte >ff,>fc,>3f,>ff
     F6A8 FC3F     
     F6AA FF       
10790               	; rd21:	' --- 21 blue maze cross ---
10791               cvb_RD21
10792               	; 	DATA BYTE $FF, $FC, $3F, $FF	' XXXXXXXXXXXXXX____XXXXXXXXXXXXXX
10793 F6AB   FF     	byte >ff,>fc,>3f,>ff
     F6AC FC3F     
     F6AE FF       
10794               	; 	DATA BYTE $80, $00, $00, $01	' X______________________________X
10795 F6AF   80     	byte >80,>00,>00,>01
     F6B0 0000     
     F6B2 01       
10796               	; 	DATA BYTE $80, $00, $00, $01	' X______________________________X
10797 F6B3   80     	byte >80,>00,>00,>01
     F6B4 0000     
     F6B6 01       
10798               	; 	DATA BYTE $CF, $F3, $CF, $F3	' XX__XXXXXXXX__XXXX__XXXXXXXX__XX
10799 F6B7   CF     	byte >cf,>f3,>cf,>f3
     F6B8 F3CF     
     F6BA F3       
10800               	; 	DATA BYTE $80, $00, $00, $01	' X______________________________X
10801 F6BB   80     	byte >80,>00,>00,>01
     F6BC 0000     
     F6BE 01       
10802               	; 	DATA BYTE $80, $00, $00, $01	' X______________________________X
10803 F6BF   80     	byte >80,>00,>00,>01
     F6C0 0000     
     F6C2 01       
10804               	; 	DATA BYTE $FC, $FF, $FF, $3F	' XXXXXX__XXXXXXXXXXXXXXXX__XXXXXX
10805 F6C3   FC     	byte >fc,>ff,>ff,>3f
     F6C4 FFFF     
     F6C6 3F       
10806               	; 	DATA BYTE $80, $00, $00, $01	' X______________________________X
10807 F6C7   80     	byte >80,>00,>00,>01
     F6C8 0000     
     F6CA 01       
10808               	; 	DATA BYTE $80, $00, $00, $01	' X______________________________X
10809 F6CB   80     	byte >80,>00,>00,>01
     F6CC 0000     
     F6CE 01       
10810               	; 	DATA BYTE $FF, $FC, $3F, $FF	' XXXXXXXXXXXXXX____XXXXXXXXXXXXXX
10811 F6CF   FF     	byte >ff,>fc,>3f,>ff
     F6D0 FC3F     
     F6D2 FF       
10812               	; 	DATA BYTE $00, $00, $00, $00	' ________________________________
10813 F6D3   00     	byte >00,>00,>00,>00
     F6D4 0000     
     F6D6 00       
10814               	; 	DATA BYTE $00, $00, $00, $00	' ________________________________
10815 F6D7   00     	byte >00,>00,>00,>00
     F6D8 0000     
     F6DA 00       
10816               	; 	DATA BYTE $F3, $FF, $FF, $CF	' XXXX__XXXXXXXXXXXXXXXXXXXX__XXXX
10817 F6DB   F3     	byte >f3,>ff,>ff,>cf
     F6DC FFFF     
     F6DE CF       
10818               	; 	DATA BYTE $80, $80, $01, $01	' X_______X______________X_______X
10819 F6DF   80     	byte >80,>80,>01,>01
     F6E0 8001     
     F6E2 01       
10820               	; 	DATA BYTE $80, $80, $01, $01	' X_______X______________X_______X
10821 F6E3   80     	byte >80,>80,>01,>01
     F6E4 8001     
     F6E6 01       
10822               	; 	DATA BYTE $80, $00, $00, $01	' X______________________________X
10823 F6E7   80     	byte >80,>00,>00,>01
     F6E8 0000     
     F6EA 01       
10824               	; 	DATA BYTE $FF, $9F, $F9, $FF	' XXXXXXXXX__XXXXXXXXXX__XXXXXXXXX
10825 F6EB   FF     	byte >ff,>9f,>f9,>ff
     F6EC 9FF9     
     F6EE FF       
10826               	; 	DATA BYTE $80, $00, $00, $01	' X______________________________X
10827 F6EF   80     	byte >80,>00,>00,>01
     F6F0 0000     
     F6F2 01       
10828               	; 	DATA BYTE $84, $00, $00, $21	' X____X____________________X____X
10829 F6F3   84     	byte >84,>00,>00,>21
     F6F4 0000     
     F6F6 21       
10830               	; 	DATA BYTE $84, $00, $00, $21	' X____X____________________X____X
10831 F6F7   84     	byte >84,>00,>00,>21
     F6F8 0000     
     F6FA 21       
10832               	; 	DATA BYTE $CF, $F3, $CF, $F3	' XX__XXXXXXXX__XXXX__XXXXXXXX__XX
10833 F6FB   CF     	byte >cf,>f3,>cf,>f3
     F6FC F3CF     
     F6FE F3       
10834               	; 	DATA BYTE $80, $00, $00, $01	' X______________________________X
10835 F6FF   80     	byte >80,>00,>00,>01
     F700 0000     
     F702 01       
10836               	; 	DATA BYTE $80, $00, $00, $01	' X______________________________X
10837 F703   80     	byte >80,>00,>00,>01
     F704 0000     
     F706 01       
10838               	; 	DATA BYTE $FF, $FC, $3F, $FF	' XXXXXXXXXXXXXX____XXXXXXXXXXXXXX
10839 F707   FF     	byte >ff,>fc,>3f,>ff
     F708 FC3F     
     F70A FF       
10840               	; rd22:	' --- 22 blue maze W branch (E only + N/S) ---
10841               cvb_RD22
10842               	; 	DATA BYTE $FF, $FC, $3F, $FF	' XXXXXXXXXXXXXX____XXXXXXXXXXXXXX
10843 F70B   FF     	byte >ff,>fc,>3f,>ff
     F70C FC3F     
     F70E FF       
10844               	; 	DATA BYTE $80, $00, $00, $01	' X______________________________X
10845 F70F   80     	byte >80,>00,>00,>01
     F710 0000     
     F712 01       
10846               	; 	DATA BYTE $80, $00, $00, $01	' X______________________________X
10847 F713   80     	byte >80,>00,>00,>01
     F714 0000     
     F716 01       
10848               	; 	DATA BYTE $FC, $FF, $FF, $3F	' XXXXXX__XXXXXXXXXXXXXXXX__XXXXXX
10849 F717   FC     	byte >fc,>ff,>ff,>3f
     F718 FFFF     
     F71A 3F       
10850               	; 	DATA BYTE $80, $20, $04, $01	' X_________X__________X_________X
10851 F71B   80     	byte >80,>20,>04,>01
     F71C 2004     
     F71E 01       
10852               	; 	DATA BYTE $80, $00, $00, $01	' X______________________________X
10853 F71F   80     	byte >80,>00,>00,>01
     F720 0000     
     F722 01       
10854               	; 	DATA BYTE $FF, $FC, $3F, $FF	' XXXXXXXXXXXXXX____XXXXXXXXXXXXXX
10855 F723   FF     	byte >ff,>fc,>3f,>ff
     F724 FC3F     
     F726 FF       
10856               	; 	DATA BYTE $80, $00, $00, $01	' X______________________________X
10857 F727   80     	byte >80,>00,>00,>01
     F728 0000     
     F72A 01       
10858               	; 	DATA BYTE $80, $00, $00, $01	' X______________________________X
10859 F72B   80     	byte >80,>00,>00,>01
     F72C 0000     
     F72E 01       
10860               	; 	DATA BYTE $CF, $F3, $CF, $F3	' XX__XXXXXXXX__XXXX__XXXXXXXX__XX
10861 F72F   CF     	byte >cf,>f3,>cf,>f3
     F730 F3CF     
     F732 F3       
10862               	; 	DATA BYTE $80, $00, $00, $00	' X_______________________________
10863 F733   80     	byte >80,>00,>00,>00
     F734 0000     
     F736 00       
10864               	; 	DATA BYTE $80, $00, $00, $00	' X_______________________________
10865 F737   80     	byte >80,>00,>00,>00
     F738 0000     
     F73A 00       
10866               	; 	DATA BYTE $FF, $9F, $F9, $FF	' XXXXXXXXX__XXXXXXXXXX__XXXXXXXXX
10867 F73B   FF     	byte >ff,>9f,>f9,>ff
     F73C 9FF9     
     F73E FF       
10868               	; 	DATA BYTE $80, $00, $00, $01	' X______________________________X
10869 F73F   80     	byte >80,>00,>00,>01
     F740 0000     
     F742 01       
10870               	; 	DATA BYTE $80, $00, $00, $01	' X______________________________X
10871 F743   80     	byte >80,>00,>00,>01
     F744 0000     
     F746 01       
10872               	; 	DATA BYTE $80, $00, $00, $01	' X______________________________X
10873 F747   80     	byte >80,>00,>00,>01
     F748 0000     
     F74A 01       
10874               	; 	DATA BYTE $F3, $FC, $3F, $CF	' XXXX__XXXXXXXX____XXXXXXXX__XXXX
10875 F74B   F3     	byte >f3,>fc,>3f,>cf
     F74C FC3F     
     F74E CF       
10876               	; 	DATA BYTE $80, $00, $00, $01	' X______________________________X
10877 F74F   80     	byte >80,>00,>00,>01
     F750 0000     
     F752 01       
10878               	; 	DATA BYTE $80, $00, $00, $01	' X______________________________X
10879 F753   80     	byte >80,>00,>00,>01
     F754 0000     
     F756 01       
10880               	; 	DATA BYTE $80, $00, $00, $01	' X______________________________X
10881 F757   80     	byte >80,>00,>00,>01
     F758 0000     
     F75A 01       
10882               	; 	DATA BYTE $FC, $FF, $FF, $3F	' XXXXXX__XXXXXXXXXXXXXXXX__XXXXXX
10883 F75B   FC     	byte >fc,>ff,>ff,>3f
     F75C FFFF     
     F75E 3F       
10884               	; 	DATA BYTE $80, $00, $00, $01	' X______________________________X
10885 F75F   80     	byte >80,>00,>00,>01
     F760 0000     
     F762 01       
10886               	; 	DATA BYTE $80, $00, $00, $01	' X______________________________X
10887 F763   80     	byte >80,>00,>00,>01
     F764 0000     
     F766 01       
10888               	; 	DATA BYTE $FF, $FC, $3F, $FF	' XXXXXXXXXXXXXX____XXXXXXXXXXXXXX
10889 F767   FF     	byte >ff,>fc,>3f,>ff
     F768 FC3F     
     F76A FF       
10890               	; rd23:	' --- 23 blue maze top (N to the black castle) ---
10891               cvb_RD23
10892               	; 	DATA BYTE $FF, $FC, $3F, $FF	' XXXXXXXXXXXXXX____XXXXXXXXXXXXXX
10893 F76B   FF     	byte >ff,>fc,>3f,>ff
     F76C FC3F     
     F76E FF       
10894               	; 	DATA BYTE $80, $00, $00, $01	' X______________________________X
10895 F76F   80     	byte >80,>00,>00,>01
     F770 0000     
     F772 01       
10896               	; 	DATA BYTE $80, $00, $00, $01	' X______________________________X
10897 F773   80     	byte >80,>00,>00,>01
     F774 0000     
     F776 01       
10898               	; 	DATA BYTE $FC, $FF, $FF, $3F	' XXXXXX__XXXXXXXXXXXXXXXX__XXXXXX
10899 F777   FC     	byte >fc,>ff,>ff,>3f
     F778 FFFF     
     F77A 3F       
10900               	; 	DATA BYTE $80, $20, $04, $01	' X_________X__________X_________X
10901 F77B   80     	byte >80,>20,>04,>01
     F77C 2004     
     F77E 01       
10902               	; 	DATA BYTE $80, $00, $00, $01	' X______________________________X
10903 F77F   80     	byte >80,>00,>00,>01
     F780 0000     
     F782 01       
10904               	; 	DATA BYTE $FF, $FC, $3F, $FF	' XXXXXXXXXXXXXX____XXXXXXXXXXXXXX
10905 F783   FF     	byte >ff,>fc,>3f,>ff
     F784 FC3F     
     F786 FF       
10906               	; 	DATA BYTE $80, $00, $00, $01	' X______________________________X
10907 F787   80     	byte >80,>00,>00,>01
     F788 0000     
     F78A 01       
10908               	; 	DATA BYTE $80, $00, $00, $01	' X______________________________X
10909 F78B   80     	byte >80,>00,>00,>01
     F78C 0000     
     F78E 01       
10910               	; 	DATA BYTE $CF, $F3, $CF, $F3	' XX__XXXXXXXX__XXXX__XXXXXXXX__XX
10911 F78F   CF     	byte >cf,>f3,>cf,>f3
     F790 F3CF     
     F792 F3       
10912               	; 	DATA BYTE $00, $00, $00, $00	' ________________________________
10913 F793   00     	byte >00,>00,>00,>00
     F794 0000     
     F796 00       
10914               	; 	DATA BYTE $00, $00, $00, $00	' ________________________________
10915 F797   00     	byte >00,>00,>00,>00
     F798 0000     
     F79A 00       
10916               	; 	DATA BYTE $FF, $9F, $F9, $FF	' XXXXXXXXX__XXXXXXXXXX__XXXXXXXXX
10917 F79B   FF     	byte >ff,>9f,>f9,>ff
     F79C 9FF9     
     F79E FF       
10918               	; 	DATA BYTE $80, $00, $00, $01	' X______________________________X
10919 F79F   80     	byte >80,>00,>00,>01
     F7A0 0000     
     F7A2 01       
10920               	; 	DATA BYTE $80, $00, $00, $01	' X______________________________X
10921 F7A3   80     	byte >80,>00,>00,>01
     F7A4 0000     
     F7A6 01       
10922               	; 	DATA BYTE $80, $00, $00, $01	' X______________________________X
10923 F7A7   80     	byte >80,>00,>00,>01
     F7A8 0000     
     F7AA 01       
10924               	; 	DATA BYTE $F3, $FC, $3F, $CF	' XXXX__XXXXXXXX____XXXXXXXX__XXXX
10925 F7AB   F3     	byte >f3,>fc,>3f,>cf
     F7AC FC3F     
     F7AE CF       
10926               	; 	DATA BYTE $80, $00, $00, $01	' X______________________________X
10927 F7AF   80     	byte >80,>00,>00,>01
     F7B0 0000     
     F7B2 01       
10928               	; 	DATA BYTE $80, $00, $00, $01	' X______________________________X
10929 F7B3   80     	byte >80,>00,>00,>01
     F7B4 0000     
     F7B6 01       
10930               	; 	DATA BYTE $80, $00, $00, $01	' X______________________________X
10931 F7B7   80     	byte >80,>00,>00,>01
     F7B8 0000     
     F7BA 01       
10932               	; 	DATA BYTE $FC, $FF, $FF, $3F	' XXXXXX__XXXXXXXXXXXXXXXX__XXXXXX
10933 F7BB   FC     	byte >fc,>ff,>ff,>3f
     F7BC FFFF     
     F7BE 3F       
10934               	; 	DATA BYTE $80, $00, $00, $01	' X______________________________X
10935 F7BF   80     	byte >80,>00,>00,>01
     F7C0 0000     
     F7C2 01       
10936               	; 	DATA BYTE $80, $00, $00, $01	' X______________________________X
10937 F7C3   80     	byte >80,>00,>00,>01
     F7C4 0000     
     F7C6 01       
10938               	; 	DATA BYTE $FF, $FC, $3F, $FF	' XXXXXXXXXXXXXX____XXXXXXXXXXXXXX
10939 F7C7   FF     	byte >ff,>fc,>3f,>ff
     F7C8 FC3F     
     F7CA FF       
10940               	; rd24:	' --- 24 BLACK castle grounds (S to the blue maze) ---
10941               cvb_RD24
10942               	; 	DATA BYTE $FF, $FF, $FF, $FF	' XXXXXXXXXXXXXXXXXXXXXXXXXXXXXXXX
10943 F7CB   FF     	byte >ff,>ff,>ff,>ff
     F7CC FFFF     
     F7CE FF       
10944               	; 	DATA BYTE $80, $00, $00, $01	' X______________________________X
10945 F7CF   80     	byte >80,>00,>00,>01
     F7D0 0000     
     F7D2 01       
10946               	; 	DATA BYTE $9B, $6C, $36, $D9	' X__XX_XX_XX_XX____XX_XX_XX_XX__X
10947 F7D3   9B     	byte >9b,>6c,>36,>d9
     F7D4 6C36     
     F7D6 D9       
10948               	; 	DATA BYTE $9F, $FF, $FF, $F9	' X__XXXXXXXXXXXXXXXXXXXXXXXXXX__X
10949 F7D7   9F     	byte >9f,>ff,>ff,>f9
     F7D8 FFFF     
     F7DA F9       
10950               	; 	DATA BYTE $9F, $FC, $3F, $F9	' X__XXXXXXXXXXX____XXXXXXXXXXX__X
10951 F7DB   9F     	byte >9f,>fc,>3f,>f9
     F7DC FC3F     
     F7DE F9       
10952               	; 	DATA BYTE $9F, $FC, $3F, $F9	' X__XXXXXXXXXXX____XXXXXXXXXXX__X
10953 F7DF   9F     	byte >9f,>fc,>3f,>f9
     F7E0 FC3F     
     F7E2 F9       
10954               	; 	DATA BYTE $9F, $FC, $3F, $F9	' X__XXXXXXXXXXX____XXXXXXXXXXX__X
10955 F7E3   9F     	byte >9f,>fc,>3f,>f9
     F7E4 FC3F     
     F7E6 F9       
10956               	; 	DATA BYTE $9F, $FC, $3F, $F9	' X__XXXXXXXXXXX____XXXXXXXXXXX__X
10957 F7E7   9F     	byte >9f,>fc,>3f,>f9
     F7E8 FC3F     
     F7EA F9       
10958               	; 	DATA BYTE $80, $00, $00, $01	' X______________________________X
10959 F7EB   80     	byte >80,>00,>00,>01
     F7EC 0000     
     F7EE 01       
10960               	; 	DATA BYTE $80, $00, $00, $01	' X______________________________X
10961 F7EF   80     	byte >80,>00,>00,>01
     F7F0 0000     
     F7F2 01       
10962               	; 	DATA BYTE $80, $00, $00, $01	' X______________________________X
10963 F7F3   80     	byte >80,>00,>00,>01
     F7F4 0000     
     F7F6 01       
10964               	; 	DATA BYTE $80, $00, $00, $01	' X______________________________X
10965 F7F7   80     	byte >80,>00,>00,>01
     F7F8 0000     
     F7FA 01       
10966               	; 	DATA BYTE $80, $00, $00, $01	' X______________________________X
10967 F7FB   80     	byte >80,>00,>00,>01
     F7FC 0000     
     F7FE 01       
10968               	; 	DATA BYTE $80, $00, $00, $01	' X______________________________X
10969 F7FF   80     	byte >80,>00,>00,>01
     F800 0000     
     F802 01       
10970               	; 	DATA BYTE $80, $00, $00, $01	' X______________________________X
10971 F803   80     	byte >80,>00,>00,>01
     F804 0000     
     F806 01       
10972               	; 	DATA BYTE $80, $00, $00, $01	' X______________________________X
10973 F807   80     	byte >80,>00,>00,>01
     F808 0000     
     F80A 01       
10974               	; 	DATA BYTE $80, $00, $00, $01	' X______________________________X
10975 F80B   80     	byte >80,>00,>00,>01
     F80C 0000     
     F80E 01       
10976               	; 	DATA BYTE $80, $00, $00, $01	' X______________________________X
10977 F80F   80     	byte >80,>00,>00,>01
     F810 0000     
     F812 01       
10978               	; 	DATA BYTE $80, $00, $00, $01	' X______________________________X
10979 F813   80     	byte >80,>00,>00,>01
     F814 0000     
     F816 01       
10980               	; 	DATA BYTE $80, $00, $00, $01	' X______________________________X
10981 F817   80     	byte >80,>00,>00,>01
     F818 0000     
     F81A 01       
10982               	; 	DATA BYTE $80, $00, $00, $01	' X______________________________X
10983 F81B   80     	byte >80,>00,>00,>01
     F81C 0000     
     F81E 01       
10984               	; 	DATA BYTE $80, $00, $00, $01	' X______________________________X
10985 F81F   80     	byte >80,>00,>00,>01
     F820 0000     
     F822 01       
10986               	; 	DATA BYTE $FF, $FC, $3F, $FF	' XXXXXXXXXXXXXX____XXXXXXXXXXXXXX
10987 F823   FF     	byte >ff,>fc,>3f,>ff
     F824 FC3F     
     F826 FF       
10988               	; 	DATA BYTE $FF, $FC, $3F, $FF	' XXXXXXXXXXXXXX____XXXXXXXXXXXXXX
10989 F827   FF     	byte >ff,>fc,>3f,>ff
     F828 FC3F     
     F82A FF       
10990               	; rd25:	' --- 25 black castle hall (E to the dark maze) ---
10991               cvb_RD25
10992               	; 	DATA BYTE $FF, $FF, $FF, $FF	' XXXXXXXXXXXXXXXXXXXXXXXXXXXXXXXX
10993 F82B   FF     	byte >ff,>ff,>ff,>ff
     F82C FFFF     
     F82E FF       
10994               	; 	DATA BYTE $80, $00, $00, $01	' X______________________________X
10995 F82F   80     	byte >80,>00,>00,>01
     F830 0000     
     F832 01       
10996               	; 	DATA BYTE $80, $00, $00, $01	' X______________________________X
10997 F833   80     	byte >80,>00,>00,>01
     F834 0000     
     F836 01       
10998               	; 	DATA BYTE $80, $00, $00, $01	' X______________________________X
10999 F837   80     	byte >80,>00,>00,>01
     F838 0000     
     F83A 01       
11000               	; 	DATA BYTE $80, $00, $00, $01	' X______________________________X
11001 F83B   80     	byte >80,>00,>00,>01
     F83C 0000     
     F83E 01       
11002               	; 	DATA BYTE $80, $00, $00, $01	' X______________________________X
11003 F83F   80     	byte >80,>00,>00,>01
     F840 0000     
     F842 01       
11004               	; 	DATA BYTE $80, $00, $00, $01	' X______________________________X
11005 F843   80     	byte >80,>00,>00,>01
     F844 0000     
     F846 01       
11006               	; 	DATA BYTE $80, $00, $00, $01	' X______________________________X
11007 F847   80     	byte >80,>00,>00,>01
     F848 0000     
     F84A 01       
11008               	; 	DATA BYTE $83, $C0, $03, $C1	' X_____XXXX____________XXXX_____X
11009 F84B   83     	byte >83,>c0,>03,>c1
     F84C C003     
     F84E C1       
11010               	; 	DATA BYTE $83, $C0, $03, $C1	' X_____XXXX____________XXXX_____X
11011 F84F   83     	byte >83,>c0,>03,>c1
     F850 C003     
     F852 C1       
11012               	; 	DATA BYTE $83, $C0, $03, $C0	' X_____XXXX____________XXXX______
11013 F853   83     	byte >83,>c0,>03,>c0
     F854 C003     
     F856 C0       
11014               	; 	DATA BYTE $83, $C0, $03, $C0	' X_____XXXX____________XXXX______
11015 F857   83     	byte >83,>c0,>03,>c0
     F858 C003     
     F85A C0       
11016               	; 	DATA BYTE $80, $00, $00, $00	' X_______________________________
11017 F85B   80     	byte >80,>00,>00,>00
     F85C 0000     
     F85E 00       
11018               	; 	DATA BYTE $80, $00, $00, $00	' X_______________________________
11019 F85F   80     	byte >80,>00,>00,>00
     F860 0000     
     F862 00       
11020               	; 	DATA BYTE $80, $00, $00, $01	' X______________________________X
11021 F863   80     	byte >80,>00,>00,>01
     F864 0000     
     F866 01       
11022               	; 	DATA BYTE $80, $00, $00, $01	' X______________________________X
11023 F867   80     	byte >80,>00,>00,>01
     F868 0000     
     F86A 01       
11024               	; 	DATA BYTE $80, $00, $00, $01	' X______________________________X
11025 F86B   80     	byte >80,>00,>00,>01
     F86C 0000     
     F86E 01       
11026               	; 	DATA BYTE $80, $00, $00, $01	' X______________________________X
11027 F86F   80     	byte >80,>00,>00,>01
     F870 0000     
     F872 01       
11028               	; 	DATA BYTE $80, $00, $00, $01	' X______________________________X
11029 F873   80     	byte >80,>00,>00,>01
     F874 0000     
     F876 01       
11030               	; 	DATA BYTE $80, $00, $00, $01	' X______________________________X
11031 F877   80     	byte >80,>00,>00,>01
     F878 0000     
     F87A 01       
11032               	; 	DATA BYTE $80, $00, $00, $01	' X______________________________X
11033 F87B   80     	byte >80,>00,>00,>01
     F87C 0000     
     F87E 01       
11034               	; 	DATA BYTE $80, $00, $00, $01	' X______________________________X
11035 F87F   80     	byte >80,>00,>00,>01
     F880 0000     
     F882 01       
11036               	; 	DATA BYTE $FF, $FC, $3F, $FF	' XXXXXXXXXXXXXX____XXXXXXXXXXXXXX
11037 F883   FF     	byte >ff,>fc,>3f,>ff
     F884 FC3F     
     F886 FF       
11038               	; 	DATA BYTE $FF, $FC, $3F, $FF	' XXXXXXXXXXXXXX____XXXXXXXXXXXXXX
11039 F887   FF     	byte >ff,>fc,>3f,>ff
     F888 FC3F     
     F88A FF       
11040               	; rd26:	' --- 26 black maze (dark) ---
11041               cvb_RD26
11042               	; 	DATA BYTE $FF, $FC, $3F, $FF	' XXXXXXXXXXXXXX____XXXXXXXXXXXXXX
11043 F88B   FF     	byte >ff,>fc,>3f,>ff
     F88C FC3F     
     F88E FF       
11044               	; 	DATA BYTE $80, $00, $00, $01	' X______________________________X
11045 F88F   80     	byte >80,>00,>00,>01
     F890 0000     
     F892 01       
11046               	; 	DATA BYTE $80, $00, $00, $01	' X______________________________X
11047 F893   80     	byte >80,>00,>00,>01
     F894 0000     
     F896 01       
11048               	; 	DATA BYTE $FF, $FC, $3F, $FF	' XXXXXXXXXXXXXX____XXXXXXXXXXXXXX
11049 F897   FF     	byte >ff,>fc,>3f,>ff
     F898 FC3F     
     F89A FF       
11050               	; 	DATA BYTE $80, $00, $00, $01	' X______________________________X
11051 F89B   80     	byte >80,>00,>00,>01
     F89C 0000     
     F89E 01       
11052               	; 	DATA BYTE $80, $00, $00, $01	' X______________________________X
11053 F89F   80     	byte >80,>00,>00,>01
     F8A0 0000     
     F8A2 01       
11054               	; 	DATA BYTE $CF, $9F, $F9, $F3	' XX__XXXXX__XXXXXXXXXX__XXXXX__XX
11055 F8A3   CF     	byte >cf,>9f,>f9,>f3
     F8A4 9FF9     
     F8A6 F3       
11056               	; 	DATA BYTE $80, $10, $08, $01	' X__________X________X__________X
11057 F8A7   80     	byte >80,>10,>08,>01
     F8A8 1008     
     F8AA 01       
11058               	; 	DATA BYTE $80, $10, $08, $01	' X__________X________X__________X
11059 F8AB   80     	byte >80,>10,>08,>01
     F8AC 1008     
     F8AE 01       
11060               	; 	DATA BYTE $FC, $FF, $FF, $3F	' XXXXXX__XXXXXXXXXXXXXXXX__XXXXXX
11061 F8AF   FC     	byte >fc,>ff,>ff,>3f
     F8B0 FFFF     
     F8B2 3F       
11062               	; 	DATA BYTE $00, $00, $00, $00	' ________________________________
11063 F8B3   00     	byte >00,>00,>00,>00
     F8B4 0000     
     F8B6 00       
11064               	; 	DATA BYTE $00, $00, $00, $00	' ________________________________
11065 F8B7   00     	byte >00,>00,>00,>00
     F8B8 0000     
     F8BA 00       
11066               	; 	DATA BYTE $FF, $FC, $3F, $FF	' XXXXXXXXXXXXXX____XXXXXXXXXXXXXX
11067 F8BB   FF     	byte >ff,>fc,>3f,>ff
     F8BC FC3F     
     F8BE FF       
11068               	; 	DATA BYTE $80, $00, $00, $01	' X______________________________X
11069 F8BF   80     	byte >80,>00,>00,>01
     F8C0 0000     
     F8C2 01       
11070               	; 	DATA BYTE $80, $00, $00, $01	' X______________________________X
11071 F8C3   80     	byte >80,>00,>00,>01
     F8C4 0000     
     F8C6 01       
11072               	; 	DATA BYTE $CF, $F3, $CF, $F3	' XX__XXXXXXXX__XXXX__XXXXXXXX__XX
11073 F8C7   CF     	byte >cf,>f3,>cf,>f3
     F8C8 F3CF     
     F8CA F3       
11074               	; 	DATA BYTE $80, $00, $00, $01	' X______________________________X
11075 F8CB   80     	byte >80,>00,>00,>01
     F8CC 0000     
     F8CE 01       
11076               	; 	DATA BYTE $80, $00, $00, $01	' X______________________________X
11077 F8CF   80     	byte >80,>00,>00,>01
     F8D0 0000     
     F8D2 01       
11078               	; 	DATA BYTE $80, $00, $00, $01	' X______________________________X
11079 F8D3   80     	byte >80,>00,>00,>01
     F8D4 0000     
     F8D6 01       
11080               	; 	DATA BYTE $FF, $9F, $F9, $FF	' XXXXXXXXX__XXXXXXXXXX__XXXXXXXXX
11081 F8D7   FF     	byte >ff,>9f,>f9,>ff
     F8D8 9FF9     
     F8DA FF       
11082               	; 	DATA BYTE $80, $00, $00, $01	' X______________________________X
11083 F8DB   80     	byte >80,>00,>00,>01
     F8DC 0000     
     F8DE 01       
11084               	; 	DATA BYTE $80, $00, $00, $01	' X______________________________X
11085 F8DF   80     	byte >80,>00,>00,>01
     F8E0 0000     
     F8E2 01       
11086               	; 	DATA BYTE $FF, $FF, $FF, $FF	' XXXXXXXXXXXXXXXXXXXXXXXXXXXXXXXX
11087 F8E3   FF     	byte >ff,>ff,>ff,>ff
     F8E4 FFFF     
     F8E6 FF       
11088               	; 	DATA BYTE $FF, $FF, $FF, $FF	' XXXXXXXXXXXXXXXXXXXXXXXXXXXXXXXX
11089 F8E7   FF     	byte >ff,>ff,>ff,>ff
     F8E8 FFFF     
     F8EA FF       
11090               	; rd27:	' --- 27 black maze (dark) ---
11091               cvb_RD27
11092               	; 	DATA BYTE $FF, $FC, $3F, $FF	' XXXXXXXXXXXXXX____XXXXXXXXXXXXXX
11093 F8EB   FF     	byte >ff,>fc,>3f,>ff
     F8EC FC3F     
     F8EE FF       
11094               	; 	DATA BYTE $80, $00, $00, $01	' X______________________________X
11095 F8EF   80     	byte >80,>00,>00,>01
     F8F0 0000     
     F8F2 01       
11096               	; 	DATA BYTE $80, $00, $00, $01	' X______________________________X
11097 F8F3   80     	byte >80,>00,>00,>01
     F8F4 0000     
     F8F6 01       
11098               	; 	DATA BYTE $CF, $F3, $CF, $F3	' XX__XXXXXXXX__XXXX__XXXXXXXX__XX
11099 F8F7   CF     	byte >cf,>f3,>cf,>f3
     F8F8 F3CF     
     F8FA F3       
11100               	; 	DATA BYTE $80, $00, $00, $01	' X______________________________X
11101 F8FB   80     	byte >80,>00,>00,>01
     F8FC 0000     
     F8FE 01       
11102               	; 	DATA BYTE $80, $00, $00, $01	' X______________________________X
11103 F8FF   80     	byte >80,>00,>00,>01
     F900 0000     
     F902 01       
11104               	; 	DATA BYTE $FC, $FF, $FF, $3F	' XXXXXX__XXXXXXXXXXXXXXXX__XXXXXX
11105 F903   FC     	byte >fc,>ff,>ff,>3f
     F904 FFFF     
     F906 3F       
11106               	; 	DATA BYTE $80, $00, $00, $01	' X______________________________X
11107 F907   80     	byte >80,>00,>00,>01
     F908 0000     
     F90A 01       
11108               	; 	DATA BYTE $80, $00, $00, $01	' X______________________________X
11109 F90B   80     	byte >80,>00,>00,>01
     F90C 0000     
     F90E 01       
11110               	; 	DATA BYTE $FF, $FC, $3F, $FF	' XXXXXXXXXXXXXX____XXXXXXXXXXXXXX
11111 F90F   FF     	byte >ff,>fc,>3f,>ff
     F910 FC3F     
     F912 FF       
11112               	; 	DATA BYTE $00, $00, $00, $00	' ________________________________
11113 F913   00     	byte >00,>00,>00,>00
     F914 0000     
     F916 00       
11114               	; 	DATA BYTE $00, $00, $00, $00	' ________________________________
11115 F917   00     	byte >00,>00,>00,>00
     F918 0000     
     F91A 00       
11116               	; 	DATA BYTE $F3, $FF, $FF, $CF	' XXXX__XXXXXXXXXXXXXXXXXXXX__XXXX
11117 F91B   F3     	byte >f3,>ff,>ff,>cf
     F91C FFFF     
     F91E CF       
11118               	; 	DATA BYTE $80, $80, $01, $01	' X_______X______________X_______X
11119 F91F   80     	byte >80,>80,>01,>01
     F920 8001     
     F922 01       
11120               	; 	DATA BYTE $80, $80, $01, $01	' X_______X______________X_______X
11121 F923   80     	byte >80,>80,>01,>01
     F924 8001     
     F926 01       
11122               	; 	DATA BYTE $80, $00, $00, $01	' X______________________________X
11123 F927   80     	byte >80,>00,>00,>01
     F928 0000     
     F92A 01       
11124               	; 	DATA BYTE $FF, $9F, $F9, $FF	' XXXXXXXXX__XXXXXXXXXX__XXXXXXXXX
11125 F92B   FF     	byte >ff,>9f,>f9,>ff
     F92C 9FF9     
     F92E FF       
11126               	; 	DATA BYTE $80, $00, $00, $01	' X______________________________X
11127 F92F   80     	byte >80,>00,>00,>01
     F930 0000     
     F932 01       
11128               	; 	DATA BYTE $84, $00, $00, $21	' X____X____________________X____X
11129 F933   84     	byte >84,>00,>00,>21
     F934 0000     
     F936 21       
11130               	; 	DATA BYTE $84, $00, $00, $21	' X____X____________________X____X
11131 F937   84     	byte >84,>00,>00,>21
     F938 0000     
     F93A 21       
11132               	; 	DATA BYTE $CF, $F3, $CF, $F3	' XX__XXXXXXXX__XXXX__XXXXXXXX__XX
11133 F93B   CF     	byte >cf,>f3,>cf,>f3
     F93C F3CF     
     F93E F3       
11134               	; 	DATA BYTE $80, $00, $00, $01	' X______________________________X
11135 F93F   80     	byte >80,>00,>00,>01
     F940 0000     
     F942 01       
11136               	; 	DATA BYTE $80, $00, $00, $01	' X______________________________X
11137 F943   80     	byte >80,>00,>00,>01
     F944 0000     
     F946 01       
11138               	; 	DATA BYTE $FF, $FC, $3F, $FF	' XXXXXXXXXXXXXX____XXXXXXXXXXXXXX
11139 F947   FF     	byte >ff,>fc,>3f,>ff
     F948 FC3F     
     F94A FF       
11140               	; rd28:	' --- 28 black maze end: sealed dot chamber (dark) ---
11141               cvb_RD28
11142               	; 	DATA BYTE $FF, $FF, $FF, $FF	' XXXXXXXXXXXXXXXXXXXXXXXXXXXXXXXX
11143 F94B   FF     	byte >ff,>ff,>ff,>ff
     F94C FFFF     
     F94E FF       
11144               	; 	DATA BYTE $80, $00, $00, $01	' X______________________________X
11145 F94F   80     	byte >80,>00,>00,>01
     F950 0000     
     F952 01       
11146               	; 	DATA BYTE $80, $00, $0F, $F1	' X___________________XXXXXXXX___X
11147 F953   80     	byte >80,>00,>0f,>f1
     F954 000F     
     F956 F1       
11148               	; 	DATA BYTE $80, $00, $08, $11	' X___________________X______X___X
11149 F957   80     	byte >80,>00,>08,>11
     F958 0008     
     F95A 11       
11150               	; 	DATA BYTE $80, $00, $08, $11	' X___________________X______X___X
11151 F95B   80     	byte >80,>00,>08,>11
     F95C 0008     
     F95E 11       
11152               	; 	DATA BYTE $80, $00, $08, $11	' X___________________X______X___X
11153 F95F   80     	byte >80,>00,>08,>11
     F960 0008     
     F962 11       
11154               	; 	DATA BYTE $80, $00, $08, $11	' X___________________X______X___X
11155 F963   80     	byte >80,>00,>08,>11
     F964 0008     
     F966 11       
11156               	; 	DATA BYTE $80, $00, $0F, $F1	' X___________________XXXXXXXX___X
11157 F967   80     	byte >80,>00,>0f,>f1
     F968 000F     
     F96A F1       
11158               	; 	DATA BYTE $80, $00, $00, $01	' X______________________________X
11159 F96B   80     	byte >80,>00,>00,>01
     F96C 0000     
     F96E 01       
11160               	; 	DATA BYTE $FC, $FF, $FF, $3F	' XXXXXX__XXXXXXXXXXXXXXXX__XXXXXX
11161 F96F   FC     	byte >fc,>ff,>ff,>3f
     F970 FFFF     
     F972 3F       
11162               	; 	DATA BYTE $00, $00, $00, $01	' _______________________________X
11163 F973   00     	byte >00,>00,>00,>01
     F974 0000     
     F976 01       
11164               	; 	DATA BYTE $00, $00, $00, $01	' _______________________________X
11165 F977   00     	byte >00,>00,>00,>01
     F978 0000     
     F97A 01       
11166               	; 	DATA BYTE $F3, $FF, $FF, $CF	' XXXX__XXXXXXXXXXXXXXXXXXXX__XXXX
11167 F97B   F3     	byte >f3,>ff,>ff,>cf
     F97C FFFF     
     F97E CF       
11168               	; 	DATA BYTE $80, $00, $00, $01	' X______________________________X
11169 F97F   80     	byte >80,>00,>00,>01
     F980 0000     
     F982 01       
11170               	; 	DATA BYTE $80, $00, $00, $01	' X______________________________X
11171 F983   80     	byte >80,>00,>00,>01
     F984 0000     
     F986 01       
11172               	; 	DATA BYTE $80, $00, $00, $01	' X______________________________X
11173 F987   80     	byte >80,>00,>00,>01
     F988 0000     
     F98A 01       
11174               	; 	DATA BYTE $FF, $FC, $3F, $FF	' XXXXXXXXXXXXXX____XXXXXXXXXXXXXX
11175 F98B   FF     	byte >ff,>fc,>3f,>ff
     F98C FC3F     
     F98E FF       
11176               	; 	DATA BYTE $80, $00, $00, $01	' X______________________________X
11177 F98F   80     	byte >80,>00,>00,>01
     F990 0000     
     F992 01       
11178               	; 	DATA BYTE $80, $00, $00, $01	' X______________________________X
11179 F993   80     	byte >80,>00,>00,>01
     F994 0000     
     F996 01       
11180               	; 	DATA BYTE $CF, $F3, $CF, $F3	' XX__XXXXXXXX__XXXX__XXXXXXXX__XX
11181 F997   CF     	byte >cf,>f3,>cf,>f3
     F998 F3CF     
     F99A F3       
11182               	; 	DATA BYTE $80, $00, $00, $01	' X______________________________X
11183 F99B   80     	byte >80,>00,>00,>01
     F99C 0000     
     F99E 01       
11184               	; 	DATA BYTE $80, $00, $00, $01	' X______________________________X
11185 F99F   80     	byte >80,>00,>00,>01
     F9A0 0000     
     F9A2 01       
11186               	; 	DATA BYTE $FF, $FC, $3F, $FF	' XXXXXXXXXXXXXX____XXXXXXXXXXXXXX
11187 F9A3   FF     	byte >ff,>fc,>3f,>ff
     F9A4 FC3F     
     F9A6 FF       
11188               	; 	DATA BYTE $FF, $FC, $3F, $FF	' XXXXXXXXXXXXXX____XXXXXXXXXXXXXX
11189 F9A7   FF     	byte >ff,>fc,>3f,>ff
     F9A8 FC3F     
     F9AA FF       
11190               	; rd29:	' --- 29 catacombs (dark) ---
11191               cvb_RD29
11192               	; 	DATA BYTE $FF, $FC, $3F, $FF	' XXXXXXXXXXXXXX____XXXXXXXXXXXXXX
11193 F9AB   FF     	byte >ff,>fc,>3f,>ff
     F9AC FC3F     
     F9AE FF       
11194               	; 	DATA BYTE $80, $00, $00, $01	' X______________________________X
11195 F9AF   80     	byte >80,>00,>00,>01
     F9B0 0000     
     F9B2 01       
11196               	; 	DATA BYTE $80, $00, $00, $01	' X______________________________X
11197 F9B3   80     	byte >80,>00,>00,>01
     F9B4 0000     
     F9B6 01       
11198               	; 	DATA BYTE $FC, $FF, $FF, $3F	' XXXXXX__XXXXXXXXXXXXXXXX__XXXXXX
11199 F9B7   FC     	byte >fc,>ff,>ff,>3f
     F9B8 FFFF     
     F9BA 3F       
11200               	; 	DATA BYTE $80, $20, $04, $01	' X_________X__________X_________X
11201 F9BB   80     	byte >80,>20,>04,>01
     F9BC 2004     
     F9BE 01       
11202               	; 	DATA BYTE $80, $00, $00, $01	' X______________________________X
11203 F9BF   80     	byte >80,>00,>00,>01
     F9C0 0000     
     F9C2 01       
11204               	; 	DATA BYTE $FF, $FC, $3F, $FF	' XXXXXXXXXXXXXX____XXXXXXXXXXXXXX
11205 F9C3   FF     	byte >ff,>fc,>3f,>ff
     F9C4 FC3F     
     F9C6 FF       
11206               	; 	DATA BYTE $80, $00, $00, $01	' X______________________________X
11207 F9C7   80     	byte >80,>00,>00,>01
     F9C8 0000     
     F9CA 01       
11208               	; 	DATA BYTE $80, $00, $00, $01	' X______________________________X
11209 F9CB   80     	byte >80,>00,>00,>01
     F9CC 0000     
     F9CE 01       
11210               	; 	DATA BYTE $CF, $F3, $CF, $F3	' XX__XXXXXXXX__XXXX__XXXXXXXX__XX
11211 F9CF   CF     	byte >cf,>f3,>cf,>f3
     F9D0 F3CF     
     F9D2 F3       
11212               	; 	DATA BYTE $00, $00, $00, $00	' ________________________________
11213 F9D3   00     	byte >00,>00,>00,>00
     F9D4 0000     
     F9D6 00       
11214               	; 	DATA BYTE $00, $00, $00, $00	' ________________________________
11215 F9D7   00     	byte >00,>00,>00,>00
     F9D8 0000     
     F9DA 00       
11216               	; 	DATA BYTE $FF, $9F, $F9, $FF	' XXXXXXXXX__XXXXXXXXXX__XXXXXXXXX
11217 F9DB   FF     	byte >ff,>9f,>f9,>ff
     F9DC 9FF9     
     F9DE FF       
11218               	; 	DATA BYTE $80, $00, $00, $01	' X______________________________X
11219 F9DF   80     	byte >80,>00,>00,>01
     F9E0 0000     
     F9E2 01       
11220               	; 	DATA BYTE $80, $00, $00, $01	' X______________________________X
11221 F9E3   80     	byte >80,>00,>00,>01
     F9E4 0000     
     F9E6 01       
11222               	; 	DATA BYTE $80, $00, $00, $01	' X______________________________X
11223 F9E7   80     	byte >80,>00,>00,>01
     F9E8 0000     
     F9EA 01       
11224               	; 	DATA BYTE $F3, $FC, $3F, $CF	' XXXX__XXXXXXXX____XXXXXXXX__XXXX
11225 F9EB   F3     	byte >f3,>fc,>3f,>cf
     F9EC FC3F     
     F9EE CF       
11226               	; 	DATA BYTE $80, $00, $00, $01	' X______________________________X
11227 F9EF   80     	byte >80,>00,>00,>01
     F9F0 0000     
     F9F2 01       
11228               	; 	DATA BYTE $80, $00, $00, $01	' X______________________________X
11229 F9F3   80     	byte >80,>00,>00,>01
     F9F4 0000     
     F9F6 01       
11230               	; 	DATA BYTE $80, $00, $00, $01	' X______________________________X
11231 F9F7   80     	byte >80,>00,>00,>01
     F9F8 0000     
     F9FA 01       
11232               	; 	DATA BYTE $FC, $FF, $FF, $3F	' XXXXXX__XXXXXXXXXXXXXXXX__XXXXXX
11233 F9FB   FC     	byte >fc,>ff,>ff,>3f
     F9FC FFFF     
     F9FE 3F       
11234               	; 	DATA BYTE $80, $00, $00, $01	' X______________________________X
11235 F9FF   80     	byte >80,>00,>00,>01
     FA00 0000     
     FA02 01       
11236               	; 	DATA BYTE $80, $00, $00, $01	' X______________________________X
11237 FA03   80     	byte >80,>00,>00,>01
     FA04 0000     
     FA06 01       
11238               	; 	DATA BYTE $FF, $FC, $3F, $FF	' XXXXXXXXXXXXXX____XXXXXXXXXXXXXX
11239 FA07   FF     	byte >ff,>fc,>3f,>ff
     FA08 FC3F     
     FA0A FF       
11240               	; rd30:	' --- 30 catacombs (dark) ---
11241               cvb_RD30
11242               	; 	DATA BYTE $FF, $FC, $3F, $FF	' XXXXXXXXXXXXXX____XXXXXXXXXXXXXX
11243 FA0B   FF     	byte >ff,>fc,>3f,>ff
     FA0C FC3F     
     FA0E FF       
11244               	; 	DATA BYTE $80, $00, $00, $01	' X______________________________X
11245 FA0F   80     	byte >80,>00,>00,>01
     FA10 0000     
     FA12 01       
11246               	; 	DATA BYTE $80, $00, $00, $01	' X______________________________X
11247 FA13   80     	byte >80,>00,>00,>01
     FA14 0000     
     FA16 01       
11248               	; 	DATA BYTE $FF, $FC, $3F, $FF	' XXXXXXXXXXXXXX____XXXXXXXXXXXXXX
11249 FA17   FF     	byte >ff,>fc,>3f,>ff
     FA18 FC3F     
     FA1A FF       
11250               	; 	DATA BYTE $80, $00, $00, $01	' X______________________________X
11251 FA1B   80     	byte >80,>00,>00,>01
     FA1C 0000     
     FA1E 01       
11252               	; 	DATA BYTE $80, $00, $00, $01	' X______________________________X
11253 FA1F   80     	byte >80,>00,>00,>01
     FA20 0000     
     FA22 01       
11254               	; 	DATA BYTE $CF, $9F, $F9, $F3	' XX__XXXXX__XXXXXXXXXX__XXXXX__XX
11255 FA23   CF     	byte >cf,>9f,>f9,>f3
     FA24 9FF9     
     FA26 F3       
11256               	; 	DATA BYTE $80, $10, $08, $01	' X__________X________X__________X
11257 FA27   80     	byte >80,>10,>08,>01
     FA28 1008     
     FA2A 01       
11258               	; 	DATA BYTE $80, $10, $08, $01	' X__________X________X__________X
11259 FA2B   80     	byte >80,>10,>08,>01
     FA2C 1008     
     FA2E 01       
11260               	; 	DATA BYTE $FC, $FF, $FF, $3F	' XXXXXX__XXXXXXXXXXXXXXXX__XXXXXX
11261 FA2F   FC     	byte >fc,>ff,>ff,>3f
     FA30 FFFF     
     FA32 3F       
11262               	; 	DATA BYTE $00, $00, $00, $00	' ________________________________
11263 FA33   00     	byte >00,>00,>00,>00
     FA34 0000     
     FA36 00       
11264               	; 	DATA BYTE $00, $00, $00, $00	' ________________________________
11265 FA37   00     	byte >00,>00,>00,>00
     FA38 0000     
     FA3A 00       
11266               	; 	DATA BYTE $FF, $FC, $3F, $FF	' XXXXXXXXXXXXXX____XXXXXXXXXXXXXX
11267 FA3B   FF     	byte >ff,>fc,>3f,>ff
     FA3C FC3F     
     FA3E FF       
11268               	; 	DATA BYTE $80, $00, $00, $01	' X______________________________X
11269 FA3F   80     	byte >80,>00,>00,>01
     FA40 0000     
     FA42 01       
11270               	; 	DATA BYTE $80, $00, $00, $01	' X______________________________X
11271 FA43   80     	byte >80,>00,>00,>01
     FA44 0000     
     FA46 01       
11272               	; 	DATA BYTE $80, $00, $00, $01	' X______________________________X
11273 FA47   80     	byte >80,>00,>00,>01
     FA48 0000     
     FA4A 01       
11274               	; 	DATA BYTE $CF, $F3, $CF, $F3	' XX__XXXXXXXX__XXXX__XXXXXXXX__XX
11275 FA4B   CF     	byte >cf,>f3,>cf,>f3
     FA4C F3CF     
     FA4E F3       
11276               	; 	DATA BYTE $80, $00, $00, $01	' X______________________________X
11277 FA4F   80     	byte >80,>00,>00,>01
     FA50 0000     
     FA52 01       
11278               	; 	DATA BYTE $80, $00, $00, $01	' X______________________________X
11279 FA53   80     	byte >80,>00,>00,>01
     FA54 0000     
     FA56 01       
11280               	; 	DATA BYTE $80, $00, $00, $01	' X______________________________X
11281 FA57   80     	byte >80,>00,>00,>01
     FA58 0000     
     FA5A 01       
11282               	; 	DATA BYTE $FF, $9F, $F9, $FF	' XXXXXXXXX__XXXXXXXXXX__XXXXXXXXX
11283 FA5B   FF     	byte >ff,>9f,>f9,>ff
     FA5C 9FF9     
     FA5E FF       
11284               	; 	DATA BYTE $80, $00, $00, $01	' X______________________________X
11285 FA5F   80     	byte >80,>00,>00,>01
     FA60 0000     
     FA62 01       
11286               	; 	DATA BYTE $80, $00, $00, $01	' X______________________________X
11287 FA63   80     	byte >80,>00,>00,>01
     FA64 0000     
     FA66 01       
11288               	; 	DATA BYTE $FF, $FC, $3F, $FF	' XXXXXXXXXXXXXX____XXXXXXXXXXXXXX
11289 FA67   FF     	byte >ff,>fc,>3f,>ff
     FA68 FC3F     
     FA6A FF       
11290               	; rd31:	' --- 31 catacombs south (dark; W white castle, E side rooms) ---
11291               cvb_RD31
11292               	; 	DATA BYTE $FF, $FC, $3F, $FF	' XXXXXXXXXXXXXX____XXXXXXXXXXXXXX
11293 FA6B   FF     	byte >ff,>fc,>3f,>ff
     FA6C FC3F     
     FA6E FF       
11294               	; 	DATA BYTE $80, $00, $00, $01	' X______________________________X
11295 FA6F   80     	byte >80,>00,>00,>01
     FA70 0000     
     FA72 01       
11296               	; 	DATA BYTE $80, $00, $00, $01	' X______________________________X
11297 FA73   80     	byte >80,>00,>00,>01
     FA74 0000     
     FA76 01       
11298               	; 	DATA BYTE $CF, $F3, $CF, $F3	' XX__XXXXXXXX__XXXX__XXXXXXXX__XX
11299 FA77   CF     	byte >cf,>f3,>cf,>f3
     FA78 F3CF     
     FA7A F3       
11300               	; 	DATA BYTE $80, $00, $00, $01	' X______________________________X
11301 FA7B   80     	byte >80,>00,>00,>01
     FA7C 0000     
     FA7E 01       
11302               	; 	DATA BYTE $80, $00, $00, $01	' X______________________________X
11303 FA7F   80     	byte >80,>00,>00,>01
     FA80 0000     
     FA82 01       
11304               	; 	DATA BYTE $FC, $FF, $FF, $3F	' XXXXXX__XXXXXXXXXXXXXXXX__XXXXXX
11305 FA83   FC     	byte >fc,>ff,>ff,>3f
     FA84 FFFF     
     FA86 3F       
11306               	; 	DATA BYTE $80, $00, $00, $01	' X______________________________X
11307 FA87   80     	byte >80,>00,>00,>01
     FA88 0000     
     FA8A 01       
11308               	; 	DATA BYTE $80, $00, $00, $01	' X______________________________X
11309 FA8B   80     	byte >80,>00,>00,>01
     FA8C 0000     
     FA8E 01       
11310               	; 	DATA BYTE $FF, $FC, $3F, $FF	' XXXXXXXXXXXXXX____XXXXXXXXXXXXXX
11311 FA8F   FF     	byte >ff,>fc,>3f,>ff
     FA90 FC3F     
     FA92 FF       
11312               	; 	DATA BYTE $00, $00, $00, $00	' ________________________________
11313 FA93   00     	byte >00,>00,>00,>00
     FA94 0000     
     FA96 00       
11314               	; 	DATA BYTE $00, $00, $00, $00	' ________________________________
11315 FA97   00     	byte >00,>00,>00,>00
     FA98 0000     
     FA9A 00       
11316               	; 	DATA BYTE $F3, $FF, $FF, $CF	' XXXX__XXXXXXXXXXXXXXXXXXXX__XXXX
11317 FA9B   F3     	byte >f3,>ff,>ff,>cf
     FA9C FFFF     
     FA9E CF       
11318               	; 	DATA BYTE $80, $80, $01, $01	' X_______X______________X_______X
11319 FA9F   80     	byte >80,>80,>01,>01
     FAA0 8001     
     FAA2 01       
11320               	; 	DATA BYTE $80, $80, $01, $01	' X_______X______________X_______X
11321 FAA3   80     	byte >80,>80,>01,>01
     FAA4 8001     
     FAA6 01       
11322               	; 	DATA BYTE $80, $00, $00, $01	' X______________________________X
11323 FAA7   80     	byte >80,>00,>00,>01
     FAA8 0000     
     FAAA 01       
11324               	; 	DATA BYTE $FF, $9F, $F9, $FF	' XXXXXXXXX__XXXXXXXXXX__XXXXXXXXX
11325 FAAB   FF     	byte >ff,>9f,>f9,>ff
     FAAC 9FF9     
     FAAE FF       
11326               	; 	DATA BYTE $80, $00, $00, $01	' X______________________________X
11327 FAAF   80     	byte >80,>00,>00,>01
     FAB0 0000     
     FAB2 01       
11328               	; 	DATA BYTE $84, $00, $00, $21	' X____X____________________X____X
11329 FAB3   84     	byte >84,>00,>00,>21
     FAB4 0000     
     FAB6 21       
11330               	; 	DATA BYTE $84, $00, $00, $21	' X____X____________________X____X
11331 FAB7   84     	byte >84,>00,>00,>21
     FAB8 0000     
     FABA 21       
11332               	; 	DATA BYTE $CF, $F3, $CF, $F3	' XX__XXXXXXXX__XXXX__XXXXXXXX__XX
11333 FABB   CF     	byte >cf,>f3,>cf,>f3
     FABC F3CF     
     FABE F3       
11334               	; 	DATA BYTE $80, $00, $00, $01	' X______________________________X
11335 FABF   80     	byte >80,>00,>00,>01
     FAC0 0000     
     FAC2 01       
11336               	; 	DATA BYTE $80, $00, $00, $01	' X______________________________X
11337 FAC3   80     	byte >80,>00,>00,>01
     FAC4 0000     
     FAC6 01       
11338               	; 	DATA BYTE $FF, $FF, $FF, $FF	' XXXXXXXXXXXXXXXXXXXXXXXXXXXXXXXX
11339 FAC7   FF     	byte >ff,>ff,>ff,>ff
     FAC8 FFFF     
     FACA FF       
11340               	; rd32:	' --- 32 white castle grounds (E to catacombs) ---
11341               cvb_RD32
11342               	; 	DATA BYTE $FF, $FF, $FF, $FF	' XXXXXXXXXXXXXXXXXXXXXXXXXXXXXXXX
11343 FACB   FF     	byte >ff,>ff,>ff,>ff
     FACC FFFF     
     FACE FF       
11344               	; 	DATA BYTE $80, $00, $00, $01	' X______________________________X
11345 FACF   80     	byte >80,>00,>00,>01
     FAD0 0000     
     FAD2 01       
11346               	; 	DATA BYTE $9B, $6C, $36, $D9	' X__XX_XX_XX_XX____XX_XX_XX_XX__X
11347 FAD3   9B     	byte >9b,>6c,>36,>d9
     FAD4 6C36     
     FAD6 D9       
11348               	; 	DATA BYTE $9F, $FF, $FF, $F9	' X__XXXXXXXXXXXXXXXXXXXXXXXXXX__X
11349 FAD7   9F     	byte >9f,>ff,>ff,>f9
     FAD8 FFFF     
     FADA F9       
11350               	; 	DATA BYTE $9F, $FC, $3F, $F9	' X__XXXXXXXXXXX____XXXXXXXXXXX__X
11351 FADB   9F     	byte >9f,>fc,>3f,>f9
     FADC FC3F     
     FADE F9       
11352               	; 	DATA BYTE $9F, $FC, $3F, $F9	' X__XXXXXXXXXXX____XXXXXXXXXXX__X
11353 FADF   9F     	byte >9f,>fc,>3f,>f9
     FAE0 FC3F     
     FAE2 F9       
11354               	; 	DATA BYTE $9F, $FC, $3F, $F9	' X__XXXXXXXXXXX____XXXXXXXXXXX__X
11355 FAE3   9F     	byte >9f,>fc,>3f,>f9
     FAE4 FC3F     
     FAE6 F9       
11356               	; 	DATA BYTE $9F, $FC, $3F, $F9	' X__XXXXXXXXXXX____XXXXXXXXXXX__X
11357 FAE7   9F     	byte >9f,>fc,>3f,>f9
     FAE8 FC3F     
     FAEA F9       
11358               	; 	DATA BYTE $80, $00, $00, $01	' X______________________________X
11359 FAEB   80     	byte >80,>00,>00,>01
     FAEC 0000     
     FAEE 01       
11360               	; 	DATA BYTE $80, $00, $00, $01	' X______________________________X
11361 FAEF   80     	byte >80,>00,>00,>01
     FAF0 0000     
     FAF2 01       
11362               	; 	DATA BYTE $80, $00, $00, $00	' X_______________________________
11363 FAF3   80     	byte >80,>00,>00,>00
     FAF4 0000     
     FAF6 00       
11364               	; 	DATA BYTE $80, $00, $00, $00	' X_______________________________
11365 FAF7   80     	byte >80,>00,>00,>00
     FAF8 0000     
     FAFA 00       
11366               	; 	DATA BYTE $80, $00, $00, $00	' X_______________________________
11367 FAFB   80     	byte >80,>00,>00,>00
     FAFC 0000     
     FAFE 00       
11368               	; 	DATA BYTE $80, $00, $00, $00	' X_______________________________
11369 FAFF   80     	byte >80,>00,>00,>00
     FB00 0000     
     FB02 00       
11370               	; 	DATA BYTE $80, $00, $00, $01	' X______________________________X
11371 FB03   80     	byte >80,>00,>00,>01
     FB04 0000     
     FB06 01       
11372               	; 	DATA BYTE $80, $00, $00, $01	' X______________________________X
11373 FB07   80     	byte >80,>00,>00,>01
     FB08 0000     
     FB0A 01       
11374               	; 	DATA BYTE $80, $00, $00, $01	' X______________________________X
11375 FB0B   80     	byte >80,>00,>00,>01
     FB0C 0000     
     FB0E 01       
11376               	; 	DATA BYTE $80, $00, $00, $01	' X______________________________X
11377 FB0F   80     	byte >80,>00,>00,>01
     FB10 0000     
     FB12 01       
11378               	; 	DATA BYTE $80, $00, $00, $01	' X______________________________X
11379 FB13   80     	byte >80,>00,>00,>01
     FB14 0000     
     FB16 01       
11380               	; 	DATA BYTE $80, $00, $00, $01	' X______________________________X
11381 FB17   80     	byte >80,>00,>00,>01
     FB18 0000     
     FB1A 01       
11382               	; 	DATA BYTE $80, $00, $00, $01	' X______________________________X
11383 FB1B   80     	byte >80,>00,>00,>01
     FB1C 0000     
     FB1E 01       
11384               	; 	DATA BYTE $80, $00, $00, $01	' X______________________________X
11385 FB1F   80     	byte >80,>00,>00,>01
     FB20 0000     
     FB22 01       
11386               	; 	DATA BYTE $FF, $FF, $FF, $FF	' XXXXXXXXXXXXXXXXXXXXXXXXXXXXXXXX
11387 FB23   FF     	byte >ff,>ff,>ff,>ff
     FB24 FFFF     
     FB26 FF       
11388               	; 	DATA BYTE $FF, $FF, $FF, $FF	' XXXXXXXXXXXXXXXXXXXXXXXXXXXXXXXX
11389 FB27   FF     	byte >ff,>ff,>ff,>ff
     FB28 FFFF     
     FB2A FF       
11390               	; rd33:	' --- 33 white castle hall (E to the red maze) ---
11391               cvb_RD33
11392               	; 	DATA BYTE $FF, $FF, $FF, $FF	' XXXXXXXXXXXXXXXXXXXXXXXXXXXXXXXX
11393 FB2B   FF     	byte >ff,>ff,>ff,>ff
     FB2C FFFF     
     FB2E FF       
11394               	; 	DATA BYTE $80, $00, $00, $01	' X______________________________X
11395 FB2F   80     	byte >80,>00,>00,>01
     FB30 0000     
     FB32 01       
11396               	; 	DATA BYTE $80, $00, $00, $01	' X______________________________X
11397 FB33   80     	byte >80,>00,>00,>01
     FB34 0000     
     FB36 01       
11398               	; 	DATA BYTE $80, $00, $00, $01	' X______________________________X
11399 FB37   80     	byte >80,>00,>00,>01
     FB38 0000     
     FB3A 01       
11400               	; 	DATA BYTE $80, $00, $00, $01	' X______________________________X
11401 FB3B   80     	byte >80,>00,>00,>01
     FB3C 0000     
     FB3E 01       
11402               	; 	DATA BYTE $80, $00, $00, $01	' X______________________________X
11403 FB3F   80     	byte >80,>00,>00,>01
     FB40 0000     
     FB42 01       
11404               	; 	DATA BYTE $80, $00, $00, $01	' X______________________________X
11405 FB43   80     	byte >80,>00,>00,>01
     FB44 0000     
     FB46 01       
11406               	; 	DATA BYTE $80, $00, $00, $01	' X______________________________X
11407 FB47   80     	byte >80,>00,>00,>01
     FB48 0000     
     FB4A 01       
11408               	; 	DATA BYTE $83, $C0, $03, $C1	' X_____XXXX____________XXXX_____X
11409 FB4B   83     	byte >83,>c0,>03,>c1
     FB4C C003     
     FB4E C1       
11410               	; 	DATA BYTE $83, $C0, $03, $C1	' X_____XXXX____________XXXX_____X
11411 FB4F   83     	byte >83,>c0,>03,>c1
     FB50 C003     
     FB52 C1       
11412               	; 	DATA BYTE $83, $C0, $03, $C0	' X_____XXXX____________XXXX______
11413 FB53   83     	byte >83,>c0,>03,>c0
     FB54 C003     
     FB56 C0       
11414               	; 	DATA BYTE $83, $C0, $03, $C0	' X_____XXXX____________XXXX______
11415 FB57   83     	byte >83,>c0,>03,>c0
     FB58 C003     
     FB5A C0       
11416               	; 	DATA BYTE $80, $00, $00, $00	' X_______________________________
11417 FB5B   80     	byte >80,>00,>00,>00
     FB5C 0000     
     FB5E 00       
11418               	; 	DATA BYTE $80, $00, $00, $00	' X_______________________________
11419 FB5F   80     	byte >80,>00,>00,>00
     FB60 0000     
     FB62 00       
11420               	; 	DATA BYTE $80, $00, $00, $01	' X______________________________X
11421 FB63   80     	byte >80,>00,>00,>01
     FB64 0000     
     FB66 01       
11422               	; 	DATA BYTE $80, $00, $00, $01	' X______________________________X
11423 FB67   80     	byte >80,>00,>00,>01
     FB68 0000     
     FB6A 01       
11424               	; 	DATA BYTE $80, $00, $00, $01	' X______________________________X
11425 FB6B   80     	byte >80,>00,>00,>01
     FB6C 0000     
     FB6E 01       
11426               	; 	DATA BYTE $80, $00, $00, $01	' X______________________________X
11427 FB6F   80     	byte >80,>00,>00,>01
     FB70 0000     
     FB72 01       
11428               	; 	DATA BYTE $80, $00, $00, $01	' X______________________________X
11429 FB73   80     	byte >80,>00,>00,>01
     FB74 0000     
     FB76 01       
11430               	; 	DATA BYTE $80, $00, $00, $01	' X______________________________X
11431 FB77   80     	byte >80,>00,>00,>01
     FB78 0000     
     FB7A 01       
11432               	; 	DATA BYTE $80, $00, $00, $01	' X______________________________X
11433 FB7B   80     	byte >80,>00,>00,>01
     FB7C 0000     
     FB7E 01       
11434               	; 	DATA BYTE $80, $00, $00, $01	' X______________________________X
11435 FB7F   80     	byte >80,>00,>00,>01
     FB80 0000     
     FB82 01       
11436               	; 	DATA BYTE $FF, $FC, $3F, $FF	' XXXXXXXXXXXXXX____XXXXXXXXXXXXXX
11437 FB83   FF     	byte >ff,>fc,>3f,>ff
     FB84 FC3F     
     FB86 FF       
11438               	; 	DATA BYTE $FF, $FC, $3F, $FF	' XXXXXXXXXXXXXX____XXXXXXXXXXXXXX
11439 FB87   FF     	byte >ff,>fc,>3f,>ff
     FB88 FC3F     
     FB8A FF       
11440               	; rd34:	' --- 34 red maze ---
11441               cvb_RD34
11442               	; 	DATA BYTE $FF, $FC, $3F, $FF	' XXXXXXXXXXXXXX____XXXXXXXXXXXXXX
11443 FB8B   FF     	byte >ff,>fc,>3f,>ff
     FB8C FC3F     
     FB8E FF       
11444               	; 	DATA BYTE $80, $00, $00, $01	' X______________________________X
11445 FB8F   80     	byte >80,>00,>00,>01
     FB90 0000     
     FB92 01       
11446               	; 	DATA BYTE $80, $00, $00, $01	' X______________________________X
11447 FB93   80     	byte >80,>00,>00,>01
     FB94 0000     
     FB96 01       
11448               	; 	DATA BYTE $CF, $F3, $CF, $F3	' XX__XXXXXXXX__XXXX__XXXXXXXX__XX
11449 FB97   CF     	byte >cf,>f3,>cf,>f3
     FB98 F3CF     
     FB9A F3       
11450               	; 	DATA BYTE $80, $00, $00, $01	' X______________________________X
11451 FB9B   80     	byte >80,>00,>00,>01
     FB9C 0000     
     FB9E 01       
11452               	; 	DATA BYTE $80, $00, $00, $01	' X______________________________X
11453 FB9F   80     	byte >80,>00,>00,>01
     FBA0 0000     
     FBA2 01       
11454               	; 	DATA BYTE $FF, $FC, $3F, $FF	' XXXXXXXXXXXXXX____XXXXXXXXXXXXXX
11455 FBA3   FF     	byte >ff,>fc,>3f,>ff
     FBA4 FC3F     
     FBA6 FF       
11456               	; 	DATA BYTE $80, $80, $01, $01	' X_______X______________X_______X
11457 FBA7   80     	byte >80,>80,>01,>01
     FBA8 8001     
     FBAA 01       
11458               	; 	DATA BYTE $80, $00, $00, $01	' X______________________________X
11459 FBAB   80     	byte >80,>00,>00,>01
     FBAC 0000     
     FBAE 01       
11460               	; 	DATA BYTE $FC, $FF, $FF, $3F	' XXXXXX__XXXXXXXXXXXXXXXX__XXXXXX
11461 FBAF   FC     	byte >fc,>ff,>ff,>3f
     FBB0 FFFF     
     FBB2 3F       
11462               	; 	DATA BYTE $00, $00, $00, $00	' ________________________________
11463 FBB3   00     	byte >00,>00,>00,>00
     FBB4 0000     
     FBB6 00       
11464               	; 	DATA BYTE $00, $00, $00, $00	' ________________________________
11465 FBB7   00     	byte >00,>00,>00,>00
     FBB8 0000     
     FBBA 00       
11466               	; 	DATA BYTE $FF, $9F, $F9, $FF	' XXXXXXXXX__XXXXXXXXXX__XXXXXXXXX
11467 FBBB   FF     	byte >ff,>9f,>f9,>ff
     FBBC 9FF9     
     FBBE FF       
11468               	; 	DATA BYTE $80, $00, $00, $01	' X______________________________X
11469 FBBF   80     	byte >80,>00,>00,>01
     FBC0 0000     
     FBC2 01       
11470               	; 	DATA BYTE $80, $00, $00, $01	' X______________________________X
11471 FBC3   80     	byte >80,>00,>00,>01
     FBC4 0000     
     FBC6 01       
11472               	; 	DATA BYTE $80, $00, $00, $01	' X______________________________X
11473 FBC7   80     	byte >80,>00,>00,>01
     FBC8 0000     
     FBCA 01       
11474               	; 	DATA BYTE $F3, $FC, $3F, $CF	' XXXX__XXXXXXXX____XXXXXXXX__XXXX
11475 FBCB   F3     	byte >f3,>fc,>3f,>cf
     FBCC FC3F     
     FBCE CF       
11476               	; 	DATA BYTE $80, $00, $00, $01	' X______________________________X
11477 FBCF   80     	byte >80,>00,>00,>01
     FBD0 0000     
     FBD2 01       
11478               	; 	DATA BYTE $84, $00, $00, $21	' X____X____________________X____X
11479 FBD3   84     	byte >84,>00,>00,>21
     FBD4 0000     
     FBD6 21       
11480               	; 	DATA BYTE $84, $00, $00, $21	' X____X____________________X____X
11481 FBD7   84     	byte >84,>00,>00,>21
     FBD8 0000     
     FBDA 21       
11482               	; 	DATA BYTE $CF, $F3, $CF, $F3	' XX__XXXXXXXX__XXXX__XXXXXXXX__XX
11483 FBDB   CF     	byte >cf,>f3,>cf,>f3
     FBDC F3CF     
     FBDE F3       
11484               	; 	DATA BYTE $80, $00, $00, $01	' X______________________________X
11485 FBDF   80     	byte >80,>00,>00,>01
     FBE0 0000     
     FBE2 01       
11486               	; 	DATA BYTE $80, $00, $00, $01	' X______________________________X
11487 FBE3   80     	byte >80,>00,>00,>01
     FBE4 0000     
     FBE6 01       
11488               	; 	DATA BYTE $FF, $FF, $FF, $FF	' XXXXXXXXXXXXXXXXXXXXXXXXXXXXXXXX
11489 FBE7   FF     	byte >ff,>ff,>ff,>ff
     FBE8 FFFF     
     FBEA FF       
11490               	; rd35:	' --- 35 red maze end (black key) ---
11491               cvb_RD35
11492               	; 	DATA BYTE $FF, $FF, $FF, $FF	' XXXXXXXXXXXXXXXXXXXXXXXXXXXXXXXX
11493 FBEB   FF     	byte >ff,>ff,>ff,>ff
     FBEC FFFF     
     FBEE FF       
11494               	; 	DATA BYTE $80, $00, $00, $01	' X______________________________X
11495 FBEF   80     	byte >80,>00,>00,>01
     FBF0 0000     
     FBF2 01       
11496               	; 	DATA BYTE $80, $00, $00, $01	' X______________________________X
11497 FBF3   80     	byte >80,>00,>00,>01
     FBF4 0000     
     FBF6 01       
11498               	; 	DATA BYTE $FC, $FF, $FF, $3F	' XXXXXX__XXXXXXXXXXXXXXXX__XXXXXX
11499 FBF7   FC     	byte >fc,>ff,>ff,>3f
     FBF8 FFFF     
     FBFA 3F       
11500               	; 	DATA BYTE $80, $20, $04, $01	' X_________X__________X_________X
11501 FBFB   80     	byte >80,>20,>04,>01
     FBFC 2004     
     FBFE 01       
11502               	; 	DATA BYTE $80, $00, $00, $01	' X______________________________X
11503 FBFF   80     	byte >80,>00,>00,>01
     FC00 0000     
     FC02 01       
11504               	; 	DATA BYTE $FF, $FC, $3F, $FF	' XXXXXXXXXXXXXX____XXXXXXXXXXXXXX
11505 FC03   FF     	byte >ff,>fc,>3f,>ff
     FC04 FC3F     
     FC06 FF       
11506               	; 	DATA BYTE $80, $00, $00, $01	' X______________________________X
11507 FC07   80     	byte >80,>00,>00,>01
     FC08 0000     
     FC0A 01       
11508               	; 	DATA BYTE $80, $00, $00, $01	' X______________________________X
11509 FC0B   80     	byte >80,>00,>00,>01
     FC0C 0000     
     FC0E 01       
11510               	; 	DATA BYTE $CF, $F3, $CF, $F3	' XX__XXXXXXXX__XXXX__XXXXXXXX__XX
11511 FC0F   CF     	byte >cf,>f3,>cf,>f3
     FC10 F3CF     
     FC12 F3       
11512               	; 	DATA BYTE $00, $00, $00, $01	' _______________________________X
11513 FC13   00     	byte >00,>00,>00,>01
     FC14 0000     
     FC16 01       
11514               	; 	DATA BYTE $00, $00, $00, $01	' _______________________________X
11515 FC17   00     	byte >00,>00,>00,>01
     FC18 0000     
     FC1A 01       
11516               	; 	DATA BYTE $FF, $9F, $F9, $FF	' XXXXXXXXX__XXXXXXXXXX__XXXXXXXXX
11517 FC1B   FF     	byte >ff,>9f,>f9,>ff
     FC1C 9FF9     
     FC1E FF       
11518               	; 	DATA BYTE $80, $00, $00, $01	' X______________________________X
11519 FC1F   80     	byte >80,>00,>00,>01
     FC20 0000     
     FC22 01       
11520               	; 	DATA BYTE $80, $00, $00, $01	' X______________________________X
11521 FC23   80     	byte >80,>00,>00,>01
     FC24 0000     
     FC26 01       
11522               	; 	DATA BYTE $80, $00, $00, $01	' X______________________________X
11523 FC27   80     	byte >80,>00,>00,>01
     FC28 0000     
     FC2A 01       
11524               	; 	DATA BYTE $F3, $FC, $3F, $CF	' XXXX__XXXXXXXX____XXXXXXXX__XXXX
11525 FC2B   F3     	byte >f3,>fc,>3f,>cf
     FC2C FC3F     
     FC2E CF       
11526               	; 	DATA BYTE $80, $00, $00, $01	' X______________________________X
11527 FC2F   80     	byte >80,>00,>00,>01
     FC30 0000     
     FC32 01       
11528               	; 	DATA BYTE $80, $00, $00, $01	' X______________________________X
11529 FC33   80     	byte >80,>00,>00,>01
     FC34 0000     
     FC36 01       
11530               	; 	DATA BYTE $80, $00, $00, $01	' X______________________________X
11531 FC37   80     	byte >80,>00,>00,>01
     FC38 0000     
     FC3A 01       
11532               	; 	DATA BYTE $FC, $FF, $FF, $3F	' XXXXXX__XXXXXXXXXXXXXXXX__XXXXXX
11533 FC3B   FC     	byte >fc,>ff,>ff,>3f
     FC3C FFFF     
     FC3E 3F       
11534               	; 	DATA BYTE $80, $00, $00, $01	' X______________________________X
11535 FC3F   80     	byte >80,>00,>00,>01
     FC40 0000     
     FC42 01       
11536               	; 	DATA BYTE $80, $00, $00, $01	' X______________________________X
11537 FC43   80     	byte >80,>00,>00,>01
     FC44 0000     
     FC46 01       
11538               	; 	DATA BYTE $FF, $FC, $3F, $FF	' XXXXXXXXXXXXXX____XXXXXXXXXXXXXX
11539 FC47   FF     	byte >ff,>fc,>3f,>ff
     FC48 FC3F     
     FC4A FF       
11540               	; rd36:	' --- 36 purple side room ---
11541               cvb_RD36
11542               	; 	DATA BYTE $FF, $FF, $FF, $FF	' XXXXXXXXXXXXXXXXXXXXXXXXXXXXXXXX
11543 FC4B   FF     	byte >ff,>ff,>ff,>ff
     FC4C FFFF     
     FC4E FF       
11544               	; 	DATA BYTE $80, $00, $00, $01	' X______________________________X
11545 FC4F   80     	byte >80,>00,>00,>01
     FC50 0000     
     FC52 01       
11546               	; 	DATA BYTE $80, $00, $00, $01	' X______________________________X
11547 FC53   80     	byte >80,>00,>00,>01
     FC54 0000     
     FC56 01       
11548               	; 	DATA BYTE $80, $00, $00, $01	' X______________________________X
11549 FC57   80     	byte >80,>00,>00,>01
     FC58 0000     
     FC5A 01       
11550               	; 	DATA BYTE $80, $00, $00, $01	' X______________________________X
11551 FC5B   80     	byte >80,>00,>00,>01
     FC5C 0000     
     FC5E 01       
11552               	; 	DATA BYTE $80, $00, $00, $01	' X______________________________X
11553 FC5F   80     	byte >80,>00,>00,>01
     FC60 0000     
     FC62 01       
11554               	; 	DATA BYTE $80, $00, $00, $01	' X______________________________X
11555 FC63   80     	byte >80,>00,>00,>01
     FC64 0000     
     FC66 01       
11556               	; 	DATA BYTE $80, $00, $00, $01	' X______________________________X
11557 FC67   80     	byte >80,>00,>00,>01
     FC68 0000     
     FC6A 01       
11558               	; 	DATA BYTE $80, $00, $00, $01	' X______________________________X
11559 FC6B   80     	byte >80,>00,>00,>01
     FC6C 0000     
     FC6E 01       
11560               	; 	DATA BYTE $80, $00, $00, $01	' X______________________________X
11561 FC6F   80     	byte >80,>00,>00,>01
     FC70 0000     
     FC72 01       
11562               	; 	DATA BYTE $00, $00, $00, $01	' _______________________________X
11563 FC73   00     	byte >00,>00,>00,>01
     FC74 0000     
     FC76 01       
11564               	; 	DATA BYTE $00, $00, $00, $01	' _______________________________X
11565 FC77   00     	byte >00,>00,>00,>01
     FC78 0000     
     FC7A 01       
11566               	; 	DATA BYTE $00, $00, $00, $01	' _______________________________X
11567 FC7B   00     	byte >00,>00,>00,>01
     FC7C 0000     
     FC7E 01       
11568               	; 	DATA BYTE $00, $00, $00, $01	' _______________________________X
11569 FC7F   00     	byte >00,>00,>00,>01
     FC80 0000     
     FC82 01       
11570               	; 	DATA BYTE $80, $00, $00, $01	' X______________________________X
11571 FC83   80     	byte >80,>00,>00,>01
     FC84 0000     
     FC86 01       
11572               	; 	DATA BYTE $80, $00, $00, $01	' X______________________________X
11573 FC87   80     	byte >80,>00,>00,>01
     FC88 0000     
     FC8A 01       
11574               	; 	DATA BYTE $80, $00, $00, $01	' X______________________________X
11575 FC8B   80     	byte >80,>00,>00,>01
     FC8C 0000     
     FC8E 01       
11576               	; 	DATA BYTE $80, $00, $00, $01	' X______________________________X
11577 FC8F   80     	byte >80,>00,>00,>01
     FC90 0000     
     FC92 01       
11578               	; 	DATA BYTE $80, $00, $00, $01	' X______________________________X
11579 FC93   80     	byte >80,>00,>00,>01
     FC94 0000     
     FC96 01       
11580               	; 	DATA BYTE $80, $00, $00, $01	' X______________________________X
11581 FC97   80     	byte >80,>00,>00,>01
     FC98 0000     
     FC9A 01       
11582               	; 	DATA BYTE $80, $00, $00, $01	' X______________________________X
11583 FC9B   80     	byte >80,>00,>00,>01
     FC9C 0000     
     FC9E 01       
11584               	; 	DATA BYTE $80, $00, $00, $01	' X______________________________X
11585 FC9F   80     	byte >80,>00,>00,>01
     FCA0 0000     
     FCA2 01       
11586               	; 	DATA BYTE $FF, $FC, $3F, $FF	' XXXXXXXXXXXXXX____XXXXXXXXXXXXXX
11587 FCA3   FF     	byte >ff,>fc,>3f,>ff
     FCA4 FC3F     
     FCA6 FF       
11588               	; 	DATA BYTE $FF, $FC, $3F, $FF	' XXXXXXXXXXXXXX____XXXXXXXXXXXXXX
11589 FCA7   FF     	byte >ff,>fc,>3f,>ff
     FCA8 FC3F     
     FCAA FF       
11590               	; rd37:	' --- 37 cyan side room ---
11591               cvb_RD37
11592               	; 	DATA BYTE $FF, $FC, $3F, $FF	' XXXXXXXXXXXXXX____XXXXXXXXXXXXXX
11593 FCAB   FF     	byte >ff,>fc,>3f,>ff
     FCAC FC3F     
     FCAE FF       
11594               	; 	DATA BYTE $80, $00, $00, $01	' X______________________________X
11595 FCAF   80     	byte >80,>00,>00,>01
     FCB0 0000     
     FCB2 01       
11596               	; 	DATA BYTE $80, $00, $00, $01	' X______________________________X
11597 FCB3   80     	byte >80,>00,>00,>01
     FCB4 0000     
     FCB6 01       
11598               	; 	DATA BYTE $80, $00, $00, $01	' X______________________________X
11599 FCB7   80     	byte >80,>00,>00,>01
     FCB8 0000     
     FCBA 01       
11600               	; 	DATA BYTE $80, $00, $00, $01	' X______________________________X
11601 FCBB   80     	byte >80,>00,>00,>01
     FCBC 0000     
     FCBE 01       
11602               	; 	DATA BYTE $80, $00, $00, $01	' X______________________________X
11603 FCBF   80     	byte >80,>00,>00,>01
     FCC0 0000     
     FCC2 01       
11604               	; 	DATA BYTE $80, $00, $00, $01	' X______________________________X
11605 FCC3   80     	byte >80,>00,>00,>01
     FCC4 0000     
     FCC6 01       
11606               	; 	DATA BYTE $80, $00, $00, $01	' X______________________________X
11607 FCC7   80     	byte >80,>00,>00,>01
     FCC8 0000     
     FCCA 01       
11608               	; 	DATA BYTE $83, $C0, $03, $C1	' X_____XXXX____________XXXX_____X
11609 FCCB   83     	byte >83,>c0,>03,>c1
     FCCC C003     
     FCCE C1       
11610               	; 	DATA BYTE $83, $C0, $03, $C1	' X_____XXXX____________XXXX_____X
11611 FCCF   83     	byte >83,>c0,>03,>c1
     FCD0 C003     
     FCD2 C1       
11612               	; 	DATA BYTE $83, $C0, $03, $C1	' X_____XXXX____________XXXX_____X
11613 FCD3   83     	byte >83,>c0,>03,>c1
     FCD4 C003     
     FCD6 C1       
11614               	; 	DATA BYTE $83, $C0, $03, $C1	' X_____XXXX____________XXXX_____X
11615 FCD7   83     	byte >83,>c0,>03,>c1
     FCD8 C003     
     FCDA C1       
11616               	; 	DATA BYTE $80, $00, $00, $01	' X______________________________X
11617 FCDB   80     	byte >80,>00,>00,>01
     FCDC 0000     
     FCDE 01       
11618               	; 	DATA BYTE $80, $00, $00, $01	' X______________________________X
11619 FCDF   80     	byte >80,>00,>00,>01
     FCE0 0000     
     FCE2 01       
11620               	; 	DATA BYTE $80, $00, $00, $01	' X______________________________X
11621 FCE3   80     	byte >80,>00,>00,>01
     FCE4 0000     
     FCE6 01       
11622               	; 	DATA BYTE $80, $00, $00, $01	' X______________________________X
11623 FCE7   80     	byte >80,>00,>00,>01
     FCE8 0000     
     FCEA 01       
11624               	; 	DATA BYTE $80, $00, $00, $01	' X______________________________X
11625 FCEB   80     	byte >80,>00,>00,>01
     FCEC 0000     
     FCEE 01       
11626               	; 	DATA BYTE $80, $00, $00, $01	' X______________________________X
11627 FCEF   80     	byte >80,>00,>00,>01
     FCF0 0000     
     FCF2 01       
11628               	; 	DATA BYTE $80, $00, $00, $01	' X______________________________X
11629 FCF3   80     	byte >80,>00,>00,>01
     FCF4 0000     
     FCF6 01       
11630               	; 	DATA BYTE $80, $00, $00, $01	' X______________________________X
11631 FCF7   80     	byte >80,>00,>00,>01
     FCF8 0000     
     FCFA 01       
11632               	; 	DATA BYTE $80, $00, $00, $01	' X______________________________X
11633 FCFB   80     	byte >80,>00,>00,>01
     FCFC 0000     
     FCFE 01       
11634               	; 	DATA BYTE $80, $00, $00, $01	' X______________________________X
11635 FCFF   80     	byte >80,>00,>00,>01
     FD00 0000     
     FD02 01       
11636               	; 	DATA BYTE $FF, $FC, $3F, $FF	' XXXXXXXXXXXXXX____XXXXXXXXXXXXXX
11637 FD03   FF     	byte >ff,>fc,>3f,>ff
     FD04 FC3F     
     FD06 FF       
11638               	; 	DATA BYTE $FF, $FC, $3F, $FF	' XXXXXXXXXXXXXX____XXXXXXXXXXXXXX
11639 FD07   FF     	byte >ff,>fc,>3f,>ff
     FD08 FC3F     
     FD0A FF       
11640               	; rd38:	' --- 38 rose side room ---
11641               cvb_RD38
11642               	; 	DATA BYTE $FF, $FC, $3F, $FF	' XXXXXXXXXXXXXX____XXXXXXXXXXXXXX
11643 FD0B   FF     	byte >ff,>fc,>3f,>ff
     FD0C FC3F     
     FD0E FF       
11644               	; 	DATA BYTE $80, $00, $00, $01	' X______________________________X
11645 FD0F   80     	byte >80,>00,>00,>01
     FD10 0000     
     FD12 01       
11646               	; 	DATA BYTE $80, $00, $00, $01	' X______________________________X
11647 FD13   80     	byte >80,>00,>00,>01
     FD14 0000     
     FD16 01       
11648               	; 	DATA BYTE $80, $00, $00, $01	' X______________________________X
11649 FD17   80     	byte >80,>00,>00,>01
     FD18 0000     
     FD1A 01       
11650               	; 	DATA BYTE $80, $00, $00, $01	' X______________________________X
11651 FD1B   80     	byte >80,>00,>00,>01
     FD1C 0000     
     FD1E 01       
11652               	; 	DATA BYTE $80, $00, $00, $01	' X______________________________X
11653 FD1F   80     	byte >80,>00,>00,>01
     FD20 0000     
     FD22 01       
11654               	; 	DATA BYTE $80, $00, $00, $01	' X______________________________X
11655 FD23   80     	byte >80,>00,>00,>01
     FD24 0000     
     FD26 01       
11656               	; 	DATA BYTE $80, $00, $00, $01	' X______________________________X
11657 FD27   80     	byte >80,>00,>00,>01
     FD28 0000     
     FD2A 01       
11658               	; 	DATA BYTE $80, $00, $00, $01	' X______________________________X
11659 FD2B   80     	byte >80,>00,>00,>01
     FD2C 0000     
     FD2E 01       
11660               	; 	DATA BYTE $80, $00, $00, $01	' X______________________________X
11661 FD2F   80     	byte >80,>00,>00,>01
     FD30 0000     
     FD32 01       
11662               	; 	DATA BYTE $80, $00, $00, $01	' X______________________________X
11663 FD33   80     	byte >80,>00,>00,>01
     FD34 0000     
     FD36 01       
11664               	; 	DATA BYTE $80, $00, $00, $01	' X______________________________X
11665 FD37   80     	byte >80,>00,>00,>01
     FD38 0000     
     FD3A 01       
11666               	; 	DATA BYTE $80, $00, $00, $01	' X______________________________X
11667 FD3B   80     	byte >80,>00,>00,>01
     FD3C 0000     
     FD3E 01       
11668               	; 	DATA BYTE $80, $00, $00, $01	' X______________________________X
11669 FD3F   80     	byte >80,>00,>00,>01
     FD40 0000     
     FD42 01       
11670               	; 	DATA BYTE $80, $3F, $FC, $01	' X_________XXXXXXXXXXXX_________X
11671 FD43   80     	byte >80,>3f,>fc,>01
     FD44 3FFC     
     FD46 01       
11672               	; 	DATA BYTE $80, $3F, $FC, $01	' X_________XXXXXXXXXXXX_________X
11673 FD47   80     	byte >80,>3f,>fc,>01
     FD48 3FFC     
     FD4A 01       
11674               	; 	DATA BYTE $80, $3F, $FC, $01	' X_________XXXXXXXXXXXX_________X
11675 FD4B   80     	byte >80,>3f,>fc,>01
     FD4C 3FFC     
     FD4E 01       
11676               	; 	DATA BYTE $80, $3F, $FC, $01	' X_________XXXXXXXXXXXX_________X
11677 FD4F   80     	byte >80,>3f,>fc,>01
     FD50 3FFC     
     FD52 01       
11678               	; 	DATA BYTE $80, $00, $00, $01	' X______________________________X
11679 FD53   80     	byte >80,>00,>00,>01
     FD54 0000     
     FD56 01       
11680               	; 	DATA BYTE $80, $00, $00, $01	' X______________________________X
11681 FD57   80     	byte >80,>00,>00,>01
     FD58 0000     
     FD5A 01       
11682               	; 	DATA BYTE $80, $00, $00, $01	' X______________________________X
11683 FD5B   80     	byte >80,>00,>00,>01
     FD5C 0000     
     FD5E 01       
11684               	; 	DATA BYTE $80, $00, $00, $01	' X______________________________X
11685 FD5F   80     	byte >80,>00,>00,>01
     FD60 0000     
     FD62 01       
11686               	; 	DATA BYTE $FF, $FF, $FF, $FF	' XXXXXXXXXXXXXXXXXXXXXXXXXXXXXXXX
11687 FD63   FF     	byte >ff,>ff,>ff,>ff
     FD64 FFFF     
     FD66 FF       
11688               	; 	DATA BYTE $FF, $FF, $FF, $FF	' XXXXXXXXXXXXXXXXXXXXXXXXXXXXXXXX
11689 FD67   FF     	byte >ff,>ff,>ff,>ff
     FD68 FFFF     
     FD6A FF       
11690               	;
11691               	; 	' ------------------------------------------------------------
11692               	; 	' characters 128 (solid wall) and 129 (portcullis)
11693               	; 	' ------------------------------------------------------------
11694               	; wallchar:
11695               cvb_WALLCHAR
11696               	; 	BITMAP "XXXXXXXX"
11697               	; 	BITMAP "XXXXXXXX"
11698               	; 	BITMAP "XXXXXXXX"
11699               	; 	BITMAP "XXXXXXXX"
11700               	; 	BITMAP "XXXXXXXX"
11701               	; 	BITMAP "XXXXXXXX"
11702               	; 	BITMAP "XXXXXXXX"
11703               	; 	BITMAP "XXXXXXXX"
11704 FD6B   FF     	byte >ff,>ff,>ff,>ff,>ff,>ff,>ff,>ff
     FD6C FFFF     
     FD6E FFFF     
     FD70 FFFF     
     FD72 FF       
11705               	; 	BITMAP "XXXXXXXX"
11706               	; 	BITMAP "X_X_X_X_"
11707               	; 	BITMAP "X_X_X_X_"
11708               	; 	BITMAP "XXXXXXXX"
11709               	; 	BITMAP "X_X_X_X_"
11710               	; 	BITMAP "X_X_X_X_"
11711               	; 	BITMAP "XXXXXXXX"
11712               	; 	BITMAP "X_X_X_X_"
11713 FD73   FF     	byte >ff,>aa,>aa,>ff,>aa,>aa,>ff,>aa
     FD74 AAAA     
     FD76 FFAA     
     FD78 AAFF     
     FD7A AA       
11714               	;
11715               	; wallcol:
11716               cvb_WALLCOL
11717               	; 	DATA BYTE $B1, $B1, $B1, $B1, $B1, $B1, $B1, $B1
11718 FD7B   B1     	byte >b1,>b1,>b1,>b1,>b1,>b1,>b1,>b1
     FD7C B1B1     
     FD7E B1B1     
     FD80 B1B1     
     FD82 B1       
11719               	; 	DATA BYTE $E1, $E1, $E1, $E1, $E1, $E1, $E1, $E1
11720 FD83   E1     	byte >e1,>e1,>e1,>e1,>e1,>e1,>e1,>e1
     FD84 E1E1     
     FD86 E1E1     
     FD88 E1E1     
     FD8A E1       
11721               	;
11722               	; 	' ------------------------------------------------------------
11723               	; 	' sprites (16x16 art, shown 32x32 = 4x4 characters):
11724               	; 	' 0 player (kept 8x8 on screen), 1 dragon top half (head/
11725               	; 	' neck), 2 dragon bottom half (body/legs) - together 32x64,
11726               	; 	' 3 slain dragon, 4 key, 5 sword, 6 chalice, 7 bridge,
11727               	; 	' 8 bat A, 9 bat B, 10 bridge channel fill, 11 magnet, 12 dot
11728               	; 	' ------------------------------------------------------------
11729               	; gsprites:
11730               cvb_GSPRITES
11731               	; 	BITMAP "XXXX____________"
11732               	; 	BITMAP "XXXX____________"
11733               	; 	BITMAP "XXXX____________"
11734               	; 	BITMAP "XXXX____________"
11735               	; 	BITMAP "________________"
11736               	; 	BITMAP "________________"
11737               	; 	BITMAP "________________"
11738               	; 	BITMAP "________________"
11739               	; 	BITMAP "________________"
11740               	; 	BITMAP "________________"
11741               	; 	BITMAP "________________"
11742               	; 	BITMAP "________________"
11743               	; 	BITMAP "________________"
11744               	; 	BITMAP "________________"
11745               	; 	BITMAP "________________"
11746               	; 	BITMAP "________________"
11747 FD8B   F0     	byte >f0,>f0,>f0,>f0,>00,>00,>00,>00
     FD8C F0F0     
     FD8E F000     
     FD90 0000     
     FD92 00       
11748 FD93   00     	byte >00,>00,>00,>00,>00,>00,>00,>00
     FD94 0000     
     FD96 0000     
     FD98 0000     
     FD9A 00       
11749 FD9B   00     	byte >00,>00,>00,>00,>00,>00,>00,>00
     FD9C 0000     
     FD9E 0000     
     FDA0 0000     
     FDA2 00       
11750 FDA3   00     	byte >00,>00,>00,>00,>00,>00,>00,>00
     FDA4 0000     
     FDA6 0000     
     FDA8 0000     
     FDAA 00       
11751               	;
11752               	; 	BITMAP "_____XXX________"
11753               	; 	BITMAP "____XXXXX_______"
11754               	; 	BITMAP "____XX_XX_______"
11755               	; 	BITMAP "____XXXXX_______"
11756               	; 	BITMAP "____XXX_________"
11757               	; 	BITMAP "_____XX_________"
11758               	; 	BITMAP "_____XX_________"
11759               	; 	BITMAP "_____XXX________"
11760               	; 	BITMAP "_____XXX________"
11761               	; 	BITMAP "____XXXX____X___"
11762               	; 	BITMAP "____XXXX___XX___"
11763               	; 	BITMAP "___XXXXX__XXX___"
11764               	; 	BITMAP "___XXXXXX_XX____"
11765               	; 	BITMAP "__XXXXXXXXXX____"
11766               	; 	BITMAP "__XXXXXXXXXX____"
11767               	; 	BITMAP "_XXXXXXXXXXX____"
11768 FDAB   07     	byte >07,>0f,>0d,>0f,>0e,>06,>06,>07
     FDAC 0F0D     
     FDAE 0F0E     
     FDB0 0606     
     FDB2 07       
11769 FDB3   07     	byte >07,>0f,>0f,>1f,>1f,>3f,>3f,>7f
     FDB4 0F0F     
     FDB6 1F1F     
     FDB8 3F3F     
     FDBA 7F       
11770 FDBB   00     	byte >00,>80,>80,>80,>00,>00,>00,>00
     FDBC 8080     
     FDBE 8000     
     FDC0 0000     
     FDC2 00       
11771 FDC3   00     	byte >00,>08,>18,>38,>b0,>f0,>f0,>f0
     FDC4 0818     
     FDC6 38B0     
     FDC8 F0F0     
     FDCA F0       
11772               	;
11773               	; 	BITMAP "_XXXXXXXXXX_____"
11774               	; 	BITMAP "XXXXXXXXXXX_____"
11775               	; 	BITMAP "XX_XXXXXXXX_____"
11776               	; 	BITMAP "X__XXXXXXX______"
11777               	; 	BITMAP "___XXXXXXX______"
11778               	; 	BITMAP "___XXXXXXX______"
11779               	; 	BITMAP "__XXXXXXXX______"
11780               	; 	BITMAP "__XXX__XXXX_____"
11781               	; 	BITMAP "__XX____XX______"
11782               	; 	BITMAP "__XX____XX______"
11783               	; 	BITMAP "__XX____XX______"
11784               	; 	BITMAP "_XXX____XXX_____"
11785               	; 	BITMAP "_XX______XX_____"
11786               	; 	BITMAP "XXX______XXX____"
11787               	; 	BITMAP "________________"
11788               	; 	BITMAP "________________"
11789 FDCB   7F     	byte >7f,>ff,>df,>9f,>1f,>1f,>3f,>39
     FDCC FFDF     
     FDCE 9F1F     
     FDD0 1F3F     
     FDD2 39       
11790 FDD3   30     	byte >30,>30,>30,>70,>60,>e0,>00,>00
     FDD4 3030     
     FDD6 7060     
     FDD8 E000     
     FDDA 00       
11791 FDDB   E0     	byte >e0,>e0,>e0,>c0,>c0,>c0,>c0,>e0
     FDDC E0E0     
     FDDE C0C0     
     FDE0 C0C0     
     FDE2 E0       
11792 FDE3   C0     	byte >c0,>c0,>c0,>e0,>60,>70,>00,>00
     FDE4 C0C0     
     FDE6 E060     
     FDE8 7000     
     FDEA 00       
11793               	;
11794               	; 	BITMAP "________________"
11795               	; 	BITMAP "________________"
11796               	; 	BITMAP "________________"
11797               	; 	BITMAP "________________"
11798               	; 	BITMAP "________________"
11799               	; 	BITMAP "________________"
11800               	; 	BITMAP "________________"
11801               	; 	BITMAP "________________"
11802               	; 	BITMAP "________________"
11803               	; 	BITMAP "________________"
11804               	; 	BITMAP "__XX___XX___XX__"
11805               	; 	BITMAP "__XX___XX___XX__"
11806               	; 	BITMAP "__X____X_____X__"
11807               	; 	BITMAP "_XXXXXXXXXXXXXX_"
11808               	; 	BITMAP "XXXXXXXXXXXXXXXX"
11809               	; 	BITMAP "XX_XXXXXXXXXX_XX"
11810 FDEB   00     	byte >00,>00,>00,>00,>00,>00,>00,>00
     FDEC 0000     
     FDEE 0000     
     FDF0 0000     
     FDF2 00       
11811 FDF3   00     	byte >00,>00,>31,>31,>21,>7f,>ff,>df
     FDF4 0031     
     FDF6 3121     
     FDF8 7FFF     
     FDFA DF       
11812 FDFB   00     	byte >00,>00,>00,>00,>00,>00,>00,>00
     FDFC 0000     
     FDFE 0000     
     FE00 0000     
     FE02 00       
11813 FE03   00     	byte >00,>00,>8c,>8c,>04,>fe,>ff,>fb
     FE04 008C     
     FE06 8C04     
     FE08 FEFF     
     FE0A FB       
11814               	;
11815               	; 	BITMAP "________________"
11816               	; 	BITMAP "________________"
11817               	; 	BITMAP "_XX_____________"
11818               	; 	BITMAP "X_XXXXXX________"
11819               	; 	BITMAP "_XX__X_X________"
11820               	; 	BITMAP "________________"
11821               	; 	BITMAP "________________"
11822               	; 	BITMAP "________________"
11823               	; 	BITMAP "________________"
11824               	; 	BITMAP "________________"
11825               	; 	BITMAP "________________"
11826               	; 	BITMAP "________________"
11827               	; 	BITMAP "________________"
11828               	; 	BITMAP "________________"
11829               	; 	BITMAP "________________"
11830               	; 	BITMAP "________________"
11831 FE0B   00     	byte >00,>00,>60,>bf,>65,>00,>00,>00
     FE0C 0060     
     FE0E BF65     
     FE10 0000     
     FE12 00       
11832 FE13   00     	byte >00,>00,>00,>00,>00,>00,>00,>00
     FE14 0000     
     FE16 0000     
     FE18 0000     
     FE1A 00       
11833 FE1B   00     	byte >00,>00,>00,>00,>00,>00,>00,>00
     FE1C 0000     
     FE1E 0000     
     FE20 0000     
     FE22 00       
11834 FE23   00     	byte >00,>00,>00,>00,>00,>00,>00,>00
     FE24 0000     
     FE26 0000     
     FE28 0000     
     FE2A 00       
11835               	;
11836               	; 	BITMAP "________________"
11837               	; 	BITMAP "________________"
11838               	; 	BITMAP "__X_____________"
11839               	; 	BITMAP "XXXXXXXXXXXX____"
11840               	; 	BITMAP "__X_____________"
11841               	; 	BITMAP "________________"
11842               	; 	BITMAP "________________"
11843               	; 	BITMAP "________________"
11844               	; 	BITMAP "________________"
11845               	; 	BITMAP "________________"
11846               	; 	BITMAP "________________"
11847               	; 	BITMAP "________________"
11848               	; 	BITMAP "________________"
11849               	; 	BITMAP "________________"
11850               	; 	BITMAP "________________"
11851               	; 	BITMAP "________________"
11852 FE2B   00     	byte >00,>00,>20,>ff,>20,>00,>00,>00
     FE2C 0020     
     FE2E FF20     
     FE30 0000     
     FE32 00       
11853 FE33   00     	byte >00,>00,>00,>00,>00,>00,>00,>00
     FE34 0000     
     FE36 0000     
     FE38 0000     
     FE3A 00       
11854 FE3B   00     	byte >00,>00,>00,>f0,>00,>00,>00,>00
     FE3C 0000     
     FE3E F000     
     FE40 0000     
     FE42 00       
11855 FE43   00     	byte >00,>00,>00,>00,>00,>00,>00,>00
     FE44 0000     
     FE46 0000     
     FE48 0000     
     FE4A 00       
11856               	;
11857               	; 	BITMAP "_XX__________XX_"
11858               	; 	BITMAP "_XX__________XX_"
11859               	; 	BITMAP "_XX__________XX_"
11860               	; 	BITMAP "_XX__________XX_"
11861               	; 	BITMAP "___XX______XX___"
11862               	; 	BITMAP "___XX______XX___"
11863               	; 	BITMAP "_____XXXXXX_____"
11864               	; 	BITMAP "_____XXXXXX_____"
11865               	; 	BITMAP "_______XX_______"
11866               	; 	BITMAP "_______XX_______"
11867               	; 	BITMAP "_______XX_______"
11868               	; 	BITMAP "_______XX_______"
11869               	; 	BITMAP "___XXXXXXXXXX___"
11870               	; 	BITMAP "___XXXXXXXXXX___"
11871               	; 	BITMAP "________________"
11872               	; 	BITMAP "________________"
11873 FE4B   60     	byte >60,>60,>60,>60,>18,>18,>07,>07
     FE4C 6060     
     FE4E 6018     
     FE50 1807     
     FE52 07       
11874 FE53   01     	byte >01,>01,>01,>01,>1f,>1f,>00,>00
     FE54 0101     
     FE56 011F     
     FE58 1F00     
     FE5A 00       
11875 FE5B   06     	byte >06,>06,>06,>06,>18,>18,>e0,>e0
     FE5C 0606     
     FE5E 0618     
     FE60 18E0     
     FE62 E0       
11876 FE63   80     	byte >80,>80,>80,>80,>f8,>f8,>00,>00
     FE64 8080     
     FE66 80F8     
     FE68 F800     
     FE6A 00       
11877               	;
11878               	; 	BITMAP "XXX__________XXX"
11879               	; 	BITMAP "XX____________XX"
11880               	; 	BITMAP "XX____________XX"
11881               	; 	BITMAP "XX____________XX"
11882               	; 	BITMAP "XX____________XX"
11883               	; 	BITMAP "XX____________XX"
11884               	; 	BITMAP "XX____________XX"
11885               	; 	BITMAP "XX____________XX"
11886               	; 	BITMAP "XX____________XX"
11887               	; 	BITMAP "XX____________XX"
11888               	; 	BITMAP "XX____________XX"
11889               	; 	BITMAP "XX____________XX"
11890               	; 	BITMAP "XX____________XX"
11891               	; 	BITMAP "XX____________XX"
11892               	; 	BITMAP "XX____________XX"
11893               	; 	BITMAP "XXX__________XXX"
11894 FE6B   E0     	byte >e0,>c0,>c0,>c0,>c0,>c0,>c0,>c0
     FE6C C0C0     
     FE6E C0C0     
     FE70 C0C0     
     FE72 C0       
11895 FE73   C0     	byte >c0,>c0,>c0,>c0,>c0,>c0,>c0,>e0
     FE74 C0C0     
     FE76 C0C0     
     FE78 C0C0     
     FE7A E0       
11896 FE7B   07     	byte >07,>03,>03,>03,>03,>03,>03,>03
     FE7C 0303     
     FE7E 0303     
     FE80 0303     
     FE82 03       
11897 FE83   03     	byte >03,>03,>03,>03,>03,>03,>03,>07
     FE84 0303     
     FE86 0303     
     FE88 0303     
     FE8A 07       
11898               	;
11899               	; 	BITMAP "________________"
11900               	; 	BITMAP "________________"
11901               	; 	BITMAP "X______XX______X"
11902               	; 	BITMAP "XX_____XX_____XX"
11903               	; 	BITMAP "_XXX__XXXX__XXX_"
11904               	; 	BITMAP "__XXXXXXXXXXXX__"
11905               	; 	BITMAP "____XX_XX_XX____"
11906               	; 	BITMAP "________________"
11907               	; 	BITMAP "________________"
11908               	; 	BITMAP "________________"
11909               	; 	BITMAP "________________"
11910               	; 	BITMAP "________________"
11911               	; 	BITMAP "________________"
11912               	; 	BITMAP "________________"
11913               	; 	BITMAP "________________"
11914               	; 	BITMAP "________________"
11915 FE8B   00     	byte >00,>00,>81,>c1,>73,>3f,>0d,>00
     FE8C 0081     
     FE8E C173     
     FE90 3F0D     
     FE92 00       
11916 FE93   00     	byte >00,>00,>00,>00,>00,>00,>00,>00
     FE94 0000     
     FE96 0000     
     FE98 0000     
     FE9A 00       
11917 FE9B   00     	byte >00,>00,>81,>83,>ce,>fc,>b0,>00
     FE9C 0081     
     FE9E 83CE     
     FEA0 FCB0     
     FEA2 00       
11918 FEA3   00     	byte >00,>00,>00,>00,>00,>00,>00,>00
     FEA4 0000     
     FEA6 0000     
     FEA8 0000     
     FEAA 00       
11919               	;
11920               	; 	BITMAP "________________"
11921               	; 	BITMAP "________________"
11922               	; 	BITMAP "________________"
11923               	; 	BITMAP "____X_XXXX_X____"
11924               	; 	BITMAP "__XXXXXXXXXXXX__"
11925               	; 	BITMAP "_XXX__XXXX__XXX_"
11926               	; 	BITMAP "X______XX______X"
11927               	; 	BITMAP "________________"
11928               	; 	BITMAP "________________"
11929               	; 	BITMAP "________________"
11930               	; 	BITMAP "________________"
11931               	; 	BITMAP "________________"
11932               	; 	BITMAP "________________"
11933               	; 	BITMAP "________________"
11934               	; 	BITMAP "________________"
11935               	; 	BITMAP "________________"
11936 FEAB   00     	byte >00,>00,>00,>0b,>3f,>73,>81,>00
     FEAC 0000     
     FEAE 0B3F     
     FEB0 7381     
     FEB2 00       
11937 FEB3   00     	byte >00,>00,>00,>00,>00,>00,>00,>00
     FEB4 0000     
     FEB6 0000     
     FEB8 0000     
     FEBA 00       
11938 FEBB   00     	byte >00,>00,>00,>d0,>fc,>ce,>81,>00
     FEBC 0000     
     FEBE D0FC     
     FEC0 CE81     
     FEC2 00       
11939 FEC3   00     	byte >00,>00,>00,>00,>00,>00,>00,>00
     FEC4 0000     
     FEC6 0000     
     FEC8 0000     
     FECA 00       
11940               	;
11941               	; 	BITMAP "__XXXXXXXXXXXX__"
11942               	; 	BITMAP "__XXXXXXXXXXXX__"
11943               	; 	BITMAP "__XXXXXXXXXXXX__"
11944               	; 	BITMAP "__XXXXXXXXXXXX__"
11945               	; 	BITMAP "__XXXXXXXXXXXX__"
11946               	; 	BITMAP "__XXXXXXXXXXXX__"
11947               	; 	BITMAP "__XXXXXXXXXXXX__"
11948               	; 	BITMAP "__XXXXXXXXXXXX__"
11949               	; 	BITMAP "__XXXXXXXXXXXX__"
11950               	; 	BITMAP "__XXXXXXXXXXXX__"
11951               	; 	BITMAP "__XXXXXXXXXXXX__"
11952               	; 	BITMAP "__XXXXXXXXXXXX__"
11953               	; 	BITMAP "__XXXXXXXXXXXX__"
11954               	; 	BITMAP "__XXXXXXXXXXXX__"
11955               	; 	BITMAP "__XXXXXXXXXXXX__"
11956               	; 	BITMAP "__XXXXXXXXXXXX__"
11957 FECB   3F     	byte >3f,>3f,>3f,>3f,>3f,>3f,>3f,>3f
     FECC 3F3F     
     FECE 3F3F     
     FED0 3F3F     
     FED2 3F       
11958 FED3   3F     	byte >3f,>3f,>3f,>3f,>3f,>3f,>3f,>3f
     FED4 3F3F     
     FED6 3F3F     
     FED8 3F3F     
     FEDA 3F       
11959 FEDB   FC     	byte >fc,>fc,>fc,>fc,>fc,>fc,>fc,>fc
     FEDC FCFC     
     FEDE FCFC     
     FEE0 FCFC     
     FEE2 FC       
11960 FEE3   FC     	byte >fc,>fc,>fc,>fc,>fc,>fc,>fc,>fc
     FEE4 FCFC     
     FEE6 FCFC     
     FEE8 FCFC     
     FEEA FC       
11961               	;
11962               	; 	BITMAP "_XXX______XXX___"
11963               	; 	BITMAP "_XXX______XXX___"
11964               	; 	BITMAP "_XXX______XXX___"
11965               	; 	BITMAP "_XXX______XXX___"
11966               	; 	BITMAP "_XXX______XXX___"
11967               	; 	BITMAP "_XXXX____XXXX___"
11968               	; 	BITMAP "__XXXXXXXXXX____"
11969               	; 	BITMAP "___XXXXXXXX_____"
11970               	; 	BITMAP "________________"
11971               	; 	BITMAP "________________"
11972               	; 	BITMAP "________________"
11973               	; 	BITMAP "________________"
11974               	; 	BITMAP "________________"
11975               	; 	BITMAP "________________"
11976               	; 	BITMAP "________________"
11977               	; 	BITMAP "________________"
11978 FEEB   70     	byte >70,>70,>70,>70,>70,>78,>3f,>1f
     FEEC 7070     
     FEEE 7070     
     FEF0 783F     
     FEF2 1F       
11979 FEF3   00     	byte >00,>00,>00,>00,>00,>00,>00,>00
     FEF4 0000     
     FEF6 0000     
     FEF8 0000     
     FEFA 00       
11980 FEFB   38     	byte >38,>38,>38,>38,>38,>78,>f0,>e0
     FEFC 3838     
     FEFE 3838     
     FF00 78F0     
     FF02 E0       
11981 FF03   00     	byte >00,>00,>00,>00,>00,>00,>00,>00
     FF04 0000     
     FF06 0000     
     FF08 0000     
     FF0A 00       
11982               	;
11983               	; 	BITMAP "X_______________"
11984               	; 	BITMAP "________________"
11985               	; 	BITMAP "________________"
11986               	; 	BITMAP "________________"
11987               	; 	BITMAP "________________"
11988               	; 	BITMAP "________________"
11989               	; 	BITMAP "________________"
11990               	; 	BITMAP "________________"
11991               	; 	BITMAP "________________"
11992               	; 	BITMAP "________________"
11993               	; 	BITMAP "________________"
11994               	; 	BITMAP "________________"
11995               	; 	BITMAP "________________"
11996               	; 	BITMAP "________________"
11997               	; 	BITMAP "________________"
11998               	; 	BITMAP "________________"
11999 FF0B   80     	byte >80,>00,>00,>00,>00,>00,>00,>00
     FF0C 0000     
     FF0E 0000     
     FF10 0000     
     FF12 00       
12000 FF13   00     	byte >00,>00,>00,>00,>00,>00,>00,>00
     FF14 0000     
     FF16 0000     
     FF18 0000     
     FF1A 00       
12001 FF1B   00     	byte >00,>00,>00,>00,>00,>00,>00,>00
     FF1C 0000     
     FF1E 0000     
     FF20 0000     
     FF22 00       
12002 FF23   00     	byte >00,>00,>00,>00,>00,>00,>00,>00
     FF24 0000     
     FF26 0000     
     FF28 0000     
     FF2A 00       
12003               SLAST
12004               
12005               ;;; CV BASIC Epilogue
12006               
12007               ; data in low RAM
12008                   dorg >2000
12009               
12010               ; must be even aligned
12011               ; mirror for sprite table
12012 2000          sprites	    bss 128
12013               
12014               ; Vars can start at >2080
12015                   dorg >2080
12016               
12017               cvb_BFX:
12018 2080          	bss 1
12019               cvb_BFY:
12020 2081          	bss 1
12021               cvb_B:
12022 2082          	bss 1
12023               cvb_D:
12024 2083          	bss 1
12025               cvb_E:
12026 2084          	bss 1
12027               cvb_F:
12028 2085          	bss 1
12029               cvb_I:
12030 2086          	bss 1
12031               cvb_M:
12032 2087          	bss 1
12033               cvb_UDL:
12034 2088          	bss 1
12035               cvb_O:
12036 2089          	bss 1
12037               cvb_R:
12038 208A          	bss 1
12039               cvb_T:
12040 208B          	bss 1
12041               cvb_TPX:
12042 208C          	bss 1
12043               cvb_TPY:
12044 208D          	bss 1
12045               cvb__SFQ:
12046 208E          	bss 2
12047               cvb_BRF:
12048 2090          	bss 1
12049               cvb_RMCH:
12050 2091          	bss 1
12051               cvb_BTC:
12052 2092          	bss 1
12053               cvb_LKE:
12054 2093          	bss 1
12055               cvb_BTR:
12056 2094          	bss 1
12057               cvb_LKN:
12058 2095          	bss 1
12059               cvb_BTX:
12060 2096          	bss 1
12061               cvb_BTY:
12062 2097          	bss 1
12063               cvb_LKR:
12064 2098          	bss 1
12065               cvb_LKS:
12066 2099          	bss 1
12067               cvb_LKW:
12068 209A          	bss 1
12069               cvb_GOPN:
12070 209B          	bss 1
12071               cvb_EGGON:
12072 209C          	bss 1
12073               cvb_DRK:
12074 209D          	bss 1
12075               cvb_WINRM:
12076 209E          	bss 1
12077               cvb_EFLAG:
12078 209F          	bss 1
12079               cvb__CRX:
12080 20A0          	bss 2
12081               cvb__CRY:
12082 20A2          	bss 2
12083               cvb_PKCD:
12084 20A4          	bss 1
12085               cvb_R0F:
12086 20A5          	bss 1
12087               cvb_FPC:
12088 20A6          	bss 1
12089               cvb_FON:
12090 20A7          	bss 1
12091               cvb_R1F:
12092 20A8          	bss 1
12093               	even
12094               cvb__AD:
12095 20AA          	bss 2
12096               cvb_FPR:
12097 20AC          	bss 1
12098               	even
12099               cvb__AX:
12100 20AE          	bss 2
12101               cvb__BX:
12102 20B0          	bss 2
12103               cvb__CX:
12104 20B2          	bss 2
12105               cvb_BTCD:
12106 20B4          	bss 1
12107               	even
12108               cvb__DX:
12109 20B6          	bss 2
12110               cvb_PRN:
12111 20B8          	bss 1
12112               cvb_HIT:
12113 20B9          	bss 1
12114               cvb_BTNP:
12115 20BA          	bss 1
12116               cvb_C2:
12117 20BB          	bss 1
12118               cvb_C3:
12119 20BC          	bss 1
12120               cvb_BF:
12121 20BD          	bss 1
12122               cvb_BH:
12123 20BE          	bss 1
12124               cvb_CB:
12125 20BF          	bss 1
12126               cvb_E2:
12127 20C0          	bss 1
12128               cvb_BW:
12129 20C1          	bss 1
12130               cvb_CR:
12131 20C2          	bss 1
12132               cvb_PCOL:
12133 20C3          	bss 1
12134               cvb_CW:
12135 20C4          	bss 1
12136               cvb_DS:
12137 20C5          	bss 1
12138               cvb_FC:
12139 20C6          	bss 1
12140               cvb_FL:
12141 20C7          	bss 1
12142               cvb_I2:
12143 20C8          	bss 1
12144               cvb_GM:
12145 20C9          	bss 1
12146               cvb_GZ:
12147 20CA          	bss 1
12148               cvb_PE:
12149 20CB          	bss 1
12150               cvb_SFC:
12151 20CC          	bss 1
12152               cvb_PN:
12153 20CD          	bss 1
12154               cvb_PS:
12155 20CE          	bss 1
12156               cvb_PW:
12157 20CF          	bss 1
12158               cvb_PX:
12159 20D0          	bss 1
12160               cvb_PY:
12161 20D1          	bss 1
12162               cvb_T2:
12163 20D2          	bss 1
12164               cvb_SFX:
12165 20D3          	bss 1
12166               cvb_RN:
12167 20D4          	bss 1
12168               cvb_C0F:
12169 20D5          	bss 1
12170               cvb_C1F:
12171 20D6          	bss 1
12172               cvb_TK:
12173 20D7          	bss 1
12174               cvb_TX:
12175 20D8          	bss 1
12176               cvb_TY:
12177 20D9          	bss 1
12178               cvb_X0:
12179 20DA          	bss 1
12180               cvb_WF:
12181 20DB          	bss 1
12182               cvb_Y0:
12183 20DC          	bss 1
12184               	even
12185               array_DCL:
12186 20DE          	bss 3
12187               	even
12188               array_DDX:
12189 20E2          	bss 3
12190               	even
12191               array_DDY:
12192 20E6          	bss 3
12193               	even
12194               array_MSK:
12195 20EA          	bss 8
12196               array_DRM:
12197 20F2          	bss 3
12198               	even
12199               array_DSP:
12200 20F6          	bss 3
12201               	even
12202               array_DST:
12203 20FA          	bss 3
12204               	even
12205               array_OCL:
12206 20FE          	bss 8
12207               array_OBX:
12208 2106          	bss 8
12209               array_OBY:
12210 210E          	bss 8
12211               array_FDL:
12212 2116          	bss 3
12213               	even
12214               array_ORM:
12215 211A          	bss 8
12216               array_GOP:
12217 2122          	bss 3
12218               	even
12219               array_RM:
12220 2126          	bss 96
12221               ram_end:
