XAS99 CROSS-ASSEMBLER   VERSION 3.6.5
     **** ****     > adventire.a99
0001               	; CVBasic compiler v0.9.2 Mar/12/2026
0002               	; Command: /cygdrive/c/Users/Howie/github.git/nanochess/CVBasic/cvbasic --ti994a adventire.bas adventire.a99 C:/Users/Howie/github.git/nanochess/CVBasic/
0003               	; Created: Sun Jul  5 08:12:27 2026
0004               
0005      0000     COLECO:	equ 0
0006      0000     SG1000:	equ 0
0007      0000     MSX:	equ 0
0008      0000     FM_SUPPORT:	equ 0
0009      0000     SGM:	equ 0
0010      0000     SVI:	equ 0
0011      0000     SORD:	equ 0
0012      0000     MEMOTECH:	equ 0
0013      0000     EINSTEIN:	equ 0
0014      0000     CPM:	equ 0
0015      0000     PENCIL:	equ 0
0016      0000     PV2000:	equ 0
0017      0001     TI99:	equ 1
0018      0000     NABU:	equ 0
0019      0000     SMS:	equ 0
0020               
0021      0000     CVBASIC_MUSIC_PLAYER:	equ 0
0022      0000     CVBASIC_COMPRESSION:	equ 0
0023      0000     CVBASIC_BANK_SWITCHING:	equ 0
0024      0000     CVBASIC_BANK_ROM_SIZE:	equ 0
0025      0000     COLECO_SPINNER:	equ 0
0026               
0027      2080     BASE_RAM:	equ >2080	; Base of RAM
0028      1F80     RAM_SIZE:	equ >1f80	; Base of RAM
0029      4000     STACK:	equ >4000	; Base stack pointer
0030      8800     VDP:	equ >8800	; VDP port (write)
0031      8C00     VDPR:	equ >8c00	; VDP port (read)
0032               
0033               ;
0034               ; CVBasic prologue (BASIC compiler, 9900 target)
0035               ;
0036               ; by Tursi
0037               ; https//harmlesslion.com
0038               ;
0039               ; based on code by
0040               ;
0041               ; by Oscar Toledo G.
0042               ; https//nanochess.org/
0043               ;
0044               ; Creation date Aug/05/2024.
0045               ; Revision date Aug/06/2024. Ported music player from Z80 CVBasic.
0046               ; Revision date Aug/07/2024. Ported Pletter decompressor from Z80 CVBasic.
0047               ;                            Added VDP delays.
0048               ; Revision date Aug/12/2024. Rewrite started for TMS9900 cpu
0049               ; Revision date Aug/16/2024. Corrected bug in define_char_unpack.
0050               ; Revision date Aug/18/2024. Ported bugfixes to TMS9900 version
0051               ; Revision date Aug/30/2024. All samples except pletter and banking working on TMS9900 version
0052               ; Revision date Oct/15/2024. Added LDIRMV.
0053               ; Revision date May/03/2025. Fix for unpack3 which was using the stack pointer as a temp register
0054               
0055               ;
0056               ; Platforms supported:
0057               ; o TI-99/4A with 32k Memory Expansion
0058               
0059               ; this is intended to be assembled by xdt99, no console ROM dependencies
0060               ;   cvbasic --ti994a test1.bas test1.a99
0061               ;   xas99.py -R test1.a99
0062               
0063               ; When looking at this - remember that JUMP and BRANCH have the /opposite/
0064               ; meanings to the 6502 - JUMP is the short relative one, and BRANCH is absolute.
0065               
0066               ;
0067               ; CVBasic variables in scratchpad.
0068               ;
0069               
0070               ; don't warn on branch/jump optimizations or unused variables
0071               ;: warn-opts = off
0072               ;: warn-symbols = off
0073               
0074               ; use original (possibly incorrectly ported) random
0075      0000     OLD_RND equ 0
0076               
0077               ; We have to use our own workspace, not GPLWS, because the interrupt routine makes it unsafe to
0078               ; use r11, which we kind of need! So that eats 32 bytes of RAM but means most of the register
0079               ; restrictions I wrote this code on (avoid R1, avoid R6, avoid R13-R15) are lifted.
0080      8300     mywp      equ >8300
0081      8320     myintwp   equ >8320
0082               
0083               ; data storage in scratchpad
0084                   dorg >8340
0085               
0086               ; used to track scratchpad variables
0087      8340     firstsp         equ $
0088               
0089 8340          read_pointer    bss 2       ; for data/read statements
0090 8342          cursor		    bss 2       ; screen position
0091 8344          pletter_off	    bss 2       ; Used by Pletter
0092               
0093               ; joystick bytes
0094 8346          joy1_data	    bss 1       ; keep these bytes together and even aligned
0095 8347          joy2_data	    bss 1
0096               
0097 8348          key1_data	    bss 1       ; byte - keyboard - keep these bytes together and even aligned
0098 8349          key2_data	    bss 1       ; byte - keyboard (not used)
0099               
0100 834A          frame	        bss 2       ; word
0101 834C          lfsr		    bss 2       ; word MUST BE EVEN ALIGNED
0102               
0103 834E          mode            bss 1
0104 834F          flicker         bss 1
0105               
0106 8350          ntsc            bss 1
0107               
0148               
0154               
0155               ; used to track scratchpad variables
0156                   even
0157      8352     lastsp              equ $
0158               
0159               ; While we don't mean to USE the console ROM, for interrupts we
0160               ; are forced to interface with some of it. We need these addresses
0161               ; to minimize what it does so we can maximize our use of scratchpad.
0162               ; While I'd like to use the cassette hook - requires only 10 instructions
0163               ; and only uses 6 words of scratchpad, we can't here because it
0164               ; loses the return address, meaning you can only use it if you
0165               ; know where your LIMI 2 is and interrupts are otherwise disabled. So
0166               ; we have to use the longer but more standard interrupt hook, which also
0167               ; reads VDP status for us (no choice).
0168               
0169      8379     intcnt              equ >8379   ; interrupt counter byte, adds 1 (from GPLWS r14) every frame
0170      837B     vdp_status          equ >837B   ; VDP status byte mirror
0171      83C2     intwsr1             equ >83c2   ; INT WS R1  - interrupt control flags - must be >8000
0172      83C4     intwsr2             equ >83c4   ; INT WS R2  - address of user interrupt routine (point to int_handler)
0173      83D6     intwsr11            equ >83d6   ; screen timeout counter - must be odd (init to 1, is inct every frame)
0174      83DA     intwsr13            equ >83da   ; INT WS R13 - used for interrupt call (word)
0175      83DC     intwsr14            equ >83dc   ; INT WS R14 - used for interrupt call (word)
0176      83DE     intwsr15            equ >83de   ; INT WS R15 - used for interrupt call (word)
0177      83F6     gplwsr11            equ >83f6   ; GPL WS R11 - return address to interrupt ROM (not used, but overwritten each int)
0178      83F8     gplwsr12            equ >83f8   ; GPL WS R12 - used for cassette test and interrupt hook test (zeroed each int)
0179      83FA     gplwsr13            equ >83fa   ; GPL WS R13 - used in my interrupt handler
0180      83FC     gplwsr14            equ >83fc   ; GPL WS R14 - flags used to detect cassette - must be >0108 (or at least >0020 clear)
0181      83FE     gplwsr15            equ >83fe   ; GPL WS R15 - base address of VDP for status read - must be >8C02
0182               
0183               ; Some hardware equates
0184      83C0     INTWS     equ >83C0     ; interrupt calling Workspace
0185      83E0     GPLWP     equ >83E0     ; we use this one
0186      8400     SOUND     equ >8400
0187      8800     VDPDATA   equ >8800
0188      8802     VDPSTATUS equ >8802
0189      8C00     VDPWDATA  equ >8c00
0190      8C02     VDPWADR   equ >8c02
0191               
0192               ; cartridge header for all ROM pages
0193               ; this might do weird things to bank 0 but we have to chop it up anyway...
0194                   bank all,>6000
0195               
0196 6000 AA01         data >aa01,>0100,>0000,proglist,>0000,>0000
     6002 0100     
     6004 0000     
     6006 600C     
     6008 0000     
     600A 0000     
0197               proglist
0198 600C 0000         data >0000,SFIRST
     600E 6026     
0199 6010 14           byte 20
0200 6011   43         text 'CVBASIC GAME        *'    ; 20 characters to allow name to be hex edited
     6012 5642     
     6014 4153     
     6016 4943     
     6018 2047     
     601A 414D     
     601C 4520     
     601E 2020     
     6020 2020     
     6022 2020     
     6024 202A     
0201               
0202               ; startup code copies the first three banks to 24k RAM (always) and jumps there
0203               SFIRST
0204 6026 04E0  34     clr @>6000      ; set bank 0 - last shared instruction
     6028 6000     
0205               
0206                   bank 0
0207               
0208 602A 0203  20     li r3,3         ; how many banks
     602C 0003     
0209 602E 0204  20     li r4,>6000     ; from bank
     6030 6000     
0210 6032 0200  20     li r0,>a000     ; target in RAM
     6034 A000     
0211               SFLP
0212 6036 04F4  30     clr *r4+        ; set the bank
0213 6038 0201  20     li r1,>6050     ; from address
     603A 6050     
0214 603C 0202  20     li r2,>1FB0     ; count
     603E 1FB0     
0215               SFLP2
0216 6040 CC31  46     mov *r1+,*r0+   ; move words
0217 6042 0642  14     dect r2         ; count down
0218 6044 16FD  14     jne SFLP2
0219 6046 0603  14     dec r3          ; count down pages
0220 6048 16F6  14     jne SFLP
0221               CODEST
0222 604A 0460  28     b @START        ; jump to startup code in RAM
     604C A980     
0223               
0224               ; fixed program in high RAM - magic bank number higher than normally legal
0225               ; this will be chopped up and inserted into the first three banks
0226               ; we're still in bank 0 - this will result in a gap in the output binary
0227               ; that we can use to put the pieces together more easily.
0228                   aorg >a000
0229               
0230               ; Utility functions
0231               
0232               ; Write register to VDP - R0 = reg in MSB, data in LSB
0233               WRTVDP
0234 A000 0260  22     ori r0,>8000
     A002 8000     
0235 A004 1002  14     jmp SETRD
0236               
0237               ; Set VDP for write address - address in R0
0238               SETWRT
0239 A006 0260  22     ori r0,>4000
     A008 4000     
0240               ; fall through
0241               
0242               ; Set VDP for read address - address in R0
0243               SETRD
0244 A00A 06C0  14     swpb r0
0245 A00C D800  30     movb r0,@VDPWADR
     A00E 8C02     
0246 A010 06C0  14     swpb r0
0247 A012 D800  30     movb r0,@VDPWADR
     A014 8C02     
0248 A016 045B  20     b *r11
0249               
0250               ; Write byte to VDP - address in R0, data in MSB R2
0251               ; Inline address set to avoid needing to cache r11
0252               WRTVRM
0253 A018 0260  22     ori r0,>4000
     A01A 4000     
0254 A01C 06C0  14     swpb r0
0255 A01E D800  30     movb r0,@VDPWADR
     A020 8C02     
0256 A022 06C0  14     swpb r0
0257 A024 D800  30     movb r0,@VDPWADR
     A026 8C02     
0258               ; No need to delay after setting a write address - there's no VRAM access
0259 A028 D802  30     movb r2,@VDPWDATA
     A02A 8C00     
0260 A02C 045B  20     b *r11
0261               
0262               ; Read byte from VDP - address in R0, data returned in MSB R0
0263               ; Inline address set to avoid needing to cache r11
0264               RDVRM
0265 A02E 06C0  14     swpb r0
0266 A030 D800  30     movb r0,@VDPWADR
     A032 8C02     
0267 A034 06C0  14     swpb r0
0268 A036 D800  30     movb r0,@VDPWADR
     A038 8C02     
0269 A03A 1000  14     nop
0270 A03C D020  30     movb @VDPDATA,r0
     A03E 8800     
0271 A040 045B  20     b *r11
0272               
0273               ; Fill VRAM - address in R0, byte in R2, count in R3
0274               ; Original: address in pointer, byte in temp, count in temp2 (ZP)
0275               ; Inline address set to avoid needing to cache r11
0276               FILVRM
0277 A042 0260  22     ori r0,>4000
     A044 4000     
0278 A046 06C0  14     swpb r0
0279 A048 D800  30     movb r0,@VDPWADR
     A04A 8C02     
0280 A04C 06C0  14     swpb r0
0281 A04E D800  30     movb r0,@VDPWADR
     A050 8C02     
0282               ; No need to delay after setting a write address - there's no VRAM access
0283               !1
0284 A052 D802  30     movb r2,@VDPWDATA
     A054 8C00     
0285 A056 0603  14     dec r3
0286 A058 16FC  14     jne -!1
0287 A05A 045B  20     b *r11
0288               
0289               ; Read VRAM - address in R0, CPU data at R2, count in R3
0290               ; Inline address set to avoid needing to cache r11
0291               LDIRMV
0292 A05C 06C0  14     swpb r0
0293 A05E D800  30     movb r0,@VDPWADR
     A060 8C02     
0294 A062 06C0  14     swpb r0
0295 A064 D800  30     movb r0,@VDPWADR
     A066 8C02     
0296 A068 06C0  14     swpb r0
0297 A06A 06C0  14     swpb r0
0298               !1
0299 A06C DCA0  44     movb @VDPDATA,*r2+
     A06E 8800     
0300 A070 0603  14     dec r3
0301 A072 16FC  14     jne -!1
0302 A074 045B  20     b *r11
0303               
0304               ; Load VRAM - address in R0, CPU data at R2, count in R3
0305               ; Original: address in pointer, CPU address at temp, count in temp2
0306               ; Inline address set to avoid needing to cache r11
0307               LDIRVM
0308 A076 0260  22     ori r0,>4000
     A078 4000     
0309 A07A 06C0  14     swpb r0
0310 A07C D800  30     movb r0,@VDPWADR
     A07E 8C02     
0311 A080 06C0  14     swpb r0
0312 A082 D800  30     movb r0,@VDPWADR
     A084 8C02     
0313               ; No need to delay after setting a write address - there's no VRAM access
0314               !1
0315 A086 D832  40     movb *r2+,@VDPWDATA
     A088 8C00     
0316 A08A 0603  14     dec r3
0317 A08C 16FC  14     jne -!1
0318 A08E 045B  20     b *r11
0319               
0320               ; Define a pattern three times with 2k offsets - used for bitmap color and pattern tables
0321               ; Load VRAM 3 times with offset - address in R0, CPU data at R2, count in R3
0322               ; Original: address in pointer, CPU address at temp, count in temp2
0323               LDIRVM3
0324 A090 C10B  18     mov r11,r4      ; save return address
0325 A092 C142  18     mov r2,r5       ; save CPU address
0326 A094 C1C3  18     mov r3,r7       ; save count
0327 A096 06A0  32     bl @LDIRVM
     A098 A076     
0328 A09A 0220  22     ai r0,>0800     ; the OR'd mask doesn't matter
     A09C 0800     
0329 A09E C085  18     mov r5,r2       ; restore CPU
0330 A0A0 C0C7  18     mov r7,r3       ; restore count
0331 A0A2 06A0  32     bl @LDIRVM
     A0A4 A076     
0332 A0A6 0220  22     ai r0,>0800     ; the OR'd mask doesn't matter
     A0A8 0800     
0333 A0AA C085  18     mov r5,r2
0334 A0AC C0C7  18     mov r7,r3
0335 A0AE C2C4  18     mov r4,r11      ; for tail recursion
0336 A0B0 10E2  14     jmp LDIRVM
0337               
0338               ; Disable screen by setting VDP register 1 to >a2
0339               DISSCR
0340 A0B2 0300  22     limi 0
     A0B4 0000     
0341 A0B6 0200  20     li r0,>81a2
     A0B8 81A2     
0342               DISSCR2
0343 A0BA 06C0  14     swpb r0
0344 A0BC D800  30     movb r0,@VDPWADR
     A0BE 8C02     
0345 A0C0 06C0  14     swpb r0
0346 A0C2 D800  30     movb r0,@VDPWADR
     A0C4 8C02     
0347 A0C6 0300  22     limi 2
     A0C8 0002     
0348 A0CA 045B  20     b *r11
0349               
0350               ; enable screen by setting VDP register 1 to >E2
0351               ENASCR
0352 A0CC 0300  22     limi 0
     A0CE 0000     
0353 A0D0 0200  20     li r0,>81e2
     A0D2 81E2     
0354 A0D4 10F2  14     jmp DISSCR2
0355               
0356               ; copy a set of blocks of data to VDP, offset by 32 bytes each
0357               ; address in R8, CPU data at R9, count per row in R6 (MSB), number rows in R4 (MSB), CPU stride in R5 (MSB) (VDP stride fixed at 32)
0358               ; original: address in pointer, CPU address at temp, count per row in temp2, num rows in temp2+1, stride in YYXX
0359               CPYBLK
0360 A0D6 C1CB  18     mov r11,r7      ; save return
0361 A0D8 0986  32     srl r6,8
0362 A0DA 0984  32     srl r4,8
0363 A0DC 0985  32     srl r5,8        ; bytes to words
0364 A0DE 0300  22     limi 0
     A0E0 0000     
0365               !1
0366 A0E2 C008  18     mov r8,r0       ; get vdp address
0367 A0E4 C089  18     mov r9,r2       ; get cpu address
0368 A0E6 C0C6  18     mov r6,r3       ; get count
0369 A0E8 06A0  32     bl @LDIRVM      ; copy one row
     A0EA A076     
0370 A0EC A245  18     a r5,r9         ; add stride to CPU address
0371 A0EE 0228  22     ai r8,32        ; add 32 to VDP
     A0F0 0020     
0372 A0F2 0604  14     dec r4          ; count down rows
0373 A0F4 16F6  14     jne -!1         ; loop till done
0374 A0F6 0300  22     limi 2
     A0F8 0002     
0375 A0FA 0457  20     b *r7           ; back to caller
0376               
0377               ; clear screen and reset cursor to >1800
0378               cls
0379 A0FC C10B  18     mov r11,r4      ; save return
0380 A0FE 0200  20     li r0,>1800     ; SIT address
     A100 1800     
0381 A102 C800  30     mov r0,@cursor  ; save cursor
     A104 8342     
0382 A106 0202  20     li r2,>2000     ; byte to write
     A108 2000     
0383 A10A 0203  20     li r3,768       ; number of bytes
     A10C 0300     
0384 A10E 0300  22     limi 0          ; ints off
     A110 0000     
0385 A112 06A0  32     bl @FILVRM      ; write them
     A114 A042     
0386 A116 0300  22     limi 2          ; ints back on
     A118 0002     
0387 A11A 0454  20     b *r4           ; back to caller
0388               
0389               ; copy a string to screen at cursor - address enforced
0390               ; CPU address in R2, length in R3
0391               print_string
0392 A11C C10B  18     mov r11,r4      ; save return
0393 A11E C020  30     mov @cursor,r0  ; get cursor pos
     A120 8342     
0394 A122 0240  22     andi r0,>07ff   ; enforce position - pretty large range though? 80 column support maybe?
     A124 07FF     
0395 A126 0220  22     ai r0,>1800     ; add is safer than OR, and we have that option
     A128 1800     
0396 A12A A803  30     a r3,@cursor    ; add the count to cursor (might as well do it now!)
     A12C 8342     
0397 A12E 0300  22     limi 0
     A130 0000     
0398 A132 06A0  32     bl @LDIRVM      ; do the write
     A134 A076     
0399 A136 0300  22     limi 2
     A138 0002     
0400 A13A 0454  20     b *r4           ; back to caller
0401               
0402               ; emit a 16-bit number as decimal with leading zero masking at cursor
0403               ; R0 - number to print
0404               ; original number in YYAA?
0405               print_number
0406 A13C 0300  22     limi 0              ; interrupts off so we can hold the VDP address
     A13E 0000     
0407 A140 04C5  14     clr r5              ; leading zero flag
0408               print_number5
0409 A142 0201  20     li r1,10000         ; divisor
     A144 2710     
0410 A146 C10B  18     mov r11,r4
0411 A148 06A0  32     bl @print_digit
     A14A A18A     
0412 A14C C2C4  18     mov r4,r11
0413               print_number4
0414 A14E 0201  20     li r1,1000          ; divisor
     A150 03E8     
0415 A152 C10B  18     mov r11,r4
0416 A154 06A0  32     bl @print_digit
     A156 A18A     
0417 A158 C2C4  18     mov r4,r11
0418               print_number3
0419 A15A 0201  20     li r1,100           ; divisor
     A15C 0064     
0420 A15E C10B  18     mov r11,r4
0421 A160 06A0  32     bl @print_digit
     A162 A18A     
0422 A164 C2C4  18     mov r4,r11
0423               print_number2
0424 A166 0201  20     li r1,10
     A168 000A     
0425 A16A C10B  18     mov r11,r4
0426 A16C 06A0  32     bl @print_digit
     A16E A18A     
0427 A170 C2C4  18     mov r4,r11
0428               print_number1
0429 A172 0201  20     li r1,1
     A174 0001     
0430 A176 0245  22     andi r5,>00ff
     A178 00FF     
0431 A17A 0265  22     ori r5,>0100
     A17C 0100     
0432 A17E C10B  18     mov r11,r4
0433 A180 06A0  32     bl @print_digit
     A182 A18A     
0434 A184 0300  22     limi 2              ; ints on
     A186 0002     
0435 A188 0454  20     b *r4               ; back to caller
0436               
0437               print_digit
0438 A18A C18B  18     mov r11,r6
0439 A18C 04C2  14     clr r2
0440 A18E 3C81 128     div r1,r2
0441 A190 0222  22     ai r2,>30
     A192 0030     
0442 A194 0282  22     ci r2,>30
     A196 0030     
0443 A198 160B  14     jne !3
0444 A19A 0285  22     ci r5,>0100
     A19C 0100     
0445 A19E 1401  14     jhe !4
0446 A1A0 0456  20     b *r6
0447               !4
0448 A1A2 0285  22     ci r5,>0200
     A1A4 0200     
0449 A1A6 1A02  14     jl !6
0450 A1A8 C085  18     mov r5,r2
0451 A1AA 1606  14     jne print_char2
0452               !6
0453 A1AC 0202  20     li r2,>30
     A1AE 0030     
0454               !3
0455 A1B0 0245  22     andi r5,>00ff
     A1B2 00FF     
0456 A1B4 0265  22     ori r5,>0100
     A1B6 0100     
0457               print_char2
0458 A1B8 C020  30     mov @cursor,r0      ; get cursor
     A1BA 8342     
0459 A1BC 0240  22     andi r0,>07ff       ; enforce position - large range for two screen pages
     A1BE 07FF     
0460 A1C0 0220  22     ai r0,>1800         ; add is safer than OR, and we have that option
     A1C2 1800     
0461 A1C4 06A0  32     bl @SETWRT          ; set write address
     A1C6 A006     
0462 A1C8 06C2  14     swpb r2
0463 A1CA D802  30     movb r2,@VDPWDATA
     A1CC 8C00     
0464 A1CE 05A0  26     inc @cursor         ; track it
     A1D0 8342     
0465 A1D2 0456  20     b *r6
0466               print_char
0467 A1D4 C18B  18     mov r11,r6
0468 A1D6 0460  28     b @print_char2
     A1D8 A1B8     
0469               
0470               ; Load sprite definitions: Sprite number in R4, CPU data in R0, count of sprites in R5 (MSB)
0471               ; Original: pointer = sprite number, temp = CPU address, a = number sprites
0472               ; Note: sprites are all expected to be double-size 16x16, 32 bytes each, so sprite char 1 is character 4
0473               ; Sprite pattern table at >3800
0474               define_sprite
0475 A1DA C20B  18     mov r11,r8          ; save return
0476 A1DC C080  18     mov r0,r2           ; Source data.
0477 A1DE C004  18     mov r4,r0           ; VRAM target.
0478 A1E0 0A50  26     sla r0,5            ; sprite number times 32 for bytes
0479 A1E2 0220  22     ai r0,>3800         ; add VDP base
     A1E4 3800     
0480 A1E6 C0C5  18     mov r5,r3		; Length.
0481 A1E8 0983  32     srl r3,8            ; make int
0482 A1EA 0A53  26     sla r3,5            ; count times 32
0483 A1EC 0300  22     limi 0              ; ints off
     A1EE 0000     
0484 A1F0 06A0  32     bl @LDIRVM          ; do the copy
     A1F2 A076     
0485 A1F4 0300  22     limi 2              ; ints on
     A1F6 0002     
0486 A1F8 0458  20     b *r8               ; back to caller
0487               
0488               ; Load character definitions: Char number in R1, CPU data in R2, count in R3 (MSB)
0489               ; Original: pointer = char number, temp = CPU address, a = number chars
0490               ; Note this loads the pattern three times if in bitmap mode (MODE&0x04)
0491               ; Pattern table at >0000
0492               define_char
0493 A1FA C20B  18     mov r11,r8          ; save return
0494 A1FC C080  18     mov r0,r2           ; source data
0495 A1FE C004  18     mov r4,r0           ; move input to scratch
0496 A200 0A30  22     sla r0,3            ; char number times 8 (VDP base is 0, so already there)
0497 A202 C0C5  18     mov r5,r3
0498 A204 0983  32     srl r3,8            ; make word
0499 A206 0A33  22     sla r3,3            ; count times 8
0500 A208 D160  30     movb @mode,r5       ; get mode flags
     A20A 834E     
0501 A20C 0245  22     andi r5,>0800
     A20E 0800     
0502 A210 1607  14     jne !1              ; not in bitmap mode, do a single copy
0503               
0504 A212 0300  22     limi 0              ; ints off
     A214 0000     
0505 A216 06A0  32     bl @LDIRVM3         ; do the triple copy
     A218 A090     
0506 A21A 0300  22     limi 2              ; ints on
     A21C 0002     
0507 A21E 0458  20     b *r8               ; back to caller
0508               
0509               !1
0510 A220 0300  22     limi 0              ; ints off
     A222 0000     
0511 A224 06A0  32     bl @LDIRVM          ; do the single copy
     A226 A076     
0512 A228 0300  22     limi 2              ; ints on
     A22A 0002     
0513 A22C 0458  20     b *r8               ; back to caller
0514               
0515               ; Load bitmap color definitions: Char number in R1, CPU data in R2, count in R3 (MSB)
0516               ; Original: pointer = char number, temp = CPU address, a = number chars
0517               ; Note: always does the triple copy. Color table at >2000
0518               define_color
0519 A22E C20B  18     mov r11,r8          ; save return
0520 A230 C080  18     mov r0,r2           ; source data
0521 A232 C004  18     mov r4,r0           ; move input to scratch
0522 A234 0A30  22     sla r0,3            ; char number times 8
0523 A236 0220  22     ai r0,>2000         ; add base address
     A238 2000     
0524 A23A C0C5  18     mov r5,r3
0525 A23C 0983  32     srl r3,8            ; make word
0526 A23E 0A33  22     sla r3,3            ; count times 8
0527 A240 0300  22     limi 0              ; ints off
     A242 0000     
0528 A244 06A0  32     bl @LDIRVM3         ; do the triple copy
     A246 A090     
0529 A248 0300  22     limi 2              ; ints on
     A24A 0002     
0530 A24C 0458  20     b *r8               ; back to caller
0531               
0532               ; Update sprite entry - copy data (4 bytes) to sprite table mirror at sprites
0533               ; R4 = sprite number, R5 = byte 1, r6 = byte 2, r7 = byte 3, r0 = byte 4 (all MSB)
0534               ; Original: A = sprite number, source data at sprite_data
0535               update_sprite
0536 A24E 0984  32     srl r4,8            ; make word
0537 A250 0A24  20     sla r4,2            ; x4 for address
0538 A252 0224  22     ai r4,sprites       ; sprite mirror address
     A254 2000     
0539 A256 DD05  32     movb r5,*r4+        ; move bytes
0540 A258 DD06  32     movb r6,*r4+        ; move bytes
0541 A25A DD07  32     movb r7,*r4+        ; move bytes
0542 A25C DD00  32     movb r0,*r4+        ; move bytes
0543 A25E 045B  20     b *r11
0544               
0545               ; SGN R0 - return 1, -1 or 0 as 16 bit
0546               _sgn16
0547 A260 C000  18     mov r0,r0       ; check for zero
0548 A262 1306  14     jeq !1          ; if yes, we're done
0549 A264 0240  22     andi r0,>8000   ; check for negative
     A266 8000     
0550 A268 1302  14     jeq !2          ; was not
0551 A26A 0700  14     seto r0         ; was negative, make it -1
0552 A26C 045B  20     b *r11          ; back to caller
0553               !2
0554 A26E 0580  14     inc r0          ; we know it was zero, and we want 1
0555               !1
0556 A270 045B  20     b *r11          ; back to caller
0557               
0558               ; 16-bit signed modulo. R1 % R2 = R0 - 9900 doesn't do signed divide
0559               ; original was stack%stack=YYAA
0560               ; Remainder is negative if the dividend was negative
0561               _mod16s
0562 A272 04C0  14     clr r0          ; make dividend 32-bit
0563 A274 C082  18     mov r2,r2       ; check divisor for zero
0564 A276 130A  14     jeq !1
0565 A278 0742  18     abs r2          ; make sure divisor is positive
0566 A27A C041  18     mov r1,r1       ; check sign of dividend
0567 A27C 1505  14     jgt !2          ; go do the faster positive version
0568               
0569 A27E 0741  18     abs r1          ; was negative, make it positive
0570 A280 3C02 128     div r2,r0       ; do the division => r2=quotient, r3=remainder
0571 A282 0501  14     neg r1          ; make remainder negative
0572 A284 C001  18     mov r1,r0       ; into r0
0573 A286 045B  20     b *r11
0574               
0575               !2
0576 A288 3C02 128     div r2,r0       ; do the division => r2=quotient, r3=remainder
0577 A28A C001  18     mov r1,r0       ; into r0
0578               !1
0579 A28C 045B  20     b *r11
0580               
0581               ; 16-bit signed divide. R1 / R2 = R0 - 9900 doesn't do signed divide
0582               ; original was stack/stack=YYAA
0583               ; Remainder is negative if the signs differ
0584               _div16s
0585 A28E 04C0  14     clr r0          ; make dividend 32-bit
0586 A290 C0C2  18     mov r2,r3       ; check divisor for zero
0587 A292 1308  14     jeq !1          ;
0588 A294 28C1  18     xor r1,r3
0589 A296 0742  18     abs r2
0590 A298 0741  18     abs r1          ; might as well make them positive now that we have copies
0591 A29A 3C02 128     div r2,r0       ; do the divide => r0=quotient, r1=remainder
0592 A29C 0243  22     andi r3,>8000   ; mask out sign bit
     A29E 8000     
0593 A2A0 1301  14     jeq !1          ; skip ahead to positive version
0594               
0595 A2A2 0500  14     neg r0          ; negate the result
0596               !1
0597 A2A4 045B  20     b *r11
0598               
0599               ; Random number generator - return in R0, (complex one uses R3,R4, simpler one only R0)
0600               ; Original output into YYAA
0601               random
0628               ; simpler one from dreamcast days...
0629 A2A6 C020  30     mov @lfsr,r0        ; get seed
     A2A8 834C     
0630 A2AA 0910  18     srl r0,1            ; shift
0631 A2AC 1702  14     jnc .rand1          ; jump if no 1
0632 A2AE 2820  34     xor @rmask,r0       ; xor new bits
     A2B0 A2B8     
0633               .rand1
0634 A2B2 C800  30     mov r0,@lfsr        ; save the output
     A2B4 834C     
0635 A2B6 045B  20     b *r11
0636               rmask
0637 A2B8 B400         data >b400          ; mask for 16 bit
0639               
0640               ; Set SN Frequency: R0=frequency code, R2=channel command (MSB)
0641               ; Original: A=least significant byte  X=channel command  Y=most significant byte
0642               sn76489_freq
0643 A2BA C0C0  18     mov r0,r3
0644 A2BC 0243  22     andi r3,>000f
     A2BE 000F     
0645 A2C0 06C3  14     swpb r3
0646 A2C2 F083  18     socb r3,r2
0647 A2C4 D802  30     movb r2,@SOUND  ; cmd and least significant nibble
     A2C6 8400     
0648 A2C8 0940  24     srl r0,4
0649 A2CA 0240  22     andi r0,>003f
     A2CC 003F     
0650 A2CE 06C0  14     swpb r0
0651 A2D0 D800  30     movb r0,@SOUND  ; most significant byte
     A2D2 8400     
0652 A2D4 045B  20     b *r11
0653               
0654               ; Set SN volume: R0=volume (MSB, inverse of attenuation), R2=channel command (MSB)
0655               ; Original: A=volume (inverse of attenuation), X=channel command
0656               sn76489_vol
0657 A2D6 0540  14     inv r0
0658 A2D8 0240  22     andi r0,>0f00
     A2DA 0F00     
0659 A2DC F002  18     socb r2,r0
0660 A2DE D800  30     movb r0,@SOUND
     A2E0 8400     
0661 A2E2 045B  20     b *r11
0662               
0663               ; Set noise type: R0=Noise type (MSB)
0664               ; original: A=noise command
0665               sn76489_control
0666 A2E4 0240  22     andi r0,>0f00
     A2E6 0F00     
0667 A2E8 0260  22     ori r0,>e000
     A2EA E000     
0668 A2EC D800  30     movb r0,@SOUND
     A2EE 8400     
0669 A2F0 045B  20     b *r11
0670               
0671               ; Set up vdp generic settings - R0 should be preloaded with a register in MSB, data in LSB
0672               ; R2 should contain the color table entry (in MSB), R3 the bitmap table (in MSB). Rest is
0673               ; hard coded. WARNING: Disables interrupts but does not re-enable them.
0674               vdp_generic_mode
0675 A2F2 C10B  18     mov r11,r4      ; save return
0676 A2F4 0300  22     limi 0          ; ints off
     A2F6 0000     
0677               
0678 A2F8 06A0  32     bl @WRTVDP      ; caller must set up this one
     A2FA A000     
0679 A2FC 0200  20     li r0,>01a2     ; VDP mode, screen off
     A2FE 01A2     
0680 A300 06A0  32     bl @WRTVDP
     A302 A000     
0681 A304 0200  20     li r0,>0206     ; >1800 pattern table
     A306 0206     
0682 A308 06A0  32     bl @WRTVDP
     A30A A000     
0683 A30C 0200  20     li r0,>0003     ; for color table
     A30E 0003     
0684 A310 F002  18     socb r2,r0
0685 A312 06C0  14     swpb r0
0686 A314 06A0  32     bl @WRTVDP
     A316 A000     
0687 A318 0200  20     li r0,>0004     ; for pattern table
     A31A 0004     
0688 A31C F003  18     socb r3,r0
0689 A31E 06C0  14     swpb r0
0690 A320 06A0  32     bl @WRTVDP
     A322 A000     
0691 A324 0200  20     li r0,>0536     ; >1b00 for sprite attribute table
     A326 0536     
0692 A328 06A0  32     bl @WRTVDP
     A32A A000     
0693 A32C 0200  20     li r0,>0607     ; >3800 for sprite pattern table
     A32E 0607     
0694 A330 06A0  32     bl @WRTVDP
     A332 A000     
0695 A334 0200  20     li r0,>0701     ; default screen color
     A336 0701     
0696 A338 06A0  32     bl @WRTVDP
     A33A A000     
0697 A33C 0454  20     b *r4
0698               
0699               ; set up VDP mode 0
0700               mode_0
0701 A33E C20B  18     mov r11,r8      ; careful - we call vdp_generic_mode and LDIRVM3
0702 A340 0200  20     li r0,>0800     ; bit we want to clear
     A342 0800     
0703 A344 5800  30     szcb r0,@mode
     A346 834E     
0704               
0705 A348 0202  20     li r2,>ff00	    ; $2000 for color table.
     A34A FF00     
0706 A34C 0203  20     li r3,>0300	    ; $0000 for bitmaps
     A34E 0300     
0707 A350 0200  20     li r0,>0002     ; r0 setting
     A352 0002     
0708 A354 06A0  32     bl @vdp_generic_mode    ; interrupts are now off
     A356 A2F2     
0709               
0710 A358 0200  20     li r0,>0100     ; target in VDP memory
     A35A 0100     
0711 A35C 0202  20     li r2,font_bitmaps  ; CPU memory source
     A35E A674     
0712 A360 0203  20     li r3,>0300     ; number of bytes
     A362 0300     
0713 A364 06A0  32     bl @LDIRVM3
     A366 A090     
0714               
0715 A368 0300  22     limi 2
     A36A 0002     
0716 A36C 0300  22     limi 0
     A36E 0000     
0717               
0718 A370 0200  20     li r0,>2000
     A372 2000     
0719 A374 0202  20     li r2,>f000
     A376 F000     
0720 A378 0203  20     li r3,>1800     ; fill color table with white on transparent
     A37A 1800     
0721 A37C 06A0  32     bl @FILVRM
     A37E A042     
0722               
0723 A380 0300  22     limi 2
     A382 0002     
0724 A384 06A0  32     bl @cls
     A386 A0FC     
0725 A388 C2C8  18     mov r8,r11      ; restore return address, and fall through to vdp_generic_sprites
0726               
0727               ; Initialize sprite table
0728               vdp_generic_sprites
0729 A38A C20B  18     mov r11,r8      ; save return address
0730 A38C 0200  20     li r0,>1b00     ; sprite attribute table in VDP
     A38E 1B00     
0731 A390 0202  20     li r2,>d100     ; off screen, and otherwise unimportant
     A392 D100     
0732 A394 0203  20     li r3,128       ; number of bytes
     A396 0080     
0733               
0734 A398 0300  22     limi 0
     A39A 0000     
0735 A39C 06A0  32     bl @FILVRM
     A39E A042     
0736               
0737 A3A0 0200  20     li r0,sprites
     A3A2 2000     
0738 A3A4 0202  20     li r2,>d1d1     ; write 2 bytes at a time
     A3A6 D1D1     
0739 A3A8 0203  20     li r3,128
     A3AA 0080     
0740               !1
0741 A3AC CC02  34     mov r2,*r0+     ; initialize CPU mirror
0742 A3AE 0643  14     dect r3
0743 A3B0 16FD  14     jne -!1
0744               
0745 A3B2 0200  20     li r0,>01e2     ; screen on
     A3B4 01E2     
0746 A3B6 06A0  32     bl @WRTVDP
     A3B8 A000     
0747               
0748 A3BA 0300  22     limi 2
     A3BC 0002     
0749 A3BE 0458  20     b *r8
0750               
0751               ; set up VDP mode 1
0752               mode_1
0753 A3C0 C20B  18     mov r11,r8      ; careful - we call vdp_generic_mode and LDIRVM3
0754 A3C2 0200  20     li r0,>0800     ; bit we want to clear
     A3C4 0800     
0755 A3C6 5800  30     szcb r0,@mode
     A3C8 834E     
0756               
0757 A3CA 0202  20     li r2,>ff00	    ; $2000 for color table.
     A3CC FF00     
0758 A3CE 0203  20     li r3,>0300	    ; $0000 for bitmaps
     A3D0 0300     
0759 A3D2 0200  20     li r0,>0002     ; r0 setting
     A3D4 0002     
0760 A3D6 06A0  32     bl @vdp_generic_mode    ; interrupts are now off
     A3D8 A2F2     
0761               
0762 A3DA 0200  20     li r0,>0000
     A3DC 0000     
0763 A3DE 0202  20     li r2,>0000
     A3E0 0000     
0764 A3E2 0203  20     li r3,>1800
     A3E4 1800     
0765 A3E6 06A0  32     bl @FILVRM      ; clear pattern table
     A3E8 A042     
0766               
0767 A3EA 0300  22     limi 2
     A3EC 0002     
0768               
0769 A3EE 0200  20     li r0,>2000
     A3F0 2000     
0770 A3F2 0202  20     li r2,>f000
     A3F4 F000     
0771 A3F6 0203  20     li r3,>1800
     A3F8 1800     
0772               
0773 A3FA 0300  22     limi 0
     A3FC 0000     
0774 A3FE 06A0  32     bl @FILVRM      ; init color table
     A400 A042     
0775 A402 0300  22     limi 2
     A404 0002     
0776               
0777 A406 0200  20     li r0,>5800     ; >1800 with the write bit set
     A408 5800     
0778 A40A 04C3  14     clr r3          ; value to write
0779               
0780               !1
0781 A40C 0300  22     limi 0          ; write the screen image table, but pause every 32 bytes for interrupts
     A40E 0000     
0782               
0783 A410 06C0  14     swpb r0
0784 A412 D800  30     movb r0,@VDPWADR
     A414 8C02     
0785 A416 06C0  14     swpb r0
0786 A418 D800  30     movb r0,@VDPWADR
     A41A 8C02     
0787               
0788 A41C 0202  20     li r2,32
     A41E 0020     
0789               
0790               !2
0791 A420 D803  30     movb r3,@VDPWDATA
     A422 8C00     
0792 A424 0223  22     ai r3,>0100
     A426 0100     
0793 A428 0602  14     dec r2
0794 A42A 16FA  14     jne -!2
0795               
0796 A42C 0300  22     limi 2
     A42E 0002     
0797 A430 0220  22     ai r0,32
     A432 0020     
0798 A434 0280  22     ci r0,>5b00
     A436 5B00     
0799 A438 1AE9  14     jl -!1
0800               
0801 A43A C2C8  18     mov r8,r11      ; restore return address
0802 A43C 10A6  14     jmp vdp_generic_sprites     ; using tail recursion
0803               
0804               ; Set up VDP mode 2
0805               mode_2
0806 A43E C20B  18     mov r11,r8      ; careful - we call vdp_generic_mode and LDIRVM3
0807 A440 0200  20     li r0,>0800     ; bit we want to set
     A442 0800     
0808 A444 F800  30     socb r0,@mode
     A446 834E     
0809               
0810 A448 0202  20     li r2,>8000	    ; $2000 for color table.
     A44A 8000     
0811 A44C 0203  20     li r3,>0000	    ; $0000 for bitmaps
     A44E 0000     
0812 A450 0200  20     li r0,>0000     ; r0 setting
     A452 0000     
0813 A454 06A0  32     bl @vdp_generic_mode    ; interrupts are now off
     A456 A2F2     
0814               
0815 A458 0200  20     li r0,>0100
     A45A 0100     
0816 A45C 0202  20     li r2,font_bitmaps
     A45E A674     
0817 A460 0203  20     li r3,>0300
     A462 0300     
0818 A464 06A0  32     bl @LDIRVM      ; load character set
     A466 A076     
0819               
0820 A468 0300  22     limi 2
     A46A 0002     
0821 A46C 0300  22     limi 0
     A46E 0000     
0822               
0823 A470 0200  20     li r0,>2000
     A472 2000     
0824 A474 0202  20     li r2,>f000
     A476 F000     
0825 A478 0203  20     li r3,>0020
     A47A 0020     
0826 A47C 06A0  32     bl @FILVRM      ; init color table
     A47E A042     
0827               
0828 A480 0300  22     limi 2
     A482 0002     
0829 A484 06A0  32     bl @cls         ; clear screen
     A486 A0FC     
0830 A488 C2C8  18     mov r8,r11      ; restore return
0831 A48A 0460  28     b @vdp_generic_sprites
     A48C A38A     
0832               
0833               ; this is where interrupts happen every frame
0834               ; Unlike a normal TI application, this one runs with interrupts ON,
0835               ; so all operations need to be sure to protect VDP address with LIMI 0,
0836               ; as well as any operations that might need to manipulate data managed
0837               ; by this interrupt. We enter via the normal user hook, so WP is on
0838               ; GPLWS, interrupts are off, and the VDP is already reset and status
0839               ; stashed on vdp_status (>837b). Our return address to the ROM is in
0840               ; r11, but we are NOT going to use it so that we don't need to reserve
0841               ; r8 for whatever nonsense it does. That means we need to load intws
0842               ; and RTWP ourselves at the end. We are on our own workspace so we
0843               ; don't have to worry about the main app's workspace.
0844               int_handler
0845               ; first copy the sprite table
0846 A48E 02E0  18     lwpi myintwp        ; separate safe workspace
     A490 8320     
0847               
0851               
0852 A492 020B  20     li r11,>005b        ; >1b00 with the write bit added, and byte flipped
     A494 005B     
0853 A496 D80B  30     movb r11,@VDPWADR   ; SAL address
     A498 8C02     
0854 A49A 06CB  14     swpb r11
0855 A49C D80B  30     movb r11,@VDPWADR   ; going to copy the sprite table to VDP
     A49E 8C02     
0856               
0857 A4A0 D2E0  30     movb @mode,r11
     A4A2 834E     
0858 A4A4 024B  22     andi r11,>0400      ; if bit >04 (inhibit flicker) is cleared, jump ahead to rotate
     A4A6 0400     
0859 A4A8 130A  14     jeq !4
0860               
0861 A4AA 04CB  14     clr r11             ; else we're going to just write it straight across
0862 A4AC 020C  20     li r12,128
     A4AE 0080     
0863 A4B0 020D  20     li r13,sprites
     A4B2 2000     
0864               !7
0865 A4B4 D83D  40     movb *r13+,@VDPWDATA
     A4B6 8C00     
0866 A4B8 060C  14     dec r12
0867 A4BA 16FC  14     jne -!7
0868 A4BC 101B  14     jmp !5
0869               
0870               !4
0871 A4BE D2E0  30     movb @flicker,r11   ; here we write it rotated every frame
     A4C0 834F     
0872 A4C2 022B  22     ai r11,>0400
     A4C4 0400     
0873 A4C6 024B  22     andi r11,>7f00
     A4C8 7F00     
0874 A4CA D80B  30     movb r11,@flicker
     A4CC 834F     
0875 A4CE 06CB  14     swpb r11            ; make count
0876 A4D0 020C  20     li r12,32           ; count
     A4D2 0020     
0877               
0878               !6
0879 A4D4 022B  22     ai r11,sprites        ; this is still faster than separate incs
     A4D6 2000     
0880 A4D8 D83B  40     movb *r11+,@VDPWDATA  ; copy one sprite
     A4DA 8C00     
0881 A4DC D83B  40     movb *r11+,@VDPWDATA  ; no delay needed
     A4DE 8C00     
0882 A4E0 D83B  40     movb *r11+,@VDPWDATA
     A4E2 8C00     
0883 A4E4 D81B  38     movb *r11,@VDPWDATA   ; small optimization, since we have an add coming anyway
     A4E6 8C00     
0884 A4E8 022B  22     ai r11,-(sprites-1)   ; remove address and add the rest of the increment
     A4EA E001     
0885 A4EC 024B  22     andi r11,>007F        ; clamp it in range
     A4EE 007F     
0886 A4F0 060C  14     dec r12
0887 A4F2 16F0  14     jne -!6
0888               !5
0889               
0890               ; next read the joysticks - output needs to be 21xxLDRU - 1 and 2 are button and button2 respectively
0891               ; We don't have a button 2. We also need to read the keyboard and fill in key1_data. key2_data we
0892               ; will leave unused. Note key1_data expects Coleco-style 0-9,10-*,11-#,15=not pressed, but we can throw
0893               ; everything else as ASCII. We could do a split keyboard for 2 players, but I guess we'll leave it for now.
0894               ; joy1
0895 A4F4 020C  20     li r12,>0024    ; CRU base of select output
     A4F6 0024     
0896 A4F8 020D  20     li r13,>0600    ; joystick 1 column
     A4FA 0600     
0897 A4FC 30CD  30     ldcr r13,3      ; select it
0898 A4FE 0B7C  30     src r12,7       ; delay
0899 A500 020C  20     li r12,>0006    ; CRU base of return read
     A502 0006     
0900 A504 360D  48     stcr r13,8      ; read 8 bits (we could get away with fewer, but be consistent)
0901 A506 06A0  32     bl @convert_joystick
     A508 A5C8     
0902 A50A D80C  30     movb r12,@joy1_data
     A50C 8346     
0903               
0904               ; joy2
0905 A50E 020C  20     li r12,>0024    ; CRU base of select output
     A510 0024     
0906 A512 020D  20     li r13,>0700    ; joystick 2 column
     A514 0700     
0907 A516 30CD  30     ldcr r13,3      ; select it
0908 A518 0B7C  30     src r12,7       ; delay
0909 A51A 020C  20     li r12,>0006    ; CRU base of return read
     A51C 0006     
0910 A51E 360D  48     stcr r13,8      ; read 8 bits (we could get away with fewer, but be consistent)
0911 A520 06A0  32     bl @convert_joystick
     A522 A5C8     
0912 A524 D80C  30     movb r12,@joy2_data
     A526 8347     
0913               
0914               ; do a quick modifier read for button 2 (control and fctn for joy 1 and 2 respectively)
0915 A528 020C  20     li r12,>0024    ; CRU base of select output
     A52A 0024     
0916 A52C 04CD  14     clr r13         ; modifiers
0917 A52E 30CD  30     ldcr r13,3      ; select it
0918 A530 0B7C  30     src r12,7       ; delay
0919 A532 020C  20     li r12,>0006    ; CRU base of return read
     A534 0006     
0920 A536 360D  48     stcr r13,8      ; read 8 bits (we could get away with fewer, but be consistent)
0921 A538 020C  20     li r12,>4000    ; control
     A53A 4000     
0922 A53C 020B  20     li r11,>8000    ; button 2 bit
     A53E 8000     
0923 A540 274C  18     czc r12,r13
0924 A542 1602  14     jne .noc1b2
0925 A544 F80B  30     socb r11,@joy1_data
     A546 8346     
0926               .noc1b2
0927 A548 020C  20     li r12,>1000    ; fctn
     A54A 1000     
0928 A54C 274C  18     czc r12,r13
0929 A54E 1602  14     jne .noc2b2
0930 A550 F80B  30     socb r11,@joy2_data
     A552 8347     
0931               .noc2b2
0932               
0933               ; key1 - this is a very simple read with no modifiers, it just gives access to the letters and numbers
0934 A554 04CB  14     clr r11         ; column
0935               !key1
0936 A556 020C  20     li r12,>0024    ; CRU base of select output
     A558 0024     
0937 A55A 30CB  30     ldcr r11,3      ; select column
0938 A55C 0B7C  30     src r12,7       ; delay
0939 A55E 020C  20     li r12,>0006    ; CRU base of return read
     A560 0006     
0940 A562 360D  48     stcr r13,8      ; get the bits
0941 A564 020C  20     li r12,7        ; bit search
     A566 0007     
0942               !key2
0943 A568 0A1C  18     sla r12,1
0944 A56A 276C  34     czc @masktable(r12),r13    ; bit set?
     A56C A638     
0945 A56E 1607  14     jne !key3       ; continue
0946 A570 091C  18     srl r12,1
0947 A572 095B  26     srl r11,5
0948 A574 A2CC  18     a r12,r11       ; calculate table offset
0949 A576 D82B  46     movb @keyboard_table(r11),@key1_data    ; might be a dead key, but that's okay
     A578 A608     
     A57A 8348     
0950 A57C 100D  14     jmp !key4
0951               
0952               !key3
0953 A57E 091C  18     srl r12,1
0954 A580 060C  14     dec r12
0955 A582 15F2  14     jgt -!key2
0956 A584 13F1  14     jeq -!key2      ; we don't have a jump if not negative
0957               
0958 A586 022B  22     ai r11,>0100
     A588 0100     
0959 A58A 028B  22     ci r11,>0600
     A58C 0600     
0960 A58E 16E3  14     jne -!key1
0961               
0962 A590 020B  20     li r11,>0f00
     A592 0F00     
0963 A594 D80B  30     movb r11,@key1_data     ; no key was pressed
     A596 8348     
0964               !key4
0965               
0966               ; check for quit - attempts to work it into the above were not working
0967               ; borrowed from console ROM
0968 A598 020C  20     li r12,>0024
     A59A 0024     
0969 A59C 30CC  30     ldcr r12,3
0970 A59E 0B7C  30     src r12,7
0971 A5A0 020C  20     li r12,>0006
     A5A2 0006     
0972 A5A4 360B  48     stcr r11,8
0973 A5A6 020C  20     li r12,>1100
     A5A8 1100     
0974 A5AA 26CC  18     czc r12,r11
0975 A5AC 1604  14     jne .noquit
0976 A5AE 04E0  26     clr @intwsr2
     A5B0 83C4     
0977 A5B2 0420  42     blwp @>0000
     A5B4 0000     
0978               .noquit
0979               
0986               
0987 A5B6 05A0  26     inc @frame
     A5B8 834A     
0988 A5BA 0200  20     li r0,3
     A5BC 0003     
0989 A5BE A800  30     a r0,@lfsr  ; Make LFSR more random
     A5C0 834C     
0990               
1006               
1007               
1008               ; restore the saved bank
1013               
1014               ; get back the interrupt workspace and return
1015 A5C2 02E0  18     lwpi INTWS
     A5C4 83C0     
1016 A5C6 0380  18     RTWP
1017               
1018               ; given a joystick read in r13, return bits in r12
1019               ; The final output is 8 bits:
1020               ; 21xxLDRU - 1 and 2 are button and button2 respectively
1021               ; NOTE: if called by the compiler, this won't act as expected
1022               convert_joystick
1023 A5C8 04CC  14     clr r12
1024 A5CA 2760  34     czc @joystick_table,r13
     A5CC A5FE     
1025 A5CE 1602  14     jne !j1
1026 A5D0 026C  22     ori r12,>0800
     A5D2 0800     
1027               !j1
1028 A5D4 2760  34     czc @joystick_table+2,r13
     A5D6 A600     
1029 A5D8 1602  14     jne !j2
1030 A5DA 026C  22     ori r12,>0400
     A5DC 0400     
1031               !j2
1032 A5DE 2760  34     czc @joystick_table+4,r13
     A5E0 A602     
1033 A5E2 1602  14     jne !j3
1034 A5E4 026C  22     ori r12,>0200
     A5E6 0200     
1035               !j3
1036 A5E8 2760  34     czc @joystick_table+6,r13
     A5EA A604     
1037 A5EC 1602  14     jne !j4
1038 A5EE 026C  22     ori r12,>0100
     A5F0 0100     
1039               !j4
1040 A5F2 2760  34     czc @joystick_table+8,r13
     A5F4 A606     
1041 A5F6 1602  14     jne !j5
1042 A5F8 026C  22     ori r12,>4000
     A5FA 4000     
1043               !j5
1044 A5FC 045B  20     b *r11
1045               
1046               joystick_table
1047 A5FE 0200         data >0200,>0800,>0400,>1000,>0100    ; LDRU1
     A600 0800     
     A602 0400     
     A604 1000     
     A606 0100     
1048               
1049               ; By columns, then rows. 8 Rows per column. No shift states - converted to the Coleco returns
1050               ; for numbers, , and . become ; and #. Control is control1 button2, and Fctn is control2 button2
1051               keyboard_table
1052 A608 3D20         byte 61,32,11,15,254,15,255,15  ; '=',' ',enter,n/a,fctn,shift,ctrl,n/a
     A60A 0B0F     
     A60C FE0F     
     A60E FF0F     
1053 A610 2E4C         byte 46,76,79,9,2,83,87,88      ; '.','L','O','9','2','S','W','X'
     A612 4F09     
     A614 0253     
     A616 5758     
1054 A618 2C4B         byte 44,75,73,8,3,68,69,67      ; ',','K','I','8','3','D','E','C'
     A61A 4908     
     A61C 0344     
     A61E 4543     
1055 A620 4D4A         byte 77,74,85,7,4,70,82,86      ; 'M','J','U','7','4','F','R','V'
     A622 5507     
     A624 0446     
     A626 5256     
1056 A628 4E48         byte 78,72,89,6,5,71,84,66      ; 'N','H','Y','6','5','G','T','B'
     A62A 5906     
     A62C 0547     
     A62E 5442     
1057 A630 0A3B         byte 10,59,80,0,1,65,81,90      ; '/',';','P','0','1','A','Q','Z'
     A632 5000     
     A634 0141     
     A636 515A     
1058               
1059               masktable
1060 A638 0100         data >0100,>0200,>0400,>0800,>1000,>2000,>4000,>8000
     A63A 0200     
     A63C 0400     
     A63E 0800     
     A640 1000     
     A642 2000     
     A644 4000     
     A646 8000     
1061 A648 0F00         data >0f00
1062               
1063               ; wait for frame to increment
1064               wait
1065 A64A C020  30     mov @frame,r0
     A64C 834A     
1066               !1
1067 A64E 8800  30     c r0,@frame
     A650 834A     
1068 A652 13FD  14     jeq -!1
1069 A654 045B  20     b *r11
1070               
1071               ; initialize music system
1072               music_init
1073               ; mute sound chip
1074 A656 0200  20     li r0,>9fbf
     A658 9FBF     
1075 A65A D800  30     movb r0,@SOUND
     A65C 8400     
1076 A65E 06C0  14     swpb r0
1077 A660 D800  30     movb r0,@SOUND
     A662 8400     
1078 A664 0200  20     li r0,>dfff
     A666 DFFF     
1079 A668 D800  30     movb r0,@SOUND
     A66A 8400     
1080 A66C 06C0  14     swpb r0
1081 A66E D800  30     movb r0,@SOUND
     A670 8400     
1082               
1084               ; return if we don't have the player compiled in
1085 A672 045B  20     b *r11
1087               
1088               ; all the rest of the player is under this if
1525               
1526               
1819               
1820               ; Required for Creativision because it doesn't provide an ASCII charset.
1821               ; Kept for TI to reduce dependence on the console and because it looks
1822               ; better than the caps.
1823               ;
1824               ; My personal font for TMS9928.
1825               ;
1826               ; Patterned after the TMS9928 programming manual 6x8 letters
1827               ; with better lowercase letters, also I made a proper
1828               ; AT sign.
1829               ;
1830               font_bitmaps
1831 A674 0000         byte >00,>00,>00,>00,>00,>00,>00,>00      ; >20 space
     A676 0000     
     A678 0000     
     A67A 0000     
1832 A67C 2020         byte >20,>20,>20,>20,>20,>00,>20,>00      ; >21 !
     A67E 2020     
     A680 2000     
     A682 2000     
1833 A684 5050         byte >50,>50,>50,>00,>00,>00,>00,>00      ; >22 "
     A686 5000     
     A688 0000     
     A68A 0000     
1834 A68C 5050         byte >50,>50,>f8,>50,>f8,>50,>50,>00      ; >23 #
     A68E F850     
     A690 F850     
     A692 5000     
1835 A694 2078         byte >20,>78,>a0,>70,>28,>f0,>20,>00      ; >24 >
     A696 A070     
     A698 28F0     
     A69A 2000     
1836 A69C C0C8         byte >c0,>c8,>10,>20,>40,>98,>18,>00      ; >25 %
     A69E 1020     
     A6A0 4098     
     A6A2 1800     
1837 A6A4 40A0         byte >40,>a0,>40,>a0,>a8,>90,>68,>00      ; >26 &
     A6A6 40A0     
     A6A8 A890     
     A6AA 6800     
1838 A6AC 6020         byte >60,>20,>40,>00,>00,>00,>00,>00      ; >27 '
     A6AE 4000     
     A6B0 0000     
     A6B2 0000     
1839 A6B4 1020         byte >10,>20,>40,>40,>40,>20,>10,>00      ; >28 (
     A6B6 4040     
     A6B8 4020     
     A6BA 1000     
1840 A6BC 4020         byte >40,>20,>10,>10,>10,>20,>40,>00      ; >29 )
     A6BE 1010     
     A6C0 1020     
     A6C2 4000     
1841 A6C4 00A8         byte >00,>a8,>70,>20,>70,>a8,>00,>00      ; >2a *
     A6C6 7020     
     A6C8 70A8     
     A6CA 0000     
1842 A6CC 0020         byte >00,>20,>20,>f8,>20,>20,>00,>00      ; >2b +
     A6CE 20F8     
     A6D0 2020     
     A6D2 0000     
1843 A6D4 0000         byte >00,>00,>00,>00,>00,>60,>20,>40      ; >2c ,
     A6D6 0000     
     A6D8 0060     
     A6DA 2040     
1844 A6DC 0000         byte >00,>00,>00,>fc,>00,>00,>00,>00      ; >2d -
     A6DE 00FC     
     A6E0 0000     
     A6E2 0000     
1845 A6E4 0000         byte >00,>00,>00,>00,>00,>00,>60,>00      ; >2e .
     A6E6 0000     
     A6E8 0000     
     A6EA 6000     
1846 A6EC 0008         byte >00,>08,>10,>20,>40,>80,>00,>00      ; >2f /
     A6EE 1020     
     A6F0 4080     
     A6F2 0000     
1847 A6F4 7088         byte >70,>88,>98,>a8,>c8,>88,>70,>00      ; >30 0
     A6F6 98A8     
     A6F8 C888     
     A6FA 7000     
1848 A6FC 2060         byte >20,>60,>20,>20,>20,>20,>f8,>00      ; >31 1
     A6FE 2020     
     A700 2020     
     A702 F800     
1849 A704 7088         byte >70,>88,>08,>10,>60,>80,>f8,>00      ; >32 2
     A706 0810     
     A708 6080     
     A70A F800     
1850 A70C 7088         byte >70,>88,>08,>30,>08,>88,>70,>00      ; >33 3
     A70E 0830     
     A710 0888     
     A712 7000     
1851 A714 3050         byte >30,>50,>90,>90,>f8,>10,>10,>00      ; >34 4
     A716 9090     
     A718 F810     
     A71A 1000     
1852 A71C F880         byte >f8,>80,>f0,>08,>08,>08,>f0,>00      ; >35 5
     A71E F008     
     A720 0808     
     A722 F000     
1853 A724 3040         byte >30,>40,>80,>f0,>88,>88,>70,>00      ; >36 6
     A726 80F0     
     A728 8888     
     A72A 7000     
1854 A72C F808         byte >f8,>08,>10,>20,>20,>20,>20,>00      ; >37 7
     A72E 1020     
     A730 2020     
     A732 2000     
1855 A734 7088         byte >70,>88,>88,>70,>88,>88,>70,>00      ; >38 8
     A736 8870     
     A738 8888     
     A73A 7000     
1856 A73C 7088         byte >70,>88,>88,>78,>08,>10,>60,>00      ; >39 9
     A73E 8878     
     A740 0810     
     A742 6000     
1857 A744 0000         byte >00,>00,>00,>60,>00,>60,>00,>00      ; >3a
     A746 0060     
     A748 0060     
     A74A 0000     
1858 A74C 0000         byte >00,>00,>00,>60,>00,>60,>20,>40      ; >3b *
     A74E 0060     
     A750 0060     
     A752 2040     
1859 A754 1020         byte >10,>20,>40,>80,>40,>20,>10,>00      ; >3c <
     A756 4080     
     A758 4020     
     A75A 1000     
1860 A75C 0000         byte >00,>00,>f8,>00,>f8,>00,>00,>00      ; >3d =
     A75E F800     
     A760 F800     
     A762 0000     
1861 A764 0804         byte >08,>04,>02,>01,>02,>04,>08,>00      ; >3e >
     A766 0201     
     A768 0204     
     A76A 0800     
1862 A76C 7088         byte >70,>88,>08,>10,>20,>00,>20,>00      ; >3f ?
     A76E 0810     
     A770 2000     
     A772 2000     
1863 A774 7088         byte >70,>88,>98,>a8,>98,>80,>70,>00      ; >40 @
     A776 98A8     
     A778 9880     
     A77A 7000     
1864 A77C 2050         byte >20,>50,>88,>88,>f8,>88,>88,>00      ; >41 A
     A77E 8888     
     A780 F888     
     A782 8800     
1865 A784 F088         byte >f0,>88,>88,>f0,>88,>88,>f0,>00      ; >42 B
     A786 88F0     
     A788 8888     
     A78A F000     
1866 A78C 7088         byte >70,>88,>80,>80,>80,>88,>70,>00      ; >43 C
     A78E 8080     
     A790 8088     
     A792 7000     
1867 A794 F088         byte >f0,>88,>88,>88,>88,>88,>f0,>00      ; >44 D
     A796 8888     
     A798 8888     
     A79A F000     
1868 A79C F880         byte >f8,>80,>80,>f0,>80,>80,>f8,>00      ; >45 E
     A79E 80F0     
     A7A0 8080     
     A7A2 F800     
1869 A7A4 F880         byte >f8,>80,>80,>f0,>80,>80,>80,>00      ; >46 F
     A7A6 80F0     
     A7A8 8080     
     A7AA 8000     
1870 A7AC 7088         byte >70,>88,>80,>b8,>88,>88,>70,>00      ; >47 G
     A7AE 80B8     
     A7B0 8888     
     A7B2 7000     
1871 A7B4 8888         byte >88,>88,>88,>f8,>88,>88,>88,>00      ; >48 H
     A7B6 88F8     
     A7B8 8888     
     A7BA 8800     
1872 A7BC 7020         byte >70,>20,>20,>20,>20,>20,>70,>00      ; >49 I
     A7BE 2020     
     A7C0 2020     
     A7C2 7000     
1873 A7C4 0808         byte >08,>08,>08,>08,>88,>88,>70,>00      ; >4A J
     A7C6 0808     
     A7C8 8888     
     A7CA 7000     
1874 A7CC 8890         byte >88,>90,>a0,>c0,>a0,>90,>88,>00      ; >4B K
     A7CE A0C0     
     A7D0 A090     
     A7D2 8800     
1875 A7D4 8080         byte >80,>80,>80,>80,>80,>80,>f8,>00      ; >4C L
     A7D6 8080     
     A7D8 8080     
     A7DA F800     
1876 A7DC 88D8         byte >88,>d8,>a8,>a8,>88,>88,>88,>00      ; >4D M
     A7DE A8A8     
     A7E0 8888     
     A7E2 8800     
1877 A7E4 88C8         byte >88,>c8,>c8,>a8,>98,>98,>88,>00      ; >4E N
     A7E6 C8A8     
     A7E8 9898     
     A7EA 8800     
1878 A7EC 7088         byte >70,>88,>88,>88,>88,>88,>70,>00      ; >4F O
     A7EE 8888     
     A7F0 8888     
     A7F2 7000     
1879 A7F4 F088         byte >f0,>88,>88,>f0,>80,>80,>80,>00      ; >50 P
     A7F6 88F0     
     A7F8 8080     
     A7FA 8000     
1880 A7FC 7088         byte >70,>88,>88,>88,>88,>a8,>90,>68      ; >51 Q
     A7FE 8888     
     A800 88A8     
     A802 9068     
1881 A804 F088         byte >f0,>88,>88,>f0,>a0,>90,>88,>00      ; >52 R
     A806 88F0     
     A808 A090     
     A80A 8800     
1882 A80C 7088         byte >70,>88,>80,>70,>08,>88,>70,>00      ; >53 S
     A80E 8070     
     A810 0888     
     A812 7000     
1883 A814 F820         byte >f8,>20,>20,>20,>20,>20,>20,>00      ; >54 T
     A816 2020     
     A818 2020     
     A81A 2000     
1884 A81C 8888         byte >88,>88,>88,>88,>88,>88,>70,>00      ; >55 U
     A81E 8888     
     A820 8888     
     A822 7000     
1885 A824 8888         byte >88,>88,>88,>88,>50,>50,>20,>00      ; >56 V
     A826 8888     
     A828 5050     
     A82A 2000     
1886 A82C 8888         byte >88,>88,>88,>a8,>a8,>d8,>88,>00      ; >57 W
     A82E 88A8     
     A830 A8D8     
     A832 8800     
1887 A834 8888         byte >88,>88,>50,>20,>50,>88,>88,>00      ; >58 X
     A836 5020     
     A838 5088     
     A83A 8800     
1888 A83C 8888         byte >88,>88,>88,>70,>20,>20,>20,>00      ; >59 Y
     A83E 8870     
     A840 2020     
     A842 2000     
1889 A844 F808         byte >f8,>08,>10,>20,>40,>80,>f8,>00      ; >5A Z
     A846 1020     
     A848 4080     
     A84A F800     
1890 A84C 7860         byte >78,>60,>60,>60,>60,>60,>78,>00      ; >5B [
     A84E 6060     
     A850 6060     
     A852 7800     
1891 A854 0080         byte >00,>80,>40,>20,>10,>08,>00,>00      ; >5C \
     A856 4020     
     A858 1008     
     A85A 0000     
1892 A85C F030         byte >F0,>30,>30,>30,>30,>30,>F0,>00      ; >5D ]
     A85E 3030     
     A860 3030     
     A862 F000     
1893 A864 2050         byte >20,>50,>88,>00,>00,>00,>00,>00      ; >5E
     A866 8800     
     A868 0000     
     A86A 0000     
1894 A86C 0000         byte >00,>00,>00,>00,>00,>00,>f8,>00      ; >5F _
     A86E 0000     
     A870 0000     
     A872 F800     
1895 A874 4020         byte >40,>20,>10,>00,>00,>00,>00,>00      ; >60
     A876 1000     
     A878 0000     
     A87A 0000     
1896 A87C 0000         byte >00,>00,>68,>98,>88,>98,>68,>00      ; >61 a
     A87E 6898     
     A880 8898     
     A882 6800     
1897 A884 8080         byte >80,>80,>f0,>88,>88,>88,>f0,>00      ; >62 b
     A886 F088     
     A888 8888     
     A88A F000     
1898 A88C 0000         byte >00,>00,>78,>80,>80,>80,>78,>00      ; >63 c
     A88E 7880     
     A890 8080     
     A892 7800     
1899 A894 0808         byte >08,>08,>68,>98,>88,>98,>68,>00      ; >64 d
     A896 6898     
     A898 8898     
     A89A 6800     
1900 A89C 0000         byte >00,>00,>70,>88,>f8,>80,>70,>00      ; >65 e
     A89E 7088     
     A8A0 F880     
     A8A2 7000     
1901 A8A4 3048         byte >30,>48,>40,>e0,>40,>40,>40,>00      ; >66 f
     A8A6 40E0     
     A8A8 4040     
     A8AA 4000     
1902 A8AC 0000         byte >00,>00,>78,>88,>88,>78,>08,>70      ; >67 g
     A8AE 7888     
     A8B0 8878     
     A8B2 0870     
1903 A8B4 8080         byte >80,>80,>f0,>88,>88,>88,>88,>00      ; >68 h
     A8B6 F088     
     A8B8 8888     
     A8BA 8800     
1904 A8BC 2000         byte >20,>00,>60,>20,>20,>20,>70,>00      ; >69 i
     A8BE 6020     
     A8C0 2020     
     A8C2 7000     
1905 A8C4 0800         byte >08,>00,>18,>08,>88,>88,>70,>00      ; >6a j
     A8C6 1808     
     A8C8 8888     
     A8CA 7000     
1906 A8CC 8080         byte >80,>80,>88,>90,>e0,>90,>88,>00      ; >6b k
     A8CE 8890     
     A8D0 E090     
     A8D2 8800     
1907 A8D4 6020         byte >60,>20,>20,>20,>20,>20,>70,>00      ; >6c l
     A8D6 2020     
     A8D8 2020     
     A8DA 7000     
1908 A8DC 0000         byte >00,>00,>d0,>a8,>a8,>a8,>a8,>00      ; >6d m
     A8DE D0A8     
     A8E0 A8A8     
     A8E2 A800     
1909 A8E4 0000         byte >00,>00,>b0,>c8,>88,>88,>88,>00      ; >6e n
     A8E6 B0C8     
     A8E8 8888     
     A8EA 8800     
1910 A8EC 0000         byte >00,>00,>70,>88,>88,>88,>70,>00      ; >6f o
     A8EE 7088     
     A8F0 8888     
     A8F2 7000     
1911 A8F4 0000         byte >00,>00,>f0,>88,>88,>88,>f0,>80      ; >70 p
     A8F6 F088     
     A8F8 8888     
     A8FA F080     
1912 A8FC 0000         byte >00,>00,>78,>88,>88,>88,>78,>08      ; >71 q
     A8FE 7888     
     A900 8888     
     A902 7808     
1913 A904 0000         byte >00,>00,>b8,>c0,>80,>80,>80,>00      ; >72 r
     A906 B8C0     
     A908 8080     
     A90A 8000     
1914 A90C 0000         byte >00,>00,>78,>80,>70,>08,>f0,>00      ; >73 s
     A90E 7880     
     A910 7008     
     A912 F000     
1915 A914 2020         byte >20,>20,>f8,>20,>20,>20,>20,>00      ; >74 t
     A916 F820     
     A918 2020     
     A91A 2000     
1916 A91C 0000         byte >00,>00,>88,>88,>88,>98,>68,>00      ; >75 u
     A91E 8888     
     A920 8898     
     A922 6800     
1917 A924 0000         byte >00,>00,>88,>88,>88,>50,>20,>00      ; >76 v
     A926 8888     
     A928 8850     
     A92A 2000     
1918 A92C 0000         byte >00,>00,>88,>a8,>a8,>a8,>50,>00      ; >77 w
     A92E 88A8     
     A930 A8A8     
     A932 5000     
1919 A934 0000         byte >00,>00,>88,>50,>20,>50,>88,>00      ; >78 x
     A936 8850     
     A938 2050     
     A93A 8800     
1920 A93C 0000         byte >00,>00,>88,>88,>98,>68,>08,>70      ; >79 y
     A93E 8888     
     A940 9868     
     A942 0870     
1921 A944 0000         byte >00,>00,>f8,>10,>20,>40,>f8,>00      ; >7a z
     A946 F810     
     A948 2040     
     A94A F800     
1922 A94C 1820         byte >18,>20,>20,>40,>20,>20,>18,>00      ; >7b {
     A94E 2040     
     A950 2020     
     A952 1800     
1923 A954 2020         byte >20,>20,>20,>20,>20,>20,>20,>00      ; >7c |
     A956 2020     
     A958 2020     
     A95A 2000     
1924 A95C C020         byte >c0,>20,>20,>10,>20,>20,>c0,>00      ; >7d }
     A95E 2010     
     A960 2020     
     A962 C000     
1925 A964 0000         byte >00,>00,>40,>a8,>10,>00,>00,>00      ; >7e
     A966 40A8     
     A968 1000     
     A96A 0000     
1926 A96C 7070         byte >70,>70,>20,>f8,>20,>70,>50,>00      ; >7f
     A96E 20F8     
     A970 2070     
     A972 5000     
1927               
1928               
1929               ; The stack is simulated using R10. It's not used in
1930               ; these functions but the compiled code will need it.
1931               ; To push: dect r10, mov r0,*r10
1932               ; To pop:  mov *r10+,r0
1933               ; However, for JSR a function is helpful - call this like:
1934               ; bl @jsr
1935               ; data <function_address>
1936               jsr
1937 A974 C3BB  30     mov *r11+,r14       ; get the jump address
1938 A976 064A  14     dect r10            ; make room on stack
1939 A978 C68B  30     mov r11,*r10        ; save return address
1940 A97A 069E  24     bl *r14             ; new subroutine call, we can come back here
1941 A97C C2FA  30     mov *r10+,r11       ; get real return off stack - warning, all basic functions do this inline rather than return
1942 A97E 045B  20     b *r11              ; back to caller
1943               
1944               ; entry code - we should enter with ints off anyway
1945               START
1946 A980 0300  22     limi 0
     A982 0000     
1947 A984 02E0  18     lwpi mywp           ; get our private workspace
     A986 8300     
1948 A988 020A  20     li R10,>4000        ; pseudo stack pointer
     A98A 4000     
1949 A98C D820  42     movb @>8802,@vdp_status  ; clear any pending VDP interrupt and initialize vdp_status if needed
     A98E 8802     
     A990 837B     
1950               
1951 A992 0200  20     li r0,>0182         ; select 16k, magnified, blank, no ints
     A994 0182     
1952 A996 06A0  32     bl @wrtvdp          ; other ports write this twice... maybe to be 100% sure no NMI happens? We don't have that problem.
     A998 A000     
1953               
1954 A99A 0200  20     li r0,firstsp       ; clear variables in scratchpad
     A99C 8340     
1955               stlp1
1956 A99E 04F0  30     clr *r0+
1957 A9A0 0280  22     ci r0,lastsp
     A9A2 8352     
1958 A9A4 1AFC  14     jl stlp1
1959               
1960 A9A6 0200  20     li r0,>2000         ; clear lower 8k RAM
     A9A8 2000     
1961               stlp2
1962 A9AA 04F0  30     clr *r0+
1963 A9AC 0280  22     ci r0,>4000
     A9AE 4000     
1964 A9B0 16FC  14     jne stlp2
1965               
1966 A9B2 0200  20     li r0,>0f0f
     A9B4 0F0F     
1967 A9B6 C800  30     mov r0,@key1_data   ; gets both - no key is >0f return
     A9B8 8348     
1968               
1969 A9BA 06A0  32     bl @music_init
     A9BC A656     
1970 A9BE 06A0  32     bl @mode_0
     A9C0 A33E     
1971               
1972 A9C2 0200  20     li r0,int_handler
     A9C4 A48E     
1973 A9C6 C800  30     mov r0,@intwsr2     ; set interrupt function
     A9C8 83C4     
1974 A9CA 0200  20     li r0,>8000
     A9CC 8000     
1975 A9CE C800  30     mov r0,@intwsr1     ; disable most console ROM interrupt handling
     A9D0 83C2     
1976 A9D2 0201  20     li r1,1
     A9D4 0001     
1977 A9D6 C801  30     mov r1,@intwsr11    ; make sure screen timeout is odd so it never triggers
     A9D8 83D6     
1978 A9DA 0201  20     li r1,>0108
     A9DC 0108     
1979 A9DE C801  30     mov r1,@gplwsr14    ; GPL status flags, should already be this, but be sure
     A9E0 83FC     
1980 A9E2 D801  30     movb r1,@ntsc       ; init ntsc flag to true - we actually do not have a good way to detect
     A9E4 8350     
1981 A9E6 0201  20     li r1,>8c02
     A9E8 8C02     
1982 A9EA C801  30     mov r1,@gplwsr15    ; Address of VDP for GPL - should already be this, but be sure
     A9EC 83FE     
1983               
1984               ;;; CVBasic code starts here
1985               	; 	' ============================================================
1986               	; 	' ADVENTIRE - an Atari-2600-Adventure-style action-adventure.
1987               	; 	' Original code, art, and room data throughout (a mechanics
1988               	; 	' homage: layouts and connections are our own adaptation of
1989               	; 	' the game structure documented in published maps/guides).
1990               	; 	'
1991               	; 	' FOUR game variations, chosen on the title screen:
1992               	; 	'   GAME 1  INTRO KINGDOM  - our original 13-room map: a
1993               	; 	'           gentle introduction (3 castles, 3 dragons, bat,
1994               	; 	'           bridge + sealed chamber).
1995               	; 	'   GAME 2  SMALL KINGDOM  - compact kingdom in the spirit of
1996               	; 	'           the cartridge's first game: gold + black castles,
1997               	; 	'           two dragons, no bat, no dark rooms.
1998               	; 	'   GAME 3  FULL KINGDOM   - the big map: 3 castles, corridor
1999               	; 	'           row, blue maze, DARK catacombs and black-castle
2000               	; 	'           maze (fog of war), red maze, magnet, bat, and the
2001               	; 	'           hidden-dot secret room.
2002               	; 	'   GAME 4  RANDOM KINGDOM - the full kingdom with object
2003               	; 	'           locations scrambled each game.
2004               	; 	'
2005               	; 	' Core rules (all games):
2006               	; 	'  - Rooms are 32x24 grids of 8x8-pixel cells (4 bytes/row,
2007               	; 	'    authored as readable BITMAP art); collision is a RAM bit
2008               	; 	'    test, zero per-frame VRAM reads. Thin 8px walls give the
2009               	; 	'    kingdom's mazes their winding, original-cartridge look.
2010               	; 	'  - Dragons ignore walls entirely and PURSUE you from room
2011               	; 	'    to room (a live dragon you escape bursts in ~1.3s later).
2012               	; 	'  - Doorways whose exit leads nowhere in the selected game
2013               	; 	'    are sealed on entry, so collision and visuals agree.
2014               	; 	'  - Carry ONE object (touch = pick up / swap, FIRE = drop);
2015               	; 	'    a carried object keeps the offset where you grabbed it.
2016               	; 	'  - Keys open the matching castle gate on touch; walk up into
2017               	; 	'    the open archway to enter.
2018               	; 	'  - The SWORD slays dragons on contact, carried or lying.
2019               	; 	'  - The BRIDGE: grab by its RAILS, drop across a wall (snaps
2020               	; 	'    to the block grid) and walk through its dark channel.
2021               	; 	'  - The MAGNET (games 3/4) drags every loose object in its
2022               	; 	'    room toward it - even out of sealed chambers.
2023               	; 	'  - The BAT steals objects, even from your hands.
2024               	; 	'  - DARK rooms (games 3/4) reveal walls only near you.
2025               	; 	'  - The invisible DOT (games 3/4) hides in the black castle
2026               	; 	'    maze chamber; bring it + 2 objects to the corridor's east
2027               	; 	'    end and the wall opens to a secret room.
2028               	; 	'  - Swallowed or victorious -> back to the title (game
2029               	; 	'    select); every start is a full reset.
2030               	; 	'
2031               	; 	' Build (ONE source, dual target):
2032               	; 	'   TI-99/4A:     cvbasic --ti994a adventire.bas -> xas99 -> linkticart
2033               	; 	'   ColecoVision: cvbasic adventire.bas -> gasm80 -> adventire.rom
2034               	; 	' Loop is paced to 30Hz (two WAITs) on both machines.
2035               	; 	' ============================================================
2036               	;
2037               	; 	' rooms are 32x24 grids of 8x8-pixel cells ("quarter blocks"):
2038               	; 	' 4 bytes per row x 24 rows = 96 bytes, MSB = leftmost cell
2039               	; 	DIM rm(96), msk(8)
2040               	; 	DIM orm(8), obx(8), oby(8), ocl(8)
2041               	; 	DIM drm(3), ddx(3), ddy(3), dst(3), dcl(3), dsp(3), gop(3), fdl(3)
2042               	;
2043               	; 	BORDER 1
2044 A9EE 0200  20 	li r0,256   ; 1*256
     A9F0 0100     
2045 A9F2 0980  32 	srl r0,8
2046 A9F4 0260  22 	ori r0,>8700
     A9F6 8700     
2047 A9F8 06C0  14 	swpb r0
2048 A9FA 0300  22 	limi 0
     A9FC 0000     
2049 A9FE D800  30 	movb r0,@VDPWADR
     AA00 8C02     
2050 AA02 06C0  14 	swpb r0
2051 AA04 D800  30 	movb r0,@VDPWADR
     AA06 8C02     
2052 AA08 0300  22 	limi 2
     AA0A 0002     
2053               	; 	' 2x sprite magnification: SI=1 (16x16 patterns) + MAG=1 -> sprites
2054               	; 	' render 32x32. VDP()= is CVBasic's portable register write (TI+CV).
2055               	; 	VDP(1) = $E3
2056 AA0C 0200  20 	li r0,58112   ; 227*256
     AA0E E300     
2057 AA10 0201  20 	li r1,33024   ; 1*256+0x8000
     AA12 8100     
2058 AA14 D800  30 	movb r0,@VDPWADR
     AA16 8C02     
2059 AA18 D801  30 	movb r1,@VDPWADR
     AA1A 8C02     
2060               	; 	DEFINE CHAR 128, 2, wallchar
2061 AA1C 0204  20 	li r4,128
     AA1E 0080     
2062 AA20 0205  20 	li r5,512
     AA22 0200     
2063 AA24 0200  20 	li r0,cvb_WALLCHAR
     AA26 FEFD     
2064 AA28 06A0  32 	bl @jsr
     AA2A A974     
2065 AA2C A1FA     	data define_char
2066               	; 	DEFINE COLOR 128, 2, wallcol
2067 AA2E 0204  20 	li r4,128
     AA30 0080     
2068 AA32 0205  20 	li r5,512
     AA34 0200     
2069 AA36 0200  20 	li r0,cvb_WALLCOL
     AA38 FF0D     
2070 AA3A 06A0  32 	bl @jsr
     AA3C A974     
2071 AA3E A22E     	data define_color
2072               	; 	DEFINE SPRITE 0, 13, gsprites
2073 AA40 04C4  14 	clr r4
2074 AA42 0205  20 	li r5,3328
     AA44 0D00     
2075 AA46 0200  20 	li r0,cvb_GSPRITES
     AA48 FF1D     
2076 AA4A 06A0  32 	bl @jsr
     AA4C A974     
2077 AA4E A1DA     	data define_sprite
2078               	;
2079               	; 	RESTORE mskdat
2080 AA50 0200  20 	li r0,cvb_MSKDAT
     AA52 EE38     
2081 AA54 C800  30 	mov r0,@read_pointer
     AA56 8340     
2082               	; 	FOR i = 0 TO 7 : READ BYTE msk(i) : NEXT i
2083 AA58 04C0  14 	clr r0
2084 AA5A D800  38 	movb r0,@cvb_I
     AA5C 2086     
2085               cv1
2086 AA5E C060  30 	mov @read_pointer,r1
     AA60 8340     
2087 AA62 D011  26 	movb *r1,r0
2088 AA64 05A0  26 	inc @read_pointer
     AA66 8340     
2089 AA68 C040  18 	mov r0,r1
2090 AA6A D020  34 	movb @cvb_I,r0
     AA6C 2086     
2091 AA6E 0980  32 	srl r0,8
2092 AA70 0220  22 	ai r0,array_MSK
     AA72 20EE     
2093 AA74 D401  30 	movb r1,*r0
2094 AA76 D020  34 	movb @cvb_I,r0
     AA78 2086     
2095 AA7A 0220  22 	ai r0,256	; 1
     AA7C 0100     
2096 AA7E D800  38 	movb r0,@cvb_I
     AA80 2086     
2097 AA82 0201  20 	li r1,2048   ; 8*256
     AA84 0800     
2098 AA86 9040  18 	cb r0,r1
2099 AA88 1402  14 	jhe cv2
2100 AA8A 0460  28 	b @cv1
     AA8C AA5E     
2101               cv2
2102               	; 	gm = 1
2103 AA8E 0200  20 	li r0,256   ; 1*256
     AA90 0100     
2104 AA92 D800  38 	movb r0,@cvb_GM
     AA94 20CC     
2105               	;
2106               	; restart:
2107               cvb_RESTART
2108               	; 	GOSUB title
2109 AA96 06A0  32 	bl @jsr
     AA98 A974     
2110 AA9A E8F0     	data cvb_TITLE
2111               	;
2112               	; newgame:
2113               cvb_NEWGAME
2114               	; 	' ---- per-game world state (objects, dragons, bat, start) ----
2115               	; 	IF gm = 1 THEN RESTORE objd1
2116 AA9C D020  34 	movb @cvb_GM,r0
     AA9E 20CC     
2117 AAA0 0201  20 	li r1,256   ; 1*256
     AAA2 0100     
2118 AAA4 9001  18 	cb r1,r0
2119 AAA6 1302  14 	jeq cv4
2120 AAA8 0460  28 	b @cv3
     AAAA AAB4     
2121               cv4
2122 AAAC 0200  20 	li r0,cvb_OBJD1
     AAAE EFD9     
2123 AAB0 C800  30 	mov r0,@read_pointer
     AAB2 8340     
2124               cv3
2125               	; 	IF gm = 2 THEN RESTORE objd2
2126 AAB4 D020  34 	movb @cvb_GM,r0
     AAB6 20CC     
2127 AAB8 0201  20 	li r1,512   ; 2*256
     AABA 0200     
2128 AABC 9001  18 	cb r1,r0
2129 AABE 1302  14 	jeq cv6
2130 AAC0 0460  28 	b @cv5
     AAC2 AACC     
2131               cv6
2132 AAC4 0200  20 	li r0,cvb_OBJD2
     AAC6 F005     
2133 AAC8 C800  30 	mov r0,@read_pointer
     AACA 8340     
2134               cv5
2135               	; 	IF gm > 2 THEN RESTORE objd3
2136 AACC D020  34 	movb @cvb_GM,r0
     AACE 20CC     
2137 AAD0 0201  20 	li r1,768   ; 3*256
     AAD2 0300     
2138 AAD4 9040  18 	cb r0,r1
2139 AAD6 1402  14 	jhe cv8
2140 AAD8 0460  28 	b @cv7
     AADA AAE4     
2141               cv8
2142 AADC 0200  20 	li r0,cvb_OBJD3
     AADE F031     
2143 AAE0 C800  30 	mov r0,@read_pointer
     AAE2 8340     
2144               cv7
2145               	; 	FOR i = 0 TO 7
2146 AAE4 04C0  14 	clr r0
2147 AAE6 D800  38 	movb r0,@cvb_I
     AAE8 2086     
2148               cv9
2149               	; 	READ BYTE orm(i) : READ BYTE obx(i) : READ BYTE oby(i)
2150 AAEA C060  30 	mov @read_pointer,r1
     AAEC 8340     
2151 AAEE D011  26 	movb *r1,r0
2152 AAF0 05A0  26 	inc @read_pointer
     AAF2 8340     
2153 AAF4 C040  18 	mov r0,r1
2154 AAF6 D020  34 	movb @cvb_I,r0
     AAF8 2086     
2155 AAFA 0980  32 	srl r0,8
2156 AAFC 0220  22 	ai r0,array_ORM
     AAFE 211E     
2157 AB00 D401  30 	movb r1,*r0
2158 AB02 C060  30 	mov @read_pointer,r1
     AB04 8340     
2159 AB06 D011  26 	movb *r1,r0
2160 AB08 05A0  26 	inc @read_pointer
     AB0A 8340     
2161 AB0C C040  18 	mov r0,r1
2162 AB0E D020  34 	movb @cvb_I,r0
     AB10 2086     
2163 AB12 0980  32 	srl r0,8
2164 AB14 0220  22 	ai r0,array_OBX
     AB16 210A     
2165 AB18 D401  30 	movb r1,*r0
2166 AB1A C060  30 	mov @read_pointer,r1
     AB1C 8340     
2167 AB1E D011  26 	movb *r1,r0
2168 AB20 05A0  26 	inc @read_pointer
     AB22 8340     
2169 AB24 C040  18 	mov r0,r1
2170 AB26 D020  34 	movb @cvb_I,r0
     AB28 2086     
2171 AB2A 0980  32 	srl r0,8
2172 AB2C 0220  22 	ai r0,array_OBY
     AB2E 2112     
2173 AB30 D401  30 	movb r1,*r0
2174               	; 	NEXT i
2175 AB32 D020  34 	movb @cvb_I,r0
     AB34 2086     
2176 AB36 0220  22 	ai r0,256	; 1
     AB38 0100     
2177 AB3A D800  38 	movb r0,@cvb_I
     AB3C 2086     
2178 AB3E 0201  20 	li r1,2048   ; 8*256
     AB40 0800     
2179 AB42 9040  18 	cb r0,r1
2180 AB44 1402  14 	jhe cv10
2181 AB46 0460  28 	b @cv9
     AB48 AAEA     
2182               cv10
2183               	; 	FOR i = 0 TO 2
2184 AB4A 04C0  14 	clr r0
2185 AB4C D800  38 	movb r0,@cvb_I
     AB4E 2086     
2186               cv11
2187               	; 	READ BYTE drm(i) : READ BYTE ddx(i) : READ BYTE ddy(i) : READ BYTE dcl(i) : READ BYTE dsp(i)
2188 AB50 C060  30 	mov @read_pointer,r1
     AB52 8340     
2189 AB54 D011  26 	movb *r1,r0
2190 AB56 05A0  26 	inc @read_pointer
     AB58 8340     
2191 AB5A C040  18 	mov r0,r1
2192 AB5C D020  34 	movb @cvb_I,r0
     AB5E 2086     
2193 AB60 0980  32 	srl r0,8
2194 AB62 0220  22 	ai r0,array_DRM
     AB64 20F6     
2195 AB66 D401  30 	movb r1,*r0
2196 AB68 C060  30 	mov @read_pointer,r1
     AB6A 8340     
2197 AB6C D011  26 	movb *r1,r0
2198 AB6E 05A0  26 	inc @read_pointer
     AB70 8340     
2199 AB72 C040  18 	mov r0,r1
2200 AB74 D020  34 	movb @cvb_I,r0
     AB76 2086     
2201 AB78 0980  32 	srl r0,8
2202 AB7A 0220  22 	ai r0,array_DDX
     AB7C 20E6     
2203 AB7E D401  30 	movb r1,*r0
2204 AB80 C060  30 	mov @read_pointer,r1
     AB82 8340     
2205 AB84 D011  26 	movb *r1,r0
2206 AB86 05A0  26 	inc @read_pointer
     AB88 8340     
2207 AB8A C040  18 	mov r0,r1
2208 AB8C D020  34 	movb @cvb_I,r0
     AB8E 2086     
2209 AB90 0980  32 	srl r0,8
2210 AB92 0220  22 	ai r0,array_DDY
     AB94 20EA     
2211 AB96 D401  30 	movb r1,*r0
2212 AB98 C060  30 	mov @read_pointer,r1
     AB9A 8340     
2213 AB9C D011  26 	movb *r1,r0
2214 AB9E 05A0  26 	inc @read_pointer
     ABA0 8340     
2215 ABA2 C040  18 	mov r0,r1
2216 ABA4 D020  34 	movb @cvb_I,r0
     ABA6 2086     
2217 ABA8 0980  32 	srl r0,8
2218 ABAA 0220  22 	ai r0,array_DCL
     ABAC 20E2     
2219 ABAE D401  30 	movb r1,*r0
2220 ABB0 C060  30 	mov @read_pointer,r1
     ABB2 8340     
2221 ABB4 D011  26 	movb *r1,r0
2222 ABB6 05A0  26 	inc @read_pointer
     ABB8 8340     
2223 ABBA C040  18 	mov r0,r1
2224 ABBC D020  34 	movb @cvb_I,r0
     ABBE 2086     
2225 ABC0 0980  32 	srl r0,8
2226 ABC2 0220  22 	ai r0,array_DSP
     ABC4 20FA     
2227 ABC6 D401  30 	movb r1,*r0
2228               	; 	dst(i) = 0
2229 ABC8 04C1  14 	clr r1
2230 ABCA D020  34 	movb @cvb_I,r0
     ABCC 2086     
2231 ABCE 0980  32 	srl r0,8
2232 ABD0 0220  22 	ai r0,array_DST
     ABD2 20FE     
2233 ABD4 D401  30 	movb r1,*r0
2234               	; 	NEXT i
2235 ABD6 D020  34 	movb @cvb_I,r0
     ABD8 2086     
2236 ABDA 0220  22 	ai r0,256	; 1
     ABDC 0100     
2237 ABDE D800  38 	movb r0,@cvb_I
     ABE0 2086     
2238 ABE2 0201  20 	li r1,768   ; 3*256
     ABE4 0300     
2239 ABE6 9040  18 	cb r0,r1
2240 ABE8 1402  14 	jhe cv12
2241 ABEA 0460  28 	b @cv11
     ABEC AB50     
2242               cv12
2243               	; 	READ BYTE btr : READ BYTE btx : READ BYTE bty
2244 ABEE C060  30 	mov @read_pointer,r1
     ABF0 8340     
2245 ABF2 D011  26 	movb *r1,r0
2246 ABF4 05A0  26 	inc @read_pointer
     ABF6 8340     
2247 ABF8 D800  38 	movb r0,@cvb_BTR
     ABFA 2094     
2248 ABFC C060  30 	mov @read_pointer,r1
     ABFE 8340     
2249 AC00 D011  26 	movb *r1,r0
2250 AC02 05A0  26 	inc @read_pointer
     AC04 8340     
2251 AC06 D800  38 	movb r0,@cvb_BTX
     AC08 2096     
2252 AC0A C060  30 	mov @read_pointer,r1
     AC0C 8340     
2253 AC0E D011  26 	movb *r1,r0
2254 AC10 05A0  26 	inc @read_pointer
     AC12 8340     
2255 AC14 D800  38 	movb r0,@cvb_BTY
     AC16 2097     
2256               	; 	READ BYTE rn : READ BYTE winrm
2257 AC18 C060  30 	mov @read_pointer,r1
     AC1A 8340     
2258 AC1C D011  26 	movb *r1,r0
2259 AC1E 05A0  26 	inc @read_pointer
     AC20 8340     
2260 AC22 D800  38 	movb r0,@cvb_RN
     AC24 20D8     
2261 AC26 C060  30 	mov @read_pointer,r1
     AC28 8340     
2262 AC2A D011  26 	movb *r1,r0
2263 AC2C 05A0  26 	inc @read_pointer
     AC2E 8340     
2264 AC30 D800  38 	movb r0,@cvb_WINRM
     AC32 209E     
2265               	; 	fdl(0) = 0 : fdl(1) = 0 : fdl(2) = 0 : prn = 255
2266 AC34 04C0  14 	clr r0
2267 AC36 D800  38 	movb r0,@array_FDL
     AC38 211A     
2268 AC3A 04C0  14 	clr r0
2269 AC3C D800  38 	movb r0,@array_FDL+1
     AC3E 211B     
2270 AC40 04C0  14 	clr r0
2271 AC42 D800  38 	movb r0,@array_FDL+2
     AC44 211C     
2272 AC46 0200  20 	li r0,65280   ; 255*256
     AC48 FF00     
2273 AC4A D800  38 	movb r0,@cvb_PRN
     AC4C 20BA     
2274               	; 	IF gm = 4 THEN GOSUB rndobj
2275 AC4E D020  34 	movb @cvb_GM,r0
     AC50 20CC     
2276 AC52 0201  20 	li r1,1024   ; 4*256
     AC54 0400     
2277 AC56 9001  18 	cb r1,r0
2278 AC58 1302  14 	jeq cv14
2279 AC5A 0460  28 	b @cv13
     AC5C AC64     
2280               cv14
2281 AC5E 06A0  32 	bl @jsr
     AC60 A974     
2282 AC62 E40E     	data cvb_RNDOBJ
2283               cv13
2284               	; 	ocl(0) = 11 : ocl(1) = 1 : ocl(2) = 15 : ocl(3) = 7
2285 AC64 0200  20 	li r0,2816   ; 11*256
     AC66 0B00     
2286 AC68 D800  38 	movb r0,@array_OCL
     AC6A 2102     
2287 AC6C 0200  20 	li r0,256   ; 1*256
     AC6E 0100     
2288 AC70 D800  38 	movb r0,@array_OCL+1
     AC72 2103     
2289 AC74 0200  20 	li r0,3840   ; 15*256
     AC76 0F00     
2290 AC78 D800  38 	movb r0,@array_OCL+2
     AC7A 2104     
2291 AC7C 0200  20 	li r0,1792   ; 7*256
     AC7E 0700     
2292 AC80 D800  38 	movb r0,@array_OCL+3
     AC82 2105     
2293               	; 	ocl(4) = 13 : ocl(5) = 15 : ocl(6) = 6 : ocl(7) = 0
2294 AC84 0200  20 	li r0,3328   ; 13*256
     AC86 0D00     
2295 AC88 D800  38 	movb r0,@array_OCL+4
     AC8A 2106     
2296 AC8C 0200  20 	li r0,3840   ; 15*256
     AC8E 0F00     
2297 AC90 D800  38 	movb r0,@array_OCL+5
     AC92 2107     
2298 AC94 0200  20 	li r0,1536   ; 6*256
     AC96 0600     
2299 AC98 D800  38 	movb r0,@array_OCL+6
     AC9A 2108     
2300 AC9C 04C0  14 	clr r0
2301 AC9E D800  38 	movb r0,@array_OCL+7
     ACA0 2109     
2302               	; 	gop(0) = 0 : gop(1) = 0 : gop(2) = 0
2303 ACA2 04C0  14 	clr r0
2304 ACA4 D800  38 	movb r0,@array_GOP
     ACA6 2126     
2305 ACA8 04C0  14 	clr r0
2306 ACAA D800  38 	movb r0,@array_GOP+1
     ACAC 2127     
2307 ACAE 04C0  14 	clr r0
2308 ACB0 D800  38 	movb r0,@array_GOP+2
     ACB2 2128     
2309               	; 	btc = 255 : btcd = 90 : bfx = 0 : bfy = 1
2310 ACB4 0200  20 	li r0,65280   ; 255*256
     ACB6 FF00     
2311 ACB8 D800  38 	movb r0,@cvb_BTC
     ACBA 2092     
2312 ACBC 0200  20 	li r0,23040   ; 90*256
     ACBE 5A00     
2313 ACC0 D800  38 	movb r0,@cvb_BTCD
     ACC2 20B6     
2314 ACC4 04C0  14 	clr r0
2315 ACC6 D800  38 	movb r0,@cvb_BFX
     ACC8 2080     
2316 ACCA 0200  20 	li r0,256   ; 1*256
     ACCC 0100     
2317 ACCE D800  38 	movb r0,@cvb_BFY
     ACD0 2081     
2318               	; 	cr = 255 : pkcd = 0 : btnp = 1 : rmch = 0 : eflag = 0 : tk = 0
2319 ACD2 0200  20 	li r0,65280   ; 255*256
     ACD4 FF00     
2320 ACD6 D800  38 	movb r0,@cvb_CR
     ACD8 20C5     
2321 ACDA 04C0  14 	clr r0
2322 ACDC D800  38 	movb r0,@cvb_PKCD
     ACDE 20A4     
2323 ACE0 0200  20 	li r0,256   ; 1*256
     ACE2 0100     
2324 ACE4 D800  38 	movb r0,@cvb_BTNP
     ACE6 20BC     
2325 ACE8 04C0  14 	clr r0
2326 ACEA D800  38 	movb r0,@cvb_RMCH
     ACEC 2091     
2327 ACEE 04C0  14 	clr r0
2328 ACF0 D800  38 	movb r0,@cvb_EFLAG
     ACF2 209F     
2329 ACF4 04C0  14 	clr r0
2330 ACF6 D800  38 	movb r0,@cvb_TK
     ACF8 20DB     
2331               	; 	sfx = 0 : sfc = 0 : #crx = 64 : #cry = 64 : eggon = 0
2332 ACFA 04C0  14 	clr r0
2333 ACFC D800  38 	movb r0,@cvb_SFX
     ACFE 20D7     
2334 AD00 04C0  14 	clr r0
2335 AD02 D800  38 	movb r0,@cvb_SFC
     AD04 20CF     
2336 AD06 0200  20 	li r0,64
     AD08 0040     
2337 AD0A C800  38 	mov r0,@cvb__CRX
     AD0C 20A0     
2338 AD0E 0200  20 	li r0,64
     AD10 0040     
2339 AD12 C800  38 	mov r0,@cvb__CRY
     AD14 20A2     
2340 AD16 04C0  14 	clr r0
2341 AD18 D800  38 	movb r0,@cvb_EGGON
     AD1A 209C     
2342               	; 	SOUND 0, , 0 : SOUND 3, , 0
2343 AD1C 04C0  14 	clr r0
2344 AD1E 0202  20 	li r2,>9000
     AD20 9000     
2345 AD22 06A0  32 	bl @jsr
     AD24 A974     
2346 AD26 A2D6     	data sn76489_vol
2347 AD28 04C0  14 	clr r0
2348 AD2A 0202  20 	li r2,>f000
     AD2C F000     
2349 AD2E 06A0  32 	bl @jsr
     AD30 A974     
2350 AD32 A2D6     	data sn76489_vol
2351               	; 	px = 120 : py = 160
2352 AD34 0200  20 	li r0,30720   ; 120*256
     AD36 7800     
2353 AD38 D800  38 	movb r0,@cvb_PX
     AD3A 20D4     
2354 AD3C 0200  20 	li r0,40960   ; 160*256
     AD3E A000     
2355 AD40 D800  38 	movb r0,@cvb_PY
     AD42 20D5     
2356               	; 	GOSUB enterroom
2357 AD44 06A0  32 	bl @jsr
     AD46 A974     
2358 AD48 D322     	data cvb_ENTERROOM
2359               	;
2360               	; mainloop:
2361               cvb_MAINLOOP
2362               	; 	WAIT
2363 AD4A 06A0  32 	bl @jsr
     AD4C A974     
2364 AD4E A64A     	data wait
2365               	; 	WAIT
2366 AD50 06A0  32 	bl @jsr
     AD52 A974     
2367 AD54 A64A     	data wait
2368               	; 	tk = tk + 1
2369 AD56 D020  34 	movb @cvb_TK,r0
     AD58 20DB     
2370 AD5A 0220  22 	ai r0,256	; 1
     AD5C 0100     
2371 AD5E D800  38 	movb r0,@cvb_TK
     AD60 20DB     
2372               	; 	GOSUB dosfx
2373 AD62 06A0  32 	bl @jsr
     AD64 A974     
2374 AD66 E51E     	data cvb_DOSFX
2375               	; 	IF pkcd > 0 THEN pkcd = pkcd - 1
2376 AD68 D020  34 	movb @cvb_PKCD,r0
     AD6A 20A4     
2377 AD6C 0201  20 	li r1,256   ; 1*256
     AD6E 0100     
2378 AD70 9040  18 	cb r0,r1
2379 AD72 1402  14 	jhe cv16
2380 AD74 0460  28 	b @cv15
     AD76 AD84     
2381               cv16
2382 AD78 D020  34 	movb @cvb_PKCD,r0
     AD7A 20A4     
2383 AD7C 0220  22 	ai r0,65280	; -1
     AD7E FF00     
2384 AD80 D800  38 	movb r0,@cvb_PKCD
     AD82 20A4     
2385               cv15
2386               	;
2387               	; 	' --- player movement (X and Y independent => wall sliding) ---
2388               	; 	IF cont1.left THEN GOSUB mvleft
2389 AD84 D020  30 	movb @joy1_data,r0
     AD86 8346     
2390 AD88 0201  20 	li r1,2048   ; 8*256
     AD8A 0800     
2391 AD8C 0541  14 	inv r1
2392 AD8E 5001  18 	szcb r1,r0
2393 AD90 1602  14 	jne cv18
2394 AD92 0460  28 	b @cv17
     AD94 AD9C     
2395               cv18
2396 AD96 06A0  32 	bl @jsr
     AD98 A974     
2397 AD9A B398     	data cvb_MVLEFT
2398               cv17
2399               	; 	IF cont1.right THEN GOSUB mvright
2400 AD9C D020  30 	movb @joy1_data,r0
     AD9E 8346     
2401 ADA0 0201  20 	li r1,512   ; 2*256
     ADA2 0200     
2402 ADA4 0541  14 	inv r1
2403 ADA6 5001  18 	szcb r1,r0
2404 ADA8 1602  14 	jne cv20
2405 ADAA 0460  28 	b @cv19
     ADAC ADB4     
2406               cv20
2407 ADAE 06A0  32 	bl @jsr
     ADB0 A974     
2408 ADB2 B444     	data cvb_MVRIGHT
2409               cv19
2410               	; 	IF cont1.up THEN GOSUB mvup
2411 ADB4 D020  30 	movb @joy1_data,r0
     ADB6 8346     
2412 ADB8 0201  20 	li r1,256   ; 1*256
     ADBA 0100     
2413 ADBC 0541  14 	inv r1
2414 ADBE 5001  18 	szcb r1,r0
2415 ADC0 1602  14 	jne cv22
2416 ADC2 0460  28 	b @cv21
     ADC4 ADCC     
2417               cv22
2418 ADC6 06A0  32 	bl @jsr
     ADC8 A974     
2419 ADCA B4F0     	data cvb_MVUP
2420               cv21
2421               	; 	IF cont1.down THEN GOSUB mvdown
2422 ADCC D020  30 	movb @joy1_data,r0
     ADCE 8346     
2423 ADD0 0201  20 	li r1,1024   ; 4*256
     ADD2 0400     
2424 ADD4 0541  14 	inv r1
2425 ADD6 5001  18 	szcb r1,r0
2426 ADD8 1602  14 	jne cv24
2427 ADDA 0460  28 	b @cv23
     ADDC ADE4     
2428               cv24
2429 ADDE 06A0  32 	bl @jsr
     ADE0 A974     
2430 ADE2 B59C     	data cvb_MVDOWN
2431               cv23
2432               	; 	IF rmch = 1 THEN rmch = 0 : GOTO drawframe
2433 ADE4 D020  34 	movb @cvb_RMCH,r0
     ADE6 2091     
2434 ADE8 0201  20 	li r1,256   ; 1*256
     ADEA 0100     
2435 ADEC 9001  18 	cb r1,r0
2436 ADEE 1302  14 	jeq cv26
2437 ADF0 0460  28 	b @cv25
     ADF2 ADFE     
2438               cv26
2439 ADF4 04C0  14 	clr r0
2440 ADF6 D800  38 	movb r0,@cvb_RMCH
     ADF8 2091     
2441 ADFA 0460  28 	b @cvb_DRAWFRAME
     ADFC AFA6     
2442               cv25
2443               	;
2444               	; 	' --- dark rooms: keep the reveal window on the player ---
2445               	; 	IF fon = 1 THEN GOSUB fogupd
2446 ADFE D020  34 	movb @cvb_FON,r0
     AE00 20A7     
2447 AE02 0201  20 	li r1,256   ; 1*256
     AE04 0100     
2448 AE06 9001  18 	cb r1,r0
2449 AE08 1302  14 	jeq cv28
2450 AE0A 0460  28 	b @cv27
     AE0C AE14     
2451               cv28
2452 AE0E 06A0  32 	bl @jsr
     AE10 A974     
2453 AE12 DD20     	data cvb_FOGUPD
2454               cv27
2455               	;
2456               	; 	' --- castle gate: open with key / walk in when open ---
2457               	; 	IF gz > 0 THEN GOSUB gatelogic
2458 AE14 D020  34 	movb @cvb_GZ,r0
     AE16 20CD     
2459 AE18 0201  20 	li r1,256   ; 1*256
     AE1A 0100     
2460 AE1C 9040  18 	cb r0,r1
2461 AE1E 1402  14 	jhe cv30
2462 AE20 0460  28 	b @cv29
     AE22 AE2A     
2463               cv30
2464 AE24 06A0  32 	bl @jsr
     AE26 A974     
2465 AE28 BBFE     	data cvb_GATELOGIC
2466               cv29
2467               	; 	IF rmch = 1 THEN rmch = 0 : GOTO drawframe
2468 AE2A D020  34 	movb @cvb_RMCH,r0
     AE2C 2091     
2469 AE2E 0201  20 	li r1,256   ; 1*256
     AE30 0100     
2470 AE32 9001  18 	cb r1,r0
2471 AE34 1302  14 	jeq cv32
2472 AE36 0460  28 	b @cv31
     AE38 AE44     
2473               cv32
2474 AE3A 04C0  14 	clr r0
2475 AE3C D800  38 	movb r0,@cvb_RMCH
     AE3E 2091     
2476 AE40 0460  28 	b @cvb_DRAWFRAME
     AE42 AFA6     
2477               cv31
2478               	;
2479               	; 	' --- drop carried object with FIRE (edge-triggered) ---
2480               	; 	b = cont1.button
2481 AE44 D020  30 	movb @joy1_data,r0
     AE46 8346     
2482 AE48 0201  20 	li r1,16384   ; 64*256
     AE4A 4000     
2483 AE4C 0541  14 	inv r1
2484 AE4E 5001  18 	szcb r1,r0
2485 AE50 D800  38 	movb r0,@cvb_B
     AE52 2082     
2486               	; 	IF b > 0 THEN IF btnp = 0 THEN IF cr < 8 THEN GOSUB dodrop
2487 AE54 0201  20 	li r1,256   ; 1*256
     AE56 0100     
2488 AE58 9040  18 	cb r0,r1
2489 AE5A 1402  14 	jhe cv34
2490 AE5C 0460  28 	b @cv33
     AE5E AE80     
2491               cv34
2492 AE60 D020  34 	movb @cvb_BTNP,r0
     AE62 20BC     
2493 AE64 1302  14 	jeq cv36
2494 AE66 0460  28 	b @cv35
     AE68 AE80     
2495               cv36
2496 AE6A D020  34 	movb @cvb_CR,r0
     AE6C 20C5     
2497 AE6E 0201  20 	li r1,2048   ; 8*256
     AE70 0800     
2498 AE72 9040  18 	cb r0,r1
2499 AE74 1A02  14 	jl cv38
2500 AE76 0460  28 	b @cv37
     AE78 AE80     
2501               cv38
2502 AE7A 06A0  32 	bl @jsr
     AE7C A974     
2503 AE7E B26C     	data cvb_DODROP
2504               cv37
2505               cv35
2506               cv33
2507               	; 	btnp = b
2508 AE80 D820  54 	movb @cvb_B,@cvb_BTNP
     AE82 2082     
     AE84 20BC     
2509               	;
2510               	; 	' --- carried object keeps the offset where it was grabbed ---
2511               	; 	IF cr < 8 THEN GOSUB carrypos
2512 AE86 D020  34 	movb @cvb_CR,r0
     AE88 20C5     
2513 AE8A 0201  20 	li r1,2048   ; 8*256
     AE8C 0800     
2514 AE8E 9040  18 	cb r0,r1
2515 AE90 1A02  14 	jl cv40
2516 AE92 0460  28 	b @cv39
     AE94 AE9C     
2517               cv40
2518 AE96 06A0  32 	bl @jsr
     AE98 A974     
2519 AE9A BDFA     	data cvb_CARRYPOS
2520               cv39
2521               	;
2522               	; 	' --- WIN: the chalice is inside the gold castle ---
2523               	; 	IF orm(5) = winrm THEN GOTO winseq
2524 AE9C D020  34 	movb @array_ORM+5,r0
     AE9E 2123     
2525 AEA0 9020  34 	cb @cvb_WINRM,r0
     AEA2 209E     
2526 AEA4 1302  14 	jeq cv42
2527 AEA6 0460  28 	b @cv41
     AEA8 AEAE     
2528               cv42
2529 AEAA 0460  28 	b @cvb_WINSEQ
     AEAC E6A0     
2530               cv41
2531               	;
2532               	; 	' --- pick up / swap on touch ---
2533               	; 	IF pkcd = 0 THEN GOSUB trypick
2534 AEAE D020  34 	movb @cvb_PKCD,r0
     AEB0 20A4     
2535 AEB2 1302  14 	jeq cv44
2536 AEB4 0460  28 	b @cv43
     AEB6 AEBE     
2537               cv44
2538 AEB8 06A0  32 	bl @jsr
     AEBA A974     
2539 AEBC BEAE     	data cvb_TRYPICK
2540               cv43
2541               	;
2542               	; 	' --- the magnet drags loose objects in its room ---
2543               	; 	IF orm(6) = rn THEN IF cr <> 6 THEN GOSUB magnetdo
2544 AEBE D020  34 	movb @array_ORM+6,r0
     AEC0 2124     
2545 AEC2 9020  34 	cb @cvb_RN,r0
     AEC4 20D8     
2546 AEC6 1302  14 	jeq cv46
2547 AEC8 0460  28 	b @cv45
     AECA AEE2     
2548               cv46
2549 AECC D020  34 	movb @cvb_CR,r0
     AECE 20C5     
2550 AED0 0201  20 	li r1,1536   ; 6*256
     AED2 0600     
2551 AED4 9001  18 	cb r1,r0
2552 AED6 1602  14 	jne cv48
2553 AED8 0460  28 	b @cv47
     AEDA AEE2     
2554               cv48
2555 AEDC 06A0  32 	bl @jsr
     AEDE A974     
2556 AEE0 C1AE     	data cvb_MAGNETDO
2557               cv47
2558               cv45
2559               	;
2560               	; 	' --- secret wall: check + flicker (full kingdom only) ---
2561               	; 	IF gm > 2 THEN IF rn = 17 THEN GOSUB eggdo
2562 AEE2 D020  34 	movb @cvb_GM,r0
     AEE4 20CC     
2563 AEE6 0201  20 	li r1,768   ; 3*256
     AEE8 0300     
2564 AEEA 9040  18 	cb r0,r1
2565 AEEC 1402  14 	jhe cv50
2566 AEEE 0460  28 	b @cv49
     AEF0 AF08     
2567               cv50
2568 AEF2 D020  34 	movb @cvb_RN,r0
     AEF4 20D8     
2569 AEF6 0201  20 	li r1,4352   ; 17*256
     AEF8 1100     
2570 AEFA 9001  18 	cb r1,r0
2571 AEFC 1302  14 	jeq cv52
2572 AEFE 0460  28 	b @cv51
     AF00 AF08     
2573               cv52
2574 AF02 06A0  32 	bl @jsr
     AF04 A974     
2575 AF06 C354     	data cvb_EGGDO
2576               cv51
2577               cv49
2578               	; 	IF rn = 18 THEN GOSUB eggtxt
2579 AF08 D020  34 	movb @cvb_RN,r0
     AF0A 20D8     
2580 AF0C 0201  20 	li r1,4608   ; 18*256
     AF0E 1200     
2581 AF10 9001  18 	cb r1,r0
2582 AF12 1302  14 	jeq cv54
2583 AF14 0460  28 	b @cv53
     AF16 AF1E     
2584               cv54
2585 AF18 06A0  32 	bl @jsr
     AF1A A974     
2586 AF1C C482     	data cvb_EGGTXT
2587               cv53
2588               	;
2589               	; 	' --- the bat flies always, everywhere ---
2590               	; 	IF btr < 255 THEN GOSUB batdo
2591 AF1E D020  34 	movb @cvb_BTR,r0
     AF20 2094     
2592 AF22 0201  20 	li r1,65280   ; 255*256
     AF24 FF00     
2593 AF26 9040  18 	cb r0,r1
2594 AF28 1A02  14 	jl cv56
2595 AF2A 0460  28 	b @cv55
     AF2C AF34     
2596               cv56
2597 AF2E 06A0  32 	bl @jsr
     AF30 A974     
2598 AF32 C54E     	data cvb_BATDO
2599               cv55
2600               	;
2601               	; 	' --- dragons: pending pursuers arrive, residents chase ---
2602               	; 	FOR d = 0 TO 2
2603 AF34 04C0  14 	clr r0
2604 AF36 D800  38 	movb r0,@cvb_D
     AF38 2083     
2605               cv57
2606               	; 	IF fdl(d) > 0 THEN GOSUB dfollow
2607 AF3A D020  34 	movb @cvb_D,r0
     AF3C 2083     
2608 AF3E 0980  32 	srl r0,8
2609 AF40 0220  22 	ai r0,array_FDL
     AF42 211A     
2610 AF44 D010  26 	movb *r0,r0
2611 AF46 0201  20 	li r1,256   ; 1*256
     AF48 0100     
2612 AF4A 9040  18 	cb r0,r1
2613 AF4C 1402  14 	jhe cv59
2614 AF4E 0460  28 	b @cv58
     AF50 AF58     
2615               cv59
2616 AF52 06A0  32 	bl @jsr
     AF54 A974     
2617 AF56 CDB8     	data cvb_DFOLLOW
2618               cv58
2619               	; 	IF drm(d) = rn THEN GOSUB dragondo
2620 AF58 D020  34 	movb @cvb_D,r0
     AF5A 2083     
2621 AF5C 0980  32 	srl r0,8
2622 AF5E 0220  22 	ai r0,array_DRM
     AF60 20F6     
2623 AF62 D010  26 	movb *r0,r0
2624 AF64 9020  34 	cb @cvb_RN,r0
     AF66 20D8     
2625 AF68 1302  14 	jeq cv61
2626 AF6A 0460  28 	b @cv60
     AF6C AF74     
2627               cv61
2628 AF6E 06A0  32 	bl @jsr
     AF70 A974     
2629 AF72 CAA0     	data cvb_DRAGONDO
2630               cv60
2631               	; 	NEXT d
2632 AF74 D020  34 	movb @cvb_D,r0
     AF76 2083     
2633 AF78 0220  22 	ai r0,256	; 1
     AF7A 0100     
2634 AF7C D800  38 	movb r0,@cvb_D
     AF7E 2083     
2635 AF80 0201  20 	li r1,768   ; 3*256
     AF82 0300     
2636 AF84 9040  18 	cb r0,r1
2637 AF86 1402  14 	jhe cv62
2638 AF88 0460  28 	b @cv57
     AF8A AF3A     
2639               cv62
2640               	; 	' swallowed: play the sequence, then back to the title
2641               	; 	IF eflag > 0 THEN GOSUB eatenrt : GOTO restart
2642 AF8C D020  34 	movb @cvb_EFLAG,r0
     AF8E 209F     
2643 AF90 0201  20 	li r1,256   ; 1*256
     AF92 0100     
2644 AF94 9040  18 	cb r0,r1
2645 AF96 1402  14 	jhe cv64
2646 AF98 0460  28 	b @cv63
     AF9A AFA6     
2647               cv64
2648 AF9C 06A0  32 	bl @jsr
     AF9E A974     
2649 AFA0 CF0E     	data cvb_EATENRT
2650 AFA2 0460  28 	b @cvb_RESTART
     AFA4 AA96     
2651               cv63
2652               	;
2653               	; drawframe:
2654               cvb_DRAWFRAME
2655               	; 	SPRITE 0, py - 1, px, 0, pcol
2656 AFA6 04C4  14 	clr r4
2657 AFA8 D020  34 	movb @cvb_PY,r0
     AFAA 20D5     
2658 AFAC 0220  22 	ai r0,65280	; -1
     AFAE FF00     
2659 AFB0 D140  18 	movb r0,r5
2660 AFB2 D1A0  34 	movb @cvb_PX,r6
     AFB4 20D4     
2661 AFB6 04C7  14 	clr r7
2662 AFB8 D020  34 	movb @cvb_PCOL,r0
     AFBA 20C6     
2663 AFBC 06A0  32 	bl @jsr
     AFBE A974     
2664 AFC0 A24E     	data update_sprite
2665               	; 	' dragons are TWO stacked 32x32 sprites (32x64 shown)
2666               	; 	FOR d = 0 TO 2
2667 AFC2 04C0  14 	clr r0
2668 AFC4 D800  38 	movb r0,@cvb_D
     AFC6 2083     
2669               cv65
2670               	; 	IF drm(d) = rn THEN GOSUB drawdrg ELSE SPRITE 1 + d + d, $d1, 0, 0, 0 : SPRITE 2 + d + d, $d1, 0, 0, 0
2671 AFC8 D020  34 	movb @cvb_D,r0
     AFCA 2083     
2672 AFCC 0980  32 	srl r0,8
2673 AFCE 0220  22 	ai r0,array_DRM
     AFD0 20F6     
2674 AFD2 D010  26 	movb *r0,r0
2675 AFD4 9020  34 	cb @cvb_RN,r0
     AFD6 20D8     
2676 AFD8 1302  14 	jeq cv67
2677 AFDA 0460  28 	b @cv66
     AFDC AFE8     
2678               cv67
2679 AFDE 06A0  32 	bl @jsr
     AFE0 A974     
2680 AFE2 B148     	data cvb_DRAWDRG
2681 AFE4 0460  28 	b @cv68
     AFE6 B034     
2682               cv66
2683 AFE8 D020  34 	movb @cvb_D,r0
     AFEA 2083     
2684 AFEC 0980  32 	srl r0,8
2685 AFEE C040  18 	mov r0,r1
2686 AFF0 D020  34 	movb @cvb_D,r0
     AFF2 2083     
2687 AFF4 0980  32 	srl r0,8
2688 AFF6 0580  14 	inc r0
2689 AFF8 A001  18 	a r1,r0
2690 AFFA 0A80  32 	sla r0,8
2691 AFFC C100  18 	mov r0,r4
2692 AFFE 0205  20 	li r5,53504
     B000 D100     
2693 B002 04C6  14 	clr r6
2694 B004 04C7  14 	clr r7
2695 B006 04C0  14 	clr r0
2696 B008 06A0  32 	bl @jsr
     B00A A974     
2697 B00C A24E     	data update_sprite
2698 B00E D020  34 	movb @cvb_D,r0
     B010 2083     
2699 B012 0980  32 	srl r0,8
2700 B014 C040  18 	mov r0,r1
2701 B016 D020  34 	movb @cvb_D,r0
     B018 2083     
2702 B01A 0980  32 	srl r0,8
2703 B01C 05C0  14 	inct r0
2704 B01E A001  18 	a r1,r0
2705 B020 0A80  32 	sla r0,8
2706 B022 C100  18 	mov r0,r4
2707 B024 0205  20 	li r5,53504
     B026 D100     
2708 B028 04C6  14 	clr r6
2709 B02A 04C7  14 	clr r7
2710 B02C 04C0  14 	clr r0
2711 B02E 06A0  32 	bl @jsr
     B030 A974     
2712 B032 A24E     	data update_sprite
2713               cv68
2714               	; 	NEXT d
2715 B034 D020  34 	movb @cvb_D,r0
     B036 2083     
2716 B038 0220  22 	ai r0,256	; 1
     B03A 0100     
2717 B03C D800  38 	movb r0,@cvb_D
     B03E 2083     
2718 B040 0201  20 	li r1,768   ; 3*256
     B042 0300     
2719 B044 9040  18 	cb r0,r1
2720 B046 1402  14 	jhe cv69
2721 B048 0460  28 	b @cv65
     B04A AFC8     
2722               cv69
2723               	; 	FOR i = 0 TO 7
2724 B04C 04C0  14 	clr r0
2725 B04E D800  38 	movb r0,@cvb_I
     B050 2086     
2726               cv70
2727               	; 	IF orm(i) = rn THEN GOSUB drawobj ELSE SPRITE 7 + i, $d1, 0, 0, 0
2728 B052 D020  34 	movb @cvb_I,r0
     B054 2086     
2729 B056 0980  32 	srl r0,8
2730 B058 0220  22 	ai r0,array_ORM
     B05A 211E     
2731 B05C D010  26 	movb *r0,r0
2732 B05E 9020  34 	cb @cvb_RN,r0
     B060 20D8     
2733 B062 1302  14 	jeq cv72
2734 B064 0460  28 	b @cv71
     B066 B072     
2735               cv72
2736 B068 06A0  32 	bl @jsr
     B06A A974     
2737 B06C B2B4     	data cvb_DRAWOBJ
2738 B06E 0460  28 	b @cv73
     B070 B08C     
2739               cv71
2740 B072 D020  34 	movb @cvb_I,r0
     B074 2086     
2741 B076 0220  22 	ai r0,1792	; 7
     B078 0700     
2742 B07A C100  18 	mov r0,r4
2743 B07C 0205  20 	li r5,53504
     B07E D100     
2744 B080 04C6  14 	clr r6
2745 B082 04C7  14 	clr r7
2746 B084 04C0  14 	clr r0
2747 B086 06A0  32 	bl @jsr
     B088 A974     
2748 B08A A24E     	data update_sprite
2749               cv73
2750               	; 	NEXT i
2751 B08C D020  34 	movb @cvb_I,r0
     B08E 2086     
2752 B090 0220  22 	ai r0,256	; 1
     B092 0100     
2753 B094 D800  38 	movb r0,@cvb_I
     B096 2086     
2754 B098 0201  20 	li r1,2048   ; 8*256
     B09A 0800     
2755 B09C 9040  18 	cb r0,r1
2756 B09E 1402  14 	jhe cv74
2757 B0A0 0460  28 	b @cv70
     B0A2 B052     
2758               cv74
2759               	; 	IF btr = rn THEN SPRITE 15, bty - 1, btx, 32 + ((tk AND 2) * 2), 1 ELSE SPRITE 15, $d1, 0, 0, 0
2760 B0A4 D020  34 	movb @cvb_BTR,r0
     B0A6 2094     
2761 B0A8 9020  34 	cb @cvb_RN,r0
     B0AA 20D8     
2762 B0AC 1302  14 	jeq cv76
2763 B0AE 0460  28 	b @cv75
     B0B0 B0EA     
2764               cv76
2765 B0B2 0204  20 	li r4,3840
     B0B4 0F00     
2766 B0B6 D020  34 	movb @cvb_BTY,r0
     B0B8 2097     
2767 B0BA 0220  22 	ai r0,65280	; -1
     B0BC FF00     
2768 B0BE D140  18 	movb r0,r5
2769 B0C0 D1A0  34 	movb @cvb_BTX,r6
     B0C2 2096     
2770 B0C4 D020  34 	movb @cvb_TK,r0
     B0C6 20DB     
2771 B0C8 0201  20 	li r1,512   ; 2*256
     B0CA 0200     
2772 B0CC 0541  14 	inv r1
2773 B0CE 5001  18 	szcb r1,r0
2774 B0D0 0240  22 	andi r0,>ff00
     B0D2 FF00     
2775 B0D4 0A10  18 	sla r0,1
2776 B0D6 0220  22 	ai r0,8192	; 32
     B0D8 2000     
2777 B0DA D1C0  18 	movb r0,r7
2778 B0DC 0200  20 	li r0,256   ; 1*256
     B0DE 0100     
2779 B0E0 06A0  32 	bl @jsr
     B0E2 A974     
2780 B0E4 A24E     	data update_sprite
2781 B0E6 0460  28 	b @cv77
     B0E8 B0FE     
2782               cv75
2783 B0EA 0204  20 	li r4,3840
     B0EC 0F00     
2784 B0EE 0205  20 	li r5,53504
     B0F0 D100     
2785 B0F2 04C6  14 	clr r6
2786 B0F4 04C7  14 	clr r7
2787 B0F6 04C0  14 	clr r0
2788 B0F8 06A0  32 	bl @jsr
     B0FA A974     
2789 B0FC A24E     	data update_sprite
2790               cv77
2791               	; 	' the bridge channel gets a black fill sprite so it reads as
2792               	; 	' an opening in the wall it spans (rails sprite lies on top)
2793               	; 	IF orm(4) = rn THEN SPRITE 16, oby(4) - 1, obx(4), 40, 1 ELSE SPRITE 16, $d1, 0, 0, 0
2794 B0FE D020  34 	movb @array_ORM+4,r0
     B100 2122     
2795 B102 9020  34 	cb @cvb_RN,r0
     B104 20D8     
2796 B106 1302  14 	jeq cv79
2797 B108 0460  28 	b @cv78
     B10A B130     
2798               cv79
2799 B10C 0204  20 	li r4,4096
     B10E 1000     
2800 B110 D020  34 	movb @array_OBY+4,r0
     B112 2116     
2801 B114 0220  22 	ai r0,65280	; -1
     B116 FF00     
2802 B118 D140  18 	movb r0,r5
2803 B11A D1A0  34 	movb @array_OBX+4,r6
     B11C 210E     
2804 B11E 0207  20 	li r7,10240
     B120 2800     
2805 B122 0200  20 	li r0,256   ; 1*256
     B124 0100     
2806 B126 06A0  32 	bl @jsr
     B128 A974     
2807 B12A A24E     	data update_sprite
2808 B12C 0460  28 	b @cv80
     B12E B144     
2809               cv78
2810 B130 0204  20 	li r4,4096
     B132 1000     
2811 B134 0205  20 	li r5,53504
     B136 D100     
2812 B138 04C6  14 	clr r6
2813 B13A 04C7  14 	clr r7
2814 B13C 04C0  14 	clr r0
2815 B13E 06A0  32 	bl @jsr
     B140 A974     
2816 B142 A24E     	data update_sprite
2817               cv80
2818               	; 	GOTO mainloop
2819 B144 0460  28 	b @cvb_MAINLOOP
     B146 AD4A     
2820               	;
2821               	; 	' ------------------------------------------------------------
2822               	; 	' dragon body: def1 (head/neck) above def2 (body/legs);
2823               	; 	' slain dragons collapse to the belly-up def3 at ground level
2824               	; 	' ------------------------------------------------------------
2825               	; drawdrg: PROCEDURE
2826               	even
2827               cvb_DRAWDRG
2828               	; 	IF dst(d) = 1 THEN SPRITE 1 + d + d, $d1, 0, 0, 0 : SPRITE 2 + d + d, ddy(d) + 31, ddx(d), 12, dcl(d) : RETURN
2829 B148 D020  34 	movb @cvb_D,r0
     B14A 2083     
2830 B14C 0980  32 	srl r0,8
2831 B14E 0220  22 	ai r0,array_DST
     B150 20FE     
2832 B152 D010  26 	movb *r0,r0
2833 B154 0201  20 	li r1,256   ; 1*256
     B156 0100     
2834 B158 9001  18 	cb r1,r0
2835 B15A 1302  14 	jeq cv82
2836 B15C 0460  28 	b @cv81
     B15E B1D4     
2837               cv82
2838 B160 D020  34 	movb @cvb_D,r0
     B162 2083     
2839 B164 0980  32 	srl r0,8
2840 B166 C040  18 	mov r0,r1
2841 B168 D020  34 	movb @cvb_D,r0
     B16A 2083     
2842 B16C 0980  32 	srl r0,8
2843 B16E 0580  14 	inc r0
2844 B170 A001  18 	a r1,r0
2845 B172 0A80  32 	sla r0,8
2846 B174 C100  18 	mov r0,r4
2847 B176 0205  20 	li r5,53504
     B178 D100     
2848 B17A 04C6  14 	clr r6
2849 B17C 04C7  14 	clr r7
2850 B17E 04C0  14 	clr r0
2851 B180 06A0  32 	bl @jsr
     B182 A974     
2852 B184 A24E     	data update_sprite
2853 B186 D020  34 	movb @cvb_D,r0
     B188 2083     
2854 B18A 0980  32 	srl r0,8
2855 B18C C040  18 	mov r0,r1
2856 B18E D020  34 	movb @cvb_D,r0
     B190 2083     
2857 B192 0980  32 	srl r0,8
2858 B194 05C0  14 	inct r0
2859 B196 A001  18 	a r1,r0
2860 B198 0A80  32 	sla r0,8
2861 B19A C100  18 	mov r0,r4
2862 B19C D020  34 	movb @cvb_D,r0
     B19E 2083     
2863 B1A0 0980  32 	srl r0,8
2864 B1A2 0220  22 	ai r0,array_DDY
     B1A4 20EA     
2865 B1A6 D010  26 	movb *r0,r0
2866 B1A8 0220  22 	ai r0,7936	; 31
     B1AA 1F00     
2867 B1AC D140  18 	movb r0,r5
2868 B1AE D020  34 	movb @cvb_D,r0
     B1B0 2083     
2869 B1B2 0980  32 	srl r0,8
2870 B1B4 0220  22 	ai r0,array_DDX
     B1B6 20E6     
2871 B1B8 D190  26 	movb *r0,r6
2872 B1BA 0207  20 	li r7,3072
     B1BC 0C00     
2873 B1BE D020  34 	movb @cvb_D,r0
     B1C0 2083     
2874 B1C2 0980  32 	srl r0,8
2875 B1C4 0220  22 	ai r0,array_DCL
     B1C6 20E2     
2876 B1C8 D010  26 	movb *r0,r0
2877 B1CA 06A0  32 	bl @jsr
     B1CC A974     
2878 B1CE A24E     	data update_sprite
2879 B1D0 C03A  30 	mov *r10+,r0
2880 B1D2 0450  20 	b *r0
2881               cv81
2882               	; 	SPRITE 1 + d + d, ddy(d) - 1, ddx(d), 4, dcl(d)
2883 B1D4 D020  34 	movb @cvb_D,r0
     B1D6 2083     
2884 B1D8 0980  32 	srl r0,8
2885 B1DA C040  18 	mov r0,r1
2886 B1DC D020  34 	movb @cvb_D,r0
     B1DE 2083     
2887 B1E0 0980  32 	srl r0,8
2888 B1E2 0580  14 	inc r0
2889 B1E4 A001  18 	a r1,r0
2890 B1E6 0A80  32 	sla r0,8
2891 B1E8 C100  18 	mov r0,r4
2892 B1EA D020  34 	movb @cvb_D,r0
     B1EC 2083     
2893 B1EE 0980  32 	srl r0,8
2894 B1F0 0220  22 	ai r0,array_DDY
     B1F2 20EA     
2895 B1F4 D010  26 	movb *r0,r0
2896 B1F6 0220  22 	ai r0,65280	; -1
     B1F8 FF00     
2897 B1FA D140  18 	movb r0,r5
2898 B1FC D020  34 	movb @cvb_D,r0
     B1FE 2083     
2899 B200 0980  32 	srl r0,8
2900 B202 0220  22 	ai r0,array_DDX
     B204 20E6     
2901 B206 D190  26 	movb *r0,r6
2902 B208 0207  20 	li r7,1024
     B20A 0400     
2903 B20C D020  34 	movb @cvb_D,r0
     B20E 2083     
2904 B210 0980  32 	srl r0,8
2905 B212 0220  22 	ai r0,array_DCL
     B214 20E2     
2906 B216 D010  26 	movb *r0,r0
2907 B218 06A0  32 	bl @jsr
     B21A A974     
2908 B21C A24E     	data update_sprite
2909               	; 	SPRITE 2 + d + d, ddy(d) + 31, ddx(d), 8, dcl(d)
2910 B21E D020  34 	movb @cvb_D,r0
     B220 2083     
2911 B222 0980  32 	srl r0,8
2912 B224 C040  18 	mov r0,r1
2913 B226 D020  34 	movb @cvb_D,r0
     B228 2083     
2914 B22A 0980  32 	srl r0,8
2915 B22C 05C0  14 	inct r0
2916 B22E A001  18 	a r1,r0
2917 B230 0A80  32 	sla r0,8
2918 B232 C100  18 	mov r0,r4
2919 B234 D020  34 	movb @cvb_D,r0
     B236 2083     
2920 B238 0980  32 	srl r0,8
2921 B23A 0220  22 	ai r0,array_DDY
     B23C 20EA     
2922 B23E D010  26 	movb *r0,r0
2923 B240 0220  22 	ai r0,7936	; 31
     B242 1F00     
2924 B244 D140  18 	movb r0,r5
2925 B246 D020  34 	movb @cvb_D,r0
     B248 2083     
2926 B24A 0980  32 	srl r0,8
2927 B24C 0220  22 	ai r0,array_DDX
     B24E 20E6     
2928 B250 D190  26 	movb *r0,r6
2929 B252 0207  20 	li r7,2048
     B254 0800     
2930 B256 D020  34 	movb @cvb_D,r0
     B258 2083     
2931 B25A 0980  32 	srl r0,8
2932 B25C 0220  22 	ai r0,array_DCL
     B25E 20E2     
2933 B260 D010  26 	movb *r0,r0
2934 B262 06A0  32 	bl @jsr
     B264 A974     
2935 B266 A24E     	data update_sprite
2936               	; 	END
2937 B268 C03A  30 	mov *r10+,r0
2938 B26A 0450  20 	b *r0
2939               	;
2940               	; 	' ------------------------------------------------------------
2941               	; 	' drop: the bridge snaps to the 16px block grid vertically so
2942               	; 	' its channel always covers whole wall rows
2943               	; 	' ------------------------------------------------------------
2944               	; dodrop: PROCEDURE
2945               	even
2946               cvb_DODROP
2947               	; 	IF cr = 4 THEN oby(4) = (oby(4) + 8) AND 240
2948 B26C D020  34 	movb @cvb_CR,r0
     B26E 20C5     
2949 B270 0201  20 	li r1,1024   ; 4*256
     B272 0400     
2950 B274 9001  18 	cb r1,r0
2951 B276 1302  14 	jeq cv84
2952 B278 0460  28 	b @cv83
     B27A B290     
2953               cv84
2954 B27C D020  34 	movb @array_OBY+4,r0
     B27E 2116     
2955 B280 0220  22 	ai r0,2048	; 8
     B282 0800     
2956 B284 0201  20 	li r1,61440   ; 240*256
     B286 F000     
2957 B288 0541  14 	inv r1
2958 B28A 5001  18 	szcb r1,r0
2959 B28C D800  38 	movb r0,@array_OBY+4
     B28E 2116     
2960               cv83
2961               	; 	cr = 255 : pkcd = 10 : sfx = 2 : sfc = 4
2962 B290 0200  20 	li r0,65280   ; 255*256
     B292 FF00     
2963 B294 D800  38 	movb r0,@cvb_CR
     B296 20C5     
2964 B298 0200  20 	li r0,2560   ; 10*256
     B29A 0A00     
2965 B29C D800  38 	movb r0,@cvb_PKCD
     B29E 20A4     
2966 B2A0 0200  20 	li r0,512   ; 2*256
     B2A2 0200     
2967 B2A4 D800  38 	movb r0,@cvb_SFX
     B2A6 20D7     
2968 B2A8 0200  20 	li r0,1024   ; 4*256
     B2AA 0400     
2969 B2AC D800  38 	movb r0,@cvb_SFC
     B2AE 20CF     
2970               	; 	END
2971 B2B0 C03A  30 	mov *r10+,r0
2972 B2B2 0450  20 	b *r0
2973               	;
2974               	; 	' ------------------------------------------------------------
2975               	; 	' object sprite: defs 3=key 4=sword 5=chalice 6=bridge
2976               	; 	' 10=magnet 11=dot (dot painted in the background colour)
2977               	; 	' ------------------------------------------------------------
2978               	; drawobj: PROCEDURE
2979               	even
2980               cvb_DRAWOBJ
2981               	; 	t = ocl(i)
2982 B2B4 D020  34 	movb @cvb_I,r0
     B2B6 2086     
2983 B2B8 0980  32 	srl r0,8
2984 B2BA 0220  22 	ai r0,array_OCL
     B2BC 2102     
2985 B2BE D810  46 	movb *r0,@cvb_T
     B2C0 208B     
2986               	; 	f = 16
2987 B2C2 0200  20 	li r0,4096   ; 16*256
     B2C4 1000     
2988 B2C6 D800  38 	movb r0,@cvb_F
     B2C8 2085     
2989               	; 	IF i = 3 THEN f = 20
2990 B2CA D020  34 	movb @cvb_I,r0
     B2CC 2086     
2991 B2CE 0201  20 	li r1,768   ; 3*256
     B2D0 0300     
2992 B2D2 9001  18 	cb r1,r0
2993 B2D4 1302  14 	jeq cv86
2994 B2D6 0460  28 	b @cv85
     B2D8 B2E2     
2995               cv86
2996 B2DA 0200  20 	li r0,5120   ; 20*256
     B2DC 1400     
2997 B2DE D800  38 	movb r0,@cvb_F
     B2E0 2085     
2998               cv85
2999               	; 	IF i = 4 THEN f = 28
3000 B2E2 D020  34 	movb @cvb_I,r0
     B2E4 2086     
3001 B2E6 0201  20 	li r1,1024   ; 4*256
     B2E8 0400     
3002 B2EA 9001  18 	cb r1,r0
3003 B2EC 1302  14 	jeq cv88
3004 B2EE 0460  28 	b @cv87
     B2F0 B2FA     
3005               cv88
3006 B2F2 0200  20 	li r0,7168   ; 28*256
     B2F4 1C00     
3007 B2F6 D800  38 	movb r0,@cvb_F
     B2F8 2085     
3008               cv87
3009               	; 	IF i = 5 THEN f = 24 : t = (FRAME AND 7) + 8
3010 B2FA D020  34 	movb @cvb_I,r0
     B2FC 2086     
3011 B2FE 0201  20 	li r1,1280   ; 5*256
     B300 0500     
3012 B302 9001  18 	cb r1,r0
3013 B304 1302  14 	jeq cv90
3014 B306 0460  28 	b @cv89
     B308 B328     
3015               cv90
3016 B30A 0200  20 	li r0,6144   ; 24*256
     B30C 1800     
3017 B30E D800  38 	movb r0,@cvb_F
     B310 2085     
3018 B312 C020  30 	mov @frame,r0
     B314 834A     
3019 B316 0A80  32 	sla r0,8
3020 B318 0201  20 	li r1,1792   ; 7*256
     B31A 0700     
3021 B31C 0541  14 	inv r1
3022 B31E 5001  18 	szcb r1,r0
3023 B320 0220  22 	ai r0,2048	; 8
     B322 0800     
3024 B324 D800  38 	movb r0,@cvb_T
     B326 208B     
3025               cv89
3026               	; 	IF i = 6 THEN f = 44
3027 B328 D020  34 	movb @cvb_I,r0
     B32A 2086     
3028 B32C 0201  20 	li r1,1536   ; 6*256
     B32E 0600     
3029 B330 9001  18 	cb r1,r0
3030 B332 1302  14 	jeq cv92
3031 B334 0460  28 	b @cv91
     B336 B340     
3032               cv92
3033 B338 0200  20 	li r0,11264   ; 44*256
     B33A 2C00     
3034 B33C D800  38 	movb r0,@cvb_F
     B33E 2085     
3035               cv91
3036               	; 	IF i = 7 THEN f = 48 : t = cb
3037 B340 D020  34 	movb @cvb_I,r0
     B342 2086     
3038 B344 0201  20 	li r1,1792   ; 7*256
     B346 0700     
3039 B348 9001  18 	cb r1,r0
3040 B34A 1302  14 	jeq cv94
3041 B34C 0460  28 	b @cv93
     B34E B35E     
3042               cv94
3043 B350 0200  20 	li r0,12288   ; 48*256
     B352 3000     
3044 B354 D800  38 	movb r0,@cvb_F
     B356 2085     
3045 B358 D820  54 	movb @cvb_CB,@cvb_T
     B35A 20C2     
     B35C 208B     
3046               cv93
3047               	; 	SPRITE 7 + i, oby(i) - 1, obx(i), f, t
3048 B35E D020  34 	movb @cvb_I,r0
     B360 2086     
3049 B362 0220  22 	ai r0,1792	; 7
     B364 0700     
3050 B366 C100  18 	mov r0,r4
3051 B368 D020  34 	movb @cvb_I,r0
     B36A 2086     
3052 B36C 0980  32 	srl r0,8
3053 B36E 0220  22 	ai r0,array_OBY
     B370 2112     
3054 B372 D010  26 	movb *r0,r0
3055 B374 0220  22 	ai r0,65280	; -1
     B376 FF00     
3056 B378 D140  18 	movb r0,r5
3057 B37A D020  34 	movb @cvb_I,r0
     B37C 2086     
3058 B37E 0980  32 	srl r0,8
3059 B380 0220  22 	ai r0,array_OBX
     B382 210A     
3060 B384 D190  26 	movb *r0,r6
3061 B386 D1E0  34 	movb @cvb_F,r7
     B388 2085     
3062 B38A D020  34 	movb @cvb_T,r0
     B38C 208B     
3063 B38E 06A0  32 	bl @jsr
     B390 A974     
3064 B392 A24E     	data update_sprite
3065               	; 	END
3066 B394 C03A  30 	mov *r10+,r0
3067 B396 0450  20 	b *r0
3068               	;
3069               	; 	' ------------------------------------------------------------
3070               	; 	' movement: 3px steps, screen-edge exits, box-vs-wall test,
3071               	; 	' bridge channel exemption
3072               	; 	' ------------------------------------------------------------
3073               	; mvleft: PROCEDURE
3074               	even
3075               cvb_MVLEFT
3076               	; 	IF rmch = 1 THEN RETURN
3077 B398 D020  34 	movb @cvb_RMCH,r0
     B39A 2091     
3078 B39C 0201  20 	li r1,256   ; 1*256
     B39E 0100     
3079 B3A0 9001  18 	cb r1,r0
3080 B3A2 1302  14 	jeq cv96
3081 B3A4 0460  28 	b @cv95
     B3A6 B3AC     
3082               cv96
3083 B3A8 C03A  30 	mov *r10+,r0
3084 B3AA 0450  20 	b *r0
3085               cv95
3086               	; 	IF px < 3 THEN GOSUB gowest : RETURN
3087 B3AC D020  34 	movb @cvb_PX,r0
     B3AE 20D4     
3088 B3B0 0201  20 	li r1,768   ; 3*256
     B3B2 0300     
3089 B3B4 9040  18 	cb r0,r1
3090 B3B6 1A02  14 	jl cv98
3091 B3B8 0460  28 	b @cv97
     B3BA B3C6     
3092               cv98
3093 B3BC 06A0  32 	bl @jsr
     B3BE A974     
3094 B3C0 B840     	data cvb_GOWEST
3095 B3C2 C03A  30 	mov *r10+,r0
3096 B3C4 0450  20 	b *r0
3097               cv97
3098               	; 	x0 = px - 3 : y0 = py : bw = 7 : bh = 7
3099 B3C6 D020  34 	movb @cvb_PX,r0
     B3C8 20D4     
3100 B3CA 0220  22 	ai r0,64768	; -3
     B3CC FD00     
3101 B3CE D800  38 	movb r0,@cvb_X0
     B3D0 20DE     
3102 B3D2 D820  54 	movb @cvb_PY,@cvb_Y0
     B3D4 20D5     
     B3D6 20E0     
3103 B3D8 0200  20 	li r0,1792   ; 7*256
     B3DA 0700     
3104 B3DC D800  38 	movb r0,@cvb_BW
     B3DE 20C4     
3105 B3E0 0200  20 	li r0,1792   ; 7*256
     B3E2 0700     
3106 B3E4 D800  38 	movb r0,@cvb_BH
     B3E6 20C0     
3107               	; 	GOSUB chkbox
3108 B3E8 06A0  32 	bl @jsr
     B3EA A974     
3109 B3EC D180     	data cvb_CHKBOX
3110               	; 	IF bf = 1 THEN GOSUB brchk : IF brf = 1 THEN bf = 0
3111 B3EE D020  34 	movb @cvb_BF,r0
     B3F0 20BF     
3112 B3F2 0201  20 	li r1,256   ; 1*256
     B3F4 0100     
3113 B3F6 9001  18 	cb r1,r0
3114 B3F8 1302  14 	jeq cv100
3115 B3FA 0460  28 	b @cv99
     B3FC B41A     
3116               cv100
3117 B3FE 06A0  32 	bl @jsr
     B400 A974     
3118 B402 B768     	data cvb_BRCHK
3119 B404 D020  34 	movb @cvb_BRF,r0
     B406 2090     
3120 B408 0201  20 	li r1,256   ; 1*256
     B40A 0100     
3121 B40C 9001  18 	cb r1,r0
3122 B40E 1302  14 	jeq cv102
3123 B410 0460  28 	b @cv101
     B412 B41A     
3124               cv102
3125 B414 04C0  14 	clr r0
3126 B416 D800  38 	movb r0,@cvb_BF
     B418 20BF     
3127               cv101
3128               cv99
3129               	; 	IF bf = 1 THEN GOSUB hassist
3130 B41A D020  34 	movb @cvb_BF,r0
     B41C 20BF     
3131 B41E 0201  20 	li r1,256   ; 1*256
     B420 0100     
3132 B422 9001  18 	cb r1,r0
3133 B424 1302  14 	jeq cv104
3134 B426 0460  28 	b @cv103
     B428 B430     
3135               cv104
3136 B42A 06A0  32 	bl @jsr
     B42C A974     
3137 B42E B6D8     	data cvb_HASSIST
3138               cv103
3139               	; 	IF bf = 0 THEN px = x0
3140 B430 D020  34 	movb @cvb_BF,r0
     B432 20BF     
3141 B434 1302  14 	jeq cv106
3142 B436 0460  28 	b @cv105
     B438 B440     
3143               cv106
3144 B43A D820  54 	movb @cvb_X0,@cvb_PX
     B43C 20DE     
     B43E 20D4     
3145               cv105
3146               	; 	END
3147 B440 C03A  30 	mov *r10+,r0
3148 B442 0450  20 	b *r0
3149               	;
3150               	; mvright: PROCEDURE
3151               	even
3152               cvb_MVRIGHT
3153               	; 	IF rmch = 1 THEN RETURN
3154 B444 D020  34 	movb @cvb_RMCH,r0
     B446 2091     
3155 B448 0201  20 	li r1,256   ; 1*256
     B44A 0100     
3156 B44C 9001  18 	cb r1,r0
3157 B44E 1302  14 	jeq cv108
3158 B450 0460  28 	b @cv107
     B452 B458     
3159               cv108
3160 B454 C03A  30 	mov *r10+,r0
3161 B456 0450  20 	b *r0
3162               cv107
3163               	; 	IF px > 244 THEN GOSUB goeast : RETURN
3164 B458 D020  34 	movb @cvb_PX,r0
     B45A 20D4     
3165 B45C 0201  20 	li r1,62720   ; 245*256
     B45E F500     
3166 B460 9040  18 	cb r0,r1
3167 B462 1402  14 	jhe cv110
3168 B464 0460  28 	b @cv109
     B466 B472     
3169               cv110
3170 B468 06A0  32 	bl @jsr
     B46A A974     
3171 B46C B882     	data cvb_GOEAST
3172 B46E C03A  30 	mov *r10+,r0
3173 B470 0450  20 	b *r0
3174               cv109
3175               	; 	x0 = px + 3 : y0 = py : bw = 7 : bh = 7
3176 B472 D020  34 	movb @cvb_PX,r0
     B474 20D4     
3177 B476 0220  22 	ai r0,768	; 3
     B478 0300     
3178 B47A D800  38 	movb r0,@cvb_X0
     B47C 20DE     
3179 B47E D820  54 	movb @cvb_PY,@cvb_Y0
     B480 20D5     
     B482 20E0     
3180 B484 0200  20 	li r0,1792   ; 7*256
     B486 0700     
3181 B488 D800  38 	movb r0,@cvb_BW
     B48A 20C4     
3182 B48C 0200  20 	li r0,1792   ; 7*256
     B48E 0700     
3183 B490 D800  38 	movb r0,@cvb_BH
     B492 20C0     
3184               	; 	GOSUB chkbox
3185 B494 06A0  32 	bl @jsr
     B496 A974     
3186 B498 D180     	data cvb_CHKBOX
3187               	; 	IF bf = 1 THEN GOSUB brchk : IF brf = 1 THEN bf = 0
3188 B49A D020  34 	movb @cvb_BF,r0
     B49C 20BF     
3189 B49E 0201  20 	li r1,256   ; 1*256
     B4A0 0100     
3190 B4A2 9001  18 	cb r1,r0
3191 B4A4 1302  14 	jeq cv112
3192 B4A6 0460  28 	b @cv111
     B4A8 B4C6     
3193               cv112
3194 B4AA 06A0  32 	bl @jsr
     B4AC A974     
3195 B4AE B768     	data cvb_BRCHK
3196 B4B0 D020  34 	movb @cvb_BRF,r0
     B4B2 2090     
3197 B4B4 0201  20 	li r1,256   ; 1*256
     B4B6 0100     
3198 B4B8 9001  18 	cb r1,r0
3199 B4BA 1302  14 	jeq cv114
3200 B4BC 0460  28 	b @cv113
     B4BE B4C6     
3201               cv114
3202 B4C0 04C0  14 	clr r0
3203 B4C2 D800  38 	movb r0,@cvb_BF
     B4C4 20BF     
3204               cv113
3205               cv111
3206               	; 	IF bf = 1 THEN GOSUB hassist
3207 B4C6 D020  34 	movb @cvb_BF,r0
     B4C8 20BF     
3208 B4CA 0201  20 	li r1,256   ; 1*256
     B4CC 0100     
3209 B4CE 9001  18 	cb r1,r0
3210 B4D0 1302  14 	jeq cv116
3211 B4D2 0460  28 	b @cv115
     B4D4 B4DC     
3212               cv116
3213 B4D6 06A0  32 	bl @jsr
     B4D8 A974     
3214 B4DA B6D8     	data cvb_HASSIST
3215               cv115
3216               	; 	IF bf = 0 THEN px = x0
3217 B4DC D020  34 	movb @cvb_BF,r0
     B4DE 20BF     
3218 B4E0 1302  14 	jeq cv118
3219 B4E2 0460  28 	b @cv117
     B4E4 B4EC     
3220               cv118
3221 B4E6 D820  54 	movb @cvb_X0,@cvb_PX
     B4E8 20DE     
     B4EA 20D4     
3222               cv117
3223               	; 	END
3224 B4EC C03A  30 	mov *r10+,r0
3225 B4EE 0450  20 	b *r0
3226               	;
3227               	; mvup: PROCEDURE
3228               	even
3229               cvb_MVUP
3230               	; 	IF rmch = 1 THEN RETURN
3231 B4F0 D020  34 	movb @cvb_RMCH,r0
     B4F2 2091     
3232 B4F4 0201  20 	li r1,256   ; 1*256
     B4F6 0100     
3233 B4F8 9001  18 	cb r1,r0
3234 B4FA 1302  14 	jeq cv120
3235 B4FC 0460  28 	b @cv119
     B4FE B504     
3236               cv120
3237 B500 C03A  30 	mov *r10+,r0
3238 B502 0450  20 	b *r0
3239               cv119
3240               	; 	IF py < 3 THEN GOSUB gonorth : RETURN
3241 B504 D020  34 	movb @cvb_PY,r0
     B506 20D5     
3242 B508 0201  20 	li r1,768   ; 3*256
     B50A 0300     
3243 B50C 9040  18 	cb r0,r1
3244 B50E 1A02  14 	jl cv122
3245 B510 0460  28 	b @cv121
     B512 B51E     
3246               cv122
3247 B514 06A0  32 	bl @jsr
     B516 A974     
3248 B518 B8C4     	data cvb_GONORTH
3249 B51A C03A  30 	mov *r10+,r0
3250 B51C 0450  20 	b *r0
3251               cv121
3252               	; 	x0 = px : y0 = py - 3 : bw = 7 : bh = 7
3253 B51E D820  54 	movb @cvb_PX,@cvb_X0
     B520 20D4     
     B522 20DE     
3254 B524 D020  34 	movb @cvb_PY,r0
     B526 20D5     
3255 B528 0220  22 	ai r0,64768	; -3
     B52A FD00     
3256 B52C D800  38 	movb r0,@cvb_Y0
     B52E 20E0     
3257 B530 0200  20 	li r0,1792   ; 7*256
     B532 0700     
3258 B534 D800  38 	movb r0,@cvb_BW
     B536 20C4     
3259 B538 0200  20 	li r0,1792   ; 7*256
     B53A 0700     
3260 B53C D800  38 	movb r0,@cvb_BH
     B53E 20C0     
3261               	; 	GOSUB chkbox
3262 B540 06A0  32 	bl @jsr
     B542 A974     
3263 B544 D180     	data cvb_CHKBOX
3264               	; 	IF bf = 1 THEN GOSUB brchk : IF brf = 1 THEN bf = 0
3265 B546 D020  34 	movb @cvb_BF,r0
     B548 20BF     
3266 B54A 0201  20 	li r1,256   ; 1*256
     B54C 0100     
3267 B54E 9001  18 	cb r1,r0
3268 B550 1302  14 	jeq cv124
3269 B552 0460  28 	b @cv123
     B554 B572     
3270               cv124
3271 B556 06A0  32 	bl @jsr
     B558 A974     
3272 B55A B768     	data cvb_BRCHK
3273 B55C D020  34 	movb @cvb_BRF,r0
     B55E 2090     
3274 B560 0201  20 	li r1,256   ; 1*256
     B562 0100     
3275 B564 9001  18 	cb r1,r0
3276 B566 1302  14 	jeq cv126
3277 B568 0460  28 	b @cv125
     B56A B572     
3278               cv126
3279 B56C 04C0  14 	clr r0
3280 B56E D800  38 	movb r0,@cvb_BF
     B570 20BF     
3281               cv125
3282               cv123
3283               	; 	IF bf = 1 THEN GOSUB vassist
3284 B572 D020  34 	movb @cvb_BF,r0
     B574 20BF     
3285 B576 0201  20 	li r1,256   ; 1*256
     B578 0100     
3286 B57A 9001  18 	cb r1,r0
3287 B57C 1302  14 	jeq cv128
3288 B57E 0460  28 	b @cv127
     B580 B588     
3289               cv128
3290 B582 06A0  32 	bl @jsr
     B584 A974     
3291 B586 B648     	data cvb_VASSIST
3292               cv127
3293               	; 	IF bf = 0 THEN py = y0
3294 B588 D020  34 	movb @cvb_BF,r0
     B58A 20BF     
3295 B58C 1302  14 	jeq cv130
3296 B58E 0460  28 	b @cv129
     B590 B598     
3297               cv130
3298 B592 D820  54 	movb @cvb_Y0,@cvb_PY
     B594 20E0     
     B596 20D5     
3299               cv129
3300               	; 	END
3301 B598 C03A  30 	mov *r10+,r0
3302 B59A 0450  20 	b *r0
3303               	;
3304               	; mvdown: PROCEDURE
3305               	even
3306               cvb_MVDOWN
3307               	; 	IF rmch = 1 THEN RETURN
3308 B59C D020  34 	movb @cvb_RMCH,r0
     B59E 2091     
3309 B5A0 0201  20 	li r1,256   ; 1*256
     B5A2 0100     
3310 B5A4 9001  18 	cb r1,r0
3311 B5A6 1302  14 	jeq cv132
3312 B5A8 0460  28 	b @cv131
     B5AA B5B0     
3313               cv132
3314 B5AC C03A  30 	mov *r10+,r0
3315 B5AE 0450  20 	b *r0
3316               cv131
3317               	; 	IF py > 181 THEN GOSUB gosouth : RETURN
3318 B5B0 D020  34 	movb @cvb_PY,r0
     B5B2 20D5     
3319 B5B4 0201  20 	li r1,46592   ; 182*256
     B5B6 B600     
3320 B5B8 9040  18 	cb r0,r1
3321 B5BA 1402  14 	jhe cv134
3322 B5BC 0460  28 	b @cv133
     B5BE B5CA     
3323               cv134
3324 B5C0 06A0  32 	bl @jsr
     B5C2 A974     
3325 B5C4 B904     	data cvb_GOSOUTH
3326 B5C6 C03A  30 	mov *r10+,r0
3327 B5C8 0450  20 	b *r0
3328               cv133
3329               	; 	x0 = px : y0 = py + 3 : bw = 7 : bh = 7
3330 B5CA D820  54 	movb @cvb_PX,@cvb_X0
     B5CC 20D4     
     B5CE 20DE     
3331 B5D0 D020  34 	movb @cvb_PY,r0
     B5D2 20D5     
3332 B5D4 0220  22 	ai r0,768	; 3
     B5D6 0300     
3333 B5D8 D800  38 	movb r0,@cvb_Y0
     B5DA 20E0     
3334 B5DC 0200  20 	li r0,1792   ; 7*256
     B5DE 0700     
3335 B5E0 D800  38 	movb r0,@cvb_BW
     B5E2 20C4     
3336 B5E4 0200  20 	li r0,1792   ; 7*256
     B5E6 0700     
3337 B5E8 D800  38 	movb r0,@cvb_BH
     B5EA 20C0     
3338               	; 	GOSUB chkbox
3339 B5EC 06A0  32 	bl @jsr
     B5EE A974     
3340 B5F0 D180     	data cvb_CHKBOX
3341               	; 	IF bf = 1 THEN GOSUB brchk : IF brf = 1 THEN bf = 0
3342 B5F2 D020  34 	movb @cvb_BF,r0
     B5F4 20BF     
3343 B5F6 0201  20 	li r1,256   ; 1*256
     B5F8 0100     
3344 B5FA 9001  18 	cb r1,r0
3345 B5FC 1302  14 	jeq cv136
3346 B5FE 0460  28 	b @cv135
     B600 B61E     
3347               cv136
3348 B602 06A0  32 	bl @jsr
     B604 A974     
3349 B606 B768     	data cvb_BRCHK
3350 B608 D020  34 	movb @cvb_BRF,r0
     B60A 2090     
3351 B60C 0201  20 	li r1,256   ; 1*256
     B60E 0100     
3352 B610 9001  18 	cb r1,r0
3353 B612 1302  14 	jeq cv138
3354 B614 0460  28 	b @cv137
     B616 B61E     
3355               cv138
3356 B618 04C0  14 	clr r0
3357 B61A D800  38 	movb r0,@cvb_BF
     B61C 20BF     
3358               cv137
3359               cv135
3360               	; 	IF bf = 1 THEN GOSUB vassist
3361 B61E D020  34 	movb @cvb_BF,r0
     B620 20BF     
3362 B622 0201  20 	li r1,256   ; 1*256
     B624 0100     
3363 B626 9001  18 	cb r1,r0
3364 B628 1302  14 	jeq cv140
3365 B62A 0460  28 	b @cv139
     B62C B634     
3366               cv140
3367 B62E 06A0  32 	bl @jsr
     B630 A974     
3368 B632 B648     	data cvb_VASSIST
3369               cv139
3370               	; 	IF bf = 0 THEN py = y0
3371 B634 D020  34 	movb @cvb_BF,r0
     B636 20BF     
3372 B638 1302  14 	jeq cv142
3373 B63A 0460  28 	b @cv141
     B63C B644     
3374               cv142
3375 B63E D820  54 	movb @cvb_Y0,@cvb_PY
     B640 20E0     
     B642 20D5     
3376               cv141
3377               	; 	END
3378 B644 C03A  30 	mov *r10+,r0
3379 B646 0450  20 	b *r0
3380               	;
3381               	; 	' ------------------------------------------------------------
3382               	; 	' doorway assist: 3px steps make lining an 8px square up with
3383               	; 	' a 16px gap fiddly, so when a move is blocked we nudge the
3384               	; 	' player (max 4px) onto the cell grid if that clears the way
3385               	; 	' ------------------------------------------------------------
3386               	; vassist: PROCEDURE
3387               	even
3388               cvb_VASSIST
3389               	; 	t = (px + 4) AND 248
3390 B648 D020  34 	movb @cvb_PX,r0
     B64A 20D4     
3391 B64C 0220  22 	ai r0,1024	; 4
     B64E 0400     
3392 B650 0201  20 	li r1,63488   ; 248*256
     B652 F800     
3393 B654 0541  14 	inv r1
3394 B656 5001  18 	szcb r1,r0
3395 B658 D800  38 	movb r0,@cvb_T
     B65A 208B     
3396               	; 	IF t = px THEN RETURN
3397 B65C 9020  34 	cb @cvb_PX,r0
     B65E 20D4     
3398 B660 1302  14 	jeq cv144
3399 B662 0460  28 	b @cv143
     B664 B66A     
3400               cv144
3401 B666 C03A  30 	mov *r10+,r0
3402 B668 0450  20 	b *r0
3403               cv143
3404               	; 	IF t > px THEN t2 = t - px ELSE t2 = px - t
3405 B66A D020  34 	movb @cvb_PX,r0
     B66C 20D4     
3406 B66E 9800  34 	cb r0,@cvb_T
     B670 208B     
3407 B672 1A02  14 	jl cv146
3408 B674 0460  28 	b @cv145
     B676 B688     
3409               cv146
3410 B678 D020  34 	movb @cvb_T,r0
     B67A 208B     
3411 B67C 7020  34 	sb @cvb_PX,r0
     B67E 20D4     
3412 B680 D800  38 	movb r0,@cvb_T2
     B682 20D6     
3413 B684 0460  28 	b @cv147
     B686 B694     
3414               cv145
3415 B688 D020  34 	movb @cvb_PX,r0
     B68A 20D4     
3416 B68C 7020  34 	sb @cvb_T,r0
     B68E 208B     
3417 B690 D800  38 	movb r0,@cvb_T2
     B692 20D6     
3418               cv147
3419               	; 	IF t2 > 4 THEN RETURN
3420 B694 D020  34 	movb @cvb_T2,r0
     B696 20D6     
3421 B698 0201  20 	li r1,1280   ; 5*256
     B69A 0500     
3422 B69C 9040  18 	cb r0,r1
3423 B69E 1402  14 	jhe cv149
3424 B6A0 0460  28 	b @cv148
     B6A2 B6A8     
3425               cv149
3426 B6A4 C03A  30 	mov *r10+,r0
3427 B6A6 0450  20 	b *r0
3428               cv148
3429               	; 	x0 = t
3430 B6A8 D820  54 	movb @cvb_T,@cvb_X0
     B6AA 208B     
     B6AC 20DE     
3431               	; 	GOSUB chkbox
3432 B6AE 06A0  32 	bl @jsr
     B6B0 A974     
3433 B6B2 D180     	data cvb_CHKBOX
3434               	; 	IF bf = 1 THEN x0 = px : RETURN
3435 B6B4 D020  34 	movb @cvb_BF,r0
     B6B6 20BF     
3436 B6B8 0201  20 	li r1,256   ; 1*256
     B6BA 0100     
3437 B6BC 9001  18 	cb r1,r0
3438 B6BE 1302  14 	jeq cv151
3439 B6C0 0460  28 	b @cv150
     B6C2 B6CE     
3440               cv151
3441 B6C4 D820  54 	movb @cvb_PX,@cvb_X0
     B6C6 20D4     
     B6C8 20DE     
3442 B6CA C03A  30 	mov *r10+,r0
3443 B6CC 0450  20 	b *r0
3444               cv150
3445               	; 	px = t
3446 B6CE D820  54 	movb @cvb_T,@cvb_PX
     B6D0 208B     
     B6D2 20D4     
3447               	; 	END
3448 B6D4 C03A  30 	mov *r10+,r0
3449 B6D6 0450  20 	b *r0
3450               	;
3451               	; hassist: PROCEDURE
3452               	even
3453               cvb_HASSIST
3454               	; 	t = (py + 4) AND 248
3455 B6D8 D020  34 	movb @cvb_PY,r0
     B6DA 20D5     
3456 B6DC 0220  22 	ai r0,1024	; 4
     B6DE 0400     
3457 B6E0 0201  20 	li r1,63488   ; 248*256
     B6E2 F800     
3458 B6E4 0541  14 	inv r1
3459 B6E6 5001  18 	szcb r1,r0
3460 B6E8 D800  38 	movb r0,@cvb_T
     B6EA 208B     
3461               	; 	IF t = py THEN RETURN
3462 B6EC 9020  34 	cb @cvb_PY,r0
     B6EE 20D5     
3463 B6F0 1302  14 	jeq cv153
3464 B6F2 0460  28 	b @cv152
     B6F4 B6FA     
3465               cv153
3466 B6F6 C03A  30 	mov *r10+,r0
3467 B6F8 0450  20 	b *r0
3468               cv152
3469               	; 	IF t > py THEN t2 = t - py ELSE t2 = py - t
3470 B6FA D020  34 	movb @cvb_PY,r0
     B6FC 20D5     
3471 B6FE 9800  34 	cb r0,@cvb_T
     B700 208B     
3472 B702 1A02  14 	jl cv155
3473 B704 0460  28 	b @cv154
     B706 B718     
3474               cv155
3475 B708 D020  34 	movb @cvb_T,r0
     B70A 208B     
3476 B70C 7020  34 	sb @cvb_PY,r0
     B70E 20D5     
3477 B710 D800  38 	movb r0,@cvb_T2
     B712 20D6     
3478 B714 0460  28 	b @cv156
     B716 B724     
3479               cv154
3480 B718 D020  34 	movb @cvb_PY,r0
     B71A 20D5     
3481 B71C 7020  34 	sb @cvb_T,r0
     B71E 208B     
3482 B720 D800  38 	movb r0,@cvb_T2
     B722 20D6     
3483               cv156
3484               	; 	IF t2 > 4 THEN RETURN
3485 B724 D020  34 	movb @cvb_T2,r0
     B726 20D6     
3486 B728 0201  20 	li r1,1280   ; 5*256
     B72A 0500     
3487 B72C 9040  18 	cb r0,r1
3488 B72E 1402  14 	jhe cv158
3489 B730 0460  28 	b @cv157
     B732 B738     
3490               cv158
3491 B734 C03A  30 	mov *r10+,r0
3492 B736 0450  20 	b *r0
3493               cv157
3494               	; 	y0 = t
3495 B738 D820  54 	movb @cvb_T,@cvb_Y0
     B73A 208B     
     B73C 20E0     
3496               	; 	GOSUB chkbox
3497 B73E 06A0  32 	bl @jsr
     B740 A974     
3498 B742 D180     	data cvb_CHKBOX
3499               	; 	IF bf = 1 THEN y0 = py : RETURN
3500 B744 D020  34 	movb @cvb_BF,r0
     B746 20BF     
3501 B748 0201  20 	li r1,256   ; 1*256
     B74A 0100     
3502 B74C 9001  18 	cb r1,r0
3503 B74E 1302  14 	jeq cv160
3504 B750 0460  28 	b @cv159
     B752 B75E     
3505               cv160
3506 B754 D820  54 	movb @cvb_PY,@cvb_Y0
     B756 20D5     
     B758 20E0     
3507 B75A C03A  30 	mov *r10+,r0
3508 B75C 0450  20 	b *r0
3509               cv159
3510               	; 	py = t
3511 B75E D820  54 	movb @cvb_T,@cvb_PY
     B760 208B     
     B762 20D5     
3512               	; 	END
3513 B764 C03A  30 	mov *r10+,r0
3514 B766 0450  20 	b *r0
3515               	;
3516               	; brchk: PROCEDURE
3517               	even
3518               cvb_BRCHK
3519               	; 	' bridge passage: the target box lies inside the channel of the
3520               	; 	' bridge (lying in this room, not carried, never over a gate)
3521               	; 	brf = 0
3522 B768 04C0  14 	clr r0
3523 B76A D800  38 	movb r0,@cvb_BRF
     B76C 2090     
3524               	; 	IF orm(4) <> rn THEN RETURN
3525 B76E D020  34 	movb @array_ORM+4,r0
     B770 2122     
3526 B772 9020  34 	cb @cvb_RN,r0
     B774 20D8     
3527 B776 1602  14 	jne cv162
3528 B778 0460  28 	b @cv161
     B77A B780     
3529               cv162
3530 B77C C03A  30 	mov *r10+,r0
3531 B77E 0450  20 	b *r0
3532               cv161
3533               	; 	IF cr = 4 THEN RETURN
3534 B780 D020  34 	movb @cvb_CR,r0
     B782 20C5     
3535 B784 0201  20 	li r1,1024   ; 4*256
     B786 0400     
3536 B788 9001  18 	cb r1,r0
3537 B78A 1302  14 	jeq cv164
3538 B78C 0460  28 	b @cv163
     B78E B794     
3539               cv164
3540 B790 C03A  30 	mov *r10+,r0
3541 B792 0450  20 	b *r0
3542               cv163
3543               	; 	IF gz > 0 THEN RETURN
3544 B794 D020  34 	movb @cvb_GZ,r0
     B796 20CD     
3545 B798 0201  20 	li r1,256   ; 1*256
     B79A 0100     
3546 B79C 9040  18 	cb r0,r1
3547 B79E 1402  14 	jhe cv166
3548 B7A0 0460  28 	b @cv165
     B7A2 B7A8     
3549               cv166
3550 B7A4 C03A  30 	mov *r10+,r0
3551 B7A6 0450  20 	b *r0
3552               cv165
3553               	; 	' passage keeps a 2px margin off the rails so walking through
3554               	; 	' never counts as touching (= grabbing) them
3555               	; 	IF x0 < obx(4) + 6 THEN RETURN
3556 B7A8 D020  34 	movb @array_OBX+4,r0
     B7AA 210E     
3557 B7AC 0980  32 	srl r0,8
3558 B7AE 0220  22 	ai r0,6
     B7B0 0006     
3559 B7B2 C040  18 	mov r0,r1
3560 B7B4 D020  34 	movb @cvb_X0,r0
     B7B6 20DE     
3561 B7B8 0980  32 	srl r0,8
3562 B7BA 8040  18 	c r0,r1
3563 B7BC 1A02  14 	jl cv168
3564 B7BE 0460  28 	b @cv167
     B7C0 B7C6     
3565               cv168
3566 B7C2 C03A  30 	mov *r10+,r0
3567 B7C4 0450  20 	b *r0
3568               cv167
3569               	; 	#ax = obx(4) + 25
3570 B7C6 D020  34 	movb @array_OBX+4,r0
     B7C8 210E     
3571 B7CA 0980  32 	srl r0,8
3572 B7CC 0220  22 	ai r0,25
     B7CE 0019     
3573 B7D0 C800  38 	mov r0,@cvb__AX
     B7D2 20B0     
3574               	; 	IF x0 + 7 > #ax THEN RETURN
3575 B7D4 D020  34 	movb @cvb_X0,r0
     B7D6 20DE     
3576 B7D8 0980  32 	srl r0,8
3577 B7DA 0220  22 	ai r0,7
     B7DC 0007     
3578 B7DE C040  18 	mov r0,r1
3579 B7E0 C020  34 	mov @cvb__AX,r0
     B7E2 20B0     
3580 B7E4 8040  18 	c r0,r1
3581 B7E6 1A02  14 	jl cv170
3582 B7E8 0460  28 	b @cv169
     B7EA B7F0     
3583               cv170
3584 B7EC C03A  30 	mov *r10+,r0
3585 B7EE 0450  20 	b *r0
3586               cv169
3587               	; 	IF y0 + 7 < oby(4) THEN RETURN
3588 B7F0 D020  34 	movb @array_OBY+4,r0
     B7F2 2116     
3589 B7F4 0980  32 	srl r0,8
3590 B7F6 C040  18 	mov r0,r1
3591 B7F8 D020  34 	movb @cvb_Y0,r0
     B7FA 20E0     
3592 B7FC 0980  32 	srl r0,8
3593 B7FE 0220  22 	ai r0,7
     B800 0007     
3594 B802 8040  18 	c r0,r1
3595 B804 1A02  14 	jl cv172
3596 B806 0460  28 	b @cv171
     B808 B80E     
3597               cv172
3598 B80A C03A  30 	mov *r10+,r0
3599 B80C 0450  20 	b *r0
3600               cv171
3601               	; 	#ax = oby(4) + 31
3602 B80E D020  34 	movb @array_OBY+4,r0
     B810 2116     
3603 B812 0980  32 	srl r0,8
3604 B814 0220  22 	ai r0,31
     B816 001F     
3605 B818 C800  38 	mov r0,@cvb__AX
     B81A 20B0     
3606               	; 	IF y0 > #ax THEN RETURN
3607 B81C D020  34 	movb @cvb_Y0,r0
     B81E 20E0     
3608 B820 0980  32 	srl r0,8
3609 B822 C040  18 	mov r0,r1
3610 B824 C020  34 	mov @cvb__AX,r0
     B826 20B0     
3611 B828 8040  18 	c r0,r1
3612 B82A 1A02  14 	jl cv174
3613 B82C 0460  28 	b @cv173
     B82E B834     
3614               cv174
3615 B830 C03A  30 	mov *r10+,r0
3616 B832 0450  20 	b *r0
3617               cv173
3618               	; 	brf = 1
3619 B834 0200  20 	li r0,256   ; 1*256
     B836 0100     
3620 B838 D800  38 	movb r0,@cvb_BRF
     B83A 2090     
3621               	; 	END
3622 B83C C03A  30 	mov *r10+,r0
3623 B83E 0450  20 	b *r0
3624               	;
3625               	; gowest: PROCEDURE
3626               	even
3627               cvb_GOWEST
3628               	; 	IF pw = 255 THEN RETURN
3629 B840 D020  34 	movb @cvb_PW,r0
     B842 20D3     
3630 B844 0201  20 	li r1,65280   ; 255*256
     B846 FF00     
3631 B848 9001  18 	cb r1,r0
3632 B84A 1302  14 	jeq cv176
3633 B84C 0460  28 	b @cv175
     B84E B854     
3634               cv176
3635 B850 C03A  30 	mov *r10+,r0
3636 B852 0450  20 	b *r0
3637               cv175
3638               	; 	rn = pw : px = 244 : rmch = 1
3639 B854 D820  54 	movb @cvb_PW,@cvb_RN
     B856 20D3     
     B858 20D8     
3640 B85A 0200  20 	li r0,62464   ; 244*256
     B85C F400     
3641 B85E D800  38 	movb r0,@cvb_PX
     B860 20D4     
3642 B862 0200  20 	li r0,256   ; 1*256
     B864 0100     
3643 B866 D800  38 	movb r0,@cvb_RMCH
     B868 2091     
3644               	; 	GOSUB enterroom
3645 B86A 06A0  32 	bl @jsr
     B86C A974     
3646 B86E D322     	data cvb_ENTERROOM
3647               	; 	ax = 1
3648 B870 0200  20 	li r0,256   ; 1*256
     B872 0100     
3649 B874 D800  38 	movb r0,@cvb_AX
     B876 20C1     
3650               	; 	GOSUB arrsnap
3651 B878 06A0  32 	bl @jsr
     B87A A974     
3652 B87C BA0C     	data cvb_ARRSNAP
3653               	; 	END
3654 B87E C03A  30 	mov *r10+,r0
3655 B880 0450  20 	b *r0
3656               	;
3657               	; goeast: PROCEDURE
3658               	even
3659               cvb_GOEAST
3660               	; 	IF pe = 255 THEN RETURN
3661 B882 D020  34 	movb @cvb_PE,r0
     B884 20CE     
3662 B886 0201  20 	li r1,65280   ; 255*256
     B888 FF00     
3663 B88A 9001  18 	cb r1,r0
3664 B88C 1302  14 	jeq cv178
3665 B88E 0460  28 	b @cv177
     B890 B896     
3666               cv178
3667 B892 C03A  30 	mov *r10+,r0
3668 B894 0450  20 	b *r0
3669               cv177
3670               	; 	rn = pe : px = 4 : rmch = 1
3671 B896 D820  54 	movb @cvb_PE,@cvb_RN
     B898 20CE     
     B89A 20D8     
3672 B89C 0200  20 	li r0,1024   ; 4*256
     B89E 0400     
3673 B8A0 D800  38 	movb r0,@cvb_PX
     B8A2 20D4     
3674 B8A4 0200  20 	li r0,256   ; 1*256
     B8A6 0100     
3675 B8A8 D800  38 	movb r0,@cvb_RMCH
     B8AA 2091     
3676               	; 	GOSUB enterroom
3677 B8AC 06A0  32 	bl @jsr
     B8AE A974     
3678 B8B0 D322     	data cvb_ENTERROOM
3679               	; 	ax = 1
3680 B8B2 0200  20 	li r0,256   ; 1*256
     B8B4 0100     
3681 B8B6 D800  38 	movb r0,@cvb_AX
     B8B8 20C1     
3682               	; 	GOSUB arrsnap
3683 B8BA 06A0  32 	bl @jsr
     B8BC A974     
3684 B8BE BA0C     	data cvb_ARRSNAP
3685               	; 	END
3686 B8C0 C03A  30 	mov *r10+,r0
3687 B8C2 0450  20 	b *r0
3688               	;
3689               	; gonorth: PROCEDURE
3690               	even
3691               cvb_GONORTH
3692               	; 	IF pn = 255 THEN RETURN
3693 B8C4 D020  34 	movb @cvb_PN,r0
     B8C6 20D1     
3694 B8C8 0201  20 	li r1,65280   ; 255*256
     B8CA FF00     
3695 B8CC 9001  18 	cb r1,r0
3696 B8CE 1302  14 	jeq cv180
3697 B8D0 0460  28 	b @cv179
     B8D2 B8D8     
3698               cv180
3699 B8D4 C03A  30 	mov *r10+,r0
3700 B8D6 0450  20 	b *r0
3701               cv179
3702               	; 	rn = pn : py = 180 : rmch = 1
3703 B8D8 D820  54 	movb @cvb_PN,@cvb_RN
     B8DA 20D1     
     B8DC 20D8     
3704 B8DE 0200  20 	li r0,46080   ; 180*256
     B8E0 B400     
3705 B8E2 D800  38 	movb r0,@cvb_PY
     B8E4 20D5     
3706 B8E6 0200  20 	li r0,256   ; 1*256
     B8E8 0100     
3707 B8EA D800  38 	movb r0,@cvb_RMCH
     B8EC 2091     
3708               	; 	GOSUB enterroom
3709 B8EE 06A0  32 	bl @jsr
     B8F0 A974     
3710 B8F2 D322     	data cvb_ENTERROOM
3711               	; 	ax = 0
3712 B8F4 04C0  14 	clr r0
3713 B8F6 D800  38 	movb r0,@cvb_AX
     B8F8 20C1     
3714               	; 	GOSUB arrsnap
3715 B8FA 06A0  32 	bl @jsr
     B8FC A974     
3716 B8FE BA0C     	data cvb_ARRSNAP
3717               	; 	END
3718 B900 C03A  30 	mov *r10+,r0
3719 B902 0450  20 	b *r0
3720               	;
3721               	; gosouth: PROCEDURE
3722               	even
3723               cvb_GOSOUTH
3724               	; 	' leaving a castle hall puts you just below its (open) gate
3725               	; 	IF rn = 2 THEN rn = 0 : GOTO gsw
3726 B904 D020  34 	movb @cvb_RN,r0
     B906 20D8     
3727 B908 0201  20 	li r1,512   ; 2*256
     B90A 0200     
3728 B90C 9001  18 	cb r1,r0
3729 B90E 1302  14 	jeq cv182
3730 B910 0460  28 	b @cv181
     B912 B91E     
3731               cv182
3732 B914 04C0  14 	clr r0
3733 B916 D800  38 	movb r0,@cvb_RN
     B918 20D8     
3734 B91A 0460  28 	b @cvb_GSW
     B91C B9EA     
3735               cv181
3736               	; 	IF rn = 9 THEN rn = 8 : GOTO gsw
3737 B91E D020  34 	movb @cvb_RN,r0
     B920 20D8     
3738 B922 0201  20 	li r1,2304   ; 9*256
     B924 0900     
3739 B926 9001  18 	cb r1,r0
3740 B928 1302  14 	jeq cv184
3741 B92A 0460  28 	b @cv183
     B92C B93A     
3742               cv184
3743 B92E 0200  20 	li r0,2048   ; 8*256
     B930 0800     
3744 B932 D800  38 	movb r0,@cvb_RN
     B934 20D8     
3745 B936 0460  28 	b @cvb_GSW
     B938 B9EA     
3746               cv183
3747               	; 	IF rn = 12 THEN rn = 11 : GOTO gsw
3748 B93A D020  34 	movb @cvb_RN,r0
     B93C 20D8     
3749 B93E 0201  20 	li r1,3072   ; 12*256
     B940 0C00     
3750 B942 9001  18 	cb r1,r0
3751 B944 1302  14 	jeq cv186
3752 B946 0460  28 	b @cv185
     B948 B956     
3753               cv186
3754 B94A 0200  20 	li r0,2816   ; 11*256
     B94C 0B00     
3755 B94E D800  38 	movb r0,@cvb_RN
     B950 20D8     
3756 B952 0460  28 	b @cvb_GSW
     B954 B9EA     
3757               cv185
3758               	; 	IF rn = 14 THEN rn = 13 : GOTO gsw
3759 B956 D020  34 	movb @cvb_RN,r0
     B958 20D8     
3760 B95A 0201  20 	li r1,3584   ; 14*256
     B95C 0E00     
3761 B95E 9001  18 	cb r1,r0
3762 B960 1302  14 	jeq cv188
3763 B962 0460  28 	b @cv187
     B964 B972     
3764               cv188
3765 B966 0200  20 	li r0,3328   ; 13*256
     B968 0D00     
3766 B96A D800  38 	movb r0,@cvb_RN
     B96C 20D8     
3767 B96E 0460  28 	b @cvb_GSW
     B970 B9EA     
3768               cv187
3769               	; 	IF rn = 25 THEN rn = 24 : GOTO gsw
3770 B972 D020  34 	movb @cvb_RN,r0
     B974 20D8     
3771 B976 0201  20 	li r1,6400   ; 25*256
     B978 1900     
3772 B97A 9001  18 	cb r1,r0
3773 B97C 1302  14 	jeq cv190
3774 B97E 0460  28 	b @cv189
     B980 B98E     
3775               cv190
3776 B982 0200  20 	li r0,6144   ; 24*256
     B984 1800     
3777 B986 D800  38 	movb r0,@cvb_RN
     B988 20D8     
3778 B98A 0460  28 	b @cvb_GSW
     B98C B9EA     
3779               cv189
3780               	; 	IF rn = 33 THEN rn = 32 : GOTO gsw
3781 B98E D020  34 	movb @cvb_RN,r0
     B990 20D8     
3782 B992 0201  20 	li r1,8448   ; 33*256
     B994 2100     
3783 B996 9001  18 	cb r1,r0
3784 B998 1302  14 	jeq cv192
3785 B99A 0460  28 	b @cv191
     B99C B9AA     
3786               cv192
3787 B99E 0200  20 	li r0,8192   ; 32*256
     B9A0 2000     
3788 B9A2 D800  38 	movb r0,@cvb_RN
     B9A4 20D8     
3789 B9A6 0460  28 	b @cvb_GSW
     B9A8 B9EA     
3790               cv191
3791               	; 	IF ps = 255 THEN RETURN
3792 B9AA D020  34 	movb @cvb_PS,r0
     B9AC 20D2     
3793 B9AE 0201  20 	li r1,65280   ; 255*256
     B9B0 FF00     
3794 B9B2 9001  18 	cb r1,r0
3795 B9B4 1302  14 	jeq cv194
3796 B9B6 0460  28 	b @cv193
     B9B8 B9BE     
3797               cv194
3798 B9BA C03A  30 	mov *r10+,r0
3799 B9BC 0450  20 	b *r0
3800               cv193
3801               	; 	rn = ps : py = 4 : rmch = 1
3802 B9BE D820  54 	movb @cvb_PS,@cvb_RN
     B9C0 20D2     
     B9C2 20D8     
3803 B9C4 0200  20 	li r0,1024   ; 4*256
     B9C6 0400     
3804 B9C8 D800  38 	movb r0,@cvb_PY
     B9CA 20D5     
3805 B9CC 0200  20 	li r0,256   ; 1*256
     B9CE 0100     
3806 B9D0 D800  38 	movb r0,@cvb_RMCH
     B9D2 2091     
3807               	; 	GOSUB enterroom
3808 B9D4 06A0  32 	bl @jsr
     B9D6 A974     
3809 B9D8 D322     	data cvb_ENTERROOM
3810               	; 	ax = 0
3811 B9DA 04C0  14 	clr r0
3812 B9DC D800  38 	movb r0,@cvb_AX
     B9DE 20C1     
3813               	; 	GOSUB arrsnap
3814 B9E0 06A0  32 	bl @jsr
     B9E2 A974     
3815 B9E4 BA0C     	data cvb_ARRSNAP
3816               	; 	RETURN
3817 B9E6 C03A  30 	mov *r10+,r0
3818 B9E8 0450  20 	b *r0
3819               	; gsw:
3820               cvb_GSW
3821               	; 	px = 120 : py = 66 : rmch = 1
3822 B9EA 0200  20 	li r0,30720   ; 120*256
     B9EC 7800     
3823 B9EE D800  38 	movb r0,@cvb_PX
     B9F0 20D4     
3824 B9F2 0200  20 	li r0,16896   ; 66*256
     B9F4 4200     
3825 B9F6 D800  38 	movb r0,@cvb_PY
     B9F8 20D5     
3826 B9FA 0200  20 	li r0,256   ; 1*256
     B9FC 0100     
3827 B9FE D800  38 	movb r0,@cvb_RMCH
     BA00 2091     
3828               	; 	GOSUB enterroom
3829 BA02 06A0  32 	bl @jsr
     BA04 A974     
3830 BA06 D322     	data cvb_ENTERROOM
3831               	; 	END
3832 BA08 C03A  30 	mov *r10+,r0
3833 BA0A 0450  20 	b *r0
3834               	;
3835               	; 	' ------------------------------------------------------------
3836               	; 	' arrival snap: screens deliberately do NOT line up (multiple,
3837               	; 	' offset gaps per edge, like the original) - if the arrival
3838               	; 	' spot is walled, slide along the edge to the NEAREST opening.
3839               	; 	' ax=0: slide px (N/S arrivals); ax=1: slide py (E/W arrivals)
3840               	; 	' ------------------------------------------------------------
3841               	; arrsnap: PROCEDURE
3842               	even
3843               cvb_ARRSNAP
3844               	; 	x0 = px : y0 = py : bw = 7 : bh = 7
3845 BA0C D820  54 	movb @cvb_PX,@cvb_X0
     BA0E 20D4     
     BA10 20DE     
3846 BA12 D820  54 	movb @cvb_PY,@cvb_Y0
     BA14 20D5     
     BA16 20E0     
3847 BA18 0200  20 	li r0,1792   ; 7*256
     BA1A 0700     
3848 BA1C D800  38 	movb r0,@cvb_BW
     BA1E 20C4     
3849 BA20 0200  20 	li r0,1792   ; 7*256
     BA22 0700     
3850 BA24 D800  38 	movb r0,@cvb_BH
     BA26 20C0     
3851               	; 	GOSUB chkbox
3852 BA28 06A0  32 	bl @jsr
     BA2A A974     
3853 BA2C D180     	data cvb_CHKBOX
3854               	; 	IF bf = 0 THEN RETURN
3855 BA2E D020  34 	movb @cvb_BF,r0
     BA30 20BF     
3856 BA32 1302  14 	jeq cv196
3857 BA34 0460  28 	b @cv195
     BA36 BA3C     
3858               cv196
3859 BA38 C03A  30 	mov *r10+,r0
3860 BA3A 0450  20 	b *r0
3861               cv195
3862               	; 	IF ax = 0 THEN snb = (px + 4) AND 248 ELSE snb = (py + 4) AND 248
3863 BA3C D020  34 	movb @cvb_AX,r0
     BA3E 20C1     
3864 BA40 1302  14 	jeq cv198
3865 BA42 0460  28 	b @cv197
     BA44 BA5E     
3866               cv198
3867 BA46 D020  34 	movb @cvb_PX,r0
     BA48 20D4     
3868 BA4A 0220  22 	ai r0,1024	; 4
     BA4C 0400     
3869 BA4E 0201  20 	li r1,63488   ; 248*256
     BA50 F800     
3870 BA52 0541  14 	inv r1
3871 BA54 5001  18 	szcb r1,r0
3872 BA56 D800  38 	movb r0,@cvb_SNB
     BA58 20E1     
3873 BA5A 0460  28 	b @cv199
     BA5C BA72     
3874               cv197
3875 BA5E D020  34 	movb @cvb_PY,r0
     BA60 20D5     
3876 BA62 0220  22 	ai r0,1024	; 4
     BA64 0400     
3877 BA66 0201  20 	li r1,63488   ; 248*256
     BA68 F800     
3878 BA6A 0541  14 	inv r1
3879 BA6C 5001  18 	szcb r1,r0
3880 BA6E D800  38 	movb r0,@cvb_SNB
     BA70 20E1     
3881               cv199
3882               	; 	FOR sfd = 8 TO 240 STEP 8
3883 BA72 0200  20 	li r0,2048   ; 8*256
     BA74 0800     
3884 BA76 D800  38 	movb r0,@cvb_SFD
     BA78 20D0     
3885               cv200
3886               	; 	GOSUB artry
3887 BA7A 06A0  32 	bl @jsr
     BA7C A974     
3888 BA7E BAC6     	data cvb_ARTRY
3889               	; 	IF bf = 0 THEN GOTO arrs2
3890 BA80 D020  34 	movb @cvb_BF,r0
     BA82 20BF     
3891 BA84 1302  14 	jeq cv202
3892 BA86 0460  28 	b @cv201
     BA88 BA8E     
3893               cv202
3894 BA8A 0460  28 	b @cvb_ARRS2
     BA8C BAA6     
3895               cv201
3896               	; 	NEXT sfd
3897 BA8E D020  34 	movb @cvb_SFD,r0
     BA90 20D0     
3898 BA92 0220  22 	ai r0,2048	; 8
     BA94 0800     
3899 BA96 D800  38 	movb r0,@cvb_SFD
     BA98 20D0     
3900 BA9A 0201  20 	li r1,61696   ; 241*256
     BA9C F100     
3901 BA9E 9040  18 	cb r0,r1
3902 BAA0 1402  14 	jhe cv203
3903 BAA2 0460  28 	b @cv200
     BAA4 BA7A     
3904               cv203
3905               	; arrs2:
3906               cvb_ARRS2
3907               	; 	' the snap moved us after fogenter drew - recentre the lamp
3908               	; 	IF fon = 1 THEN GOSUB fogwipe : GOSUB fogenter
3909 BAA6 D020  34 	movb @cvb_FON,r0
     BAA8 20A7     
3910 BAAA 0201  20 	li r1,256   ; 1*256
     BAAC 0100     
3911 BAAE 9001  18 	cb r1,r0
3912 BAB0 1302  14 	jeq cv205
3913 BAB2 0460  28 	b @cv204
     BAB4 BAC2     
3914               cv205
3915 BAB6 06A0  32 	bl @jsr
     BAB8 A974     
3916 BABA E1AA     	data cvb_FOGWIPE
3917 BABC 06A0  32 	bl @jsr
     BABE A974     
3918 BAC0 DCEA     	data cvb_FOGENTER
3919               cv204
3920               	; 	END
3921 BAC2 C03A  30 	mov *r10+,r0
3922 BAC4 0450  20 	b *r0
3923               	;
3924               	; artry: PROCEDURE
3925               	even
3926               cvb_ARTRY
3927               	; 	IF snb >= sfd THEN GOSUB artrym : IF bf = 0 THEN RETURN
3928 BAC6 D020  34 	movb @cvb_SNB,r0
     BAC8 20E1     
3929 BACA 9800  34 	cb r0,@cvb_SFD
     BACC 20D0     
3930 BACE 1402  14 	jhe cv207
3931 BAD0 0460  28 	b @cv206
     BAD2 BAE8     
3932               cv207
3933 BAD4 06A0  32 	bl @jsr
     BAD6 A974     
3934 BAD8 BAF2     	data cvb_ARTRYM
3935 BADA D020  34 	movb @cvb_BF,r0
     BADC 20BF     
3936 BADE 1302  14 	jeq cv209
3937 BAE0 0460  28 	b @cv208
     BAE2 BAE8     
3938               cv209
3939 BAE4 C03A  30 	mov *r10+,r0
3940 BAE6 0450  20 	b *r0
3941               cv208
3942               cv206
3943               	; 	GOSUB artryp
3944 BAE8 06A0  32 	bl @jsr
     BAEA A974     
3945 BAEC BB50     	data cvb_ARTRYP
3946               	; 	END
3947 BAEE C03A  30 	mov *r10+,r0
3948 BAF0 0450  20 	b *r0
3949               	;
3950               	; artrym: PROCEDURE
3951               	even
3952               cvb_ARTRYM
3953               	; 	t2 = snb - sfd
3954 BAF2 D020  34 	movb @cvb_SNB,r0
     BAF4 20E1     
3955 BAF6 7020  34 	sb @cvb_SFD,r0
     BAF8 20D0     
3956 BAFA D800  38 	movb r0,@cvb_T2
     BAFC 20D6     
3957               	; 	IF ax = 0 THEN x0 = t2 ELSE y0 = t2
3958 BAFE D020  34 	movb @cvb_AX,r0
     BB00 20C1     
3959 BB02 1302  14 	jeq cv211
3960 BB04 0460  28 	b @cv210
     BB06 BB12     
3961               cv211
3962 BB08 D820  54 	movb @cvb_T2,@cvb_X0
     BB0A 20D6     
     BB0C 20DE     
3963 BB0E 0460  28 	b @cv212
     BB10 BB18     
3964               cv210
3965 BB12 D820  54 	movb @cvb_T2,@cvb_Y0
     BB14 20D6     
     BB16 20E0     
3966               cv212
3967               	; 	GOSUB chkbox
3968 BB18 06A0  32 	bl @jsr
     BB1A A974     
3969 BB1C D180     	data cvb_CHKBOX
3970               	; 	IF bf = 1 THEN RETURN
3971 BB1E D020  34 	movb @cvb_BF,r0
     BB20 20BF     
3972 BB22 0201  20 	li r1,256   ; 1*256
     BB24 0100     
3973 BB26 9001  18 	cb r1,r0
3974 BB28 1302  14 	jeq cv214
3975 BB2A 0460  28 	b @cv213
     BB2C BB32     
3976               cv214
3977 BB2E C03A  30 	mov *r10+,r0
3978 BB30 0450  20 	b *r0
3979               cv213
3980               	; 	IF ax = 0 THEN px = t2 ELSE py = t2
3981 BB32 D020  34 	movb @cvb_AX,r0
     BB34 20C1     
3982 BB36 1302  14 	jeq cv216
3983 BB38 0460  28 	b @cv215
     BB3A BB46     
3984               cv216
3985 BB3C D820  54 	movb @cvb_T2,@cvb_PX
     BB3E 20D6     
     BB40 20D4     
3986 BB42 0460  28 	b @cv217
     BB44 BB4C     
3987               cv215
3988 BB46 D820  54 	movb @cvb_T2,@cvb_PY
     BB48 20D6     
     BB4A 20D5     
3989               cv217
3990               	; 	END
3991 BB4C C03A  30 	mov *r10+,r0
3992 BB4E 0450  20 	b *r0
3993               	;
3994               	; artryp: PROCEDURE
3995               	even
3996               cvb_ARTRYP
3997               	; 	#aw = snb + sfd
3998 BB50 D020  34 	movb @cvb_SNB,r0
     BB52 20E1     
3999 BB54 B020  34 	ab @cvb_SFD,r0
     BB56 20D0     
4000 BB58 0980  32 	srl r0,8
4001 BB5A C800  38 	mov r0,@cvb__AW
     BB5C 20AE     
4002               	; 	IF ax = 0 THEN IF #aw > 240 THEN RETURN
4003 BB5E D020  34 	movb @cvb_AX,r0
     BB60 20C1     
4004 BB62 1302  14 	jeq cv219
4005 BB64 0460  28 	b @cv218
     BB66 BB7C     
4006               cv219
4007 BB68 C020  34 	mov @cvb__AW,r0
     BB6A 20AE     
4008 BB6C 0201  20 	li r1,241
     BB6E 00F1     
4009 BB70 8040  18 	c r0,r1
4010 BB72 1402  14 	jhe cv221
4011 BB74 0460  28 	b @cv220
     BB76 BB7C     
4012               cv221
4013 BB78 C03A  30 	mov *r10+,r0
4014 BB7A 0450  20 	b *r0
4015               cv220
4016               cv218
4017               	; 	IF ax = 1 THEN IF #aw > 176 THEN RETURN
4018 BB7C D020  34 	movb @cvb_AX,r0
     BB7E 20C1     
4019 BB80 0201  20 	li r1,256   ; 1*256
     BB82 0100     
4020 BB84 9001  18 	cb r1,r0
4021 BB86 1302  14 	jeq cv223
4022 BB88 0460  28 	b @cv222
     BB8A BBA0     
4023               cv223
4024 BB8C C020  34 	mov @cvb__AW,r0
     BB8E 20AE     
4025 BB90 0201  20 	li r1,177
     BB92 00B1     
4026 BB94 8040  18 	c r0,r1
4027 BB96 1402  14 	jhe cv225
4028 BB98 0460  28 	b @cv224
     BB9A BBA0     
4029               cv225
4030 BB9C C03A  30 	mov *r10+,r0
4031 BB9E 0450  20 	b *r0
4032               cv224
4033               cv222
4034               	; 	t2 = snb + sfd
4035 BBA0 D020  34 	movb @cvb_SNB,r0
     BBA2 20E1     
4036 BBA4 B020  34 	ab @cvb_SFD,r0
     BBA6 20D0     
4037 BBA8 D800  38 	movb r0,@cvb_T2
     BBAA 20D6     
4038               	; 	IF ax = 0 THEN x0 = t2 ELSE y0 = t2
4039 BBAC D020  34 	movb @cvb_AX,r0
     BBAE 20C1     
4040 BBB0 1302  14 	jeq cv227
4041 BBB2 0460  28 	b @cv226
     BBB4 BBC0     
4042               cv227
4043 BBB6 D820  54 	movb @cvb_T2,@cvb_X0
     BBB8 20D6     
     BBBA 20DE     
4044 BBBC 0460  28 	b @cv228
     BBBE BBC6     
4045               cv226
4046 BBC0 D820  54 	movb @cvb_T2,@cvb_Y0
     BBC2 20D6     
     BBC4 20E0     
4047               cv228
4048               	; 	GOSUB chkbox
4049 BBC6 06A0  32 	bl @jsr
     BBC8 A974     
4050 BBCA D180     	data cvb_CHKBOX
4051               	; 	IF bf = 1 THEN RETURN
4052 BBCC D020  34 	movb @cvb_BF,r0
     BBCE 20BF     
4053 BBD0 0201  20 	li r1,256   ; 1*256
     BBD2 0100     
4054 BBD4 9001  18 	cb r1,r0
4055 BBD6 1302  14 	jeq cv230
4056 BBD8 0460  28 	b @cv229
     BBDA BBE0     
4057               cv230
4058 BBDC C03A  30 	mov *r10+,r0
4059 BBDE 0450  20 	b *r0
4060               cv229
4061               	; 	IF ax = 0 THEN px = t2 ELSE py = t2
4062 BBE0 D020  34 	movb @cvb_AX,r0
     BBE2 20C1     
4063 BBE4 1302  14 	jeq cv232
4064 BBE6 0460  28 	b @cv231
     BBE8 BBF4     
4065               cv232
4066 BBEA D820  54 	movb @cvb_T2,@cvb_PX
     BBEC 20D6     
     BBEE 20D4     
4067 BBF0 0460  28 	b @cv233
     BBF2 BBFA     
4068               cv231
4069 BBF4 D820  54 	movb @cvb_T2,@cvb_PY
     BBF6 20D6     
     BBF8 20D5     
4070               cv233
4071               	; 	END
4072 BBFA C03A  30 	mov *r10+,r0
4073 BBFC 0450  20 	b *r0
4074               	;
4075               	; 	' ------------------------------------------------------------
4076               	; 	' gate: closed = touch it while carrying the matching key
4077               	; 	' (generous window: 3px steps can leave you at py=66-70);
4078               	; 	' open = walking deep into the archway warps inside the castle
4079               	; 	' ------------------------------------------------------------
4080               	; gatelogic: PROCEDURE
4081               	even
4082               cvb_GATELOGIC
4083               	; 	IF gopn = 1 THEN GOTO gwarp
4084 BBFE D020  34 	movb @cvb_GOPN,r0
     BC00 209B     
4085 BC02 0201  20 	li r1,256   ; 1*256
     BC04 0100     
4086 BC06 9001  18 	cb r1,r0
4087 BC08 1302  14 	jeq cv235
4088 BC0A 0460  28 	b @cv234
     BC0C BC12     
4089               cv235
4090 BC0E 0460  28 	b @cvb_GWARP
     BC10 BD0E     
4091               cv234
4092               	; 	IF cr <> gz - 1 THEN RETURN
4093 BC12 D020  34 	movb @cvb_GZ,r0
     BC14 20CD     
4094 BC16 0980  32 	srl r0,8
4095 BC18 0600  14 	dec r0
4096 BC1A C040  18 	mov r0,r1
4097 BC1C D020  34 	movb @cvb_CR,r0
     BC1E 20C5     
4098 BC20 0980  32 	srl r0,8
4099 BC22 8040  18 	c r0,r1
4100 BC24 1602  14 	jne cv237
4101 BC26 0460  28 	b @cv236
     BC28 BC2E     
4102               cv237
4103 BC2A C03A  30 	mov *r10+,r0
4104 BC2C 0450  20 	b *r0
4105               cv236
4106               	; 	IF px < 100 THEN RETURN
4107 BC2E D020  34 	movb @cvb_PX,r0
     BC30 20D4     
4108 BC32 0201  20 	li r1,25600   ; 100*256
     BC34 6400     
4109 BC36 9040  18 	cb r0,r1
4110 BC38 1A02  14 	jl cv239
4111 BC3A 0460  28 	b @cv238
     BC3C BC42     
4112               cv239
4113 BC3E C03A  30 	mov *r10+,r0
4114 BC40 0450  20 	b *r0
4115               cv238
4116               	; 	IF px > 148 THEN RETURN
4117 BC42 D020  34 	movb @cvb_PX,r0
     BC44 20D4     
4118 BC46 0201  20 	li r1,38144   ; 149*256
     BC48 9500     
4119 BC4A 9040  18 	cb r0,r1
4120 BC4C 1402  14 	jhe cv241
4121 BC4E 0460  28 	b @cv240
     BC50 BC56     
4122               cv241
4123 BC52 C03A  30 	mov *r10+,r0
4124 BC54 0450  20 	b *r0
4125               cv240
4126               	; 	IF py > 70 THEN RETURN
4127 BC56 D020  34 	movb @cvb_PY,r0
     BC58 20D5     
4128 BC5A 0201  20 	li r1,18176   ; 71*256
     BC5C 4700     
4129 BC5E 9040  18 	cb r0,r1
4130 BC60 1402  14 	jhe cv243
4131 BC62 0460  28 	b @cv242
     BC64 BC6A     
4132               cv243
4133 BC66 C03A  30 	mov *r10+,r0
4134 BC68 0450  20 	b *r0
4135               cv242
4136               	; 	gop(gz - 1) = 1 : gopn = 1
4137 BC6A 0201  20 	li r1,256
     BC6C 0100     
4138 BC6E D020  34 	movb @cvb_GZ,r0
     BC70 20CD     
4139 BC72 0980  32 	srl r0,8
4140 BC74 0600  14 	dec r0
4141 BC76 0220  22 	ai r0,array_GOP
     BC78 2126     
4142 BC7A D401  30 	movb r1,*r0
4143 BC7C 0200  20 	li r0,256   ; 1*256
     BC7E 0100     
4144 BC80 D800  38 	movb r0,@cvb_GOPN
     BC82 209B     
4145               	; 	FOR r = 4 TO 7
4146 BC84 0200  20 	li r0,1024   ; 4*256
     BC86 0400     
4147 BC88 D800  38 	movb r0,@cvb_R
     BC8A 208A     
4148               cv244
4149               	; 	FOR c2 = 14 TO 17 : VPOKE $1800 + r * 32 + c2, 32 : NEXT c2
4150 BC8C 0200  20 	li r0,3584   ; 14*256
     BC8E 0E00     
4151 BC90 D800  38 	movb r0,@cvb_C2
     BC92 20BD     
4152               cv245
4153 BC94 0200  20 	li r0,8192   ; 32*256
     BC96 2000     
4154 BC98 064A  14 	dect r10
4155 BC9A C680  30 	mov r0,*r10
4156 BC9C D020  34 	movb @cvb_C2,r0
     BC9E 20BD     
4157 BCA0 0980  32 	srl r0,8
4158 BCA2 C040  18 	mov r0,r1
4159 BCA4 D020  34 	movb @cvb_R,r0
     BCA6 208A     
4160 BCA8 0980  32 	srl r0,8
4161 BCAA 0A50  26 	sla r0,5
4162 BCAC 0220  22 	ai r0,6144
     BCAE 1800     
4163 BCB0 A001  18 	a r1,r0
4164 BCB2 C0BA  30 	mov *r10+,r2
4165 BCB4 0300  22 	limi 0
     BCB6 0000     
4166 BCB8 06A0  32 	bl @JSR
     BCBA A974     
4167 BCBC A018     	data WRTVRM
4168 BCBE 0300  22 	limi 2
     BCC0 0002     
4169 BCC2 D020  34 	movb @cvb_C2,r0
     BCC4 20BD     
4170 BCC6 0220  22 	ai r0,256	; 1
     BCC8 0100     
4171 BCCA D800  38 	movb r0,@cvb_C2
     BCCC 20BD     
4172 BCCE 0201  20 	li r1,4608   ; 18*256
     BCD0 1200     
4173 BCD2 9040  18 	cb r0,r1
4174 BCD4 1402  14 	jhe cv246
4175 BCD6 0460  28 	b @cv245
     BCD8 BC94     
4176               cv246
4177               	; 	NEXT r
4178 BCDA D020  34 	movb @cvb_R,r0
     BCDC 208A     
4179 BCDE 0220  22 	ai r0,256	; 1
     BCE0 0100     
4180 BCE2 D800  38 	movb r0,@cvb_R
     BCE4 208A     
4181 BCE6 0201  20 	li r1,2048   ; 8*256
     BCE8 0800     
4182 BCEA 9040  18 	cb r0,r1
4183 BCEC 1402  14 	jhe cv247
4184 BCEE 0460  28 	b @cv244
     BCF0 BC8C     
4185               cv247
4186               	; 	sfx = 3 : sfc = 24 : #sfq = 700
4187 BCF2 0200  20 	li r0,768   ; 3*256
     BCF4 0300     
4188 BCF6 D800  38 	movb r0,@cvb_SFX
     BCF8 20D7     
4189 BCFA 0200  20 	li r0,6144   ; 24*256
     BCFC 1800     
4190 BCFE D800  38 	movb r0,@cvb_SFC
     BD00 20CF     
4191 BD02 0200  20 	li r0,700
     BD04 02BC     
4192 BD06 C800  38 	mov r0,@cvb__SFQ
     BD08 208E     
4193               	; 	RETURN
4194 BD0A C03A  30 	mov *r10+,r0
4195 BD0C 0450  20 	b *r0
4196               	; gwarp:
4197               cvb_GWARP
4198               	; 	IF py > 34 THEN RETURN
4199 BD0E D020  34 	movb @cvb_PY,r0
     BD10 20D5     
4200 BD12 0201  20 	li r1,8960   ; 35*256
     BD14 2300     
4201 BD16 9040  18 	cb r0,r1
4202 BD18 1402  14 	jhe cv249
4203 BD1A 0460  28 	b @cv248
     BD1C BD22     
4204               cv249
4205 BD1E C03A  30 	mov *r10+,r0
4206 BD20 0450  20 	b *r0
4207               cv248
4208               	; 	IF px < 106 THEN RETURN
4209 BD22 D020  34 	movb @cvb_PX,r0
     BD24 20D4     
4210 BD26 0201  20 	li r1,27136   ; 106*256
     BD28 6A00     
4211 BD2A 9040  18 	cb r0,r1
4212 BD2C 1A02  14 	jl cv251
4213 BD2E 0460  28 	b @cv250
     BD30 BD36     
4214               cv251
4215 BD32 C03A  30 	mov *r10+,r0
4216 BD34 0450  20 	b *r0
4217               cv250
4218               	; 	IF px > 138 THEN RETURN
4219 BD36 D020  34 	movb @cvb_PX,r0
     BD38 20D4     
4220 BD3A 0201  20 	li r1,35584   ; 139*256
     BD3C 8B00     
4221 BD3E 9040  18 	cb r0,r1
4222 BD40 1402  14 	jhe cv253
4223 BD42 0460  28 	b @cv252
     BD44 BD4A     
4224               cv253
4225 BD46 C03A  30 	mov *r10+,r0
4226 BD48 0450  20 	b *r0
4227               cv252
4228               	; 	IF rn = 0 THEN rn = 2 : GOTO gwin
4229 BD4A D020  34 	movb @cvb_RN,r0
     BD4C 20D8     
4230 BD4E 1302  14 	jeq cv255
4231 BD50 0460  28 	b @cv254
     BD52 BD60     
4232               cv255
4233 BD54 0200  20 	li r0,512   ; 2*256
     BD56 0200     
4234 BD58 D800  38 	movb r0,@cvb_RN
     BD5A 20D8     
4235 BD5C 0460  28 	b @cvb_GWIN
     BD5E BDD8     
4236               cv254
4237               	; 	IF rn = 8 THEN rn = 9 : GOTO gwin
4238 BD60 D020  34 	movb @cvb_RN,r0
     BD62 20D8     
4239 BD64 0201  20 	li r1,2048   ; 8*256
     BD66 0800     
4240 BD68 9001  18 	cb r1,r0
4241 BD6A 1302  14 	jeq cv257
4242 BD6C 0460  28 	b @cv256
     BD6E BD7C     
4243               cv257
4244 BD70 0200  20 	li r0,2304   ; 9*256
     BD72 0900     
4245 BD74 D800  38 	movb r0,@cvb_RN
     BD76 20D8     
4246 BD78 0460  28 	b @cvb_GWIN
     BD7A BDD8     
4247               cv256
4248               	; 	IF rn = 11 THEN rn = 12 : GOTO gwin
4249 BD7C D020  34 	movb @cvb_RN,r0
     BD7E 20D8     
4250 BD80 0201  20 	li r1,2816   ; 11*256
     BD82 0B00     
4251 BD84 9001  18 	cb r1,r0
4252 BD86 1302  14 	jeq cv259
4253 BD88 0460  28 	b @cv258
     BD8A BD98     
4254               cv259
4255 BD8C 0200  20 	li r0,3072   ; 12*256
     BD8E 0C00     
4256 BD90 D800  38 	movb r0,@cvb_RN
     BD92 20D8     
4257 BD94 0460  28 	b @cvb_GWIN
     BD96 BDD8     
4258               cv258
4259               	; 	IF rn = 13 THEN rn = 14 : GOTO gwin
4260 BD98 D020  34 	movb @cvb_RN,r0
     BD9A 20D8     
4261 BD9C 0201  20 	li r1,3328   ; 13*256
     BD9E 0D00     
4262 BDA0 9001  18 	cb r1,r0
4263 BDA2 1302  14 	jeq cv261
4264 BDA4 0460  28 	b @cv260
     BDA6 BDB4     
4265               cv261
4266 BDA8 0200  20 	li r0,3584   ; 14*256
     BDAA 0E00     
4267 BDAC D800  38 	movb r0,@cvb_RN
     BDAE 20D8     
4268 BDB0 0460  28 	b @cvb_GWIN
     BDB2 BDD8     
4269               cv260
4270               	; 	IF rn = 24 THEN rn = 25 : GOTO gwin
4271 BDB4 D020  34 	movb @cvb_RN,r0
     BDB6 20D8     
4272 BDB8 0201  20 	li r1,6144   ; 24*256
     BDBA 1800     
4273 BDBC 9001  18 	cb r1,r0
4274 BDBE 1302  14 	jeq cv263
4275 BDC0 0460  28 	b @cv262
     BDC2 BDD0     
4276               cv263
4277 BDC4 0200  20 	li r0,6400   ; 25*256
     BDC6 1900     
4278 BDC8 D800  38 	movb r0,@cvb_RN
     BDCA 20D8     
4279 BDCC 0460  28 	b @cvb_GWIN
     BDCE BDD8     
4280               cv262
4281               	; 	rn = 33
4282 BDD0 0200  20 	li r0,8448   ; 33*256
     BDD2 2100     
4283 BDD4 D800  38 	movb r0,@cvb_RN
     BDD6 20D8     
4284               	; gwin:
4285               cvb_GWIN
4286               	; 	px = 120 : py = 156 : rmch = 1
4287 BDD8 0200  20 	li r0,30720   ; 120*256
     BDDA 7800     
4288 BDDC D800  38 	movb r0,@cvb_PX
     BDDE 20D4     
4289 BDE0 0200  20 	li r0,39936   ; 156*256
     BDE2 9C00     
4290 BDE4 D800  38 	movb r0,@cvb_PY
     BDE6 20D5     
4291 BDE8 0200  20 	li r0,256   ; 1*256
     BDEA 0100     
4292 BDEC D800  38 	movb r0,@cvb_RMCH
     BDEE 2091     
4293               	; 	GOSUB enterroom
4294 BDF0 06A0  32 	bl @jsr
     BDF2 A974     
4295 BDF4 D322     	data cvb_ENTERROOM
4296               	; 	END
4297 BDF6 C03A  30 	mov *r10+,r0
4298 BDF8 0450  20 	b *r0
4299               	;
4300               	; 	' ------------------------------------------------------------
4301               	; 	' carried object rides at its grab offset (#crx/#cry are the
4302               	; 	' object-minus-player offset, biased +64 to stay unsigned)
4303               	; 	' ------------------------------------------------------------
4304               	; carrypos: PROCEDURE
4305               	even
4306               cvb_CARRYPOS
4307               	; 	orm(cr) = rn
4308 BDFA D060  34 	movb @cvb_RN,r1
     BDFC 20D8     
4309 BDFE D020  34 	movb @cvb_CR,r0
     BE00 20C5     
4310 BE02 0980  32 	srl r0,8
4311 BE04 0220  22 	ai r0,array_ORM
     BE06 211E     
4312 BE08 D401  30 	movb r1,*r0
4313               	; 	#ax = px + #crx
4314 BE0A D020  34 	movb @cvb_PX,r0
     BE0C 20D4     
4315 BE0E 0980  32 	srl r0,8
4316 BE10 A020  34 	a @cvb__CRX,r0
     BE12 20A0     
4317 BE14 C800  38 	mov r0,@cvb__AX
     BE16 20B0     
4318               	; 	IF #ax < 64 THEN #ax = 64
4319 BE18 0280  22 	ci r0,64
     BE1A 0040     
4320 BE1C 1A02  14 	jl cv265
4321 BE1E 0460  28 	b @cv264
     BE20 BE2A     
4322               cv265
4323 BE22 0200  20 	li r0,64
     BE24 0040     
4324 BE26 C800  38 	mov r0,@cvb__AX
     BE28 20B0     
4325               cv264
4326               	; 	IF #ax > 304 THEN #ax = 304
4327 BE2A C020  34 	mov @cvb__AX,r0
     BE2C 20B0     
4328 BE2E 0201  20 	li r1,305
     BE30 0131     
4329 BE32 8040  18 	c r0,r1
4330 BE34 1402  14 	jhe cv267
4331 BE36 0460  28 	b @cv266
     BE38 BE42     
4332               cv267
4333 BE3A 0200  20 	li r0,304
     BE3C 0130     
4334 BE3E C800  38 	mov r0,@cvb__AX
     BE40 20B0     
4335               cv266
4336               	; 	obx(cr) = #ax - 64
4337 BE42 C020  34 	mov @cvb__AX,r0
     BE44 20B0     
4338 BE46 0A80  32 	sla r0,8
4339 BE48 0220  22 	ai r0,49152	; -64
     BE4A C000     
4340 BE4C C040  18 	mov r0,r1
4341 BE4E D020  34 	movb @cvb_CR,r0
     BE50 20C5     
4342 BE52 0980  32 	srl r0,8
4343 BE54 0220  22 	ai r0,array_OBX
     BE56 210A     
4344 BE58 D401  30 	movb r1,*r0
4345               	; 	#ax = py + #cry
4346 BE5A D020  34 	movb @cvb_PY,r0
     BE5C 20D5     
4347 BE5E 0980  32 	srl r0,8
4348 BE60 A020  34 	a @cvb__CRY,r0
     BE62 20A2     
4349 BE64 C800  38 	mov r0,@cvb__AX
     BE66 20B0     
4350               	; 	IF #ax < 64 THEN #ax = 64
4351 BE68 0280  22 	ci r0,64
     BE6A 0040     
4352 BE6C 1A02  14 	jl cv269
4353 BE6E 0460  28 	b @cv268
     BE70 BE7A     
4354               cv269
4355 BE72 0200  20 	li r0,64
     BE74 0040     
4356 BE76 C800  38 	mov r0,@cvb__AX
     BE78 20B0     
4357               cv268
4358               	; 	IF #ax > 240 THEN #ax = 240
4359 BE7A C020  34 	mov @cvb__AX,r0
     BE7C 20B0     
4360 BE7E 0201  20 	li r1,241
     BE80 00F1     
4361 BE82 8040  18 	c r0,r1
4362 BE84 1402  14 	jhe cv271
4363 BE86 0460  28 	b @cv270
     BE88 BE92     
4364               cv271
4365 BE8A 0200  20 	li r0,240
     BE8C 00F0     
4366 BE8E C800  38 	mov r0,@cvb__AX
     BE90 20B0     
4367               cv270
4368               	; 	oby(cr) = #ax - 64
4369 BE92 C020  34 	mov @cvb__AX,r0
     BE94 20B0     
4370 BE96 0A80  32 	sla r0,8
4371 BE98 0220  22 	ai r0,49152	; -64
     BE9A C000     
4372 BE9C C040  18 	mov r0,r1
4373 BE9E D020  34 	movb @cvb_CR,r0
     BEA0 20C5     
4374 BEA2 0980  32 	srl r0,8
4375 BEA4 0220  22 	ai r0,array_OBY
     BEA6 2112     
4376 BEA8 D401  30 	movb r1,*r0
4377               	; 	END
4378 BEAA C03A  30 	mov *r10+,r0
4379 BEAC 0450  20 	b *r0
4380               	;
4381               	; 	' ------------------------------------------------------------
4382               	; 	' pick up on touch (swap drops the old object on the spot)
4383               	; 	' ------------------------------------------------------------
4384               	; trypick: PROCEDURE
4385               	even
4386               cvb_TRYPICK
4387               	; 	FOR i = 0 TO 7
4388 BEAE 04C0  14 	clr r0
4389 BEB0 D800  38 	movb r0,@cvb_I
     BEB2 2086     
4390               cv272
4391               	; 	IF i <> cr THEN IF orm(i) = rn THEN GOSUB pchk
4392 BEB4 D020  34 	movb @cvb_I,r0
     BEB6 2086     
4393 BEB8 9020  34 	cb @cvb_CR,r0
     BEBA 20C5     
4394 BEBC 1602  14 	jne cv274
4395 BEBE 0460  28 	b @cv273
     BEC0 BEDE     
4396               cv274
4397 BEC2 D020  34 	movb @cvb_I,r0
     BEC4 2086     
4398 BEC6 0980  32 	srl r0,8
4399 BEC8 0220  22 	ai r0,array_ORM
     BECA 211E     
4400 BECC D010  26 	movb *r0,r0
4401 BECE 9020  34 	cb @cvb_RN,r0
     BED0 20D8     
4402 BED2 1302  14 	jeq cv276
4403 BED4 0460  28 	b @cv275
     BED6 BEDE     
4404               cv276
4405 BED8 06A0  32 	bl @jsr
     BEDA A974     
4406 BEDC BEFA     	data cvb_PCHK
4407               cv275
4408               cv273
4409               	; 	NEXT i
4410 BEDE D020  34 	movb @cvb_I,r0
     BEE0 2086     
4411 BEE2 0220  22 	ai r0,256	; 1
     BEE4 0100     
4412 BEE6 D800  38 	movb r0,@cvb_I
     BEE8 2086     
4413 BEEA 0201  20 	li r1,2048   ; 8*256
     BEEC 0800     
4414 BEEE 9040  18 	cb r0,r1
4415 BEF0 1402  14 	jhe cv277
4416 BEF2 0460  28 	b @cv272
     BEF4 BEB4     
4417               cv277
4418               	; 	END
4419 BEF6 C03A  30 	mov *r10+,r0
4420 BEF8 0450  20 	b *r0
4421               	;
4422               	; pchk: PROCEDURE
4423               	even
4424               cvb_PCHK
4425               	; 	IF i = 4 THEN GOSUB pbrchk : RETURN
4426 BEFA D020  34 	movb @cvb_I,r0
     BEFC 2086     
4427 BEFE 0201  20 	li r1,1024   ; 4*256
     BF00 0400     
4428 BF02 9001  18 	cb r1,r0
4429 BF04 1302  14 	jeq cv279
4430 BF06 0460  28 	b @cv278
     BF08 BF14     
4431               cv279
4432 BF0A 06A0  32 	bl @jsr
     BF0C A974     
4433 BF0E BF9A     	data cvb_PBRCHK
4434 BF10 C03A  30 	mov *r10+,r0
4435 BF12 0450  20 	b *r0
4436               cv278
4437               	; 	#ax = obx(i) + 8 : #bx = px + 4
4438 BF14 D020  34 	movb @cvb_I,r0
     BF16 2086     
4439 BF18 0980  32 	srl r0,8
4440 BF1A 0220  22 	ai r0,array_OBX
     BF1C 210A     
4441 BF1E D010  26 	movb *r0,r0
4442 BF20 0980  32 	srl r0,8
4443 BF22 0220  22 	ai r0,8
     BF24 0008     
4444 BF26 C800  38 	mov r0,@cvb__AX
     BF28 20B0     
4445 BF2A D020  34 	movb @cvb_PX,r0
     BF2C 20D4     
4446 BF2E 0980  32 	srl r0,8
4447 BF30 0220  22 	ai r0,4
     BF32 0004     
4448 BF34 C800  38 	mov r0,@cvb__BX
     BF36 20B2     
4449               	; 	GOSUB adiff
4450 BF38 06A0  32 	bl @jsr
     BF3A A974     
4451 BF3C C180     	data cvb_ADIFF
4452               	; 	IF #cx > 11 THEN RETURN
4453 BF3E C020  34 	mov @cvb__CX,r0
     BF40 20B4     
4454 BF42 0201  20 	li r1,12
     BF44 000C     
4455 BF46 8040  18 	c r0,r1
4456 BF48 1402  14 	jhe cv281
4457 BF4A 0460  28 	b @cv280
     BF4C BF52     
4458               cv281
4459 BF4E C03A  30 	mov *r10+,r0
4460 BF50 0450  20 	b *r0
4461               cv280
4462               	; 	#ax = oby(i) + 6 : #bx = py + 4
4463 BF52 D020  34 	movb @cvb_I,r0
     BF54 2086     
4464 BF56 0980  32 	srl r0,8
4465 BF58 0220  22 	ai r0,array_OBY
     BF5A 2112     
4466 BF5C D010  26 	movb *r0,r0
4467 BF5E 0980  32 	srl r0,8
4468 BF60 0220  22 	ai r0,6
     BF62 0006     
4469 BF64 C800  38 	mov r0,@cvb__AX
     BF66 20B0     
4470 BF68 D020  34 	movb @cvb_PY,r0
     BF6A 20D5     
4471 BF6C 0980  32 	srl r0,8
4472 BF6E 0220  22 	ai r0,4
     BF70 0004     
4473 BF72 C800  38 	mov r0,@cvb__BX
     BF74 20B2     
4474               	; 	GOSUB adiff
4475 BF76 06A0  32 	bl @jsr
     BF78 A974     
4476 BF7A C180     	data cvb_ADIFF
4477               	; 	IF #cx > 10 THEN RETURN
4478 BF7C C020  34 	mov @cvb__CX,r0
     BF7E 20B4     
4479 BF80 0201  20 	li r1,11
     BF82 000B     
4480 BF84 8040  18 	c r0,r1
4481 BF86 1402  14 	jhe cv283
4482 BF88 0460  28 	b @cv282
     BF8A BF90     
4483               cv283
4484 BF8C C03A  30 	mov *r10+,r0
4485 BF8E 0450  20 	b *r0
4486               cv282
4487               	; 	GOSUB dopick
4488 BF90 06A0  32 	bl @jsr
     BF92 A974     
4489 BF94 C0EA     	data cvb_DOPICK
4490               	; 	END
4491 BF96 C03A  30 	mov *r10+,r0
4492 BF98 0450  20 	b *r0
4493               	;
4494               	; pbrchk: PROCEDURE
4495               	even
4496               cvb_PBRCHK
4497               	; 	' bridge: grabbed by its RAILS only - walking the channel (or
4498               	; 	' standing where you just dropped it) must NOT re-pick it up.
4499               	; 	' Also never while standing inside a wall - that would seal
4500               	; 	' you in.
4501               	; 	IF py + 7 < oby(i) THEN RETURN
4502 BF9A D020  34 	movb @cvb_I,r0
     BF9C 2086     
4503 BF9E 0980  32 	srl r0,8
4504 BFA0 0220  22 	ai r0,array_OBY
     BFA2 2112     
4505 BFA4 D010  26 	movb *r0,r0
4506 BFA6 0980  32 	srl r0,8
4507 BFA8 C040  18 	mov r0,r1
4508 BFAA D020  34 	movb @cvb_PY,r0
     BFAC 20D5     
4509 BFAE 0980  32 	srl r0,8
4510 BFB0 0220  22 	ai r0,7
     BFB2 0007     
4511 BFB4 8040  18 	c r0,r1
4512 BFB6 1A02  14 	jl cv285
4513 BFB8 0460  28 	b @cv284
     BFBA BFC0     
4514               cv285
4515 BFBC C03A  30 	mov *r10+,r0
4516 BFBE 0450  20 	b *r0
4517               cv284
4518               	; 	#ax = oby(i) + 31
4519 BFC0 D020  34 	movb @cvb_I,r0
     BFC2 2086     
4520 BFC4 0980  32 	srl r0,8
4521 BFC6 0220  22 	ai r0,array_OBY
     BFC8 2112     
4522 BFCA D010  26 	movb *r0,r0
4523 BFCC 0980  32 	srl r0,8
4524 BFCE 0220  22 	ai r0,31
     BFD0 001F     
4525 BFD2 C800  38 	mov r0,@cvb__AX
     BFD4 20B0     
4526               	; 	IF py > #ax THEN RETURN
4527 BFD6 D020  34 	movb @cvb_PY,r0
     BFD8 20D5     
4528 BFDA 0980  32 	srl r0,8
4529 BFDC C040  18 	mov r0,r1
4530 BFDE C020  34 	mov @cvb__AX,r0
     BFE0 20B0     
4531 BFE2 8040  18 	c r0,r1
4532 BFE4 1A02  14 	jl cv287
4533 BFE6 0460  28 	b @cv286
     BFE8 BFEE     
4534               cv287
4535 BFEA C03A  30 	mov *r10+,r0
4536 BFEC 0450  20 	b *r0
4537               cv286
4538               	; 	hit = 0
4539 BFEE 04C0  14 	clr r0
4540 BFF0 D800  38 	movb r0,@cvb_HIT
     BFF2 20BB     
4541               	; 	#ax = obx(i) + 4
4542 BFF4 D020  34 	movb @cvb_I,r0
     BFF6 2086     
4543 BFF8 0980  32 	srl r0,8
4544 BFFA 0220  22 	ai r0,array_OBX
     BFFC 210A     
4545 BFFE D010  26 	movb *r0,r0
4546 C000 0980  32 	srl r0,8
4547 C002 0220  22 	ai r0,4
     C004 0004     
4548 C006 C800  38 	mov r0,@cvb__AX
     C008 20B0     
4549               	; 	IF px <= #ax THEN IF px + 7 >= obx(i) THEN hit = 1
4550 C00A D020  34 	movb @cvb_PX,r0
     C00C 20D4     
4551 C00E 0980  32 	srl r0,8
4552 C010 C040  18 	mov r0,r1
4553 C012 C020  34 	mov @cvb__AX,r0
     C014 20B0     
4554 C016 8040  18 	c r0,r1
4555 C018 1402  14 	jhe cv289
4556 C01A 0460  28 	b @cv288
     C01C C048     
4557               cv289
4558 C01E D020  34 	movb @cvb_I,r0
     C020 2086     
4559 C022 0980  32 	srl r0,8
4560 C024 0220  22 	ai r0,array_OBX
     C026 210A     
4561 C028 D010  26 	movb *r0,r0
4562 C02A 0980  32 	srl r0,8
4563 C02C C040  18 	mov r0,r1
4564 C02E D020  34 	movb @cvb_PX,r0
     C030 20D4     
4565 C032 0980  32 	srl r0,8
4566 C034 0220  22 	ai r0,7
     C036 0007     
4567 C038 8040  18 	c r0,r1
4568 C03A 1402  14 	jhe cv291
4569 C03C 0460  28 	b @cv290
     C03E C048     
4570               cv291
4571 C040 0200  20 	li r0,256   ; 1*256
     C042 0100     
4572 C044 D800  38 	movb r0,@cvb_HIT
     C046 20BB     
4573               cv290
4574               cv288
4575               	; 	#ax = obx(i) + 27
4576 C048 D020  34 	movb @cvb_I,r0
     C04A 2086     
4577 C04C 0980  32 	srl r0,8
4578 C04E 0220  22 	ai r0,array_OBX
     C050 210A     
4579 C052 D010  26 	movb *r0,r0
4580 C054 0980  32 	srl r0,8
4581 C056 0220  22 	ai r0,27
     C058 001B     
4582 C05A C800  38 	mov r0,@cvb__AX
     C05C 20B0     
4583               	; 	IF px + 7 >= #ax THEN IF px <= obx(i) + 31 THEN hit = 1
4584 C05E D020  34 	movb @cvb_PX,r0
     C060 20D4     
4585 C062 0980  32 	srl r0,8
4586 C064 0220  22 	ai r0,7
     C066 0007     
4587 C068 8800  34 	c r0,@cvb__AX
     C06A 20B0     
4588 C06C 1402  14 	jhe cv293
4589 C06E 0460  28 	b @cv292
     C070 C09C     
4590               cv293
4591 C072 D020  34 	movb @cvb_PX,r0
     C074 20D4     
4592 C076 0980  32 	srl r0,8
4593 C078 C040  18 	mov r0,r1
4594 C07A D020  34 	movb @cvb_I,r0
     C07C 2086     
4595 C07E 0980  32 	srl r0,8
4596 C080 0220  22 	ai r0,array_OBX
     C082 210A     
4597 C084 D010  26 	movb *r0,r0
4598 C086 0980  32 	srl r0,8
4599 C088 0220  22 	ai r0,31
     C08A 001F     
4600 C08C 8040  18 	c r0,r1
4601 C08E 1402  14 	jhe cv295
4602 C090 0460  28 	b @cv294
     C092 C09C     
4603               cv295
4604 C094 0200  20 	li r0,256   ; 1*256
     C096 0100     
4605 C098 D800  38 	movb r0,@cvb_HIT
     C09A 20BB     
4606               cv294
4607               cv292
4608               	; 	IF hit = 0 THEN RETURN
4609 C09C D020  34 	movb @cvb_HIT,r0
     C09E 20BB     
4610 C0A0 1302  14 	jeq cv297
4611 C0A2 0460  28 	b @cv296
     C0A4 C0AA     
4612               cv297
4613 C0A6 C03A  30 	mov *r10+,r0
4614 C0A8 0450  20 	b *r0
4615               cv296
4616               	; 	x0 = px : y0 = py : bw = 7 : bh = 7
4617 C0AA D820  54 	movb @cvb_PX,@cvb_X0
     C0AC 20D4     
     C0AE 20DE     
4618 C0B0 D820  54 	movb @cvb_PY,@cvb_Y0
     C0B2 20D5     
     C0B4 20E0     
4619 C0B6 0200  20 	li r0,1792   ; 7*256
     C0B8 0700     
4620 C0BA D800  38 	movb r0,@cvb_BW
     C0BC 20C4     
4621 C0BE 0200  20 	li r0,1792   ; 7*256
     C0C0 0700     
4622 C0C2 D800  38 	movb r0,@cvb_BH
     C0C4 20C0     
4623               	; 	GOSUB chkbox
4624 C0C6 06A0  32 	bl @jsr
     C0C8 A974     
4625 C0CA D180     	data cvb_CHKBOX
4626               	; 	IF bf = 1 THEN RETURN
4627 C0CC D020  34 	movb @cvb_BF,r0
     C0CE 20BF     
4628 C0D0 0201  20 	li r1,256   ; 1*256
     C0D2 0100     
4629 C0D4 9001  18 	cb r1,r0
4630 C0D6 1302  14 	jeq cv299
4631 C0D8 0460  28 	b @cv298
     C0DA C0E0     
4632               cv299
4633 C0DC C03A  30 	mov *r10+,r0
4634 C0DE 0450  20 	b *r0
4635               cv298
4636               	; 	GOSUB dopick
4637 C0E0 06A0  32 	bl @jsr
     C0E2 A974     
4638 C0E4 C0EA     	data cvb_DOPICK
4639               	; 	END
4640 C0E6 C03A  30 	mov *r10+,r0
4641 C0E8 0450  20 	b *r0
4642               	;
4643               	; dopick: PROCEDURE
4644               	even
4645               cvb_DOPICK
4646               	; 	cr = i : pkcd = 10 : sfx = 1 : sfc = 4
4647 C0EA D820  54 	movb @cvb_I,@cvb_CR
     C0EC 2086     
     C0EE 20C5     
4648 C0F0 0200  20 	li r0,2560   ; 10*256
     C0F2 0A00     
4649 C0F4 D800  38 	movb r0,@cvb_PKCD
     C0F6 20A4     
4650 C0F8 0200  20 	li r0,256   ; 1*256
     C0FA 0100     
4651 C0FC D800  38 	movb r0,@cvb_SFX
     C0FE 20D7     
4652 C100 0200  20 	li r0,1024   ; 4*256
     C102 0400     
4653 C104 D800  38 	movb r0,@cvb_SFC
     C106 20CF     
4654               	; 	IF i = 7 THEN sfx = 0
4655 C108 D020  34 	movb @cvb_I,r0
     C10A 2086     
4656 C10C 0201  20 	li r1,1792   ; 7*256
     C10E 0700     
4657 C110 9001  18 	cb r1,r0
4658 C112 1302  14 	jeq cv301
4659 C114 0460  28 	b @cv300
     C116 C11E     
4660               cv301
4661 C118 04C0  14 	clr r0
4662 C11A D800  38 	movb r0,@cvb_SFX
     C11C 20D7     
4663               cv300
4664               	; 	' remember which side it was grabbed on
4665               	; 	#crx = obx(i) + 64 - px : #cry = oby(i) + 64 - py
4666 C11E D020  34 	movb @cvb_PX,r0
     C120 20D4     
4667 C122 0980  32 	srl r0,8
4668 C124 C040  18 	mov r0,r1
4669 C126 D020  34 	movb @cvb_I,r0
     C128 2086     
4670 C12A 0980  32 	srl r0,8
4671 C12C 0220  22 	ai r0,array_OBX
     C12E 210A     
4672 C130 D010  26 	movb *r0,r0
4673 C132 0980  32 	srl r0,8
4674 C134 0220  22 	ai r0,64
     C136 0040     
4675 C138 6001  18 	s r1,r0
4676 C13A C800  38 	mov r0,@cvb__CRX
     C13C 20A0     
4677 C13E D020  34 	movb @cvb_PY,r0
     C140 20D5     
4678 C142 0980  32 	srl r0,8
4679 C144 C040  18 	mov r0,r1
4680 C146 D020  34 	movb @cvb_I,r0
     C148 2086     
4681 C14A 0980  32 	srl r0,8
4682 C14C 0220  22 	ai r0,array_OBY
     C14E 2112     
4683 C150 D010  26 	movb *r0,r0
4684 C152 0980  32 	srl r0,8
4685 C154 0220  22 	ai r0,64
     C156 0040     
4686 C158 6001  18 	s r1,r0
4687 C15A C800  38 	mov r0,@cvb__CRY
     C15C 20A2     
4688               	; 	' snatched back from the bat
4689               	; 	IF i = btc THEN btc = 255 : btcd = 150
4690 C15E D020  34 	movb @cvb_I,r0
     C160 2086     
4691 C162 9020  34 	cb @cvb_BTC,r0
     C164 2092     
4692 C166 1302  14 	jeq cv303
4693 C168 0460  28 	b @cv302
     C16A C17C     
4694               cv303
4695 C16C 0200  20 	li r0,65280   ; 255*256
     C16E FF00     
4696 C170 D800  38 	movb r0,@cvb_BTC
     C172 2092     
4697 C174 0200  20 	li r0,38400   ; 150*256
     C176 9600     
4698 C178 D800  38 	movb r0,@cvb_BTCD
     C17A 20B6     
4699               cv302
4700               	; 	END
4701 C17C C03A  30 	mov *r10+,r0
4702 C17E 0450  20 	b *r0
4703               	;
4704               	; adiff: PROCEDURE
4705               	even
4706               cvb_ADIFF
4707               	; 	IF #ax > #bx THEN #cx = #ax - #bx ELSE #cx = #bx - #ax
4708 C180 C020  34 	mov @cvb__BX,r0
     C182 20B2     
4709 C184 8800  34 	c r0,@cvb__AX
     C186 20B0     
4710 C188 1A02  14 	jl cv305
4711 C18A 0460  28 	b @cv304
     C18C C19E     
4712               cv305
4713 C18E C020  34 	mov @cvb__AX,r0
     C190 20B0     
4714 C192 6020  34 	s @cvb__BX,r0
     C194 20B2     
4715 C196 C800  38 	mov r0,@cvb__CX
     C198 20B4     
4716 C19A 0460  28 	b @cv306
     C19C C1AA     
4717               cv304
4718 C19E C020  34 	mov @cvb__BX,r0
     C1A0 20B2     
4719 C1A2 6020  34 	s @cvb__AX,r0
     C1A4 20B0     
4720 C1A6 C800  38 	mov r0,@cvb__CX
     C1A8 20B4     
4721               cv306
4722               	; 	END
4723 C1AA C03A  30 	mov *r10+,r0
4724 C1AC 0450  20 	b *r0
4725               	;
4726               	; 	' ------------------------------------------------------------
4727               	; 	' magnet: every loose object in the magnet's room creeps 1px
4728               	; 	' per tick toward it (straight line, through walls) until it
4729               	; 	' rests beside it - the classic tool for retrieving objects
4730               	; 	' from unreachable spots
4731               	; 	' ------------------------------------------------------------
4732               	; magnetdo: PROCEDURE
4733               	even
4734               cvb_MAGNETDO
4735               	; 	FOR o = 0 TO 7
4736 C1AE 04C0  14 	clr r0
4737 C1B0 D800  38 	movb r0,@cvb_O
     C1B2 2089     
4738               cv307
4739               	; 	IF o <> 6 THEN IF o <> cr THEN IF o <> btc THEN IF orm(o) = rn THEN GOSUB magpull
4740 C1B4 D020  34 	movb @cvb_O,r0
     C1B6 2089     
4741 C1B8 0201  20 	li r1,1536   ; 6*256
     C1BA 0600     
4742 C1BC 9001  18 	cb r1,r0
4743 C1BE 1602  14 	jne cv309
4744 C1C0 0460  28 	b @cv308
     C1C2 C1FC     
4745               cv309
4746 C1C4 D020  34 	movb @cvb_O,r0
     C1C6 2089     
4747 C1C8 9020  34 	cb @cvb_CR,r0
     C1CA 20C5     
4748 C1CC 1602  14 	jne cv311
4749 C1CE 0460  28 	b @cv310
     C1D0 C1FC     
4750               cv311
4751 C1D2 D020  34 	movb @cvb_O,r0
     C1D4 2089     
4752 C1D6 9020  34 	cb @cvb_BTC,r0
     C1D8 2092     
4753 C1DA 1602  14 	jne cv313
4754 C1DC 0460  28 	b @cv312
     C1DE C1FC     
4755               cv313
4756 C1E0 D020  34 	movb @cvb_O,r0
     C1E2 2089     
4757 C1E4 0980  32 	srl r0,8
4758 C1E6 0220  22 	ai r0,array_ORM
     C1E8 211E     
4759 C1EA D010  26 	movb *r0,r0
4760 C1EC 9020  34 	cb @cvb_RN,r0
     C1EE 20D8     
4761 C1F0 1302  14 	jeq cv315
4762 C1F2 0460  28 	b @cv314
     C1F4 C1FC     
4763               cv315
4764 C1F6 06A0  32 	bl @jsr
     C1F8 A974     
4765 C1FA C218     	data cvb_MAGPULL
4766               cv314
4767               cv312
4768               cv310
4769               cv308
4770               	; 	NEXT o
4771 C1FC D020  34 	movb @cvb_O,r0
     C1FE 2089     
4772 C200 0220  22 	ai r0,256	; 1
     C202 0100     
4773 C204 D800  38 	movb r0,@cvb_O
     C206 2089     
4774 C208 0201  20 	li r1,2048   ; 8*256
     C20A 0800     
4775 C20C 9040  18 	cb r0,r1
4776 C20E 1402  14 	jhe cv316
4777 C210 0460  28 	b @cv307
     C212 C1B4     
4778               cv316
4779               	; 	END
4780 C214 C03A  30 	mov *r10+,r0
4781 C216 0450  20 	b *r0
4782               	;
4783               	; magpull: PROCEDURE
4784               	even
4785               cvb_MAGPULL
4786               	; 	#ax = obx(o) : #bx = obx(6)
4787 C218 D020  34 	movb @cvb_O,r0
     C21A 2089     
4788 C21C 0980  32 	srl r0,8
4789 C21E 0220  22 	ai r0,array_OBX
     C220 210A     
4790 C222 D010  26 	movb *r0,r0
4791 C224 0980  32 	srl r0,8
4792 C226 C800  38 	mov r0,@cvb__AX
     C228 20B0     
4793 C22A D020  34 	movb @array_OBX+6,r0
     C22C 2110     
4794 C22E 0980  32 	srl r0,8
4795 C230 C800  38 	mov r0,@cvb__BX
     C232 20B2     
4796               	; 	GOSUB adiff
4797 C234 06A0  32 	bl @jsr
     C236 A974     
4798 C238 C180     	data cvb_ADIFF
4799               	; 	#dx = #cx
4800 C23A C820  54 	mov @cvb__CX,@cvb__DX
     C23C 20B4     
     C23E 20B8     
4801               	; 	#ax = oby(o) : #bx = oby(6)
4802 C240 D020  34 	movb @cvb_O,r0
     C242 2089     
4803 C244 0980  32 	srl r0,8
4804 C246 0220  22 	ai r0,array_OBY
     C248 2112     
4805 C24A D010  26 	movb *r0,r0
4806 C24C 0980  32 	srl r0,8
4807 C24E C800  38 	mov r0,@cvb__AX
     C250 20B0     
4808 C252 D020  34 	movb @array_OBY+6,r0
     C254 2118     
4809 C256 0980  32 	srl r0,8
4810 C258 C800  38 	mov r0,@cvb__BX
     C25A 20B2     
4811               	; 	GOSUB adiff
4812 C25C 06A0  32 	bl @jsr
     C25E A974     
4813 C260 C180     	data cvb_ADIFF
4814               	; 	IF #dx + #cx <= 12 THEN RETURN
4815 C262 C020  34 	mov @cvb__DX,r0
     C264 20B8     
4816 C266 A020  34 	a @cvb__CX,r0
     C268 20B4     
4817 C26A 0280  22 	ci r0,13
     C26C 000D     
4818 C26E 1A02  14 	jl cv318
4819 C270 0460  28 	b @cv317
     C272 C278     
4820               cv318
4821 C274 C03A  30 	mov *r10+,r0
4822 C276 0450  20 	b *r0
4823               cv317
4824               	; 	IF obx(o) < obx(6) THEN obx(o) = obx(o) + 1
4825 C278 D060  34 	movb @array_OBX+6,r1
     C27A 2110     
4826 C27C D020  34 	movb @cvb_O,r0
     C27E 2089     
4827 C280 0980  32 	srl r0,8
4828 C282 0220  22 	ai r0,array_OBX
     C284 210A     
4829 C286 D010  26 	movb *r0,r0
4830 C288 9040  18 	cb r0,r1
4831 C28A 1A02  14 	jl cv320
4832 C28C 0460  28 	b @cv319
     C28E C2AE     
4833               cv320
4834 C290 D020  34 	movb @cvb_O,r0
     C292 2089     
4835 C294 0980  32 	srl r0,8
4836 C296 0220  22 	ai r0,array_OBX
     C298 210A     
4837 C29A D010  26 	movb *r0,r0
4838 C29C 0220  22 	ai r0,256	; 1
     C29E 0100     
4839 C2A0 C040  18 	mov r0,r1
4840 C2A2 D020  34 	movb @cvb_O,r0
     C2A4 2089     
4841 C2A6 0980  32 	srl r0,8
4842 C2A8 0220  22 	ai r0,array_OBX
     C2AA 210A     
4843 C2AC D401  30 	movb r1,*r0
4844               cv319
4845               	; 	IF obx(o) > obx(6) THEN obx(o) = obx(o) - 1
4846 C2AE D020  34 	movb @cvb_O,r0
     C2B0 2089     
4847 C2B2 0980  32 	srl r0,8
4848 C2B4 0220  22 	ai r0,array_OBX
     C2B6 210A     
4849 C2B8 D050  26 	movb *r0,r1
4850 C2BA D020  34 	movb @array_OBX+6,r0
     C2BC 2110     
4851 C2BE 9040  18 	cb r0,r1
4852 C2C0 1A02  14 	jl cv322
4853 C2C2 0460  28 	b @cv321
     C2C4 C2E4     
4854               cv322
4855 C2C6 D020  34 	movb @cvb_O,r0
     C2C8 2089     
4856 C2CA 0980  32 	srl r0,8
4857 C2CC 0220  22 	ai r0,array_OBX
     C2CE 210A     
4858 C2D0 D010  26 	movb *r0,r0
4859 C2D2 0220  22 	ai r0,65280	; -1
     C2D4 FF00     
4860 C2D6 C040  18 	mov r0,r1
4861 C2D8 D020  34 	movb @cvb_O,r0
     C2DA 2089     
4862 C2DC 0980  32 	srl r0,8
4863 C2DE 0220  22 	ai r0,array_OBX
     C2E0 210A     
4864 C2E2 D401  30 	movb r1,*r0
4865               cv321
4866               	; 	IF oby(o) < oby(6) THEN oby(o) = oby(o) + 1
4867 C2E4 D060  34 	movb @array_OBY+6,r1
     C2E6 2118     
4868 C2E8 D020  34 	movb @cvb_O,r0
     C2EA 2089     
4869 C2EC 0980  32 	srl r0,8
4870 C2EE 0220  22 	ai r0,array_OBY
     C2F0 2112     
4871 C2F2 D010  26 	movb *r0,r0
4872 C2F4 9040  18 	cb r0,r1
4873 C2F6 1A02  14 	jl cv324
4874 C2F8 0460  28 	b @cv323
     C2FA C31A     
4875               cv324
4876 C2FC D020  34 	movb @cvb_O,r0
     C2FE 2089     
4877 C300 0980  32 	srl r0,8
4878 C302 0220  22 	ai r0,array_OBY
     C304 2112     
4879 C306 D010  26 	movb *r0,r0
4880 C308 0220  22 	ai r0,256	; 1
     C30A 0100     
4881 C30C C040  18 	mov r0,r1
4882 C30E D020  34 	movb @cvb_O,r0
     C310 2089     
4883 C312 0980  32 	srl r0,8
4884 C314 0220  22 	ai r0,array_OBY
     C316 2112     
4885 C318 D401  30 	movb r1,*r0
4886               cv323
4887               	; 	IF oby(o) > oby(6) THEN oby(o) = oby(o) - 1
4888 C31A D020  34 	movb @cvb_O,r0
     C31C 2089     
4889 C31E 0980  32 	srl r0,8
4890 C320 0220  22 	ai r0,array_OBY
     C322 2112     
4891 C324 D050  26 	movb *r0,r1
4892 C326 D020  34 	movb @array_OBY+6,r0
     C328 2118     
4893 C32A 9040  18 	cb r0,r1
4894 C32C 1A02  14 	jl cv326
4895 C32E 0460  28 	b @cv325
     C330 C350     
4896               cv326
4897 C332 D020  34 	movb @cvb_O,r0
     C334 2089     
4898 C336 0980  32 	srl r0,8
4899 C338 0220  22 	ai r0,array_OBY
     C33A 2112     
4900 C33C D010  26 	movb *r0,r0
4901 C33E 0220  22 	ai r0,65280	; -1
     C340 FF00     
4902 C342 C040  18 	mov r0,r1
4903 C344 D020  34 	movb @cvb_O,r0
     C346 2089     
4904 C348 0980  32 	srl r0,8
4905 C34A 0220  22 	ai r0,array_OBY
     C34C 2112     
4906 C34E D401  30 	movb r1,*r0
4907               cv325
4908               	; 	END
4909 C350 C03A  30 	mov *r10+,r0
4910 C352 0450  20 	b *r0
4911               	;
4912               	; 	' ------------------------------------------------------------
4913               	; 	' the secret wall (room 17, east end of the corridor row):
4914               	; 	' with the dot here plus 2 or more other objects, the east
4915               	; 	' wall flickers and lets you through to the secret room
4916               	; 	' ------------------------------------------------------------
4917               	; eggdo: PROCEDURE
4918               	even
4919               cvb_EGGDO
4920               	; 	IF eggon = 0 THEN GOSUB eggchk
4921 C354 D020  34 	movb @cvb_EGGON,r0
     C356 209C     
4922 C358 1302  14 	jeq cv328
4923 C35A 0460  28 	b @cv327
     C35C C364     
4924               cv328
4925 C35E 06A0  32 	bl @jsr
     C360 A974     
4926 C362 C406     	data cvb_EGGCHK
4927               cv327
4928               	; 	IF eggon = 0 THEN RETURN
4929 C364 D020  34 	movb @cvb_EGGON,r0
     C366 209C     
4930 C368 1302  14 	jeq cv330
4931 C36A 0460  28 	b @cv329
     C36C C372     
4932               cv330
4933 C36E C03A  30 	mov *r10+,r0
4934 C370 0450  20 	b *r0
4935               cv329
4936               	; 	t = 32 : IF (tk AND 1) = 1 THEN t = 128
4937 C372 0200  20 	li r0,8192   ; 32*256
     C374 2000     
4938 C376 D800  38 	movb r0,@cvb_T
     C378 208B     
4939 C37A D020  34 	movb @cvb_TK,r0
     C37C 20DB     
4940 C37E 0201  20 	li r1,256   ; 1*256
     C380 0100     
4941 C382 0541  14 	inv r1
4942 C384 5001  18 	szcb r1,r0
4943 C386 0201  20 	li r1,256   ; 1*256
     C388 0100     
4944 C38A 9001  18 	cb r1,r0
4945 C38C 1302  14 	jeq cv332
4946 C38E 0460  28 	b @cv331
     C390 C39A     
4947               cv332
4948 C392 0200  20 	li r0,32768   ; 128*256
     C394 8000     
4949 C396 D800  38 	movb r0,@cvb_T
     C398 208B     
4950               cv331
4951               	; 	FOR r = 10 TO 13
4952 C39A 0200  20 	li r0,2560   ; 10*256
     C39C 0A00     
4953 C39E D800  38 	movb r0,@cvb_R
     C3A0 208A     
4954               cv333
4955               	; 	VPOKE $1800 + r * 32 + 30, t : VPOKE $1800 + r * 32 + 31, t
4956 C3A2 D020  34 	movb @cvb_T,r0
     C3A4 208B     
4957 C3A6 064A  14 	dect r10
4958 C3A8 C680  30 	mov r0,*r10
4959 C3AA D020  34 	movb @cvb_R,r0
     C3AC 208A     
4960 C3AE 0980  32 	srl r0,8
4961 C3B0 0A50  26 	sla r0,5
4962 C3B2 0220  22 	ai r0,6174
     C3B4 181E     
4963 C3B6 C0BA  30 	mov *r10+,r2
4964 C3B8 0300  22 	limi 0
     C3BA 0000     
4965 C3BC 06A0  32 	bl @JSR
     C3BE A974     
4966 C3C0 A018     	data WRTVRM
4967 C3C2 0300  22 	limi 2
     C3C4 0002     
4968 C3C6 D020  34 	movb @cvb_T,r0
     C3C8 208B     
4969 C3CA 064A  14 	dect r10
4970 C3CC C680  30 	mov r0,*r10
4971 C3CE D020  34 	movb @cvb_R,r0
     C3D0 208A     
4972 C3D2 0980  32 	srl r0,8
4973 C3D4 0A50  26 	sla r0,5
4974 C3D6 0220  22 	ai r0,6175
     C3D8 181F     
4975 C3DA C0BA  30 	mov *r10+,r2
4976 C3DC 0300  22 	limi 0
     C3DE 0000     
4977 C3E0 06A0  32 	bl @JSR
     C3E2 A974     
4978 C3E4 A018     	data WRTVRM
4979 C3E6 0300  22 	limi 2
     C3E8 0002     
4980               	; 	NEXT r
4981 C3EA D020  34 	movb @cvb_R,r0
     C3EC 208A     
4982 C3EE 0220  22 	ai r0,256	; 1
     C3F0 0100     
4983 C3F2 D800  38 	movb r0,@cvb_R
     C3F4 208A     
4984 C3F6 0201  20 	li r1,3584   ; 14*256
     C3F8 0E00     
4985 C3FA 9040  18 	cb r0,r1
4986 C3FC 1402  14 	jhe cv334
4987 C3FE 0460  28 	b @cv333
     C400 C3A2     
4988               cv334
4989               	; 	END
4990 C402 C03A  30 	mov *r10+,r0
4991 C404 0450  20 	b *r0
4992               	;
4993               	; eggchk: PROCEDURE
4994               	even
4995               cvb_EGGCHK
4996               	; 	IF orm(7) <> 17 THEN RETURN
4997 C406 D020  34 	movb @array_ORM+7,r0
     C408 2125     
4998 C40A 0201  20 	li r1,4352   ; 17*256
     C40C 1100     
4999 C40E 9001  18 	cb r1,r0
5000 C410 1602  14 	jne cv336
5001 C412 0460  28 	b @cv335
     C414 C41A     
5002               cv336
5003 C416 C03A  30 	mov *r10+,r0
5004 C418 0450  20 	b *r0
5005               cv335
5006               	; 	e2 = 0
5007 C41A 04C0  14 	clr r0
5008 C41C D800  38 	movb r0,@cvb_E2
     C41E 20C3     
5009               	; 	FOR i = 0 TO 6
5010 C420 04C0  14 	clr r0
5011 C422 D800  38 	movb r0,@cvb_I
     C424 2086     
5012               cv337
5013               	; 	IF orm(i) = 17 THEN e2 = e2 + 1
5014 C426 D020  34 	movb @cvb_I,r0
     C428 2086     
5015 C42A 0980  32 	srl r0,8
5016 C42C 0220  22 	ai r0,array_ORM
     C42E 211E     
5017 C430 D010  26 	movb *r0,r0
5018 C432 0201  20 	li r1,4352   ; 17*256
     C434 1100     
5019 C436 9001  18 	cb r1,r0
5020 C438 1302  14 	jeq cv339
5021 C43A 0460  28 	b @cv338
     C43C C44A     
5022               cv339
5023 C43E D020  34 	movb @cvb_E2,r0
     C440 20C3     
5024 C442 0220  22 	ai r0,256	; 1
     C444 0100     
5025 C446 D800  38 	movb r0,@cvb_E2
     C448 20C3     
5026               cv338
5027               	; 	NEXT i
5028 C44A D020  34 	movb @cvb_I,r0
     C44C 2086     
5029 C44E 0220  22 	ai r0,256	; 1
     C450 0100     
5030 C452 D800  38 	movb r0,@cvb_I
     C454 2086     
5031 C456 0201  20 	li r1,1792   ; 7*256
     C458 0700     
5032 C45A 9040  18 	cb r0,r1
5033 C45C 1402  14 	jhe cv340
5034 C45E 0460  28 	b @cv337
     C460 C426     
5035               cv340
5036               	; 	IF e2 < 2 THEN RETURN
5037 C462 D020  34 	movb @cvb_E2,r0
     C464 20C3     
5038 C466 0201  20 	li r1,512   ; 2*256
     C468 0200     
5039 C46A 9040  18 	cb r0,r1
5040 C46C 1A02  14 	jl cv342
5041 C46E 0460  28 	b @cv341
     C470 C476     
5042               cv342
5043 C472 C03A  30 	mov *r10+,r0
5044 C474 0450  20 	b *r0
5045               cv341
5046               	; 	eggon = 1
5047 C476 0200  20 	li r0,256   ; 1*256
     C478 0100     
5048 C47A D800  38 	movb r0,@cvb_EGGON
     C47C 209C     
5049               	; 	END
5050 C47E C03A  30 	mov *r10+,r0
5051 C480 0450  20 	b *r0
5052               	;
5053               	; 	' secret room: ripple one glyph's colour per tick
5054               	; eggtxt: PROCEDURE
5055               	even
5056               cvb_EGGTXT
5057               	; 	i2 = tk AND 15
5058 C482 D020  34 	movb @cvb_TK,r0
     C484 20DB     
5059 C486 0201  20 	li r1,3840   ; 15*256
     C488 0F00     
5060 C48A 0541  14 	inv r1
5061 C48C 5001  18 	szcb r1,r0
5062 C48E D800  38 	movb r0,@cvb_I2
     C490 20CB     
5063               	; 	RESTORE eggch
5064 C492 0200  20 	li r0,cvb_EGGCH
     C494 EE40     
5065 C496 C800  30 	mov r0,@read_pointer
     C498 8340     
5066               	; 	WHILE i2 > 0 : READ BYTE t : i2 = i2 - 1 : WEND
5067               cv343
5068 C49A D020  34 	movb @cvb_I2,r0
     C49C 20CB     
5069 C49E 0201  20 	li r1,256   ; 1*256
     C4A0 0100     
5070 C4A2 9040  18 	cb r0,r1
5071 C4A4 1402  14 	jhe cv345
5072 C4A6 0460  28 	b @cv344
     C4A8 C4C8     
5073               cv345
5074 C4AA C060  30 	mov @read_pointer,r1
     C4AC 8340     
5075 C4AE D011  26 	movb *r1,r0
5076 C4B0 05A0  26 	inc @read_pointer
     C4B2 8340     
5077 C4B4 D800  38 	movb r0,@cvb_T
     C4B6 208B     
5078 C4B8 D020  34 	movb @cvb_I2,r0
     C4BA 20CB     
5079 C4BC 0220  22 	ai r0,65280	; -1
     C4BE FF00     
5080 C4C0 D800  38 	movb r0,@cvb_I2
     C4C2 20CB     
5081 C4C4 0460  28 	b @cv343
     C4C6 C49A     
5082               cv344
5083               	; 	READ BYTE t
5084 C4C8 C060  30 	mov @read_pointer,r1
     C4CA 8340     
5085 C4CC D011  26 	movb *r1,r0
5086 C4CE 05A0  26 	inc @read_pointer
     C4D0 8340     
5087 C4D2 D800  38 	movb r0,@cvb_T
     C4D4 208B     
5088               	; 	c3 = ((tk / 4) AND 7) + 8
5089 C4D6 D020  34 	movb @cvb_TK,r0
     C4D8 20DB     
5090 C4DA 0920  20 	srl r0,2
5091 C4DC 0201  20 	li r1,1792   ; 7*256
     C4DE 0700     
5092 C4E0 0541  14 	inv r1
5093 C4E2 5001  18 	szcb r1,r0
5094 C4E4 0220  22 	ai r0,2048	; 8
     C4E6 0800     
5095 C4E8 D800  38 	movb r0,@cvb_C3
     C4EA 20BE     
5096               	; 	#ad = $2800 + t * 8
5097 C4EC D020  34 	movb @cvb_T,r0
     C4EE 208B     
5098 C4F0 0980  32 	srl r0,8
5099 C4F2 0A30  22 	sla r0,3
5100 C4F4 0220  22 	ai r0,10240
     C4F6 2800     
5101 C4F8 C800  38 	mov r0,@cvb__AD
     C4FA 20AA     
5102               	; 	FOR i2 = 0 TO 7 : VPOKE #ad + i2, c3 * 16 + 14 : NEXT i2
5103 C4FC 04C0  14 	clr r0
5104 C4FE D800  38 	movb r0,@cvb_I2
     C500 20CB     
5105               cv346
5106 C502 D020  34 	movb @cvb_C3,r0
     C504 20BE     
5107 C506 0240  22 	andi r0,>ff00
     C508 FF00     
5108 C50A 0A40  24 	sla r0,4
5109 C50C 0220  22 	ai r0,3584	; 14
     C50E 0E00     
5110 C510 064A  14 	dect r10
5111 C512 C680  30 	mov r0,*r10
5112 C514 D020  34 	movb @cvb_I2,r0
     C516 20CB     
5113 C518 0980  32 	srl r0,8
5114 C51A C040  18 	mov r0,r1
5115 C51C C020  34 	mov @cvb__AD,r0
     C51E 20AA     
5116 C520 A001  18 	a r1,r0
5117 C522 C0BA  30 	mov *r10+,r2
5118 C524 0300  22 	limi 0
     C526 0000     
5119 C528 06A0  32 	bl @JSR
     C52A A974     
5120 C52C A018     	data WRTVRM
5121 C52E 0300  22 	limi 2
     C530 0002     
5122 C532 D020  34 	movb @cvb_I2,r0
     C534 20CB     
5123 C536 0220  22 	ai r0,256	; 1
     C538 0100     
5124 C53A D800  38 	movb r0,@cvb_I2
     C53C 20CB     
5125 C53E 0201  20 	li r1,2048   ; 8*256
     C540 0800     
5126 C542 9040  18 	cb r0,r1
5127 C544 1402  14 	jhe cv347
5128 C546 0460  28 	b @cv346
     C548 C502     
5129               cv347
5130               	; 	END
5131 C54A C03A  30 	mov *r10+,r0
5132 C54C 0450  20 	b *r0
5133               	;
5134               	; 	' ------------------------------------------------------------
5135               	; 	' bat: simulated every tick in whatever room it occupies.
5136               	; 	' Flies through walls; drifts between rooms via the exit
5137               	; 	' links. Steals/swaps objects on touch - even yours.
5138               	; 	' ------------------------------------------------------------
5139               	; batdo: PROCEDURE
5140               	even
5141               cvb_BATDO
5142               	; 	IF btcd > 0 THEN btcd = btcd - 1
5143 C54E D020  34 	movb @cvb_BTCD,r0
     C550 20B6     
5144 C552 0201  20 	li r1,256   ; 1*256
     C554 0100     
5145 C556 9040  18 	cb r0,r1
5146 C558 1402  14 	jhe cv349
5147 C55A 0460  28 	b @cv348
     C55C C56A     
5148               cv349
5149 C55E D020  34 	movb @cvb_BTCD,r0
     C560 20B6     
5150 C562 0220  22 	ai r0,65280	; -1
     C564 FF00     
5151 C566 D800  38 	movb r0,@cvb_BTCD
     C568 20B6     
5152               cv348
5153               	; 	IF bfx = 1 THEN GOSUB batright ELSE GOSUB batleft
5154 C56A D020  34 	movb @cvb_BFX,r0
     C56C 2080     
5155 C56E 0201  20 	li r1,256   ; 1*256
     C570 0100     
5156 C572 9001  18 	cb r1,r0
5157 C574 1302  14 	jeq cv351
5158 C576 0460  28 	b @cv350
     C578 C584     
5159               cv351
5160 C57A 06A0  32 	bl @jsr
     C57C A974     
5161 C57E C720     	data cvb_BATRIGHT
5162 C580 0460  28 	b @cv352
     C582 C58A     
5163               cv350
5164 C584 06A0  32 	bl @jsr
     C586 A974     
5165 C588 C6AA     	data cvb_BATLEFT
5166               cv352
5167               	; 	IF bfy = 1 THEN bty = bty + 1 ELSE bty = bty - 1
5168 C58A D020  34 	movb @cvb_BFY,r0
     C58C 2081     
5169 C58E 0201  20 	li r1,256   ; 1*256
     C590 0100     
5170 C592 9001  18 	cb r1,r0
5171 C594 1302  14 	jeq cv354
5172 C596 0460  28 	b @cv353
     C598 C5AA     
5173               cv354
5174 C59A D020  34 	movb @cvb_BTY,r0
     C59C 2097     
5175 C59E 0220  22 	ai r0,256	; 1
     C5A0 0100     
5176 C5A2 D800  38 	movb r0,@cvb_BTY
     C5A4 2097     
5177 C5A6 0460  28 	b @cv355
     C5A8 C5B6     
5178               cv353
5179 C5AA D020  34 	movb @cvb_BTY,r0
     C5AC 2097     
5180 C5AE 0220  22 	ai r0,65280	; -1
     C5B0 FF00     
5181 C5B2 D800  38 	movb r0,@cvb_BTY
     C5B4 2097     
5182               cv355
5183               	; 	IF bty < 12 THEN GOSUB batnorth
5184 C5B6 D020  34 	movb @cvb_BTY,r0
     C5B8 2097     
5185 C5BA 0201  20 	li r1,3072   ; 12*256
     C5BC 0C00     
5186 C5BE 9040  18 	cb r0,r1
5187 C5C0 1A02  14 	jl cv357
5188 C5C2 0460  28 	b @cv356
     C5C4 C5CC     
5189               cv357
5190 C5C6 06A0  32 	bl @jsr
     C5C8 A974     
5191 C5CA C792     	data cvb_BATNORTH
5192               cv356
5193               	; 	IF bty > 150 THEN GOSUB batsouth
5194 C5CC D020  34 	movb @cvb_BTY,r0
     C5CE 2097     
5195 C5D0 0201  20 	li r1,38656   ; 151*256
     C5D2 9700     
5196 C5D4 9040  18 	cb r0,r1
5197 C5D6 1402  14 	jhe cv359
5198 C5D8 0460  28 	b @cv358
     C5DA C5E2     
5199               cv359
5200 C5DC 06A0  32 	bl @jsr
     C5DE A974     
5201 C5E0 C7E8     	data cvb_BATSOUTH
5202               cv358
5203               	; 	IF (tk AND 31) = 0 THEN bfy = 1 - bfy
5204 C5E2 D020  34 	movb @cvb_TK,r0
     C5E4 20DB     
5205 C5E6 0201  20 	li r1,7936   ; 31*256
     C5E8 1F00     
5206 C5EA 0541  14 	inv r1
5207 C5EC 5001  18 	szcb r1,r0
5208 C5EE 04C1  14 	clr r1
5209 C5F0 9001  18 	cb r1,r0
5210 C5F2 1302  14 	jeq cv361
5211 C5F4 0460  28 	b @cv360
     C5F6 C60C     
5212               cv361
5213 C5F8 D020  34 	movb @cvb_BFY,r0
     C5FA 2081     
5214 C5FC 0980  32 	srl r0,8
5215 C5FE C040  18 	mov r0,r1
5216 C600 0200  20 	li r0,1
     C602 0001     
5217 C604 6001  18 	s r1,r0
5218 C606 0A80  32 	sla r0,8
5219 C608 D800  38 	movb r0,@cvb_BFY
     C60A 2081     
5220               cv360
5221               	; 	IF (tk AND 63) = 0 THEN IF RANDOM(2) = 1 THEN bfx = 1 - bfx
5222 C60C D020  34 	movb @cvb_TK,r0
     C60E 20DB     
5223 C610 0201  20 	li r1,16128   ; 63*256
     C612 3F00     
5224 C614 0541  14 	inv r1
5225 C616 5001  18 	szcb r1,r0
5226 C618 04C1  14 	clr r1
5227 C61A 9001  18 	cb r1,r0
5228 C61C 1302  14 	jeq cv363
5229 C61E 0460  28 	b @cv362
     C620 C64A     
5230               cv363
5231 C622 06A0  32 	bl @jsr
     C624 A974     
5232 C626 A2A6     	data random
5233 C628 0240  22 	andi r0,1
     C62A 0001     
5234 C62C 0280  22 	ci r0,1
     C62E 0001     
5235 C630 1302  14 	jeq cv365
5236 C632 0460  28 	b @cv364
     C634 C64A     
5237               cv365
5238 C636 D020  34 	movb @cvb_BFX,r0
     C638 2080     
5239 C63A 0980  32 	srl r0,8
5240 C63C C040  18 	mov r0,r1
5241 C63E 0200  20 	li r0,1
     C640 0001     
5242 C642 6001  18 	s r1,r0
5243 C644 0A80  32 	sla r0,8
5244 C646 D800  38 	movb r0,@cvb_BFX
     C648 2080     
5245               cv364
5246               cv362
5247               	; 	' its loot dangles underneath
5248               	; 	IF btc < 8 THEN orm(btc) = btr : obx(btc) = btx + 8 : oby(btc) = bty + 10
5249 C64A D020  34 	movb @cvb_BTC,r0
     C64C 2092     
5250 C64E 0201  20 	li r1,2048   ; 8*256
     C650 0800     
5251 C652 9040  18 	cb r0,r1
5252 C654 1A02  14 	jl cv367
5253 C656 0460  28 	b @cv366
     C658 C696     
5254               cv367
5255 C65A D060  34 	movb @cvb_BTR,r1
     C65C 2094     
5256 C65E D020  34 	movb @cvb_BTC,r0
     C660 2092     
5257 C662 0980  32 	srl r0,8
5258 C664 0220  22 	ai r0,array_ORM
     C666 211E     
5259 C668 D401  30 	movb r1,*r0
5260 C66A D020  34 	movb @cvb_BTX,r0
     C66C 2096     
5261 C66E 0220  22 	ai r0,2048	; 8
     C670 0800     
5262 C672 C040  18 	mov r0,r1
5263 C674 D020  34 	movb @cvb_BTC,r0
     C676 2092     
5264 C678 0980  32 	srl r0,8
5265 C67A 0220  22 	ai r0,array_OBX
     C67C 210A     
5266 C67E D401  30 	movb r1,*r0
5267 C680 D020  34 	movb @cvb_BTY,r0
     C682 2097     
5268 C684 0220  22 	ai r0,2560	; 10
     C686 0A00     
5269 C688 C040  18 	mov r0,r1
5270 C68A D020  34 	movb @cvb_BTC,r0
     C68C 2092     
5271 C68E 0980  32 	srl r0,8
5272 C690 0220  22 	ai r0,array_OBY
     C692 2112     
5273 C694 D401  30 	movb r1,*r0
5274               cv366
5275               	; 	IF btcd = 0 THEN GOSUB batgrab
5276 C696 D020  34 	movb @cvb_BTCD,r0
     C698 20B6     
5277 C69A 1302  14 	jeq cv369
5278 C69C 0460  28 	b @cv368
     C69E C6A6     
5279               cv369
5280 C6A0 06A0  32 	bl @jsr
     C6A2 A974     
5281 C6A4 C83A     	data cvb_BATGRAB
5282               cv368
5283               	; 	END
5284 C6A6 C03A  30 	mov *r10+,r0
5285 C6A8 0450  20 	b *r0
5286               	;
5287               	; batleft: PROCEDURE
5288               	even
5289               cvb_BATLEFT
5290               	; 	IF btx >= 10 THEN btx = btx - 2 : RETURN
5291 C6AA D020  34 	movb @cvb_BTX,r0
     C6AC 2096     
5292 C6AE 0201  20 	li r1,2560   ; 10*256
     C6B0 0A00     
5293 C6B2 9040  18 	cb r0,r1
5294 C6B4 1402  14 	jhe cv371
5295 C6B6 0460  28 	b @cv370
     C6B8 C6CA     
5296               cv371
5297 C6BA D020  34 	movb @cvb_BTX,r0
     C6BC 2096     
5298 C6BE 0220  22 	ai r0,65024	; -2
     C6C0 FE00     
5299 C6C2 D800  38 	movb r0,@cvb_BTX
     C6C4 2096     
5300 C6C6 C03A  30 	mov *r10+,r0
5301 C6C8 0450  20 	b *r0
5302               cv370
5303               	; 	lkr = btr
5304 C6CA D820  54 	movb @cvb_BTR,@cvb_LKR
     C6CC 2094     
     C6CE 2098     
5305               	; 	GOSUB getlnk
5306 C6D0 06A0  32 	bl @jsr
     C6D2 A974     
5307 C6D4 D224     	data cvb_GETLNK
5308               	; 	IF lkw = 255 THEN bfx = 1 : RETURN
5309 C6D6 D020  34 	movb @cvb_LKW,r0
     C6D8 209A     
5310 C6DA 0201  20 	li r1,65280   ; 255*256
     C6DC FF00     
5311 C6DE 9001  18 	cb r1,r0
5312 C6E0 1302  14 	jeq cv373
5313 C6E2 0460  28 	b @cv372
     C6E4 C6F2     
5314               cv373
5315 C6E6 0200  20 	li r0,256   ; 1*256
     C6E8 0100     
5316 C6EA D800  38 	movb r0,@cvb_BFX
     C6EC 2080     
5317 C6EE C03A  30 	mov *r10+,r0
5318 C6F0 0450  20 	b *r0
5319               cv372
5320               	; 	IF lkw = 18 THEN bfx = 1 : RETURN
5321 C6F2 D020  34 	movb @cvb_LKW,r0
     C6F4 209A     
5322 C6F6 0201  20 	li r1,4608   ; 18*256
     C6F8 1200     
5323 C6FA 9001  18 	cb r1,r0
5324 C6FC 1302  14 	jeq cv375
5325 C6FE 0460  28 	b @cv374
     C700 C70E     
5326               cv375
5327 C702 0200  20 	li r0,256   ; 1*256
     C704 0100     
5328 C706 D800  38 	movb r0,@cvb_BFX
     C708 2080     
5329 C70A C03A  30 	mov *r10+,r0
5330 C70C 0450  20 	b *r0
5331               cv374
5332               	; 	btr = lkw : btx = 224
5333 C70E D820  54 	movb @cvb_LKW,@cvb_BTR
     C710 209A     
     C712 2094     
5334 C714 0200  20 	li r0,57344   ; 224*256
     C716 E000     
5335 C718 D800  38 	movb r0,@cvb_BTX
     C71A 2096     
5336               	; 	END
5337 C71C C03A  30 	mov *r10+,r0
5338 C71E 0450  20 	b *r0
5339               	;
5340               	; batright: PROCEDURE
5341               	even
5342               cvb_BATRIGHT
5343               	; 	IF btx <= 222 THEN btx = btx + 2 : RETURN
5344 C720 D020  34 	movb @cvb_BTX,r0
     C722 2096     
5345 C724 0201  20 	li r1,57088   ; 223*256
     C726 DF00     
5346 C728 9040  18 	cb r0,r1
5347 C72A 1A02  14 	jl cv377
5348 C72C 0460  28 	b @cv376
     C72E C740     
5349               cv377
5350 C730 D020  34 	movb @cvb_BTX,r0
     C732 2096     
5351 C734 0220  22 	ai r0,512	; 2
     C736 0200     
5352 C738 D800  38 	movb r0,@cvb_BTX
     C73A 2096     
5353 C73C C03A  30 	mov *r10+,r0
5354 C73E 0450  20 	b *r0
5355               cv376
5356               	; 	lkr = btr
5357 C740 D820  54 	movb @cvb_BTR,@cvb_LKR
     C742 2094     
     C744 2098     
5358               	; 	GOSUB getlnk
5359 C746 06A0  32 	bl @jsr
     C748 A974     
5360 C74A D224     	data cvb_GETLNK
5361               	; 	IF lke = 255 THEN bfx = 0 : RETURN
5362 C74C D020  34 	movb @cvb_LKE,r0
     C74E 2093     
5363 C750 0201  20 	li r1,65280   ; 255*256
     C752 FF00     
5364 C754 9001  18 	cb r1,r0
5365 C756 1302  14 	jeq cv379
5366 C758 0460  28 	b @cv378
     C75A C766     
5367               cv379
5368 C75C 04C0  14 	clr r0
5369 C75E D800  38 	movb r0,@cvb_BFX
     C760 2080     
5370 C762 C03A  30 	mov *r10+,r0
5371 C764 0450  20 	b *r0
5372               cv378
5373               	; 	IF lke = 18 THEN bfx = 0 : RETURN
5374 C766 D020  34 	movb @cvb_LKE,r0
     C768 2093     
5375 C76A 0201  20 	li r1,4608   ; 18*256
     C76C 1200     
5376 C76E 9001  18 	cb r1,r0
5377 C770 1302  14 	jeq cv381
5378 C772 0460  28 	b @cv380
     C774 C780     
5379               cv381
5380 C776 04C0  14 	clr r0
5381 C778 D800  38 	movb r0,@cvb_BFX
     C77A 2080     
5382 C77C C03A  30 	mov *r10+,r0
5383 C77E 0450  20 	b *r0
5384               cv380
5385               	; 	btr = lke : btx = 12
5386 C780 D820  54 	movb @cvb_LKE,@cvb_BTR
     C782 2093     
     C784 2094     
5387 C786 0200  20 	li r0,3072   ; 12*256
     C788 0C00     
5388 C78A D800  38 	movb r0,@cvb_BTX
     C78C 2096     
5389               	; 	END
5390 C78E C03A  30 	mov *r10+,r0
5391 C790 0450  20 	b *r0
5392               	;
5393               	; batnorth: PROCEDURE
5394               	even
5395               cvb_BATNORTH
5396               	; 	lkr = btr
5397 C792 D820  54 	movb @cvb_BTR,@cvb_LKR
     C794 2094     
     C796 2098     
5398               	; 	GOSUB getlnk
5399 C798 06A0  32 	bl @jsr
     C79A A974     
5400 C79C D224     	data cvb_GETLNK
5401               	; 	IF lkn = 255 THEN bfy = 1 : RETURN
5402 C79E D020  34 	movb @cvb_LKN,r0
     C7A0 2095     
5403 C7A2 0201  20 	li r1,65280   ; 255*256
     C7A4 FF00     
5404 C7A6 9001  18 	cb r1,r0
5405 C7A8 1302  14 	jeq cv383
5406 C7AA 0460  28 	b @cv382
     C7AC C7BA     
5407               cv383
5408 C7AE 0200  20 	li r0,256   ; 1*256
     C7B0 0100     
5409 C7B2 D800  38 	movb r0,@cvb_BFY
     C7B4 2081     
5410 C7B6 C03A  30 	mov *r10+,r0
5411 C7B8 0450  20 	b *r0
5412               cv382
5413               	; 	IF lkn = 18 THEN bfy = 1 : RETURN
5414 C7BA D020  34 	movb @cvb_LKN,r0
     C7BC 2095     
5415 C7BE 0201  20 	li r1,4608   ; 18*256
     C7C0 1200     
5416 C7C2 9001  18 	cb r1,r0
5417 C7C4 1302  14 	jeq cv385
5418 C7C6 0460  28 	b @cv384
     C7C8 C7D6     
5419               cv385
5420 C7CA 0200  20 	li r0,256   ; 1*256
     C7CC 0100     
5421 C7CE D800  38 	movb r0,@cvb_BFY
     C7D0 2081     
5422 C7D2 C03A  30 	mov *r10+,r0
5423 C7D4 0450  20 	b *r0
5424               cv384
5425               	; 	btr = lkn : bty = 144
5426 C7D6 D820  54 	movb @cvb_LKN,@cvb_BTR
     C7D8 2095     
     C7DA 2094     
5427 C7DC 0200  20 	li r0,36864   ; 144*256
     C7DE 9000     
5428 C7E0 D800  38 	movb r0,@cvb_BTY
     C7E2 2097     
5429               	; 	END
5430 C7E4 C03A  30 	mov *r10+,r0
5431 C7E6 0450  20 	b *r0
5432               	;
5433               	; batsouth: PROCEDURE
5434               	even
5435               cvb_BATSOUTH
5436               	; 	lkr = btr
5437 C7E8 D820  54 	movb @cvb_BTR,@cvb_LKR
     C7EA 2094     
     C7EC 2098     
5438               	; 	GOSUB getlnk
5439 C7EE 06A0  32 	bl @jsr
     C7F0 A974     
5440 C7F2 D224     	data cvb_GETLNK
5441               	; 	IF lks = 255 THEN bfy = 0 : RETURN
5442 C7F4 D020  34 	movb @cvb_LKS,r0
     C7F6 2099     
5443 C7F8 0201  20 	li r1,65280   ; 255*256
     C7FA FF00     
5444 C7FC 9001  18 	cb r1,r0
5445 C7FE 1302  14 	jeq cv387
5446 C800 0460  28 	b @cv386
     C802 C80E     
5447               cv387
5448 C804 04C0  14 	clr r0
5449 C806 D800  38 	movb r0,@cvb_BFY
     C808 2081     
5450 C80A C03A  30 	mov *r10+,r0
5451 C80C 0450  20 	b *r0
5452               cv386
5453               	; 	IF lks = 18 THEN bfy = 0 : RETURN
5454 C80E D020  34 	movb @cvb_LKS,r0
     C810 2099     
5455 C812 0201  20 	li r1,4608   ; 18*256
     C814 1200     
5456 C816 9001  18 	cb r1,r0
5457 C818 1302  14 	jeq cv389
5458 C81A 0460  28 	b @cv388
     C81C C828     
5459               cv389
5460 C81E 04C0  14 	clr r0
5461 C820 D800  38 	movb r0,@cvb_BFY
     C822 2081     
5462 C824 C03A  30 	mov *r10+,r0
5463 C826 0450  20 	b *r0
5464               cv388
5465               	; 	btr = lks : bty = 14
5466 C828 D820  54 	movb @cvb_LKS,@cvb_BTR
     C82A 2099     
     C82C 2094     
5467 C82E 0200  20 	li r0,3584   ; 14*256
     C830 0E00     
5468 C832 D800  38 	movb r0,@cvb_BTY
     C834 2097     
5469               	; 	END
5470 C836 C03A  30 	mov *r10+,r0
5471 C838 0450  20 	b *r0
5472               	;
5473               	; batgrab: PROCEDURE
5474               	even
5475               cvb_BATGRAB
5476               	; 	FOR i = 0 TO 6
5477 C83A 04C0  14 	clr r0
5478 C83C D800  38 	movb r0,@cvb_I
     C83E 2086     
5479               cv390
5480               	; 	IF i <> btc THEN IF orm(i) = btr THEN GOSUB bgchk
5481 C840 D020  34 	movb @cvb_I,r0
     C842 2086     
5482 C844 9020  34 	cb @cvb_BTC,r0
     C846 2092     
5483 C848 1602  14 	jne cv392
5484 C84A 0460  28 	b @cv391
     C84C C86A     
5485               cv392
5486 C84E D020  34 	movb @cvb_I,r0
     C850 2086     
5487 C852 0980  32 	srl r0,8
5488 C854 0220  22 	ai r0,array_ORM
     C856 211E     
5489 C858 D010  26 	movb *r0,r0
5490 C85A 9020  34 	cb @cvb_BTR,r0
     C85C 2094     
5491 C85E 1302  14 	jeq cv394
5492 C860 0460  28 	b @cv393
     C862 C86A     
5493               cv394
5494 C864 06A0  32 	bl @jsr
     C866 A974     
5495 C868 C886     	data cvb_BGCHK
5496               cv393
5497               cv391
5498               	; 	NEXT i
5499 C86A D020  34 	movb @cvb_I,r0
     C86C 2086     
5500 C86E 0220  22 	ai r0,256	; 1
     C870 0100     
5501 C872 D800  38 	movb r0,@cvb_I
     C874 2086     
5502 C876 0201  20 	li r1,1792   ; 7*256
     C878 0700     
5503 C87A 9040  18 	cb r0,r1
5504 C87C 1402  14 	jhe cv395
5505 C87E 0460  28 	b @cv390
     C880 C840     
5506               cv395
5507               	; 	END
5508 C882 C03A  30 	mov *r10+,r0
5509 C884 0450  20 	b *r0
5510               	;
5511               	; bgchk: PROCEDURE
5512               	even
5513               cvb_BGCHK
5514               	; 	#ax = obx(i) + 8 : #bx = btx + 16
5515 C886 D020  34 	movb @cvb_I,r0
     C888 2086     
5516 C88A 0980  32 	srl r0,8
5517 C88C 0220  22 	ai r0,array_OBX
     C88E 210A     
5518 C890 D010  26 	movb *r0,r0
5519 C892 0980  32 	srl r0,8
5520 C894 0220  22 	ai r0,8
     C896 0008     
5521 C898 C800  38 	mov r0,@cvb__AX
     C89A 20B0     
5522 C89C D020  34 	movb @cvb_BTX,r0
     C89E 2096     
5523 C8A0 0980  32 	srl r0,8
5524 C8A2 0220  22 	ai r0,16
     C8A4 0010     
5525 C8A6 C800  38 	mov r0,@cvb__BX
     C8A8 20B2     
5526               	; 	GOSUB adiff
5527 C8AA 06A0  32 	bl @jsr
     C8AC A974     
5528 C8AE C180     	data cvb_ADIFF
5529               	; 	IF #cx > 12 THEN RETURN
5530 C8B0 C020  34 	mov @cvb__CX,r0
     C8B2 20B4     
5531 C8B4 0201  20 	li r1,13
     C8B6 000D     
5532 C8B8 8040  18 	c r0,r1
5533 C8BA 1402  14 	jhe cv397
5534 C8BC 0460  28 	b @cv396
     C8BE C8C4     
5535               cv397
5536 C8C0 C03A  30 	mov *r10+,r0
5537 C8C2 0450  20 	b *r0
5538               cv396
5539               	; 	#ax = oby(i) + 6 : #bx = bty + 8
5540 C8C4 D020  34 	movb @cvb_I,r0
     C8C6 2086     
5541 C8C8 0980  32 	srl r0,8
5542 C8CA 0220  22 	ai r0,array_OBY
     C8CC 2112     
5543 C8CE D010  26 	movb *r0,r0
5544 C8D0 0980  32 	srl r0,8
5545 C8D2 0220  22 	ai r0,6
     C8D4 0006     
5546 C8D6 C800  38 	mov r0,@cvb__AX
     C8D8 20B0     
5547 C8DA D020  34 	movb @cvb_BTY,r0
     C8DC 2097     
5548 C8DE 0980  32 	srl r0,8
5549 C8E0 0220  22 	ai r0,8
     C8E2 0008     
5550 C8E4 C800  38 	mov r0,@cvb__BX
     C8E6 20B2     
5551               	; 	GOSUB adiff
5552 C8E8 06A0  32 	bl @jsr
     C8EA A974     
5553 C8EC C180     	data cvb_ADIFF
5554               	; 	IF #cx > 10 THEN RETURN
5555 C8EE C020  34 	mov @cvb__CX,r0
     C8F0 20B4     
5556 C8F2 0201  20 	li r1,11
     C8F4 000B     
5557 C8F6 8040  18 	c r0,r1
5558 C8F8 1402  14 	jhe cv399
5559 C8FA 0460  28 	b @cv398
     C8FC C902     
5560               cv399
5561 C8FE C03A  30 	mov *r10+,r0
5562 C900 0450  20 	b *r0
5563               cv398
5564               	; 	' anti-softlock guards:
5565               	; 	' never take the bridge out of a chamber room (6/28/35), and
5566               	; 	' never swap-drop a carried object inside a sealed chamber
5567               	; 	IF i = 4 THEN IF (btr = 6) OR (btr = 28) OR (btr = 35) THEN RETURN
5568 C902 D020  34 	movb @cvb_I,r0
     C904 2086     
5569 C906 0201  20 	li r1,1024   ; 4*256
     C908 0400     
5570 C90A 9001  18 	cb r1,r0
5571 C90C 1302  14 	jeq cv401
5572 C90E 0460  28 	b @cv400
     C910 C962     
5573               cv401
5574 C912 D020  34 	movb @cvb_BTR,r0
     C914 2094     
5575 C916 0201  20 	li r1,8960   ; 35*256
     C918 2300     
5576 C91A 9001  18 	cb r1,r0
5577 C91C 1302  14 	jeq cv403
5578 C91E 04C0  14 	clr r0
5579 C920 1001  14 	jmp $+4
5580               cv403
5581 C922 0700  14 	seto r0
5582 C924 064A  14 	dect r10
5583 C926 C680  30 	mov r0,*r10
5584 C928 D020  34 	movb @cvb_BTR,r0
     C92A 2094     
5585 C92C 0201  20 	li r1,7168   ; 28*256
     C92E 1C00     
5586 C930 9001  18 	cb r1,r0
5587 C932 1302  14 	jeq cv404
5588 C934 04C0  14 	clr r0
5589 C936 1001  14 	jmp $+4
5590               cv404
5591 C938 0700  14 	seto r0
5592 C93A 064A  14 	dect r10
5593 C93C C680  30 	mov r0,*r10
5594 C93E D020  34 	movb @cvb_BTR,r0
     C940 2094     
5595 C942 0201  20 	li r1,1536   ; 6*256
     C944 0600     
5596 C946 9001  18 	cb r1,r0
5597 C948 1302  14 	jeq cv405
5598 C94A 04C0  14 	clr r0
5599 C94C 1001  14 	jmp $+4
5600               cv405
5601 C94E 0700  14 	seto r0
5602 C950 C07A  30 	mov *r10+,r1
5603 C952 F001  18 	socb r1,r0
5604 C954 C07A  30 	mov *r10+,r1
5605 C956 F001  18 	socb r1,r0
5606 C958 1602  14 	jne cv406
5607 C95A 0460  28 	b @cv402
     C95C C962     
5608               cv406
5609 C95E C03A  30 	mov *r10+,r0
5610 C960 0450  20 	b *r0
5611               cv402
5612               cv400
5613               	; 	IF btc < 8 THEN IF (btr = 6) OR (btr = 28) OR (btr = 35) THEN IF obx(i) > 160 THEN IF obx(i) < 216 THEN IF oby(i) < 64 THEN RETURN
5614 C962 D020  34 	movb @cvb_BTC,r0
     C964 2092     
5615 C966 0201  20 	li r1,2048   ; 8*256
     C968 0800     
5616 C96A 9040  18 	cb r0,r1
5617 C96C 1A02  14 	jl cv408
5618 C96E 0460  28 	b @cv407
     C970 CA0A     
5619               cv408
5620 C972 D020  34 	movb @cvb_BTR,r0
     C974 2094     
5621 C976 0201  20 	li r1,8960   ; 35*256
     C978 2300     
5622 C97A 9001  18 	cb r1,r0
5623 C97C 1302  14 	jeq cv410
5624 C97E 04C0  14 	clr r0
5625 C980 1001  14 	jmp $+4
5626               cv410
5627 C982 0700  14 	seto r0
5628 C984 064A  14 	dect r10
5629 C986 C680  30 	mov r0,*r10
5630 C988 D020  34 	movb @cvb_BTR,r0
     C98A 2094     
5631 C98C 0201  20 	li r1,7168   ; 28*256
     C98E 1C00     
5632 C990 9001  18 	cb r1,r0
5633 C992 1302  14 	jeq cv411
5634 C994 04C0  14 	clr r0
5635 C996 1001  14 	jmp $+4
5636               cv411
5637 C998 0700  14 	seto r0
5638 C99A 064A  14 	dect r10
5639 C99C C680  30 	mov r0,*r10
5640 C99E D020  34 	movb @cvb_BTR,r0
     C9A0 2094     
5641 C9A2 0201  20 	li r1,1536   ; 6*256
     C9A4 0600     
5642 C9A6 9001  18 	cb r1,r0
5643 C9A8 1302  14 	jeq cv412
5644 C9AA 04C0  14 	clr r0
5645 C9AC 1001  14 	jmp $+4
5646               cv412
5647 C9AE 0700  14 	seto r0
5648 C9B0 C07A  30 	mov *r10+,r1
5649 C9B2 F001  18 	socb r1,r0
5650 C9B4 C07A  30 	mov *r10+,r1
5651 C9B6 F001  18 	socb r1,r0
5652 C9B8 1602  14 	jne cv413
5653 C9BA 0460  28 	b @cv409
     C9BC CA0A     
5654               cv413
5655 C9BE D020  34 	movb @cvb_I,r0
     C9C0 2086     
5656 C9C2 0980  32 	srl r0,8
5657 C9C4 0220  22 	ai r0,array_OBX
     C9C6 210A     
5658 C9C8 D010  26 	movb *r0,r0
5659 C9CA 0201  20 	li r1,41216   ; 161*256
     C9CC A100     
5660 C9CE 9040  18 	cb r0,r1
5661 C9D0 1402  14 	jhe cv415
5662 C9D2 0460  28 	b @cv414
     C9D4 CA0A     
5663               cv415
5664 C9D6 D020  34 	movb @cvb_I,r0
     C9D8 2086     
5665 C9DA 0980  32 	srl r0,8
5666 C9DC 0220  22 	ai r0,array_OBX
     C9DE 210A     
5667 C9E0 D010  26 	movb *r0,r0
5668 C9E2 0201  20 	li r1,55296   ; 216*256
     C9E4 D800     
5669 C9E6 9040  18 	cb r0,r1
5670 C9E8 1A02  14 	jl cv417
5671 C9EA 0460  28 	b @cv416
     C9EC CA0A     
5672               cv417
5673 C9EE D020  34 	movb @cvb_I,r0
     C9F0 2086     
5674 C9F2 0980  32 	srl r0,8
5675 C9F4 0220  22 	ai r0,array_OBY
     C9F6 2112     
5676 C9F8 D010  26 	movb *r0,r0
5677 C9FA 0201  20 	li r1,16384   ; 64*256
     C9FC 4000     
5678 C9FE 9040  18 	cb r0,r1
5679 CA00 1A02  14 	jl cv419
5680 CA02 0460  28 	b @cv418
     CA04 CA0A     
5681               cv419
5682 CA06 C03A  30 	mov *r10+,r0
5683 CA08 0450  20 	b *r0
5684               cv418
5685               cv416
5686               cv414
5687               cv409
5688               cv407
5689               	; 	' steal it out of the player's hands if need be
5690               	; 	IF i = cr THEN cr = 255 : pkcd = 10
5691 CA0A D020  34 	movb @cvb_I,r0
     CA0C 2086     
5692 CA0E 9020  34 	cb @cvb_CR,r0
     CA10 20C5     
5693 CA12 1302  14 	jeq cv421
5694 CA14 0460  28 	b @cv420
     CA16 CA28     
5695               cv421
5696 CA18 0200  20 	li r0,65280   ; 255*256
     CA1A FF00     
5697 CA1C D800  38 	movb r0,@cvb_CR
     CA1E 20C5     
5698 CA20 0200  20 	li r0,2560   ; 10*256
     CA22 0A00     
5699 CA24 D800  38 	movb r0,@cvb_PKCD
     CA26 20A4     
5700               cv420
5701               	; 	t = btc : btc = i
5702 CA28 D820  54 	movb @cvb_BTC,@cvb_T
     CA2A 2092     
     CA2C 208B     
5703 CA2E D820  54 	movb @cvb_I,@cvb_BTC
     CA30 2086     
     CA32 2092     
5704               	; 	IF t < 8 THEN orm(t) = btr : obx(t) = obx(i) : oby(t) = oby(i)
5705 CA34 D020  34 	movb @cvb_T,r0
     CA36 208B     
5706 CA38 0201  20 	li r1,2048   ; 8*256
     CA3A 0800     
5707 CA3C 9040  18 	cb r0,r1
5708 CA3E 1A02  14 	jl cv423
5709 CA40 0460  28 	b @cv422
     CA42 CA84     
5710               cv423
5711 CA44 D060  34 	movb @cvb_BTR,r1
     CA46 2094     
5712 CA48 D020  34 	movb @cvb_T,r0
     CA4A 208B     
5713 CA4C 0980  32 	srl r0,8
5714 CA4E 0220  22 	ai r0,array_ORM
     CA50 211E     
5715 CA52 D401  30 	movb r1,*r0
5716 CA54 D020  34 	movb @cvb_I,r0
     CA56 2086     
5717 CA58 0980  32 	srl r0,8
5718 CA5A 0220  22 	ai r0,array_OBX
     CA5C 210A     
5719 CA5E D050  26 	movb *r0,r1
5720 CA60 D020  34 	movb @cvb_T,r0
     CA62 208B     
5721 CA64 0980  32 	srl r0,8
5722 CA66 0220  22 	ai r0,array_OBX
     CA68 210A     
5723 CA6A D401  30 	movb r1,*r0
5724 CA6C D020  34 	movb @cvb_I,r0
     CA6E 2086     
5725 CA70 0980  32 	srl r0,8
5726 CA72 0220  22 	ai r0,array_OBY
     CA74 2112     
5727 CA76 D050  26 	movb *r0,r1
5728 CA78 D020  34 	movb @cvb_T,r0
     CA7A 208B     
5729 CA7C 0980  32 	srl r0,8
5730 CA7E 0220  22 	ai r0,array_OBY
     CA80 2112     
5731 CA82 D401  30 	movb r1,*r0
5732               cv422
5733               	; 	btcd = 150 : sfx = 6 : sfc = 10
5734 CA84 0200  20 	li r0,38400   ; 150*256
     CA86 9600     
5735 CA88 D800  38 	movb r0,@cvb_BTCD
     CA8A 20B6     
5736 CA8C 0200  20 	li r0,1536   ; 6*256
     CA8E 0600     
5737 CA90 D800  38 	movb r0,@cvb_SFX
     CA92 20D7     
5738 CA94 0200  20 	li r0,2560   ; 10*256
     CA96 0A00     
5739 CA98 D800  38 	movb r0,@cvb_SFC
     CA9A 20CF     
5740               	; 	END
5741 CA9C C03A  30 	mov *r10+,r0
5742 CA9E 0450  20 	b *r0
5743               	;
5744               	; 	' ------------------------------------------------------------
5745               	; 	' dragon: greedy chase (prefer the longer axis, slide on the
5746               	; 	' other), sword check, then bite check. Fast flag (dsp=1)
5747               	; 	' marks the red dragon. Shown 32x32; wall box = central 8x16.
5748               	; 	' ------------------------------------------------------------
5749               	; dragondo: PROCEDURE
5750               	even
5751               cvb_DRAGONDO
5752               	; 	IF dst(d) = 1 THEN RETURN
5753 CAA0 D020  34 	movb @cvb_D,r0
     CAA2 2083     
5754 CAA4 0980  32 	srl r0,8
5755 CAA6 0220  22 	ai r0,array_DST
     CAA8 20FE     
5756 CAAA D010  26 	movb *r0,r0
5757 CAAC 0201  20 	li r1,256   ; 1*256
     CAAE 0100     
5758 CAB0 9001  18 	cb r1,r0
5759 CAB2 1302  14 	jeq cv425
5760 CAB4 0460  28 	b @cv424
     CAB6 CABC     
5761               cv425
5762 CAB8 C03A  30 	mov *r10+,r0
5763 CABA 0450  20 	b *r0
5764               cv424
5765               	; 	tpx = px : IF tpx > 12 THEN tpx = tpx - 12
5766 CABC D820  54 	movb @cvb_PX,@cvb_TPX
     CABE 20D4     
     CAC0 208C     
5767 CAC2 D020  34 	movb @cvb_TPX,r0
     CAC4 208C     
5768 CAC6 0201  20 	li r1,3328   ; 13*256
     CAC8 0D00     
5769 CACA 9040  18 	cb r0,r1
5770 CACC 1402  14 	jhe cv427
5771 CACE 0460  28 	b @cv426
     CAD0 CADE     
5772               cv427
5773 CAD2 D020  34 	movb @cvb_TPX,r0
     CAD4 208C     
5774 CAD6 0220  22 	ai r0,62464	; -12
     CAD8 F400     
5775 CADA D800  38 	movb r0,@cvb_TPX
     CADC 208C     
5776               cv426
5777               	; 	tpy = py : IF tpy > 12 THEN tpy = tpy - 12
5778 CADE D820  54 	movb @cvb_PY,@cvb_TPY
     CAE0 20D5     
     CAE2 208D     
5779 CAE4 D020  34 	movb @cvb_TPY,r0
     CAE6 208D     
5780 CAE8 0201  20 	li r1,3328   ; 13*256
     CAEA 0D00     
5781 CAEC 9040  18 	cb r0,r1
5782 CAEE 1402  14 	jhe cv429
5783 CAF0 0460  28 	b @cv428
     CAF2 CB00     
5784               cv429
5785 CAF4 D020  34 	movb @cvb_TPY,r0
     CAF6 208D     
5786 CAF8 0220  22 	ai r0,62464	; -12
     CAFA F400     
5787 CAFC D800  38 	movb r0,@cvb_TPY
     CAFE 208D     
5788               cv428
5789               	; 	ds = 2 + (tk AND 1)
5790 CB00 D020  34 	movb @cvb_TK,r0
     CB02 20DB     
5791 CB04 0201  20 	li r1,256   ; 1*256
     CB06 0100     
5792 CB08 0541  14 	inv r1
5793 CB0A 5001  18 	szcb r1,r0
5794 CB0C 0220  22 	ai r0,512	; 2
     CB0E 0200     
5795 CB10 D800  38 	movb r0,@cvb_DS
     CB12 20C8     
5796               	; 	IF dsp(d) = 1 THEN ds = 3
5797 CB14 D020  34 	movb @cvb_D,r0
     CB16 2083     
5798 CB18 0980  32 	srl r0,8
5799 CB1A 0220  22 	ai r0,array_DSP
     CB1C 20FA     
5800 CB1E D010  26 	movb *r0,r0
5801 CB20 0201  20 	li r1,256   ; 1*256
     CB22 0100     
5802 CB24 9001  18 	cb r1,r0
5803 CB26 1302  14 	jeq cv431
5804 CB28 0460  28 	b @cv430
     CB2A CB34     
5805               cv431
5806 CB2C 0200  20 	li r0,768   ; 3*256
     CB2E 0300     
5807 CB30 D800  38 	movb r0,@cvb_DS
     CB32 20C8     
5808               cv430
5809               	; 	#ax = ddx(d) : #bx = tpx
5810 CB34 D020  34 	movb @cvb_D,r0
     CB36 2083     
5811 CB38 0980  32 	srl r0,8
5812 CB3A 0220  22 	ai r0,array_DDX
     CB3C 20E6     
5813 CB3E D010  26 	movb *r0,r0
5814 CB40 0980  32 	srl r0,8
5815 CB42 C800  38 	mov r0,@cvb__AX
     CB44 20B0     
5816 CB46 D020  34 	movb @cvb_TPX,r0
     CB48 208C     
5817 CB4A 0980  32 	srl r0,8
5818 CB4C C800  38 	mov r0,@cvb__BX
     CB4E 20B2     
5819               	; 	GOSUB adiff
5820 CB50 06A0  32 	bl @jsr
     CB52 A974     
5821 CB54 C180     	data cvb_ADIFF
5822               	; 	#dx = #cx
5823 CB56 C820  54 	mov @cvb__CX,@cvb__DX
     CB58 20B4     
     CB5A 20B8     
5824               	; 	#ax = ddy(d) : #bx = tpy
5825 CB5C D020  34 	movb @cvb_D,r0
     CB5E 2083     
5826 CB60 0980  32 	srl r0,8
5827 CB62 0220  22 	ai r0,array_DDY
     CB64 20EA     
5828 CB66 D010  26 	movb *r0,r0
5829 CB68 0980  32 	srl r0,8
5830 CB6A C800  38 	mov r0,@cvb__AX
     CB6C 20B0     
5831 CB6E D020  34 	movb @cvb_TPY,r0
     CB70 208D     
5832 CB72 0980  32 	srl r0,8
5833 CB74 C800  38 	mov r0,@cvb__BX
     CB76 20B2     
5834               	; 	GOSUB adiff
5835 CB78 06A0  32 	bl @jsr
     CB7A A974     
5836 CB7C C180     	data cvb_ADIFF
5837               	; 	m = 0
5838 CB7E 04C0  14 	clr r0
5839 CB80 D800  38 	movb r0,@cvb_M
     CB82 2087     
5840               	; 	IF #dx >= #cx THEN GOSUB dmovx ELSE GOSUB dmovy
5841 CB84 C020  34 	mov @cvb__DX,r0
     CB86 20B8     
5842 CB88 8800  34 	c r0,@cvb__CX
     CB8A 20B4     
5843 CB8C 1402  14 	jhe cv433
5844 CB8E 0460  28 	b @cv432
     CB90 CB9C     
5845               cv433
5846 CB92 06A0  32 	bl @jsr
     CB94 A974     
5847 CB96 CC78     	data cvb_DMOVX
5848 CB98 0460  28 	b @cv434
     CB9A CBA2     
5849               cv432
5850 CB9C 06A0  32 	bl @jsr
     CB9E A974     
5851 CBA0 CD18     	data cvb_DMOVY
5852               cv434
5853               	; 	IF m = 0 THEN IF #dx >= #cx THEN GOSUB dmovy ELSE GOSUB dmovx
5854 CBA2 D020  34 	movb @cvb_M,r0
     CBA4 2087     
5855 CBA6 1302  14 	jeq cv436
5856 CBA8 0460  28 	b @cv435
     CBAA CBCA     
5857               cv436
5858 CBAC C020  34 	mov @cvb__DX,r0
     CBAE 20B8     
5859 CBB0 8800  34 	c r0,@cvb__CX
     CBB2 20B4     
5860 CBB4 1402  14 	jhe cv438
5861 CBB6 0460  28 	b @cv437
     CBB8 CBC4     
5862               cv438
5863 CBBA 06A0  32 	bl @jsr
     CBBC A974     
5864 CBBE CD18     	data cvb_DMOVY
5865 CBC0 0460  28 	b @cv439
     CBC2 CBCA     
5866               cv437
5867 CBC4 06A0  32 	bl @jsr
     CBC6 A974     
5868 CBC8 CC78     	data cvb_DMOVX
5869               cv439
5870               cv435
5871               	; 	GOSUB swordchk
5872 CBCA 06A0  32 	bl @jsr
     CBCC A974     
5873 CBCE CE52     	data cvb_SWORDCHK
5874               	; 	IF dst(d) = 1 THEN RETURN
5875 CBD0 D020  34 	movb @cvb_D,r0
     CBD2 2083     
5876 CBD4 0980  32 	srl r0,8
5877 CBD6 0220  22 	ai r0,array_DST
     CBD8 20FE     
5878 CBDA D010  26 	movb *r0,r0
5879 CBDC 0201  20 	li r1,256   ; 1*256
     CBDE 0100     
5880 CBE0 9001  18 	cb r1,r0
5881 CBE2 1302  14 	jeq cv441
5882 CBE4 0460  28 	b @cv440
     CBE6 CBEC     
5883               cv441
5884 CBE8 C03A  30 	mov *r10+,r0
5885 CBEA 0450  20 	b *r0
5886               cv440
5887               	; 	' bite: dragon centre (32x64 shown) vs player centre
5888               	; 	#ax = ddx(d) + 16 : #bx = px + 4
5889 CBEC D020  34 	movb @cvb_D,r0
     CBEE 2083     
5890 CBF0 0980  32 	srl r0,8
5891 CBF2 0220  22 	ai r0,array_DDX
     CBF4 20E6     
5892 CBF6 D010  26 	movb *r0,r0
5893 CBF8 0980  32 	srl r0,8
5894 CBFA 0220  22 	ai r0,16
     CBFC 0010     
5895 CBFE C800  38 	mov r0,@cvb__AX
     CC00 20B0     
5896 CC02 D020  34 	movb @cvb_PX,r0
     CC04 20D4     
5897 CC06 0980  32 	srl r0,8
5898 CC08 0220  22 	ai r0,4
     CC0A 0004     
5899 CC0C C800  38 	mov r0,@cvb__BX
     CC0E 20B2     
5900               	; 	GOSUB adiff
5901 CC10 06A0  32 	bl @jsr
     CC12 A974     
5902 CC14 C180     	data cvb_ADIFF
5903               	; 	IF #cx > 14 THEN RETURN
5904 CC16 C020  34 	mov @cvb__CX,r0
     CC18 20B4     
5905 CC1A 0201  20 	li r1,15
     CC1C 000F     
5906 CC1E 8040  18 	c r0,r1
5907 CC20 1402  14 	jhe cv443
5908 CC22 0460  28 	b @cv442
     CC24 CC2A     
5909               cv443
5910 CC26 C03A  30 	mov *r10+,r0
5911 CC28 0450  20 	b *r0
5912               cv442
5913               	; 	#ax = ddy(d) + 32 : #bx = py + 4
5914 CC2A D020  34 	movb @cvb_D,r0
     CC2C 2083     
5915 CC2E 0980  32 	srl r0,8
5916 CC30 0220  22 	ai r0,array_DDY
     CC32 20EA     
5917 CC34 D010  26 	movb *r0,r0
5918 CC36 0980  32 	srl r0,8
5919 CC38 0220  22 	ai r0,32
     CC3A 0020     
5920 CC3C C800  38 	mov r0,@cvb__AX
     CC3E 20B0     
5921 CC40 D020  34 	movb @cvb_PY,r0
     CC42 20D5     
5922 CC44 0980  32 	srl r0,8
5923 CC46 0220  22 	ai r0,4
     CC48 0004     
5924 CC4A C800  38 	mov r0,@cvb__BX
     CC4C 20B2     
5925               	; 	GOSUB adiff
5926 CC4E 06A0  32 	bl @jsr
     CC50 A974     
5927 CC52 C180     	data cvb_ADIFF
5928               	; 	IF #cx > 24 THEN RETURN
5929 CC54 C020  34 	mov @cvb__CX,r0
     CC56 20B4     
5930 CC58 0201  20 	li r1,25
     CC5A 0019     
5931 CC5C 8040  18 	c r0,r1
5932 CC5E 1402  14 	jhe cv445
5933 CC60 0460  28 	b @cv444
     CC62 CC68     
5934               cv445
5935 CC64 C03A  30 	mov *r10+,r0
5936 CC66 0450  20 	b *r0
5937               cv444
5938               	; 	eflag = d + 1
5939 CC68 D020  34 	movb @cvb_D,r0
     CC6A 2083     
5940 CC6C 0220  22 	ai r0,256	; 1
     CC6E 0100     
5941 CC70 D800  38 	movb r0,@cvb_EFLAG
     CC72 209F     
5942               	; 	END
5943 CC74 C03A  30 	mov *r10+,r0
5944 CC76 0450  20 	b *r0
5945               	;
5946               	; 	' dragons glide OVER walls, like the cartridge's - the maze
5947               	; 	' never protects you, only the sword does
5948               	; dmovx: PROCEDURE
5949               	even
5950               cvb_DMOVX
5951               	; 	IF ddx(d) = tpx THEN RETURN
5952 CC78 D020  34 	movb @cvb_D,r0
     CC7A 2083     
5953 CC7C 0980  32 	srl r0,8
5954 CC7E 0220  22 	ai r0,array_DDX
     CC80 20E6     
5955 CC82 D010  26 	movb *r0,r0
5956 CC84 9020  34 	cb @cvb_TPX,r0
     CC86 208C     
5957 CC88 1302  14 	jeq cv447
5958 CC8A 0460  28 	b @cv446
     CC8C CC92     
5959               cv447
5960 CC8E C03A  30 	mov *r10+,r0
5961 CC90 0450  20 	b *r0
5962               cv446
5963               	; 	IF tpx > ddx(d) THEN t = ddx(d) + ds ELSE t = ddx(d) - ds
5964 CC92 D020  34 	movb @cvb_D,r0
     CC94 2083     
5965 CC96 0980  32 	srl r0,8
5966 CC98 0220  22 	ai r0,array_DDX
     CC9A 20E6     
5967 CC9C D010  26 	movb *r0,r0
5968 CC9E 9800  34 	cb r0,@cvb_TPX
     CCA0 208C     
5969 CCA2 1A02  14 	jl cv449
5970 CCA4 0460  28 	b @cv448
     CCA6 CCC0     
5971               cv449
5972 CCA8 D020  34 	movb @cvb_D,r0
     CCAA 2083     
5973 CCAC 0980  32 	srl r0,8
5974 CCAE 0220  22 	ai r0,array_DDX
     CCB0 20E6     
5975 CCB2 D010  26 	movb *r0,r0
5976 CCB4 B020  34 	ab @cvb_DS,r0
     CCB6 20C8     
5977 CCB8 D800  38 	movb r0,@cvb_T
     CCBA 208B     
5978 CCBC 0460  28 	b @cv450
     CCBE CCD4     
5979               cv448
5980 CCC0 D020  34 	movb @cvb_D,r0
     CCC2 2083     
5981 CCC4 0980  32 	srl r0,8
5982 CCC6 0220  22 	ai r0,array_DDX
     CCC8 20E6     
5983 CCCA D010  26 	movb *r0,r0
5984 CCCC 7020  34 	sb @cvb_DS,r0
     CCCE 20C8     
5985 CCD0 D800  38 	movb r0,@cvb_T
     CCD2 208B     
5986               cv450
5987               	; 	IF t < 4 THEN RETURN
5988 CCD4 D020  34 	movb @cvb_T,r0
     CCD6 208B     
5989 CCD8 0201  20 	li r1,1024   ; 4*256
     CCDA 0400     
5990 CCDC 9040  18 	cb r0,r1
5991 CCDE 1A02  14 	jl cv452
5992 CCE0 0460  28 	b @cv451
     CCE2 CCE8     
5993               cv452
5994 CCE4 C03A  30 	mov *r10+,r0
5995 CCE6 0450  20 	b *r0
5996               cv451
5997               	; 	IF t > 220 THEN RETURN
5998 CCE8 D020  34 	movb @cvb_T,r0
     CCEA 208B     
5999 CCEC 0201  20 	li r1,56576   ; 221*256
     CCEE DD00     
6000 CCF0 9040  18 	cb r0,r1
6001 CCF2 1402  14 	jhe cv454
6002 CCF4 0460  28 	b @cv453
     CCF6 CCFC     
6003               cv454
6004 CCF8 C03A  30 	mov *r10+,r0
6005 CCFA 0450  20 	b *r0
6006               cv453
6007               	; 	ddx(d) = t : m = 1
6008 CCFC D060  34 	movb @cvb_T,r1
     CCFE 208B     
6009 CD00 D020  34 	movb @cvb_D,r0
     CD02 2083     
6010 CD04 0980  32 	srl r0,8
6011 CD06 0220  22 	ai r0,array_DDX
     CD08 20E6     
6012 CD0A D401  30 	movb r1,*r0
6013 CD0C 0200  20 	li r0,256   ; 1*256
     CD0E 0100     
6014 CD10 D800  38 	movb r0,@cvb_M
     CD12 2087     
6015               	; 	END
6016 CD14 C03A  30 	mov *r10+,r0
6017 CD16 0450  20 	b *r0
6018               	;
6019               	; dmovy: PROCEDURE
6020               	even
6021               cvb_DMOVY
6022               	; 	IF ddy(d) = tpy THEN RETURN
6023 CD18 D020  34 	movb @cvb_D,r0
     CD1A 2083     
6024 CD1C 0980  32 	srl r0,8
6025 CD1E 0220  22 	ai r0,array_DDY
     CD20 20EA     
6026 CD22 D010  26 	movb *r0,r0
6027 CD24 9020  34 	cb @cvb_TPY,r0
     CD26 208D     
6028 CD28 1302  14 	jeq cv456
6029 CD2A 0460  28 	b @cv455
     CD2C CD32     
6030               cv456
6031 CD2E C03A  30 	mov *r10+,r0
6032 CD30 0450  20 	b *r0
6033               cv455
6034               	; 	IF tpy > ddy(d) THEN t = ddy(d) + ds ELSE t = ddy(d) - ds
6035 CD32 D020  34 	movb @cvb_D,r0
     CD34 2083     
6036 CD36 0980  32 	srl r0,8
6037 CD38 0220  22 	ai r0,array_DDY
     CD3A 20EA     
6038 CD3C D010  26 	movb *r0,r0
6039 CD3E 9800  34 	cb r0,@cvb_TPY
     CD40 208D     
6040 CD42 1A02  14 	jl cv458
6041 CD44 0460  28 	b @cv457
     CD46 CD60     
6042               cv458
6043 CD48 D020  34 	movb @cvb_D,r0
     CD4A 2083     
6044 CD4C 0980  32 	srl r0,8
6045 CD4E 0220  22 	ai r0,array_DDY
     CD50 20EA     
6046 CD52 D010  26 	movb *r0,r0
6047 CD54 B020  34 	ab @cvb_DS,r0
     CD56 20C8     
6048 CD58 D800  38 	movb r0,@cvb_T
     CD5A 208B     
6049 CD5C 0460  28 	b @cv459
     CD5E CD74     
6050               cv457
6051 CD60 D020  34 	movb @cvb_D,r0
     CD62 2083     
6052 CD64 0980  32 	srl r0,8
6053 CD66 0220  22 	ai r0,array_DDY
     CD68 20EA     
6054 CD6A D010  26 	movb *r0,r0
6055 CD6C 7020  34 	sb @cvb_DS,r0
     CD6E 20C8     
6056 CD70 D800  38 	movb r0,@cvb_T
     CD72 208B     
6057               cv459
6058               	; 	IF t < 4 THEN RETURN
6059 CD74 D020  34 	movb @cvb_T,r0
     CD76 208B     
6060 CD78 0201  20 	li r1,1024   ; 4*256
     CD7A 0400     
6061 CD7C 9040  18 	cb r0,r1
6062 CD7E 1A02  14 	jl cv461
6063 CD80 0460  28 	b @cv460
     CD82 CD88     
6064               cv461
6065 CD84 C03A  30 	mov *r10+,r0
6066 CD86 0450  20 	b *r0
6067               cv460
6068               	; 	IF t > 124 THEN RETURN
6069 CD88 D020  34 	movb @cvb_T,r0
     CD8A 208B     
6070 CD8C 0201  20 	li r1,32000   ; 125*256
     CD8E 7D00     
6071 CD90 9040  18 	cb r0,r1
6072 CD92 1402  14 	jhe cv463
6073 CD94 0460  28 	b @cv462
     CD96 CD9C     
6074               cv463
6075 CD98 C03A  30 	mov *r10+,r0
6076 CD9A 0450  20 	b *r0
6077               cv462
6078               	; 	ddy(d) = t : m = 1
6079 CD9C D060  34 	movb @cvb_T,r1
     CD9E 208B     
6080 CDA0 D020  34 	movb @cvb_D,r0
     CDA2 2083     
6081 CDA4 0980  32 	srl r0,8
6082 CDA6 0220  22 	ai r0,array_DDY
     CDA8 20EA     
6083 CDAA D401  30 	movb r1,*r0
6084 CDAC 0200  20 	li r0,256   ; 1*256
     CDAE 0100     
6085 CDB0 D800  38 	movb r0,@cvb_M
     CDB2 2087     
6086               	; 	END
6087 CDB4 C03A  30 	mov *r10+,r0
6088 CDB6 0450  20 	b *r0
6089               	;
6090               	; 	' a live dragon left behind bursts into your room a beat later
6091               	; dfollow: PROCEDURE
6092               	even
6093               cvb_DFOLLOW
6094               	; 	fdl(d) = fdl(d) - 1
6095 CDB8 D020  34 	movb @cvb_D,r0
     CDBA 2083     
6096 CDBC 0980  32 	srl r0,8
6097 CDBE 0220  22 	ai r0,array_FDL
     CDC0 211A     
6098 CDC2 D010  26 	movb *r0,r0
6099 CDC4 0220  22 	ai r0,65280	; -1
     CDC6 FF00     
6100 CDC8 C040  18 	mov r0,r1
6101 CDCA D020  34 	movb @cvb_D,r0
     CDCC 2083     
6102 CDCE 0980  32 	srl r0,8
6103 CDD0 0220  22 	ai r0,array_FDL
     CDD2 211A     
6104 CDD4 D401  30 	movb r1,*r0
6105               	; 	IF fdl(d) > 0 THEN RETURN
6106 CDD6 D020  34 	movb @cvb_D,r0
     CDD8 2083     
6107 CDDA 0980  32 	srl r0,8
6108 CDDC 0220  22 	ai r0,array_FDL
     CDDE 211A     
6109 CDE0 D010  26 	movb *r0,r0
6110 CDE2 0201  20 	li r1,256   ; 1*256
     CDE4 0100     
6111 CDE6 9040  18 	cb r0,r1
6112 CDE8 1402  14 	jhe cv465
6113 CDEA 0460  28 	b @cv464
     CDEC CDF2     
6114               cv465
6115 CDEE C03A  30 	mov *r10+,r0
6116 CDF0 0450  20 	b *r0
6117               cv464
6118               	; 	IF dst(d) = 1 THEN RETURN
6119 CDF2 D020  34 	movb @cvb_D,r0
     CDF4 2083     
6120 CDF6 0980  32 	srl r0,8
6121 CDF8 0220  22 	ai r0,array_DST
     CDFA 20FE     
6122 CDFC D010  26 	movb *r0,r0
6123 CDFE 0201  20 	li r1,256   ; 1*256
     CE00 0100     
6124 CE02 9001  18 	cb r1,r0
6125 CE04 1302  14 	jeq cv467
6126 CE06 0460  28 	b @cv466
     CE08 CE0E     
6127               cv467
6128 CE0A C03A  30 	mov *r10+,r0
6129 CE0C 0450  20 	b *r0
6130               cv466
6131               	; 	drm(d) = rn : ddx(d) = 108 : ddy(d) = 64
6132 CE0E D060  34 	movb @cvb_RN,r1
     CE10 20D8     
6133 CE12 D020  34 	movb @cvb_D,r0
     CE14 2083     
6134 CE16 0980  32 	srl r0,8
6135 CE18 0220  22 	ai r0,array_DRM
     CE1A 20F6     
6136 CE1C D401  30 	movb r1,*r0
6137 CE1E 0201  20 	li r1,27648
     CE20 6C00     
6138 CE22 D020  34 	movb @cvb_D,r0
     CE24 2083     
6139 CE26 0980  32 	srl r0,8
6140 CE28 0220  22 	ai r0,array_DDX
     CE2A 20E6     
6141 CE2C D401  30 	movb r1,*r0
6142 CE2E 0201  20 	li r1,16384
     CE30 4000     
6143 CE32 D020  34 	movb @cvb_D,r0
     CE34 2083     
6144 CE36 0980  32 	srl r0,8
6145 CE38 0220  22 	ai r0,array_DDY
     CE3A 20EA     
6146 CE3C D401  30 	movb r1,*r0
6147               	; 	sfx = 5 : sfc = 20
6148 CE3E 0200  20 	li r0,1280   ; 5*256
     CE40 0500     
6149 CE42 D800  38 	movb r0,@cvb_SFX
     CE44 20D7     
6150 CE46 0200  20 	li r0,5120   ; 20*256
     CE48 1400     
6151 CE4A D800  38 	movb r0,@cvb_SFC
     CE4C 20CF     
6152               	; 	END
6153 CE4E C03A  30 	mov *r10+,r0
6154 CE50 0450  20 	b *r0
6155               	;
6156               	; swordchk: PROCEDURE
6157               	even
6158               cvb_SWORDCHK
6159               	; 	' the sword (object 3) slays on contact, carried OR lying
6160               	; 	IF orm(3) <> drm(d) THEN RETURN
6161 CE52 D020  34 	movb @cvb_D,r0
     CE54 2083     
6162 CE56 0980  32 	srl r0,8
6163 CE58 0220  22 	ai r0,array_DRM
     CE5A 20F6     
6164 CE5C D050  26 	movb *r0,r1
6165 CE5E D020  34 	movb @array_ORM+3,r0
     CE60 2121     
6166 CE62 9001  18 	cb r1,r0
6167 CE64 1602  14 	jne cv469
6168 CE66 0460  28 	b @cv468
     CE68 CE6E     
6169               cv469
6170 CE6A C03A  30 	mov *r10+,r0
6171 CE6C 0450  20 	b *r0
6172               cv468
6173               	; 	#ax = obx(3) + 12 : #bx = ddx(d) + 16
6174 CE6E D020  34 	movb @array_OBX+3,r0
     CE70 210D     
6175 CE72 0980  32 	srl r0,8
6176 CE74 0220  22 	ai r0,12
     CE76 000C     
6177 CE78 C800  38 	mov r0,@cvb__AX
     CE7A 20B0     
6178 CE7C D020  34 	movb @cvb_D,r0
     CE7E 2083     
6179 CE80 0980  32 	srl r0,8
6180 CE82 0220  22 	ai r0,array_DDX
     CE84 20E6     
6181 CE86 D010  26 	movb *r0,r0
6182 CE88 0980  32 	srl r0,8
6183 CE8A 0220  22 	ai r0,16
     CE8C 0010     
6184 CE8E C800  38 	mov r0,@cvb__BX
     CE90 20B2     
6185               	; 	GOSUB adiff
6186 CE92 06A0  32 	bl @jsr
     CE94 A974     
6187 CE96 C180     	data cvb_ADIFF
6188               	; 	IF #cx > 17 THEN RETURN
6189 CE98 C020  34 	mov @cvb__CX,r0
     CE9A 20B4     
6190 CE9C 0201  20 	li r1,18
     CE9E 0012     
6191 CEA0 8040  18 	c r0,r1
6192 CEA2 1402  14 	jhe cv471
6193 CEA4 0460  28 	b @cv470
     CEA6 CEAC     
6194               cv471
6195 CEA8 C03A  30 	mov *r10+,r0
6196 CEAA 0450  20 	b *r0
6197               cv470
6198               	; 	#ax = oby(3) + 7 : #bx = ddy(d) + 32
6199 CEAC D020  34 	movb @array_OBY+3,r0
     CEAE 2115     
6200 CEB0 0980  32 	srl r0,8
6201 CEB2 0220  22 	ai r0,7
     CEB4 0007     
6202 CEB6 C800  38 	mov r0,@cvb__AX
     CEB8 20B0     
6203 CEBA D020  34 	movb @cvb_D,r0
     CEBC 2083     
6204 CEBE 0980  32 	srl r0,8
6205 CEC0 0220  22 	ai r0,array_DDY
     CEC2 20EA     
6206 CEC4 D010  26 	movb *r0,r0
6207 CEC6 0980  32 	srl r0,8
6208 CEC8 0220  22 	ai r0,32
     CECA 0020     
6209 CECC C800  38 	mov r0,@cvb__BX
     CECE 20B2     
6210               	; 	GOSUB adiff
6211 CED0 06A0  32 	bl @jsr
     CED2 A974     
6212 CED4 C180     	data cvb_ADIFF
6213               	; 	IF #cx > 26 THEN RETURN
6214 CED6 C020  34 	mov @cvb__CX,r0
     CED8 20B4     
6215 CEDA 0201  20 	li r1,27
     CEDC 001B     
6216 CEDE 8040  18 	c r0,r1
6217 CEE0 1402  14 	jhe cv473
6218 CEE2 0460  28 	b @cv472
     CEE4 CEEA     
6219               cv473
6220 CEE6 C03A  30 	mov *r10+,r0
6221 CEE8 0450  20 	b *r0
6222               cv472
6223               	; 	dst(d) = 1 : sfx = 4 : sfc = 14
6224 CEEA 0201  20 	li r1,256
     CEEC 0100     
6225 CEEE D020  34 	movb @cvb_D,r0
     CEF0 2083     
6226 CEF2 0980  32 	srl r0,8
6227 CEF4 0220  22 	ai r0,array_DST
     CEF6 20FE     
6228 CEF8 D401  30 	movb r1,*r0
6229 CEFA 0200  20 	li r0,1024   ; 4*256
     CEFC 0400     
6230 CEFE D800  38 	movb r0,@cvb_SFX
     CF00 20D7     
6231 CF02 0200  20 	li r0,3584   ; 14*256
     CF04 0E00     
6232 CF06 D800  38 	movb r0,@cvb_SFC
     CF08 20CF     
6233               	; 	END
6234 CF0A C03A  30 	mov *r10+,r0
6235 CF0C 0450  20 	b *r0
6236               	;
6237               	; 	' ------------------------------------------------------------
6238               	; 	' swallowed: wail + player shown in the dragon's belly, then
6239               	; 	' FIRE returns to the caller (back to the title screen)
6240               	; 	' ------------------------------------------------------------
6241               	; eatenrt: PROCEDURE
6242               	even
6243               cvb_EATENRT
6244               	; 	e = eflag - 1 : eflag = 0
6245 CF0E D020  34 	movb @cvb_EFLAG,r0
     CF10 209F     
6246 CF12 0220  22 	ai r0,65280	; -1
     CF14 FF00     
6247 CF16 D800  38 	movb r0,@cvb_E
     CF18 2084     
6248 CF1A 04C0  14 	clr r0
6249 CF1C D800  38 	movb r0,@cvb_EFLAG
     CF1E 209F     
6250               	; 	sfx = 0 : SOUND 3, , 0
6251 CF20 04C0  14 	clr r0
6252 CF22 D800  38 	movb r0,@cvb_SFX
     CF24 20D7     
6253 CF26 04C0  14 	clr r0
6254 CF28 0202  20 	li r2,>f000
     CF2A F000     
6255 CF2C 06A0  32 	bl @jsr
     CF2E A974     
6256 CF30 A2D6     	data sn76489_vol
6257               	; 	FOR i = 1 TO 56
6258 CF32 0200  20 	li r0,256   ; 1*256
     CF34 0100     
6259 CF36 D800  38 	movb r0,@cvb_I
     CF38 2086     
6260               cv474
6261               	; 	WAIT
6262 CF3A 06A0  32 	bl @jsr
     CF3C A974     
6263 CF3E A64A     	data wait
6264               	; 	SOUND 0, 200 + i * 14, 13
6265 CF40 D020  34 	movb @cvb_I,r0
     CF42 2086     
6266 CF44 0980  32 	srl r0,8
6267 CF46 0201  20 	li r1,14
     CF48 000E     
6268 CF4A 3801  58 	mpy r1,r0
6269 CF4C C001  18 	mov r1,r0
6270 CF4E 0220  22 	ai r0,200
     CF50 00C8     
6271 CF52 0202  20 	li r2,>8000
     CF54 8000     
6272 CF56 06A0  32 	bl @jsr
     CF58 A974     
6273 CF5A A2BA     	data sn76489_freq
6274 CF5C 0200  20 	li r0,3328   ; 13*256
     CF5E 0D00     
6275 CF60 0202  20 	li r2,>9000
     CF62 9000     
6276 CF64 06A0  32 	bl @jsr
     CF66 A974     
6277 CF68 A2D6     	data sn76489_vol
6278               	; 	GOSUB eatflash
6279 CF6A 06A0  32 	bl @jsr
     CF6C A974     
6280 CF6E CFE6     	data cvb_EATFLASH
6281               	; 	NEXT i
6282 CF70 D020  34 	movb @cvb_I,r0
     CF72 2086     
6283 CF74 0220  22 	ai r0,256	; 1
     CF76 0100     
6284 CF78 D800  38 	movb r0,@cvb_I
     CF7A 2086     
6285 CF7C 0201  20 	li r1,14592   ; 57*256
     CF7E 3900     
6286 CF80 9040  18 	cb r0,r1
6287 CF82 1402  14 	jhe cv475
6288 CF84 0460  28 	b @cv474
     CF86 CF3A     
6289               cv475
6290               	; 	SOUND 0, , 0
6291 CF88 04C0  14 	clr r0
6292 CF8A 0202  20 	li r2,>9000
     CF8C 9000     
6293 CF8E 06A0  32 	bl @jsr
     CF90 A974     
6294 CF92 A2D6     	data sn76489_vol
6295               	; ewt1:	WAIT
6296               cvb_EWT1
6297 CF94 06A0  32 	bl @jsr
     CF96 A974     
6298 CF98 A64A     	data wait
6299               	; 	GOSUB eatflash
6300 CF9A 06A0  32 	bl @jsr
     CF9C A974     
6301 CF9E CFE6     	data cvb_EATFLASH
6302               	; 	IF cont1.button > 0 THEN GOTO ewt1
6303 CFA0 D020  30 	movb @joy1_data,r0
     CFA2 8346     
6304 CFA4 0201  20 	li r1,16384   ; 64*256
     CFA6 4000     
6305 CFA8 0541  14 	inv r1
6306 CFAA 5001  18 	szcb r1,r0
6307 CFAC 0201  20 	li r1,256   ; 1*256
     CFAE 0100     
6308 CFB0 9040  18 	cb r0,r1
6309 CFB2 1402  14 	jhe cv477
6310 CFB4 0460  28 	b @cv476
     CFB6 CFBC     
6311               cv477
6312 CFB8 0460  28 	b @cvb_EWT1
     CFBA CF94     
6313               cv476
6314               	; ewt2:	WAIT
6315               cvb_EWT2
6316 CFBC 06A0  32 	bl @jsr
     CFBE A974     
6317 CFC0 A64A     	data wait
6318               	; 	GOSUB eatflash
6319 CFC2 06A0  32 	bl @jsr
     CFC4 A974     
6320 CFC6 CFE6     	data cvb_EATFLASH
6321               	; 	IF cont1.button = 0 THEN GOTO ewt2
6322 CFC8 D020  30 	movb @joy1_data,r0
     CFCA 8346     
6323 CFCC 0201  20 	li r1,16384   ; 64*256
     CFCE 4000     
6324 CFD0 0541  14 	inv r1
6325 CFD2 5001  18 	szcb r1,r0
6326 CFD4 04C1  14 	clr r1
6327 CFD6 9001  18 	cb r1,r0
6328 CFD8 1302  14 	jeq cv479
6329 CFDA 0460  28 	b @cv478
     CFDC CFE2     
6330               cv479
6331 CFDE 0460  28 	b @cvb_EWT2
     CFE0 CFBC     
6332               cv478
6333               	; 	END
6334 CFE2 C03A  30 	mov *r10+,r0
6335 CFE4 0450  20 	b *r0
6336               	;
6337               	; 	' in the belly: flash black/white so the player is visible
6338               	; 	' whatever colour the dragon (or the room) happens to be
6339               	; eatflash: PROCEDURE
6340               	even
6341               cvb_EATFLASH
6342               	; 	t2 = 1
6343 CFE6 0200  20 	li r0,256   ; 1*256
     CFE8 0100     
6344 CFEA D800  38 	movb r0,@cvb_T2
     CFEC 20D6     
6345               	; 	IF (FRAME AND 8) > 0 THEN t2 = 15
6346 CFEE C020  30 	mov @frame,r0
     CFF0 834A     
6347 CFF2 0240  22 	andi r0,8
     CFF4 0008     
6348 CFF6 0201  20 	li r1,1
     CFF8 0001     
6349 CFFA 8040  18 	c r0,r1
6350 CFFC 1402  14 	jhe cv481
6351 CFFE 0460  28 	b @cv480
     D000 D00A     
6352               cv481
6353 D002 0200  20 	li r0,3840   ; 15*256
     D004 0F00     
6354 D006 D800  38 	movb r0,@cvb_T2
     D008 20D6     
6355               cv480
6356               	; 	SPRITE 0, ddy(e) + 27, ddx(e) + 11, 0, t2
6357 D00A 04C4  14 	clr r4
6358 D00C D020  34 	movb @cvb_E,r0
     D00E 2084     
6359 D010 0980  32 	srl r0,8
6360 D012 0220  22 	ai r0,array_DDY
     D014 20EA     
6361 D016 D010  26 	movb *r0,r0
6362 D018 0220  22 	ai r0,6912	; 27
     D01A 1B00     
6363 D01C D140  18 	movb r0,r5
6364 D01E D020  34 	movb @cvb_E,r0
     D020 2084     
6365 D022 0980  32 	srl r0,8
6366 D024 0220  22 	ai r0,array_DDX
     D026 20E6     
6367 D028 D010  26 	movb *r0,r0
6368 D02A 0220  22 	ai r0,2816	; 11
     D02C 0B00     
6369 D02E D180  18 	movb r0,r6
6370 D030 04C7  14 	clr r7
6371 D032 D020  34 	movb @cvb_T2,r0
     D034 20D6     
6372 D036 06A0  32 	bl @jsr
     D038 A974     
6373 D03A A24E     	data update_sprite
6374               	; 	END
6375 D03C C03A  30 	mov *r10+,r0
6376 D03E 0450  20 	b *r0
6377               	;
6378               	; 	' ------------------------------------------------------------
6379               	; 	' point-vs-wall: RAM bitmap test + closed-gate special case
6380               	; 	' + the secret wall once it is open
6381               	; 	' ------------------------------------------------------------
6382               	; chkpt: PROCEDURE
6383               	even
6384               cvb_CHKPT
6385               	; 	' 8px cells: row 0-23, col 0-31; byte = row*4 + col/8
6386               	; 	r = ty / 8 : c2 = tx / 8
6387 D040 D020  34 	movb @cvb_TY,r0
     D042 20DD     
6388 D044 0930  22 	srl r0,3
6389 D046 D800  38 	movb r0,@cvb_R
     D048 208A     
6390 D04A D020  34 	movb @cvb_TX,r0
     D04C 20DC     
6391 D04E 0930  22 	srl r0,3
6392 D050 D800  38 	movb r0,@cvb_C2
     D052 20BD     
6393               	; 	wf = rm(r * 4 + (c2 / 8)) AND msk(c2 AND 7)
6394 D054 0201  20 	li r1,1792   ; 7*256
     D056 0700     
6395 D058 0541  14 	inv r1
6396 D05A 5001  18 	szcb r1,r0
6397 D05C 0980  32 	srl r0,8
6398 D05E 0220  22 	ai r0,array_MSK
     D060 20EE     
6399 D062 D010  26 	movb *r0,r0
6400 D064 064A  14 	dect r10
6401 D066 C680  30 	mov r0,*r10
6402 D068 D020  34 	movb @cvb_C2,r0
     D06A 20BD     
6403 D06C 0980  32 	srl r0,8
6404 D06E 0930  22 	srl r0,3
6405 D070 C040  18 	mov r0,r1
6406 D072 D020  34 	movb @cvb_R,r0
     D074 208A     
6407 D076 0980  32 	srl r0,8
6408 D078 0A20  20 	sla r0,2
6409 D07A A001  18 	a r1,r0
6410 D07C 0220  22 	ai r0,array_RM
     D07E 212A     
6411 D080 D010  26 	movb *r0,r0
6412 D082 C07A  30 	mov *r10+,r1
6413 D084 0541  14 	inv r1
6414 D086 5001  18 	szcb r1,r0
6415 D088 D800  38 	movb r0,@cvb_WF
     D08A 20DF     
6416               	; 	IF wf = 0 THEN GOTO ckgate
6417 D08C 04C1  14 	clr r1
6418 D08E 9001  18 	cb r1,r0
6419 D090 1302  14 	jeq cv483
6420 D092 0460  28 	b @cv482
     D094 D09A     
6421               cv483
6422 D096 0460  28 	b @cvb_CKGATE
     D098 D102     
6423               cv482
6424               	; 	' the flickering secret wall is passable
6425               	; 	IF eggon = 0 THEN RETURN
6426 D09A D020  34 	movb @cvb_EGGON,r0
     D09C 209C     
6427 D09E 1302  14 	jeq cv485
6428 D0A0 0460  28 	b @cv484
     D0A2 D0A8     
6429               cv485
6430 D0A4 C03A  30 	mov *r10+,r0
6431 D0A6 0450  20 	b *r0
6432               cv484
6433               	; 	IF rn <> 17 THEN RETURN
6434 D0A8 D020  34 	movb @cvb_RN,r0
     D0AA 20D8     
6435 D0AC 0201  20 	li r1,4352   ; 17*256
     D0AE 1100     
6436 D0B0 9001  18 	cb r1,r0
6437 D0B2 1602  14 	jne cv487
6438 D0B4 0460  28 	b @cv486
     D0B6 D0BC     
6439               cv487
6440 D0B8 C03A  30 	mov *r10+,r0
6441 D0BA 0450  20 	b *r0
6442               cv486
6443               	; 	IF c2 < 30 THEN RETURN
6444 D0BC D020  34 	movb @cvb_C2,r0
     D0BE 20BD     
6445 D0C0 0201  20 	li r1,7680   ; 30*256
     D0C2 1E00     
6446 D0C4 9040  18 	cb r0,r1
6447 D0C6 1A02  14 	jl cv489
6448 D0C8 0460  28 	b @cv488
     D0CA D0D0     
6449               cv489
6450 D0CC C03A  30 	mov *r10+,r0
6451 D0CE 0450  20 	b *r0
6452               cv488
6453               	; 	IF r < 10 THEN RETURN
6454 D0D0 D020  34 	movb @cvb_R,r0
     D0D2 208A     
6455 D0D4 0201  20 	li r1,2560   ; 10*256
     D0D6 0A00     
6456 D0D8 9040  18 	cb r0,r1
6457 D0DA 1A02  14 	jl cv491
6458 D0DC 0460  28 	b @cv490
     D0DE D0E4     
6459               cv491
6460 D0E0 C03A  30 	mov *r10+,r0
6461 D0E2 0450  20 	b *r0
6462               cv490
6463               	; 	IF r > 13 THEN RETURN
6464 D0E4 D020  34 	movb @cvb_R,r0
     D0E6 208A     
6465 D0E8 0201  20 	li r1,3584   ; 14*256
     D0EA 0E00     
6466 D0EC 9040  18 	cb r0,r1
6467 D0EE 1402  14 	jhe cv493
6468 D0F0 0460  28 	b @cv492
     D0F2 D0F8     
6469               cv493
6470 D0F4 C03A  30 	mov *r10+,r0
6471 D0F6 0450  20 	b *r0
6472               cv492
6473               	; 	wf = 0
6474 D0F8 04C0  14 	clr r0
6475 D0FA D800  38 	movb r0,@cvb_WF
     D0FC 20DF     
6476               	; 	RETURN
6477 D0FE C03A  30 	mov *r10+,r0
6478 D100 0450  20 	b *r0
6479               	; ckgate:
6480               cvb_CKGATE
6481               	; 	IF gz = 0 THEN RETURN
6482 D102 D020  34 	movb @cvb_GZ,r0
     D104 20CD     
6483 D106 1302  14 	jeq cv495
6484 D108 0460  28 	b @cv494
     D10A D110     
6485               cv495
6486 D10C C03A  30 	mov *r10+,r0
6487 D10E 0450  20 	b *r0
6488               cv494
6489               	; 	IF gopn = 1 THEN RETURN
6490 D110 D020  34 	movb @cvb_GOPN,r0
     D112 209B     
6491 D114 0201  20 	li r1,256   ; 1*256
     D116 0100     
6492 D118 9001  18 	cb r1,r0
6493 D11A 1302  14 	jeq cv497
6494 D11C 0460  28 	b @cv496
     D11E D124     
6495               cv497
6496 D120 C03A  30 	mov *r10+,r0
6497 D122 0450  20 	b *r0
6498               cv496
6499               	; 	IF r < 4 THEN RETURN
6500 D124 D020  34 	movb @cvb_R,r0
     D126 208A     
6501 D128 0201  20 	li r1,1024   ; 4*256
     D12A 0400     
6502 D12C 9040  18 	cb r0,r1
6503 D12E 1A02  14 	jl cv499
6504 D130 0460  28 	b @cv498
     D132 D138     
6505               cv499
6506 D134 C03A  30 	mov *r10+,r0
6507 D136 0450  20 	b *r0
6508               cv498
6509               	; 	IF r > 7 THEN RETURN
6510 D138 D020  34 	movb @cvb_R,r0
     D13A 208A     
6511 D13C 0201  20 	li r1,2048   ; 8*256
     D13E 0800     
6512 D140 9040  18 	cb r0,r1
6513 D142 1402  14 	jhe cv501
6514 D144 0460  28 	b @cv500
     D146 D14C     
6515               cv501
6516 D148 C03A  30 	mov *r10+,r0
6517 D14A 0450  20 	b *r0
6518               cv500
6519               	; 	IF c2 < 14 THEN RETURN
6520 D14C D020  34 	movb @cvb_C2,r0
     D14E 20BD     
6521 D150 0201  20 	li r1,3584   ; 14*256
     D152 0E00     
6522 D154 9040  18 	cb r0,r1
6523 D156 1A02  14 	jl cv503
6524 D158 0460  28 	b @cv502
     D15A D160     
6525               cv503
6526 D15C C03A  30 	mov *r10+,r0
6527 D15E 0450  20 	b *r0
6528               cv502
6529               	; 	IF c2 > 17 THEN RETURN
6530 D160 D020  34 	movb @cvb_C2,r0
     D162 20BD     
6531 D164 0201  20 	li r1,4608   ; 18*256
     D166 1200     
6532 D168 9040  18 	cb r0,r1
6533 D16A 1402  14 	jhe cv505
6534 D16C 0460  28 	b @cv504
     D16E D174     
6535               cv505
6536 D170 C03A  30 	mov *r10+,r0
6537 D172 0450  20 	b *r0
6538               cv504
6539               	; 	wf = 1
6540 D174 0200  20 	li r0,256   ; 1*256
     D176 0100     
6541 D178 D800  38 	movb r0,@cvb_WF
     D17A 20DF     
6542               	; 	END
6543 D17C C03A  30 	mov *r10+,r0
6544 D17E 0450  20 	b *r0
6545               	;
6546               	; chkbox: PROCEDURE
6547               	even
6548               cvb_CHKBOX
6549               	; 	' blocks are 16px and boxes are <=16px, so 4 corners suffice
6550               	; 	bf = 1
6551 D180 0200  20 	li r0,256   ; 1*256
     D182 0100     
6552 D184 D800  38 	movb r0,@cvb_BF
     D186 20BF     
6553               	; 	tx = x0 : ty = y0
6554 D188 D820  54 	movb @cvb_X0,@cvb_TX
     D18A 20DE     
     D18C 20DC     
6555 D18E D820  54 	movb @cvb_Y0,@cvb_TY
     D190 20E0     
     D192 20DD     
6556               	; 	GOSUB chkpt
6557 D194 06A0  32 	bl @jsr
     D196 A974     
6558 D198 D040     	data cvb_CHKPT
6559               	; 	IF wf > 0 THEN RETURN
6560 D19A D020  34 	movb @cvb_WF,r0
     D19C 20DF     
6561 D19E 0201  20 	li r1,256   ; 1*256
     D1A0 0100     
6562 D1A2 9040  18 	cb r0,r1
6563 D1A4 1402  14 	jhe cv507
6564 D1A6 0460  28 	b @cv506
     D1A8 D1AE     
6565               cv507
6566 D1AA C03A  30 	mov *r10+,r0
6567 D1AC 0450  20 	b *r0
6568               cv506
6569               	; 	tx = x0 + bw
6570 D1AE D020  34 	movb @cvb_X0,r0
     D1B0 20DE     
6571 D1B2 B020  34 	ab @cvb_BW,r0
     D1B4 20C4     
6572 D1B6 D800  38 	movb r0,@cvb_TX
     D1B8 20DC     
6573               	; 	GOSUB chkpt
6574 D1BA 06A0  32 	bl @jsr
     D1BC A974     
6575 D1BE D040     	data cvb_CHKPT
6576               	; 	IF wf > 0 THEN RETURN
6577 D1C0 D020  34 	movb @cvb_WF,r0
     D1C2 20DF     
6578 D1C4 0201  20 	li r1,256   ; 1*256
     D1C6 0100     
6579 D1C8 9040  18 	cb r0,r1
6580 D1CA 1402  14 	jhe cv509
6581 D1CC 0460  28 	b @cv508
     D1CE D1D4     
6582               cv509
6583 D1D0 C03A  30 	mov *r10+,r0
6584 D1D2 0450  20 	b *r0
6585               cv508
6586               	; 	ty = y0 + bh
6587 D1D4 D020  34 	movb @cvb_Y0,r0
     D1D6 20E0     
6588 D1D8 B020  34 	ab @cvb_BH,r0
     D1DA 20C0     
6589 D1DC D800  38 	movb r0,@cvb_TY
     D1DE 20DD     
6590               	; 	GOSUB chkpt
6591 D1E0 06A0  32 	bl @jsr
     D1E2 A974     
6592 D1E4 D040     	data cvb_CHKPT
6593               	; 	IF wf > 0 THEN RETURN
6594 D1E6 D020  34 	movb @cvb_WF,r0
     D1E8 20DF     
6595 D1EA 0201  20 	li r1,256   ; 1*256
     D1EC 0100     
6596 D1EE 9040  18 	cb r0,r1
6597 D1F0 1402  14 	jhe cv511
6598 D1F2 0460  28 	b @cv510
     D1F4 D1FA     
6599               cv511
6600 D1F6 C03A  30 	mov *r10+,r0
6601 D1F8 0450  20 	b *r0
6602               cv510
6603               	; 	tx = x0
6604 D1FA D820  54 	movb @cvb_X0,@cvb_TX
     D1FC 20DE     
     D1FE 20DC     
6605               	; 	GOSUB chkpt
6606 D200 06A0  32 	bl @jsr
     D202 A974     
6607 D204 D040     	data cvb_CHKPT
6608               	; 	IF wf > 0 THEN RETURN
6609 D206 D020  34 	movb @cvb_WF,r0
     D208 20DF     
6610 D20A 0201  20 	li r1,256   ; 1*256
     D20C 0100     
6611 D20E 9040  18 	cb r0,r1
6612 D210 1402  14 	jhe cv513
6613 D212 0460  28 	b @cv512
     D214 D21A     
6614               cv513
6615 D216 C03A  30 	mov *r10+,r0
6616 D218 0450  20 	b *r0
6617               cv512
6618               	; 	bf = 0
6619 D21A 04C0  14 	clr r0
6620 D21C D800  38 	movb r0,@cvb_BF
     D21E 20BF     
6621               	; 	END
6622 D220 C03A  30 	mov *r10+,r0
6623 D222 0450  20 	b *r0
6624               	;
6625               	; 	' ------------------------------------------------------------
6626               	; 	' link + colour lookup: tables live in ROM, read on demand
6627               	; 	' (lkr in -> lkn/lke/lks/lkw). Game 1 = custom map table;
6628               	; 	' game 2 = small kingdom; games 3/4 = full kingdom.
6629               	; 	' ------------------------------------------------------------
6630               	; getlnk: PROCEDURE
6631               	even
6632               cvb_GETLNK
6633               	; 	IF gm = 1 THEN RESTORE lnkc
6634 D224 D020  34 	movb @cvb_GM,r0
     D226 20CC     
6635 D228 0201  20 	li r1,256   ; 1*256
     D22A 0100     
6636 D22C 9001  18 	cb r1,r0
6637 D22E 1302  14 	jeq cv515
6638 D230 0460  28 	b @cv514
     D232 D23C     
6639               cv515
6640 D234 0200  20 	li r0,cvb_LNKC
     D236 EE60     
6641 D238 C800  30 	mov r0,@read_pointer
     D23A 8340     
6642               cv514
6643               	; 	IF gm = 2 THEN RESTORE lnkb
6644 D23C D020  34 	movb @cvb_GM,r0
     D23E 20CC     
6645 D240 0201  20 	li r1,512   ; 2*256
     D242 0200     
6646 D244 9001  18 	cb r1,r0
6647 D246 1302  14 	jeq cv517
6648 D248 0460  28 	b @cv516
     D24A D254     
6649               cv517
6650 D24C 0200  20 	li r0,cvb_LNKB
     D24E EE94     
6651 D250 C800  30 	mov r0,@read_pointer
     D252 8340     
6652               cv516
6653               	; 	IF gm > 2 THEN RESTORE lnka
6654 D254 D020  34 	movb @cvb_GM,r0
     D256 20CC     
6655 D258 0201  20 	li r1,768   ; 3*256
     D25A 0300     
6656 D25C 9040  18 	cb r0,r1
6657 D25E 1402  14 	jhe cv519
6658 D260 0460  28 	b @cv518
     D262 D26C     
6659               cv519
6660 D264 0200  20 	li r0,cvb_LNKA
     D266 EEFC     
6661 D268 C800  30 	mov r0,@read_pointer
     D26A 8340     
6662               cv518
6663               	; 	i2 = lkr : IF gm > 1 THEN i2 = lkr - 13
6664 D26C D820  54 	movb @cvb_LKR,@cvb_I2
     D26E 2098     
     D270 20CB     
6665 D272 D020  34 	movb @cvb_GM,r0
     D274 20CC     
6666 D276 0201  20 	li r1,512   ; 2*256
     D278 0200     
6667 D27A 9040  18 	cb r0,r1
6668 D27C 1402  14 	jhe cv521
6669 D27E 0460  28 	b @cv520
     D280 D28E     
6670               cv521
6671 D282 D020  34 	movb @cvb_LKR,r0
     D284 2098     
6672 D286 0220  22 	ai r0,62208	; -13
     D288 F300     
6673 D28A D800  38 	movb r0,@cvb_I2
     D28C 20CB     
6674               cv520
6675               	; 	WHILE i2 > 0
6676               cv522
6677 D28E D020  34 	movb @cvb_I2,r0
     D290 20CB     
6678 D292 0201  20 	li r1,256   ; 1*256
     D294 0100     
6679 D296 9040  18 	cb r0,r1
6680 D298 1402  14 	jhe cv524
6681 D29A 0460  28 	b @cv523
     D29C D2E6     
6682               cv524
6683               	; 	READ BYTE t : READ BYTE t : READ BYTE t : READ BYTE t
6684 D29E C060  30 	mov @read_pointer,r1
     D2A0 8340     
6685 D2A2 D011  26 	movb *r1,r0
6686 D2A4 05A0  26 	inc @read_pointer
     D2A6 8340     
6687 D2A8 D800  38 	movb r0,@cvb_T
     D2AA 208B     
6688 D2AC C060  30 	mov @read_pointer,r1
     D2AE 8340     
6689 D2B0 D011  26 	movb *r1,r0
6690 D2B2 05A0  26 	inc @read_pointer
     D2B4 8340     
6691 D2B6 D800  38 	movb r0,@cvb_T
     D2B8 208B     
6692 D2BA C060  30 	mov @read_pointer,r1
     D2BC 8340     
6693 D2BE D011  26 	movb *r1,r0
6694 D2C0 05A0  26 	inc @read_pointer
     D2C2 8340     
6695 D2C4 D800  38 	movb r0,@cvb_T
     D2C6 208B     
6696 D2C8 C060  30 	mov @read_pointer,r1
     D2CA 8340     
6697 D2CC D011  26 	movb *r1,r0
6698 D2CE 05A0  26 	inc @read_pointer
     D2D0 8340     
6699 D2D2 D800  38 	movb r0,@cvb_T
     D2D4 208B     
6700               	; 	i2 = i2 - 1
6701 D2D6 D020  34 	movb @cvb_I2,r0
     D2D8 20CB     
6702 D2DA 0220  22 	ai r0,65280	; -1
     D2DC FF00     
6703 D2DE D800  38 	movb r0,@cvb_I2
     D2E0 20CB     
6704               	; 	WEND
6705 D2E2 0460  28 	b @cv522
     D2E4 D28E     
6706               cv523
6707               	; 	READ BYTE lkn : READ BYTE lke : READ BYTE lks : READ BYTE lkw
6708 D2E6 C060  30 	mov @read_pointer,r1
     D2E8 8340     
6709 D2EA D011  26 	movb *r1,r0
6710 D2EC 05A0  26 	inc @read_pointer
     D2EE 8340     
6711 D2F0 D800  38 	movb r0,@cvb_LKN
     D2F2 2095     
6712 D2F4 C060  30 	mov @read_pointer,r1
     D2F6 8340     
6713 D2F8 D011  26 	movb *r1,r0
6714 D2FA 05A0  26 	inc @read_pointer
     D2FC 8340     
6715 D2FE D800  38 	movb r0,@cvb_LKE
     D300 2093     
6716 D302 C060  30 	mov @read_pointer,r1
     D304 8340     
6717 D306 D011  26 	movb *r1,r0
6718 D308 05A0  26 	inc @read_pointer
     D30A 8340     
6719 D30C D800  38 	movb r0,@cvb_LKS
     D30E 2099     
6720 D310 C060  30 	mov @read_pointer,r1
     D312 8340     
6721 D314 D011  26 	movb *r1,r0
6722 D316 05A0  26 	inc @read_pointer
     D318 8340     
6723 D31A D800  38 	movb r0,@cvb_LKW
     D31C 209A     
6724               	; 	END
6725 D31E C03A  30 	mov *r10+,r0
6726 D320 0450  20 	b *r0
6727               	;
6728               	; 	' ------------------------------------------------------------
6729               	; 	' room entry: load bitmap, colours (wall,bg,dark), redraw,
6730               	; 	' gate, fog window, secret-room text, dragons
6731               	; 	' ------------------------------------------------------------
6732               	; enterroom: PROCEDURE
6733               	even
6734               cvb_ENTERROOM
6735               	; 	FOR i = 1 TO 16 : SPRITE i, $d1, 0, 0, 0 : NEXT i
6736 D322 0200  20 	li r0,256   ; 1*256
     D324 0100     
6737 D326 D800  38 	movb r0,@cvb_I
     D328 2086     
6738               cv525
6739 D32A D120  34 	movb @cvb_I,r4
     D32C 2086     
6740 D32E 0205  20 	li r5,53504
     D330 D100     
6741 D332 04C6  14 	clr r6
6742 D334 04C7  14 	clr r7
6743 D336 04C0  14 	clr r0
6744 D338 06A0  32 	bl @jsr
     D33A A974     
6745 D33C A24E     	data update_sprite
6746 D33E D020  34 	movb @cvb_I,r0
     D340 2086     
6747 D342 0220  22 	ai r0,256	; 1
     D344 0100     
6748 D346 D800  38 	movb r0,@cvb_I
     D348 2086     
6749 D34A 0201  20 	li r1,4352   ; 17*256
     D34C 1100     
6750 D34E 9040  18 	cb r0,r1
6751 D350 1402  14 	jhe cv526
6752 D352 0460  28 	b @cv525
     D354 D32A     
6753               cv526
6754               	; 	' any live dragon in the room we just left will pursue
6755               	; 	IF prn < 255 THEN IF prn <> rn THEN GOSUB dchase
6756 D356 D020  34 	movb @cvb_PRN,r0
     D358 20BA     
6757 D35A 0201  20 	li r1,65280   ; 255*256
     D35C FF00     
6758 D35E 9040  18 	cb r0,r1
6759 D360 1A02  14 	jl cv528
6760 D362 0460  28 	b @cv527
     D364 D37A     
6761               cv528
6762 D366 D020  34 	movb @cvb_PRN,r0
     D368 20BA     
6763 D36A 9020  34 	cb @cvb_RN,r0
     D36C 20D8     
6764 D36E 1602  14 	jne cv530
6765 D370 0460  28 	b @cv529
     D372 D37A     
6766               cv530
6767 D374 06A0  32 	bl @jsr
     D376 A974     
6768 D378 DB56     	data cvb_DCHASE
6769               cv529
6770               cv527
6771               	; 	prn = rn
6772 D37A D820  54 	movb @cvb_RN,@cvb_PRN
     D37C 20D8     
     D37E 20BA     
6773               	; 	' room bitmap: 96 bytes, dispatched by label (skip-reading
6774               	; 	' rn*96 bytes would stall room entry)
6775               	; 	ON rn GOTO rb0, rb1, rb2, rb3, rb4, rb5, rb6, rb7, rb8, rb9, rb10, rb11, rb12, rb13, rb14, rb15, rb16, rb17, rb18, rb19, rb20, rb21, rb22, rb23, rb24, rb25, rb26, rb27, rb28, rb29, rb30, rb31, rb32, rb33, rb34, rb35, rb36, rb37, rb38
6776 D380 D020  34 	movb @cvb_RN,r0
     D382 20D8     
6777 D384 0280  22 	ci r0,9984   ; 39*256
     D386 2700     
6778 D388 1A02  14 	jl cv533
6779 D38A 0460  28 	b @cv532
     D38C D3E8     
6780               cv533
6781 D38E 0980  32 	srl r0,8
6782 D390 0A10  18 	sla r0,1
6783 D392 C040  18 	mov r0,r1
6784 D394 C021  34 	mov @cv531(r1),r0
     D396 D39A     
6785 D398 0450  20 	b *r0
6786               cv531
6787 D39A D3E8     	data cvb_RB0
6788 D39C D3F4     	data cvb_RB1
6789 D39E D400     	data cvb_RB2
6790 D3A0 D40C     	data cvb_RB3
6791 D3A2 D418     	data cvb_RB4
6792 D3A4 D424     	data cvb_RB5
6793 D3A6 D430     	data cvb_RB6
6794 D3A8 D43C     	data cvb_RB7
6795 D3AA D448     	data cvb_RB8
6796 D3AC D454     	data cvb_RB9
6797 D3AE D460     	data cvb_RB10
6798 D3B0 D46C     	data cvb_RB11
6799 D3B2 D478     	data cvb_RB12
6800 D3B4 D484     	data cvb_RB13
6801 D3B6 D490     	data cvb_RB14
6802 D3B8 D49C     	data cvb_RB15
6803 D3BA D4A8     	data cvb_RB16
6804 D3BC D4B4     	data cvb_RB17
6805 D3BE D4C0     	data cvb_RB18
6806 D3C0 D4CC     	data cvb_RB19
6807 D3C2 D4D8     	data cvb_RB20
6808 D3C4 D4E4     	data cvb_RB21
6809 D3C6 D4F0     	data cvb_RB22
6810 D3C8 D4FC     	data cvb_RB23
6811 D3CA D508     	data cvb_RB24
6812 D3CC D514     	data cvb_RB25
6813 D3CE D520     	data cvb_RB26
6814 D3D0 D52C     	data cvb_RB27
6815 D3D2 D538     	data cvb_RB28
6816 D3D4 D544     	data cvb_RB29
6817 D3D6 D550     	data cvb_RB30
6818 D3D8 D55C     	data cvb_RB31
6819 D3DA D568     	data cvb_RB32
6820 D3DC D574     	data cvb_RB33
6821 D3DE D580     	data cvb_RB34
6822 D3E0 D58C     	data cvb_RB35
6823 D3E2 D598     	data cvb_RB36
6824 D3E4 D5A4     	data cvb_RB37
6825 D3E6 D5B0     	data cvb_RB38
6826               cv532
6827               	; rb0:	RESTORE rd0
6828               cvb_RB0
6829 D3E8 0200  20 	li r0,cvb_RD0
     D3EA F05D     
6830 D3EC C800  30 	mov r0,@read_pointer
     D3EE 8340     
6831               	; 	GOTO rbl
6832 D3F0 0460  28 	b @cvb_RBL
     D3F2 D5B8     
6833               	; rb1:	RESTORE rd1
6834               cvb_RB1
6835 D3F4 0200  20 	li r0,cvb_RD1
     D3F6 F0BD     
6836 D3F8 C800  30 	mov r0,@read_pointer
     D3FA 8340     
6837               	; 	GOTO rbl
6838 D3FC 0460  28 	b @cvb_RBL
     D3FE D5B8     
6839               	; rb2:	RESTORE rd2
6840               cvb_RB2
6841 D400 0200  20 	li r0,cvb_RD2
     D402 F11D     
6842 D404 C800  30 	mov r0,@read_pointer
     D406 8340     
6843               	; 	GOTO rbl
6844 D408 0460  28 	b @cvb_RBL
     D40A D5B8     
6845               	; rb3:	RESTORE rd3
6846               cvb_RB3
6847 D40C 0200  20 	li r0,cvb_RD3
     D40E F17D     
6848 D410 C800  30 	mov r0,@read_pointer
     D412 8340     
6849               	; 	GOTO rbl
6850 D414 0460  28 	b @cvb_RBL
     D416 D5B8     
6851               	; rb4:	RESTORE rd4
6852               cvb_RB4
6853 D418 0200  20 	li r0,cvb_RD4
     D41A F1DD     
6854 D41C C800  30 	mov r0,@read_pointer
     D41E 8340     
6855               	; 	GOTO rbl
6856 D420 0460  28 	b @cvb_RBL
     D422 D5B8     
6857               	; rb5:	RESTORE rd5
6858               cvb_RB5
6859 D424 0200  20 	li r0,cvb_RD5
     D426 F23D     
6860 D428 C800  30 	mov r0,@read_pointer
     D42A 8340     
6861               	; 	GOTO rbl
6862 D42C 0460  28 	b @cvb_RBL
     D42E D5B8     
6863               	; rb6:	RESTORE rd6
6864               cvb_RB6
6865 D430 0200  20 	li r0,cvb_RD6
     D432 F29D     
6866 D434 C800  30 	mov r0,@read_pointer
     D436 8340     
6867               	; 	GOTO rbl
6868 D438 0460  28 	b @cvb_RBL
     D43A D5B8     
6869               	; rb7:	RESTORE rd7
6870               cvb_RB7
6871 D43C 0200  20 	li r0,cvb_RD7
     D43E F2FD     
6872 D440 C800  30 	mov r0,@read_pointer
     D442 8340     
6873               	; 	GOTO rbl
6874 D444 0460  28 	b @cvb_RBL
     D446 D5B8     
6875               	; rb8:	RESTORE rd8
6876               cvb_RB8
6877 D448 0200  20 	li r0,cvb_RD8
     D44A F35D     
6878 D44C C800  30 	mov r0,@read_pointer
     D44E 8340     
6879               	; 	GOTO rbl
6880 D450 0460  28 	b @cvb_RBL
     D452 D5B8     
6881               	; rb9:	RESTORE rd9
6882               cvb_RB9
6883 D454 0200  20 	li r0,cvb_RD9
     D456 F3BD     
6884 D458 C800  30 	mov r0,@read_pointer
     D45A 8340     
6885               	; 	GOTO rbl
6886 D45C 0460  28 	b @cvb_RBL
     D45E D5B8     
6887               	; rb10:	RESTORE rd10
6888               cvb_RB10
6889 D460 0200  20 	li r0,cvb_RD10
     D462 F41D     
6890 D464 C800  30 	mov r0,@read_pointer
     D466 8340     
6891               	; 	GOTO rbl
6892 D468 0460  28 	b @cvb_RBL
     D46A D5B8     
6893               	; rb11:	RESTORE rd11
6894               cvb_RB11
6895 D46C 0200  20 	li r0,cvb_RD11
     D46E F47D     
6896 D470 C800  30 	mov r0,@read_pointer
     D472 8340     
6897               	; 	GOTO rbl
6898 D474 0460  28 	b @cvb_RBL
     D476 D5B8     
6899               	; rb12:	RESTORE rd12
6900               cvb_RB12
6901 D478 0200  20 	li r0,cvb_RD12
     D47A F4DD     
6902 D47C C800  30 	mov r0,@read_pointer
     D47E 8340     
6903               	; 	GOTO rbl
6904 D480 0460  28 	b @cvb_RBL
     D482 D5B8     
6905               	; rb13:	RESTORE rd13
6906               cvb_RB13
6907 D484 0200  20 	li r0,cvb_RD13
     D486 F53D     
6908 D488 C800  30 	mov r0,@read_pointer
     D48A 8340     
6909               	; 	GOTO rbl
6910 D48C 0460  28 	b @cvb_RBL
     D48E D5B8     
6911               	; rb14:	RESTORE rd14
6912               cvb_RB14
6913 D490 0200  20 	li r0,cvb_RD14
     D492 F59D     
6914 D494 C800  30 	mov r0,@read_pointer
     D496 8340     
6915               	; 	GOTO rbl
6916 D498 0460  28 	b @cvb_RBL
     D49A D5B8     
6917               	; rb15:	RESTORE rd15
6918               cvb_RB15
6919 D49C 0200  20 	li r0,cvb_RD15
     D49E F5FD     
6920 D4A0 C800  30 	mov r0,@read_pointer
     D4A2 8340     
6921               	; 	GOTO rbl
6922 D4A4 0460  28 	b @cvb_RBL
     D4A6 D5B8     
6923               	; rb16:	RESTORE rd16
6924               cvb_RB16
6925 D4A8 0200  20 	li r0,cvb_RD16
     D4AA F65D     
6926 D4AC C800  30 	mov r0,@read_pointer
     D4AE 8340     
6927               	; 	GOTO rbl
6928 D4B0 0460  28 	b @cvb_RBL
     D4B2 D5B8     
6929               	; rb17:	RESTORE rd17
6930               cvb_RB17
6931 D4B4 0200  20 	li r0,cvb_RD17
     D4B6 F6BD     
6932 D4B8 C800  30 	mov r0,@read_pointer
     D4BA 8340     
6933               	; 	GOTO rbl
6934 D4BC 0460  28 	b @cvb_RBL
     D4BE D5B8     
6935               	; rb18:	RESTORE rd18
6936               cvb_RB18
6937 D4C0 0200  20 	li r0,cvb_RD18
     D4C2 F71D     
6938 D4C4 C800  30 	mov r0,@read_pointer
     D4C6 8340     
6939               	; 	GOTO rbl
6940 D4C8 0460  28 	b @cvb_RBL
     D4CA D5B8     
6941               	; rb19:	RESTORE rd19
6942               cvb_RB19
6943 D4CC 0200  20 	li r0,cvb_RD19
     D4CE F77D     
6944 D4D0 C800  30 	mov r0,@read_pointer
     D4D2 8340     
6945               	; 	GOTO rbl
6946 D4D4 0460  28 	b @cvb_RBL
     D4D6 D5B8     
6947               	; rb20:	RESTORE rd20
6948               cvb_RB20
6949 D4D8 0200  20 	li r0,cvb_RD20
     D4DA F7DD     
6950 D4DC C800  30 	mov r0,@read_pointer
     D4DE 8340     
6951               	; 	GOTO rbl
6952 D4E0 0460  28 	b @cvb_RBL
     D4E2 D5B8     
6953               	; rb21:	RESTORE rd21
6954               cvb_RB21
6955 D4E4 0200  20 	li r0,cvb_RD21
     D4E6 F83D     
6956 D4E8 C800  30 	mov r0,@read_pointer
     D4EA 8340     
6957               	; 	GOTO rbl
6958 D4EC 0460  28 	b @cvb_RBL
     D4EE D5B8     
6959               	; rb22:	RESTORE rd22
6960               cvb_RB22
6961 D4F0 0200  20 	li r0,cvb_RD22
     D4F2 F89D     
6962 D4F4 C800  30 	mov r0,@read_pointer
     D4F6 8340     
6963               	; 	GOTO rbl
6964 D4F8 0460  28 	b @cvb_RBL
     D4FA D5B8     
6965               	; rb23:	RESTORE rd23
6966               cvb_RB23
6967 D4FC 0200  20 	li r0,cvb_RD23
     D4FE F8FD     
6968 D500 C800  30 	mov r0,@read_pointer
     D502 8340     
6969               	; 	GOTO rbl
6970 D504 0460  28 	b @cvb_RBL
     D506 D5B8     
6971               	; rb24:	RESTORE rd24
6972               cvb_RB24
6973 D508 0200  20 	li r0,cvb_RD24
     D50A F95D     
6974 D50C C800  30 	mov r0,@read_pointer
     D50E 8340     
6975               	; 	GOTO rbl
6976 D510 0460  28 	b @cvb_RBL
     D512 D5B8     
6977               	; rb25:	RESTORE rd25
6978               cvb_RB25
6979 D514 0200  20 	li r0,cvb_RD25
     D516 F9BD     
6980 D518 C800  30 	mov r0,@read_pointer
     D51A 8340     
6981               	; 	GOTO rbl
6982 D51C 0460  28 	b @cvb_RBL
     D51E D5B8     
6983               	; rb26:	RESTORE rd26
6984               cvb_RB26
6985 D520 0200  20 	li r0,cvb_RD26
     D522 FA1D     
6986 D524 C800  30 	mov r0,@read_pointer
     D526 8340     
6987               	; 	GOTO rbl
6988 D528 0460  28 	b @cvb_RBL
     D52A D5B8     
6989               	; rb27:	RESTORE rd27
6990               cvb_RB27
6991 D52C 0200  20 	li r0,cvb_RD27
     D52E FA7D     
6992 D530 C800  30 	mov r0,@read_pointer
     D532 8340     
6993               	; 	GOTO rbl
6994 D534 0460  28 	b @cvb_RBL
     D536 D5B8     
6995               	; rb28:	RESTORE rd28
6996               cvb_RB28
6997 D538 0200  20 	li r0,cvb_RD28
     D53A FADD     
6998 D53C C800  30 	mov r0,@read_pointer
     D53E 8340     
6999               	; 	GOTO rbl
7000 D540 0460  28 	b @cvb_RBL
     D542 D5B8     
7001               	; rb29:	RESTORE rd29
7002               cvb_RB29
7003 D544 0200  20 	li r0,cvb_RD29
     D546 FB3D     
7004 D548 C800  30 	mov r0,@read_pointer
     D54A 8340     
7005               	; 	GOTO rbl
7006 D54C 0460  28 	b @cvb_RBL
     D54E D5B8     
7007               	; rb30:	RESTORE rd30
7008               cvb_RB30
7009 D550 0200  20 	li r0,cvb_RD30
     D552 FB9D     
7010 D554 C800  30 	mov r0,@read_pointer
     D556 8340     
7011               	; 	GOTO rbl
7012 D558 0460  28 	b @cvb_RBL
     D55A D5B8     
7013               	; rb31:	RESTORE rd31
7014               cvb_RB31
7015 D55C 0200  20 	li r0,cvb_RD31
     D55E FBFD     
7016 D560 C800  30 	mov r0,@read_pointer
     D562 8340     
7017               	; 	GOTO rbl
7018 D564 0460  28 	b @cvb_RBL
     D566 D5B8     
7019               	; rb32:	RESTORE rd32
7020               cvb_RB32
7021 D568 0200  20 	li r0,cvb_RD32
     D56A FC5D     
7022 D56C C800  30 	mov r0,@read_pointer
     D56E 8340     
7023               	; 	GOTO rbl
7024 D570 0460  28 	b @cvb_RBL
     D572 D5B8     
7025               	; rb33:	RESTORE rd33
7026               cvb_RB33
7027 D574 0200  20 	li r0,cvb_RD33
     D576 FCBD     
7028 D578 C800  30 	mov r0,@read_pointer
     D57A 8340     
7029               	; 	GOTO rbl
7030 D57C 0460  28 	b @cvb_RBL
     D57E D5B8     
7031               	; rb34:	RESTORE rd34
7032               cvb_RB34
7033 D580 0200  20 	li r0,cvb_RD34
     D582 FD1D     
7034 D584 C800  30 	mov r0,@read_pointer
     D586 8340     
7035               	; 	GOTO rbl
7036 D588 0460  28 	b @cvb_RBL
     D58A D5B8     
7037               	; rb35:	RESTORE rd35
7038               cvb_RB35
7039 D58C 0200  20 	li r0,cvb_RD35
     D58E FD7D     
7040 D590 C800  30 	mov r0,@read_pointer
     D592 8340     
7041               	; 	GOTO rbl
7042 D594 0460  28 	b @cvb_RBL
     D596 D5B8     
7043               	; rb36:	RESTORE rd36
7044               cvb_RB36
7045 D598 0200  20 	li r0,cvb_RD36
     D59A FDDD     
7046 D59C C800  30 	mov r0,@read_pointer
     D59E 8340     
7047               	; 	GOTO rbl
7048 D5A0 0460  28 	b @cvb_RBL
     D5A2 D5B8     
7049               	; rb37:	RESTORE rd37
7050               cvb_RB37
7051 D5A4 0200  20 	li r0,cvb_RD37
     D5A6 FE3D     
7052 D5A8 C800  30 	mov r0,@read_pointer
     D5AA 8340     
7053               	; 	GOTO rbl
7054 D5AC 0460  28 	b @cvb_RBL
     D5AE D5B8     
7055               	; rb38:	RESTORE rd38
7056               cvb_RB38
7057 D5B0 0200  20 	li r0,cvb_RD38
     D5B2 FE9D     
7058 D5B4 C800  30 	mov r0,@read_pointer
     D5B6 8340     
7059               	; rbl:
7060               cvb_RBL
7061               	; 	FOR i = 0 TO 95 : READ BYTE rm(i) : NEXT i
7062 D5B8 04C0  14 	clr r0
7063 D5BA D800  38 	movb r0,@cvb_I
     D5BC 2086     
7064               cv534
7065 D5BE C060  30 	mov @read_pointer,r1
     D5C0 8340     
7066 D5C2 D011  26 	movb *r1,r0
7067 D5C4 05A0  26 	inc @read_pointer
     D5C6 8340     
7068 D5C8 C040  18 	mov r0,r1
7069 D5CA D020  34 	movb @cvb_I,r0
     D5CC 2086     
7070 D5CE 0980  32 	srl r0,8
7071 D5D0 0220  22 	ai r0,array_RM
     D5D2 212A     
7072 D5D4 D401  30 	movb r1,*r0
7073 D5D6 D020  34 	movb @cvb_I,r0
     D5D8 2086     
7074 D5DA 0220  22 	ai r0,256	; 1
     D5DC 0100     
7075 D5DE D800  38 	movb r0,@cvb_I
     D5E0 2086     
7076 D5E2 0201  20 	li r1,24576   ; 96*256
     D5E4 6000     
7077 D5E6 9040  18 	cb r0,r1
7078 D5E8 1402  14 	jhe cv535
7079 D5EA 0460  28 	b @cv534
     D5EC D5BE     
7080               cv535
7081               	; 	' colours: (wall, bg, dark) per room
7082               	; 	IF gm = 1 THEN RESTORE colc ELSE RESTORE cola
7083 D5EE D020  34 	movb @cvb_GM,r0
     D5F0 20CC     
7084 D5F2 0201  20 	li r1,256   ; 1*256
     D5F4 0100     
7085 D5F6 9001  18 	cb r1,r0
7086 D5F8 1302  14 	jeq cv537
7087 D5FA 0460  28 	b @cv536
     D5FC D60A     
7088               cv537
7089 D5FE 0200  20 	li r0,cvb_COLC
     D600 EF64     
7090 D602 C800  30 	mov r0,@read_pointer
     D604 8340     
7091 D606 0460  28 	b @cv538
     D608 D612     
7092               cv536
7093 D60A 0200  20 	li r0,cvb_COLA
     D60C EF8B     
7094 D60E C800  30 	mov r0,@read_pointer
     D610 8340     
7095               cv538
7096               	; 	i2 = rn : IF gm > 1 THEN i2 = rn - 13
7097 D612 D820  54 	movb @cvb_RN,@cvb_I2
     D614 20D8     
     D616 20CB     
7098 D618 D020  34 	movb @cvb_GM,r0
     D61A 20CC     
7099 D61C 0201  20 	li r1,512   ; 2*256
     D61E 0200     
7100 D620 9040  18 	cb r0,r1
7101 D622 1402  14 	jhe cv540
7102 D624 0460  28 	b @cv539
     D626 D634     
7103               cv540
7104 D628 D020  34 	movb @cvb_RN,r0
     D62A 20D8     
7105 D62C 0220  22 	ai r0,62208	; -13
     D62E F300     
7106 D630 D800  38 	movb r0,@cvb_I2
     D632 20CB     
7107               cv539
7108               	; 	WHILE i2 > 0
7109               cv541
7110 D634 D020  34 	movb @cvb_I2,r0
     D636 20CB     
7111 D638 0201  20 	li r1,256   ; 1*256
     D63A 0100     
7112 D63C 9040  18 	cb r0,r1
7113 D63E 1402  14 	jhe cv543
7114 D640 0460  28 	b @cv542
     D642 D67E     
7115               cv543
7116               	; 	READ BYTE t : READ BYTE t : READ BYTE t
7117 D644 C060  30 	mov @read_pointer,r1
     D646 8340     
7118 D648 D011  26 	movb *r1,r0
7119 D64A 05A0  26 	inc @read_pointer
     D64C 8340     
7120 D64E D800  38 	movb r0,@cvb_T
     D650 208B     
7121 D652 C060  30 	mov @read_pointer,r1
     D654 8340     
7122 D656 D011  26 	movb *r1,r0
7123 D658 05A0  26 	inc @read_pointer
     D65A 8340     
7124 D65C D800  38 	movb r0,@cvb_T
     D65E 208B     
7125 D660 C060  30 	mov @read_pointer,r1
     D662 8340     
7126 D664 D011  26 	movb *r1,r0
7127 D666 05A0  26 	inc @read_pointer
     D668 8340     
7128 D66A D800  38 	movb r0,@cvb_T
     D66C 208B     
7129               	; 	i2 = i2 - 1
7130 D66E D020  34 	movb @cvb_I2,r0
     D670 20CB     
7131 D672 0220  22 	ai r0,65280	; -1
     D674 FF00     
7132 D676 D800  38 	movb r0,@cvb_I2
     D678 20CB     
7133               	; 	WEND
7134 D67A 0460  28 	b @cv541
     D67C D634     
7135               cv542
7136               	; 	READ BYTE cw : READ BYTE cb : READ BYTE drk
7137 D67E C060  30 	mov @read_pointer,r1
     D680 8340     
7138 D682 D011  26 	movb *r1,r0
7139 D684 05A0  26 	inc @read_pointer
     D686 8340     
7140 D688 D800  38 	movb r0,@cvb_CW
     D68A 20C7     
7141 D68C C060  30 	mov @read_pointer,r1
     D68E 8340     
7142 D690 D011  26 	movb *r1,r0
7143 D692 05A0  26 	inc @read_pointer
     D694 8340     
7144 D696 D800  38 	movb r0,@cvb_CB
     D698 20C2     
7145 D69A C060  30 	mov @read_pointer,r1
     D69C 8340     
7146 D69E D011  26 	movb *r1,r0
7147 D6A0 05A0  26 	inc @read_pointer
     D6A2 8340     
7148 D6A4 D800  38 	movb r0,@cvb_DRK
     D6A6 209D     
7149               	; 	' wall char 128: fg=wall, bg=room bg;
7150               	; 	' portcullis 129: castle doors are always BLACK
7151               	; 	t = cw * 16 + cb
7152 D6A8 D020  34 	movb @cvb_CB,r0
     D6AA 20C2     
7153 D6AC 0980  32 	srl r0,8
7154 D6AE C040  18 	mov r0,r1
7155 D6B0 D020  34 	movb @cvb_CW,r0
     D6B2 20C7     
7156 D6B4 0980  32 	srl r0,8
7157 D6B6 0A40  24 	sla r0,4
7158 D6B8 A001  18 	a r1,r0
7159 D6BA 0A80  32 	sla r0,8
7160 D6BC D800  38 	movb r0,@cvb_T
     D6BE 208B     
7161               	; 	t2 = 16 + cb
7162 D6C0 D020  34 	movb @cvb_CB,r0
     D6C2 20C2     
7163 D6C4 0220  22 	ai r0,4096	; 16
     D6C6 1000     
7164 D6C8 D800  38 	movb r0,@cvb_T2
     D6CA 20D6     
7165               	; 	FOR i = 0 TO 7
7166 D6CC 04C0  14 	clr r0
7167 D6CE D800  38 	movb r0,@cvb_I
     D6D0 2086     
7168               cv544
7169               	; 	VPOKE $2400 + i, t : VPOKE $2C00 + i, t : VPOKE $3400 + i, t
7170 D6D2 D020  34 	movb @cvb_T,r0
     D6D4 208B     
7171 D6D6 064A  14 	dect r10
7172 D6D8 C680  30 	mov r0,*r10
7173 D6DA D020  34 	movb @cvb_I,r0
     D6DC 2086     
7174 D6DE 0980  32 	srl r0,8
7175 D6E0 0220  22 	ai r0,9216
     D6E2 2400     
7176 D6E4 C0BA  30 	mov *r10+,r2
7177 D6E6 0300  22 	limi 0
     D6E8 0000     
7178 D6EA 06A0  32 	bl @JSR
     D6EC A974     
7179 D6EE A018     	data WRTVRM
7180 D6F0 0300  22 	limi 2
     D6F2 0002     
7181 D6F4 D020  34 	movb @cvb_T,r0
     D6F6 208B     
7182 D6F8 064A  14 	dect r10
7183 D6FA C680  30 	mov r0,*r10
7184 D6FC D020  34 	movb @cvb_I,r0
     D6FE 2086     
7185 D700 0980  32 	srl r0,8
7186 D702 0220  22 	ai r0,11264
     D704 2C00     
7187 D706 C0BA  30 	mov *r10+,r2
7188 D708 0300  22 	limi 0
     D70A 0000     
7189 D70C 06A0  32 	bl @JSR
     D70E A974     
7190 D710 A018     	data WRTVRM
7191 D712 0300  22 	limi 2
     D714 0002     
7192 D716 D020  34 	movb @cvb_T,r0
     D718 208B     
7193 D71A 064A  14 	dect r10
7194 D71C C680  30 	mov r0,*r10
7195 D71E D020  34 	movb @cvb_I,r0
     D720 2086     
7196 D722 0980  32 	srl r0,8
7197 D724 0220  22 	ai r0,13312
     D726 3400     
7198 D728 C0BA  30 	mov *r10+,r2
7199 D72A 0300  22 	limi 0
     D72C 0000     
7200 D72E 06A0  32 	bl @JSR
     D730 A974     
7201 D732 A018     	data WRTVRM
7202 D734 0300  22 	limi 2
     D736 0002     
7203               	; 	VPOKE $2408 + i, t2 : VPOKE $2C08 + i, t2 : VPOKE $3408 + i, t2
7204 D738 D020  34 	movb @cvb_T2,r0
     D73A 20D6     
7205 D73C 064A  14 	dect r10
7206 D73E C680  30 	mov r0,*r10
7207 D740 D020  34 	movb @cvb_I,r0
     D742 2086     
7208 D744 0980  32 	srl r0,8
7209 D746 0220  22 	ai r0,9224
     D748 2408     
7210 D74A C0BA  30 	mov *r10+,r2
7211 D74C 0300  22 	limi 0
     D74E 0000     
7212 D750 06A0  32 	bl @JSR
     D752 A974     
7213 D754 A018     	data WRTVRM
7214 D756 0300  22 	limi 2
     D758 0002     
7215 D75A D020  34 	movb @cvb_T2,r0
     D75C 20D6     
7216 D75E 064A  14 	dect r10
7217 D760 C680  30 	mov r0,*r10
7218 D762 D020  34 	movb @cvb_I,r0
     D764 2086     
7219 D766 0980  32 	srl r0,8
7220 D768 0220  22 	ai r0,11272
     D76A 2C08     
7221 D76C C0BA  30 	mov *r10+,r2
7222 D76E 0300  22 	limi 0
     D770 0000     
7223 D772 06A0  32 	bl @JSR
     D774 A974     
7224 D776 A018     	data WRTVRM
7225 D778 0300  22 	limi 2
     D77A 0002     
7226 D77C D020  34 	movb @cvb_T2,r0
     D77E 20D6     
7227 D780 064A  14 	dect r10
7228 D782 C680  30 	mov r0,*r10
7229 D784 D020  34 	movb @cvb_I,r0
     D786 2086     
7230 D788 0980  32 	srl r0,8
7231 D78A 0220  22 	ai r0,13320
     D78C 3408     
7232 D78E C0BA  30 	mov *r10+,r2
7233 D790 0300  22 	limi 0
     D792 0000     
7234 D794 06A0  32 	bl @JSR
     D796 A974     
7235 D798 A018     	data WRTVRM
7236 D79A 0300  22 	limi 2
     D79C 0002     
7237               	; 	NEXT i
7238 D79E D020  34 	movb @cvb_I,r0
     D7A0 2086     
7239 D7A2 0220  22 	ai r0,256	; 1
     D7A4 0100     
7240 D7A6 D800  38 	movb r0,@cvb_I
     D7A8 2086     
7241 D7AA 0201  20 	li r1,2048   ; 8*256
     D7AC 0800     
7242 D7AE 9040  18 	cb r0,r1
7243 D7B0 1402  14 	jhe cv545
7244 D7B2 0460  28 	b @cv544
     D7B4 D6D2     
7245               cv545
7246               	; 	' the player square wears the room's wall colour, exactly
7247               	; 	' like the original avatar (walls always contrast with the
7248               	; 	' background, so it stays visible everywhere)
7249               	; 	pcol = cw
7250 D7B6 D820  54 	movb @cvb_CW,@cvb_PCOL
     D7B8 20C7     
     D7BA 20C6     
7251               	; 	' empty cells (char 32) show the background colour
7252               	; 	FOR i = 0 TO 7
7253 D7BC 04C0  14 	clr r0
7254 D7BE D800  38 	movb r0,@cvb_I
     D7C0 2086     
7255               cv546
7256               	; 	VPOKE $2100 + i, cb : VPOKE $2900 + i, cb : VPOKE $3100 + i, cb
7257 D7C2 D020  34 	movb @cvb_CB,r0
     D7C4 20C2     
7258 D7C6 064A  14 	dect r10
7259 D7C8 C680  30 	mov r0,*r10
7260 D7CA D020  34 	movb @cvb_I,r0
     D7CC 2086     
7261 D7CE 0980  32 	srl r0,8
7262 D7D0 0220  22 	ai r0,8448
     D7D2 2100     
7263 D7D4 C0BA  30 	mov *r10+,r2
7264 D7D6 0300  22 	limi 0
     D7D8 0000     
7265 D7DA 06A0  32 	bl @JSR
     D7DC A974     
7266 D7DE A018     	data WRTVRM
7267 D7E0 0300  22 	limi 2
     D7E2 0002     
7268 D7E4 D020  34 	movb @cvb_CB,r0
     D7E6 20C2     
7269 D7E8 064A  14 	dect r10
7270 D7EA C680  30 	mov r0,*r10
7271 D7EC D020  34 	movb @cvb_I,r0
     D7EE 2086     
7272 D7F0 0980  32 	srl r0,8
7273 D7F2 0220  22 	ai r0,10496
     D7F4 2900     
7274 D7F6 C0BA  30 	mov *r10+,r2
7275 D7F8 0300  22 	limi 0
     D7FA 0000     
7276 D7FC 06A0  32 	bl @JSR
     D7FE A974     
7277 D800 A018     	data WRTVRM
7278 D802 0300  22 	limi 2
     D804 0002     
7279 D806 D020  34 	movb @cvb_CB,r0
     D808 20C2     
7280 D80A 064A  14 	dect r10
7281 D80C C680  30 	mov r0,*r10
7282 D80E D020  34 	movb @cvb_I,r0
     D810 2086     
7283 D812 0980  32 	srl r0,8
7284 D814 0220  22 	ai r0,12544
     D816 3100     
7285 D818 C0BA  30 	mov *r10+,r2
7286 D81A 0300  22 	limi 0
     D81C 0000     
7287 D81E 06A0  32 	bl @JSR
     D820 A974     
7288 D822 A018     	data WRTVRM
7289 D824 0300  22 	limi 2
     D826 0002     
7290               	; 	NEXT i
7291 D828 D020  34 	movb @cvb_I,r0
     D82A 2086     
7292 D82C 0220  22 	ai r0,256	; 1
     D82E 0100     
7293 D830 D800  38 	movb r0,@cvb_I
     D832 2086     
7294 D834 0201  20 	li r1,2048   ; 8*256
     D836 0800     
7295 D838 9040  18 	cb r0,r1
7296 D83A 1402  14 	jhe cv547
7297 D83C 0460  28 	b @cv546
     D83E D7C2     
7298               cv547
7299               	; 	BORDER cb
7300 D840 D020  34 	movb @cvb_CB,r0
     D842 20C2     
7301 D844 0980  32 	srl r0,8
7302 D846 0260  22 	ori r0,>8700
     D848 8700     
7303 D84A 06C0  14 	swpb r0
7304 D84C 0300  22 	limi 0
     D84E 0000     
7305 D850 D800  30 	movb r0,@VDPWADR
     D852 8C02     
7306 D854 06C0  14 	swpb r0
7307 D856 D800  30 	movb r0,@VDPWADR
     D858 8C02     
7308 D85A 0300  22 	limi 2
     D85C 0002     
7309               	; 	' player links cached for the exit routines
7310               	; 	lkr = rn
7311 D85E D820  54 	movb @cvb_RN,@cvb_LKR
     D860 20D8     
     D862 2098     
7312               	; 	GOSUB getlnk
7313 D864 06A0  32 	bl @jsr
     D866 A974     
7314 D868 D224     	data cvb_GETLNK
7315               	; 	pn = lkn : pe = lke : ps = lks : pw = lkw
7316 D86A D820  54 	movb @cvb_LKN,@cvb_PN
     D86C 2095     
     D86E 20D1     
7317 D870 D820  54 	movb @cvb_LKE,@cvb_PE
     D872 2093     
     D874 20CE     
7318 D876 D820  54 	movb @cvb_LKS,@cvb_PS
     D878 2099     
     D87A 20D2     
7319 D87C D820  54 	movb @cvb_LKW,@cvb_PW
     D87E 209A     
     D880 20D3     
7320               	; 	' seal any doorway whose exit leads nowhere in THIS game, so
7321               	; 	' collision and visuals agree (game 2 shares screens with the
7322               	; 	' full kingdom but links fewer of them)
7323               	; 	IF pn = 255 THEN rm(0) = 255 : rm(1) = 255 : rm(2) = 255 : rm(3) = 255
7324 D882 D020  34 	movb @cvb_PN,r0
     D884 20D1     
7325 D886 0201  20 	li r1,65280   ; 255*256
     D888 FF00     
7326 D88A 9001  18 	cb r1,r0
7327 D88C 1302  14 	jeq cv549
7328 D88E 0460  28 	b @cv548
     D890 D8B2     
7329               cv549
7330 D892 0200  20 	li r0,65280   ; 255*256
     D894 FF00     
7331 D896 D800  38 	movb r0,@array_RM
     D898 212A     
7332 D89A 0200  20 	li r0,65280   ; 255*256
     D89C FF00     
7333 D89E D800  38 	movb r0,@array_RM+1
     D8A0 212B     
7334 D8A2 0200  20 	li r0,65280   ; 255*256
     D8A4 FF00     
7335 D8A6 D800  38 	movb r0,@array_RM+2
     D8A8 212C     
7336 D8AA 0200  20 	li r0,65280   ; 255*256
     D8AC FF00     
7337 D8AE D800  38 	movb r0,@array_RM+3
     D8B0 212D     
7338               cv548
7339               	; 	IF ps = 255 THEN rm(92) = 255 : rm(93) = 255 : rm(94) = 255 : rm(95) = 255
7340 D8B2 D020  34 	movb @cvb_PS,r0
     D8B4 20D2     
7341 D8B6 0201  20 	li r1,65280   ; 255*256
     D8B8 FF00     
7342 D8BA 9001  18 	cb r1,r0
7343 D8BC 1302  14 	jeq cv551
7344 D8BE 0460  28 	b @cv550
     D8C0 D8E2     
7345               cv551
7346 D8C2 0200  20 	li r0,65280   ; 255*256
     D8C4 FF00     
7347 D8C6 D800  38 	movb r0,@array_RM+92
     D8C8 2186     
7348 D8CA 0200  20 	li r0,65280   ; 255*256
     D8CC FF00     
7349 D8CE D800  38 	movb r0,@array_RM+93
     D8D0 2187     
7350 D8D2 0200  20 	li r0,65280   ; 255*256
     D8D4 FF00     
7351 D8D6 D800  38 	movb r0,@array_RM+94
     D8D8 2188     
7352 D8DA 0200  20 	li r0,65280   ; 255*256
     D8DC FF00     
7353 D8DE D800  38 	movb r0,@array_RM+95
     D8E0 2189     
7354               cv550
7355               	; 	IF pe = 255 THEN FOR i = 0 TO 23 : rm(i * 4 + 3) = rm(i * 4 + 3) OR 3 : NEXT i
7356 D8E2 D020  34 	movb @cvb_PE,r0
     D8E4 20CE     
7357 D8E6 0201  20 	li r1,65280   ; 255*256
     D8E8 FF00     
7358 D8EA 9001  18 	cb r1,r0
7359 D8EC 1302  14 	jeq cv553
7360 D8EE 0460  28 	b @cv552
     D8F0 D93C     
7361               cv553
7362 D8F2 04C0  14 	clr r0
7363 D8F4 D800  38 	movb r0,@cvb_I
     D8F6 2086     
7364               cv554
7365 D8F8 D020  34 	movb @cvb_I,r0
     D8FA 2086     
7366 D8FC 0980  32 	srl r0,8
7367 D8FE 0A20  20 	sla r0,2
7368 D900 0220  22 	ai r0,3
     D902 0003     
7369 D904 0220  22 	ai r0,array_RM
     D906 212A     
7370 D908 D010  26 	movb *r0,r0
7371 D90A 0201  20 	li r1,768   ; 3*256
     D90C 0300     
7372 D90E F001  18 	socb r1,r0
7373 D910 C040  18 	mov r0,r1
7374 D912 D020  34 	movb @cvb_I,r0
     D914 2086     
7375 D916 0980  32 	srl r0,8
7376 D918 0A20  20 	sla r0,2
7377 D91A 0220  22 	ai r0,3
     D91C 0003     
7378 D91E 0220  22 	ai r0,array_RM
     D920 212A     
7379 D922 D401  30 	movb r1,*r0
7380 D924 D020  34 	movb @cvb_I,r0
     D926 2086     
7381 D928 0220  22 	ai r0,256	; 1
     D92A 0100     
7382 D92C D800  38 	movb r0,@cvb_I
     D92E 2086     
7383 D930 0201  20 	li r1,6144   ; 24*256
     D932 1800     
7384 D934 9040  18 	cb r0,r1
7385 D936 1402  14 	jhe cv555
7386 D938 0460  28 	b @cv554
     D93A D8F8     
7387               cv555
7388               cv552
7389               	; 	IF pw = 255 THEN FOR i = 0 TO 23 : rm(i * 4) = rm(i * 4) OR $C0 : NEXT i
7390 D93C D020  34 	movb @cvb_PW,r0
     D93E 20D3     
7391 D940 0201  20 	li r1,65280   ; 255*256
     D942 FF00     
7392 D944 9001  18 	cb r1,r0
7393 D946 1302  14 	jeq cv557
7394 D948 0460  28 	b @cv556
     D94A D98E     
7395               cv557
7396 D94C 04C0  14 	clr r0
7397 D94E D800  38 	movb r0,@cvb_I
     D950 2086     
7398               cv558
7399 D952 D020  34 	movb @cvb_I,r0
     D954 2086     
7400 D956 0980  32 	srl r0,8
7401 D958 0A20  20 	sla r0,2
7402 D95A 0220  22 	ai r0,array_RM
     D95C 212A     
7403 D95E D010  26 	movb *r0,r0
7404 D960 0201  20 	li r1,49152   ; 192*256
     D962 C000     
7405 D964 F001  18 	socb r1,r0
7406 D966 C040  18 	mov r0,r1
7407 D968 D020  34 	movb @cvb_I,r0
     D96A 2086     
7408 D96C 0980  32 	srl r0,8
7409 D96E 0A20  20 	sla r0,2
7410 D970 0220  22 	ai r0,array_RM
     D972 212A     
7411 D974 D401  30 	movb r1,*r0
7412 D976 D020  34 	movb @cvb_I,r0
     D978 2086     
7413 D97A 0220  22 	ai r0,256	; 1
     D97C 0100     
7414 D97E D800  38 	movb r0,@cvb_I
     D980 2086     
7415 D982 0201  20 	li r1,6144   ; 24*256
     D984 1800     
7416 D986 9040  18 	cb r0,r1
7417 D988 1402  14 	jhe cv559
7418 D98A 0460  28 	b @cv558
     D98C D952     
7419               cv559
7420               cv556
7421               	; 	CLS
7422 D98E 06A0  32 	bl @jsr
     D990 A974     
7423 D992 A0FC     	data cls
7424               	; 	fon = 0
7425 D994 04C0  14 	clr r0
7426 D996 D800  38 	movb r0,@cvb_FON
     D998 20A7     
7427               	; 	IF drk = 1 THEN GOSUB fogenter ELSE GOSUB drawroom
7428 D99A D020  34 	movb @cvb_DRK,r0
     D99C 209D     
7429 D99E 0201  20 	li r1,256   ; 1*256
     D9A0 0100     
7430 D9A2 9001  18 	cb r1,r0
7431 D9A4 1302  14 	jeq cv561
7432 D9A6 0460  28 	b @cv560
     D9A8 D9B4     
7433               cv561
7434 D9AA 06A0  32 	bl @jsr
     D9AC A974     
7435 D9AE DCEA     	data cvb_FOGENTER
7436 D9B0 0460  28 	b @cv562
     D9B2 D9BA     
7437               cv560
7438 D9B4 06A0  32 	bl @jsr
     D9B6 A974     
7439 D9B8 DBB0     	data cvb_DRAWROOM
7440               cv562
7441               	; 	gz = 0 : gopn = 0
7442 D9BA 04C0  14 	clr r0
7443 D9BC D800  38 	movb r0,@cvb_GZ
     D9BE 20CD     
7444 D9C0 04C0  14 	clr r0
7445 D9C2 D800  38 	movb r0,@cvb_GOPN
     D9C4 209B     
7446               	; 	IF rn = 0 THEN gz = 1
7447 D9C6 D020  34 	movb @cvb_RN,r0
     D9C8 20D8     
7448 D9CA 1302  14 	jeq cv564
7449 D9CC 0460  28 	b @cv563
     D9CE D9D8     
7450               cv564
7451 D9D0 0200  20 	li r0,256   ; 1*256
     D9D2 0100     
7452 D9D4 D800  38 	movb r0,@cvb_GZ
     D9D6 20CD     
7453               cv563
7454               	; 	IF rn = 13 THEN gz = 1
7455 D9D8 D020  34 	movb @cvb_RN,r0
     D9DA 20D8     
7456 D9DC 0201  20 	li r1,3328   ; 13*256
     D9DE 0D00     
7457 D9E0 9001  18 	cb r1,r0
7458 D9E2 1302  14 	jeq cv566
7459 D9E4 0460  28 	b @cv565
     D9E6 D9F0     
7460               cv566
7461 D9E8 0200  20 	li r0,256   ; 1*256
     D9EA 0100     
7462 D9EC D800  38 	movb r0,@cvb_GZ
     D9EE 20CD     
7463               cv565
7464               	; 	IF rn = 8 THEN gz = 2
7465 D9F0 D020  34 	movb @cvb_RN,r0
     D9F2 20D8     
7466 D9F4 0201  20 	li r1,2048   ; 8*256
     D9F6 0800     
7467 D9F8 9001  18 	cb r1,r0
7468 D9FA 1302  14 	jeq cv568
7469 D9FC 0460  28 	b @cv567
     D9FE DA08     
7470               cv568
7471 DA00 0200  20 	li r0,512   ; 2*256
     DA02 0200     
7472 DA04 D800  38 	movb r0,@cvb_GZ
     DA06 20CD     
7473               cv567
7474               	; 	IF rn = 24 THEN gz = 2
7475 DA08 D020  34 	movb @cvb_RN,r0
     DA0A 20D8     
7476 DA0C 0201  20 	li r1,6144   ; 24*256
     DA0E 1800     
7477 DA10 9001  18 	cb r1,r0
7478 DA12 1302  14 	jeq cv570
7479 DA14 0460  28 	b @cv569
     DA16 DA20     
7480               cv570
7481 DA18 0200  20 	li r0,512   ; 2*256
     DA1A 0200     
7482 DA1C D800  38 	movb r0,@cvb_GZ
     DA1E 20CD     
7483               cv569
7484               	; 	IF rn = 11 THEN gz = 3
7485 DA20 D020  34 	movb @cvb_RN,r0
     DA22 20D8     
7486 DA24 0201  20 	li r1,2816   ; 11*256
     DA26 0B00     
7487 DA28 9001  18 	cb r1,r0
7488 DA2A 1302  14 	jeq cv572
7489 DA2C 0460  28 	b @cv571
     DA2E DA38     
7490               cv572
7491 DA30 0200  20 	li r0,768   ; 3*256
     DA32 0300     
7492 DA34 D800  38 	movb r0,@cvb_GZ
     DA36 20CD     
7493               cv571
7494               	; 	IF rn = 32 THEN gz = 3
7495 DA38 D020  34 	movb @cvb_RN,r0
     DA3A 20D8     
7496 DA3C 0201  20 	li r1,8192   ; 32*256
     DA3E 2000     
7497 DA40 9001  18 	cb r1,r0
7498 DA42 1302  14 	jeq cv574
7499 DA44 0460  28 	b @cv573
     DA46 DA50     
7500               cv574
7501 DA48 0200  20 	li r0,768   ; 3*256
     DA4A 0300     
7502 DA4C D800  38 	movb r0,@cvb_GZ
     DA4E 20CD     
7503               cv573
7504               	; 	IF gz > 0 THEN gopn = gop(gz - 1)
7505 DA50 D020  34 	movb @cvb_GZ,r0
     DA52 20CD     
7506 DA54 0201  20 	li r1,256   ; 1*256
     DA56 0100     
7507 DA58 9040  18 	cb r0,r1
7508 DA5A 1402  14 	jhe cv576
7509 DA5C 0460  28 	b @cv575
     DA5E DA70     
7510               cv576
7511 DA60 D020  34 	movb @cvb_GZ,r0
     DA62 20CD     
7512 DA64 0980  32 	srl r0,8
7513 DA66 0600  14 	dec r0
7514 DA68 0220  22 	ai r0,array_GOP
     DA6A 2126     
7515 DA6C D810  46 	movb *r0,@cvb_GOPN
     DA6E 209B     
7516               cv575
7517               	; 	IF gz > 0 THEN IF gopn = 0 THEN GOSUB drawgate
7518 DA70 D020  34 	movb @cvb_GZ,r0
     DA72 20CD     
7519 DA74 0201  20 	li r1,256   ; 1*256
     DA76 0100     
7520 DA78 9040  18 	cb r0,r1
7521 DA7A 1402  14 	jhe cv578
7522 DA7C 0460  28 	b @cv577
     DA7E DA90     
7523               cv578
7524 DA80 D020  34 	movb @cvb_GOPN,r0
     DA82 209B     
7525 DA84 1302  14 	jeq cv580
7526 DA86 0460  28 	b @cv579
     DA88 DA90     
7527               cv580
7528 DA8A 06A0  32 	bl @jsr
     DA8C A974     
7529 DA8E DC78     	data cvb_DRAWGATE
7530               cv579
7531               cv577
7532               	; 	IF rn = 18 THEN PRINT AT 32 * 10 + 11, "ADVENTIRE" : PRINT AT 32 * 13 + 4, "2026 UNHUMAN AND CLAUDE"
7533 DA90 D020  34 	movb @cvb_RN,r0
     DA92 20D8     
7534 DA94 0201  20 	li r1,4608   ; 18*256
     DA96 1200     
7535 DA98 9001  18 	cb r1,r0
7536 DA9A 1302  14 	jeq cv582
7537 DA9C 0460  28 	b @cv581
     DA9E DAF6     
7538               cv582
7539 DAA0 0200  20 	li r0,331
     DAA2 014B     
7540 DAA4 C800  30 	mov r0,@cursor
     DAA6 8342     
7541 DAA8 0202  20 	li r2,cv583
     DAAA DABA     
7542 DAAC 0203  20 	li r3,9
     DAAE 0009     
7543 DAB0 06A0  32 	bl @jsr
     DAB2 A974     
7544 DAB4 A11C     	data print_string
7545 DAB6 0460  28 	b @cv584
     DAB8 DAC4     
7546               cv583
7547 DABA 4144     	byte >41,>44,>56,>45,>4e,>54,>49,>52
     DABC 5645     
     DABE 4E54     
     DAC0 4952     
7548 DAC2 45       	byte >45
7549               	even
7550               cv584
7551 DAC4 0200  20 	li r0,420
     DAC6 01A4     
7552 DAC8 C800  30 	mov r0,@cursor
     DACA 8342     
7553 DACC 0202  20 	li r2,cv585
     DACE DADE     
7554 DAD0 0203  20 	li r3,23
     DAD2 0017     
7555 DAD4 06A0  32 	bl @jsr
     DAD6 A974     
7556 DAD8 A11C     	data print_string
7557 DADA 0460  28 	b @cv586
     DADC DAF6     
7558               cv585
7559 DADE 3230     	byte >32,>30,>32,>36,>20,>55,>4e,>48
     DAE0 3236     
     DAE2 2055     
     DAE4 4E48     
7560 DAE6 554D     	byte >55,>4d,>41,>4e,>20,>41,>4e,>44
     DAE8 414E     
     DAEA 2041     
     DAEC 4E44     
7561 DAEE 2043     	byte >20,>43,>4c,>41,>55,>44,>45
     DAF0 4C41     
     DAF2 5544     
     DAF4 45       
7562               	even
7563               cv586
7564               cv581
7565               	; 	FOR d = 0 TO 2
7566 DAF6 04C0  14 	clr r0
7567 DAF8 D800  38 	movb r0,@cvb_D
     DAFA 2083     
7568               cv587
7569               	; 	IF drm(d) = rn THEN IF dst(d) = 0 THEN GOSUB dsafe : sfx = 5 : sfc = 20
7570 DAFC D020  34 	movb @cvb_D,r0
     DAFE 2083     
7571 DB00 0980  32 	srl r0,8
7572 DB02 0220  22 	ai r0,array_DRM
     DB04 20F6     
7573 DB06 D010  26 	movb *r0,r0
7574 DB08 9020  34 	cb @cvb_RN,r0
     DB0A 20D8     
7575 DB0C 1302  14 	jeq cv589
7576 DB0E 0460  28 	b @cv588
     DB10 DB3A     
7577               cv589
7578 DB12 D020  34 	movb @cvb_D,r0
     DB14 2083     
7579 DB16 0980  32 	srl r0,8
7580 DB18 0220  22 	ai r0,array_DST
     DB1A 20FE     
7581 DB1C D010  26 	movb *r0,r0
7582 DB1E 1302  14 	jeq cv591
7583 DB20 0460  28 	b @cv590
     DB22 DB3A     
7584               cv591
7585 DB24 06A0  32 	bl @jsr
     DB26 A974     
7586 DB28 E37E     	data cvb_DSAFE
7587 DB2A 0200  20 	li r0,1280   ; 5*256
     DB2C 0500     
7588 DB2E D800  38 	movb r0,@cvb_SFX
     DB30 20D7     
7589 DB32 0200  20 	li r0,5120   ; 20*256
     DB34 1400     
7590 DB36 D800  38 	movb r0,@cvb_SFC
     DB38 20CF     
7591               cv590
7592               cv588
7593               	; 	NEXT d
7594 DB3A D020  34 	movb @cvb_D,r0
     DB3C 2083     
7595 DB3E 0220  22 	ai r0,256	; 1
     DB40 0100     
7596 DB42 D800  38 	movb r0,@cvb_D
     DB44 2083     
7597 DB46 0201  20 	li r1,768   ; 3*256
     DB48 0300     
7598 DB4A 9040  18 	cb r0,r1
7599 DB4C 1402  14 	jhe cv592
7600 DB4E 0460  28 	b @cv587
     DB50 DAFC     
7601               cv592
7602               	; 	END
7603 DB52 C03A  30 	mov *r10+,r0
7604 DB54 0450  20 	b *r0
7605               	;
7606               	; dchase: PROCEDURE
7607               	even
7608               cvb_DCHASE
7609               	; 	' schedule pursuit for live dragons in the abandoned room
7610               	; 	FOR d = 0 TO 2
7611 DB56 04C0  14 	clr r0
7612 DB58 D800  38 	movb r0,@cvb_D
     DB5A 2083     
7613               cv593
7614               	; 	IF drm(d) = prn THEN IF dst(d) = 0 THEN fdl(d) = 40
7615 DB5C D020  34 	movb @cvb_D,r0
     DB5E 2083     
7616 DB60 0980  32 	srl r0,8
7617 DB62 0220  22 	ai r0,array_DRM
     DB64 20F6     
7618 DB66 D010  26 	movb *r0,r0
7619 DB68 9020  34 	cb @cvb_PRN,r0
     DB6A 20BA     
7620 DB6C 1302  14 	jeq cv595
7621 DB6E 0460  28 	b @cv594
     DB70 DB94     
7622               cv595
7623 DB72 D020  34 	movb @cvb_D,r0
     DB74 2083     
7624 DB76 0980  32 	srl r0,8
7625 DB78 0220  22 	ai r0,array_DST
     DB7A 20FE     
7626 DB7C D010  26 	movb *r0,r0
7627 DB7E 1302  14 	jeq cv597
7628 DB80 0460  28 	b @cv596
     DB82 DB94     
7629               cv597
7630 DB84 0201  20 	li r1,10240
     DB86 2800     
7631 DB88 D020  34 	movb @cvb_D,r0
     DB8A 2083     
7632 DB8C 0980  32 	srl r0,8
7633 DB8E 0220  22 	ai r0,array_FDL
     DB90 211A     
7634 DB92 D401  30 	movb r1,*r0
7635               cv596
7636               cv594
7637               	; 	NEXT d
7638 DB94 D020  34 	movb @cvb_D,r0
     DB96 2083     
7639 DB98 0220  22 	ai r0,256	; 1
     DB9A 0100     
7640 DB9C D800  38 	movb r0,@cvb_D
     DB9E 2083     
7641 DBA0 0201  20 	li r1,768   ; 3*256
     DBA2 0300     
7642 DBA4 9040  18 	cb r0,r1
7643 DBA6 1402  14 	jhe cv598
7644 DBA8 0460  28 	b @cv593
     DBAA DB5C     
7645               cv598
7646               	; 	END
7647 DBAC C03A  30 	mov *r10+,r0
7648 DBAE 0450  20 	b *r0
7649               	;
7650               	; drawroom: PROCEDURE
7651               	even
7652               cvb_DRAWROOM
7653               	; 	' one char per 8px cell (CLS already blanked the screen)
7654               	; 	FOR r = 0 TO 23
7655 DBB0 04C0  14 	clr r0
7656 DBB2 D800  38 	movb r0,@cvb_R
     DBB4 208A     
7657               cv599
7658               	; 	#ad = $1800 + r * 32
7659 DBB6 D020  34 	movb @cvb_R,r0
     DBB8 208A     
7660 DBBA 0980  32 	srl r0,8
7661 DBBC 0A50  26 	sla r0,5
7662 DBBE 0220  22 	ai r0,6144
     DBC0 1800     
7663 DBC2 C800  38 	mov r0,@cvb__AD
     DBC4 20AA     
7664               	; 	FOR t2 = 0 TO 3
7665 DBC6 04C0  14 	clr r0
7666 DBC8 D800  38 	movb r0,@cvb_T2
     DBCA 20D6     
7667               cv600
7668               	; 	t = rm(r * 4 + t2)
7669 DBCC D020  34 	movb @cvb_T2,r0
     DBCE 20D6     
7670 DBD0 0980  32 	srl r0,8
7671 DBD2 C040  18 	mov r0,r1
7672 DBD4 D020  34 	movb @cvb_R,r0
     DBD6 208A     
7673 DBD8 0980  32 	srl r0,8
7674 DBDA 0A20  20 	sla r0,2
7675 DBDC A001  18 	a r1,r0
7676 DBDE 0220  22 	ai r0,array_RM
     DBE0 212A     
7677 DBE2 D810  46 	movb *r0,@cvb_T
     DBE4 208B     
7678               	; 	FOR i = 0 TO 7
7679 DBE6 04C0  14 	clr r0
7680 DBE8 D800  38 	movb r0,@cvb_I
     DBEA 2086     
7681               cv601
7682               	; 	IF (t AND msk(i)) > 0 THEN VPOKE #ad, 128
7683 DBEC D020  34 	movb @cvb_I,r0
     DBEE 2086     
7684 DBF0 0980  32 	srl r0,8
7685 DBF2 0220  22 	ai r0,array_MSK
     DBF4 20EE     
7686 DBF6 D050  26 	movb *r0,r1
7687 DBF8 D020  34 	movb @cvb_T,r0
     DBFA 208B     
7688 DBFC 0541  14 	inv r1
7689 DBFE 5001  18 	szcb r1,r0
7690 DC00 0201  20 	li r1,256   ; 1*256
     DC02 0100     
7691 DC04 9040  18 	cb r0,r1
7692 DC06 1402  14 	jhe cv603
7693 DC08 0460  28 	b @cv602
     DC0A DC28     
7694               cv603
7695 DC0C 0200  20 	li r0,32768   ; 128*256
     DC0E 8000     
7696 DC10 064A  14 	dect r10
7697 DC12 C680  30 	mov r0,*r10
7698 DC14 C020  34 	mov @cvb__AD,r0
     DC16 20AA     
7699 DC18 C0BA  30 	mov *r10+,r2
7700 DC1A 0300  22 	limi 0
     DC1C 0000     
7701 DC1E 06A0  32 	bl @JSR
     DC20 A974     
7702 DC22 A018     	data WRTVRM
7703 DC24 0300  22 	limi 2
     DC26 0002     
7704               cv602
7705               	; 	#ad = #ad + 1
7706 DC28 05A0  34 	inc @cvb__AD
     DC2A 20AA     
7707               	; 	NEXT i
7708 DC2C D020  34 	movb @cvb_I,r0
     DC2E 2086     
7709 DC30 0220  22 	ai r0,256	; 1
     DC32 0100     
7710 DC34 D800  38 	movb r0,@cvb_I
     DC36 2086     
7711 DC38 0201  20 	li r1,2048   ; 8*256
     DC3A 0800     
7712 DC3C 9040  18 	cb r0,r1
7713 DC3E 1402  14 	jhe cv604
7714 DC40 0460  28 	b @cv601
     DC42 DBEC     
7715               cv604
7716               	; 	NEXT t2
7717 DC44 D020  34 	movb @cvb_T2,r0
     DC46 20D6     
7718 DC48 0220  22 	ai r0,256	; 1
     DC4A 0100     
7719 DC4C D800  38 	movb r0,@cvb_T2
     DC4E 20D6     
7720 DC50 0201  20 	li r1,1024   ; 4*256
     DC52 0400     
7721 DC54 9040  18 	cb r0,r1
7722 DC56 1402  14 	jhe cv605
7723 DC58 0460  28 	b @cv600
     DC5A DBCC     
7724               cv605
7725               	; 	NEXT r
7726 DC5C D020  34 	movb @cvb_R,r0
     DC5E 208A     
7727 DC60 0220  22 	ai r0,256	; 1
     DC62 0100     
7728 DC64 D800  38 	movb r0,@cvb_R
     DC66 208A     
7729 DC68 0201  20 	li r1,6144   ; 24*256
     DC6A 1800     
7730 DC6C 9040  18 	cb r0,r1
7731 DC6E 1402  14 	jhe cv606
7732 DC70 0460  28 	b @cv599
     DC72 DBB6     
7733               cv606
7734               	; 	END
7735 DC74 C03A  30 	mov *r10+,r0
7736 DC76 0450  20 	b *r0
7737               	;
7738               	; drawgate: PROCEDURE
7739               	even
7740               cvb_DRAWGATE
7741               	; 	FOR r = 4 TO 7
7742 DC78 0200  20 	li r0,1024   ; 4*256
     DC7A 0400     
7743 DC7C D800  38 	movb r0,@cvb_R
     DC7E 208A     
7744               cv607
7745               	; 	FOR c2 = 14 TO 17 : VPOKE $1800 + r * 32 + c2, 129 : NEXT c2
7746 DC80 0200  20 	li r0,3584   ; 14*256
     DC82 0E00     
7747 DC84 D800  38 	movb r0,@cvb_C2
     DC86 20BD     
7748               cv608
7749 DC88 0200  20 	li r0,33024   ; 129*256
     DC8A 8100     
7750 DC8C 064A  14 	dect r10
7751 DC8E C680  30 	mov r0,*r10
7752 DC90 D020  34 	movb @cvb_C2,r0
     DC92 20BD     
7753 DC94 0980  32 	srl r0,8
7754 DC96 C040  18 	mov r0,r1
7755 DC98 D020  34 	movb @cvb_R,r0
     DC9A 208A     
7756 DC9C 0980  32 	srl r0,8
7757 DC9E 0A50  26 	sla r0,5
7758 DCA0 0220  22 	ai r0,6144
     DCA2 1800     
7759 DCA4 A001  18 	a r1,r0
7760 DCA6 C0BA  30 	mov *r10+,r2
7761 DCA8 0300  22 	limi 0
     DCAA 0000     
7762 DCAC 06A0  32 	bl @JSR
     DCAE A974     
7763 DCB0 A018     	data WRTVRM
7764 DCB2 0300  22 	limi 2
     DCB4 0002     
7765 DCB6 D020  34 	movb @cvb_C2,r0
     DCB8 20BD     
7766 DCBA 0220  22 	ai r0,256	; 1
     DCBC 0100     
7767 DCBE D800  38 	movb r0,@cvb_C2
     DCC0 20BD     
7768 DCC2 0201  20 	li r1,4608   ; 18*256
     DCC4 1200     
7769 DCC6 9040  18 	cb r0,r1
7770 DCC8 1402  14 	jhe cv609
7771 DCCA 0460  28 	b @cv608
     DCCC DC88     
7772               cv609
7773               	; 	NEXT r
7774 DCCE D020  34 	movb @cvb_R,r0
     DCD0 208A     
7775 DCD2 0220  22 	ai r0,256	; 1
     DCD4 0100     
7776 DCD6 D800  38 	movb r0,@cvb_R
     DCD8 208A     
7777 DCDA 0201  20 	li r1,2048   ; 8*256
     DCDC 0800     
7778 DCDE 9040  18 	cb r0,r1
7779 DCE0 1402  14 	jhe cv610
7780 DCE2 0460  28 	b @cv607
     DCE4 DC80     
7781               cv610
7782               	; 	END
7783 DCE6 C03A  30 	mov *r10+,r0
7784 DCE8 0450  20 	b *r0
7785               	;
7786               	; 	' ------------------------------------------------------------
7787               	; 	' fog of war (dark rooms): only wall blocks within 2 blocks
7788               	; 	' of the player are drawn; window is redrawn when the player
7789               	; 	' crosses a block boundary
7790               	; 	' ------------------------------------------------------------
7791               	; fogenter: PROCEDURE
7792               	even
7793               cvb_FOGENTER
7794               	; 	fon = 1
7795 DCEA 0200  20 	li r0,256   ; 1*256
     DCEC 0100     
7796 DCEE D800  38 	movb r0,@cvb_FON
     DCF0 20A7     
7797               	; 	fpr = (py + 4) / 8 : fpc = (px + 4) / 8
7798 DCF2 D020  34 	movb @cvb_PY,r0
     DCF4 20D5     
7799 DCF6 0980  32 	srl r0,8
7800 DCF8 0220  22 	ai r0,4
     DCFA 0004     
7801 DCFC 0930  22 	srl r0,3
7802 DCFE 0A80  32 	sla r0,8
7803 DD00 D800  38 	movb r0,@cvb_FPR
     DD02 20AC     
7804 DD04 D020  34 	movb @cvb_PX,r0
     DD06 20D4     
7805 DD08 0980  32 	srl r0,8
7806 DD0A 0220  22 	ai r0,4
     DD0C 0004     
7807 DD0E 0930  22 	srl r0,3
7808 DD10 0A80  32 	sla r0,8
7809 DD12 D800  38 	movb r0,@cvb_FPC
     DD14 20A6     
7810               	; 	GOSUB fogdraw
7811 DD16 06A0  32 	bl @jsr
     DD18 A974     
7812 DD1A E22E     	data cvb_FOGDRAW
7813               	; 	END
7814 DD1C C03A  30 	mov *r10+,r0
7815 DD1E 0450  20 	b *r0
7816               	;
7817               	; fogupd: PROCEDURE
7818               	even
7819               cvb_FOGUPD
7820               	; 	' differential update: the player crosses at most one cell
7821               	; 	' boundary per axis per tick, so only the trailing edge is
7822               	; 	' erased and the leading edge drawn (a full window wipe+draw
7823               	; 	' every crossing dragged the TI-99 below 30Hz in dark rooms)
7824               	; 	t = (py + 4) / 8 : t2 = (px + 4) / 8
7825 DD20 D020  34 	movb @cvb_PY,r0
     DD22 20D5     
7826 DD24 0980  32 	srl r0,8
7827 DD26 0220  22 	ai r0,4
     DD28 0004     
7828 DD2A 0930  22 	srl r0,3
7829 DD2C 0A80  32 	sla r0,8
7830 DD2E D800  38 	movb r0,@cvb_T
     DD30 208B     
7831 DD32 D020  34 	movb @cvb_PX,r0
     DD34 20D4     
7832 DD36 0980  32 	srl r0,8
7833 DD38 0220  22 	ai r0,4
     DD3A 0004     
7834 DD3C 0930  22 	srl r0,3
7835 DD3E 0A80  32 	sla r0,8
7836 DD40 D800  38 	movb r0,@cvb_T2
     DD42 20D6     
7837               	; 	IF t2 <> fpc THEN GOSUB foghz
7838 DD44 9020  34 	cb @cvb_FPC,r0
     DD46 20A6     
7839 DD48 1602  14 	jne cv612
7840 DD4A 0460  28 	b @cv611
     DD4C DD54     
7841               cv612
7842 DD4E 06A0  32 	bl @jsr
     DD50 A974     
7843 DD52 DD6C     	data cvb_FOGHZ
7844               cv611
7845               	; 	IF t <> fpr THEN GOSUB fogvt
7846 DD54 D020  34 	movb @cvb_T,r0
     DD56 208B     
7847 DD58 9020  34 	cb @cvb_FPR,r0
     DD5A 20AC     
7848 DD5C 1602  14 	jne cv614
7849 DD5E 0460  28 	b @cv613
     DD60 DD68     
7850               cv614
7851 DD62 06A0  32 	bl @jsr
     DD64 A974     
7852 DD66 DDCA     	data cvb_FOGVT
7853               cv613
7854               	; 	END
7855 DD68 C03A  30 	mov *r10+,r0
7856 DD6A 0450  20 	b *r0
7857               	;
7858               	; foghz: PROCEDURE
7859               	even
7860               cvb_FOGHZ
7861               	; 	IF t2 > fpc THEN fc = fpc - 5 : fl = t2 + 5 ELSE fc = fpc + 5 : fl = t2 - 5
7862 DD6C D020  34 	movb @cvb_FPC,r0
     DD6E 20A6     
7863 DD70 9800  34 	cb r0,@cvb_T2
     DD72 20D6     
7864 DD74 1A02  14 	jl cv616
7865 DD76 0460  28 	b @cv615
     DD78 DD96     
7866               cv616
7867 DD7A D020  34 	movb @cvb_FPC,r0
     DD7C 20A6     
7868 DD7E 0220  22 	ai r0,64256	; -5
     DD80 FB00     
7869 DD82 D800  38 	movb r0,@cvb_FC
     DD84 20C9     
7870 DD86 D020  34 	movb @cvb_T2,r0
     DD88 20D6     
7871 DD8A 0220  22 	ai r0,1280	; 5
     DD8C 0500     
7872 DD8E D800  38 	movb r0,@cvb_FL
     DD90 20CA     
7873 DD92 0460  28 	b @cv617
     DD94 DDAE     
7874               cv615
7875 DD96 D020  34 	movb @cvb_FPC,r0
     DD98 20A6     
7876 DD9A 0220  22 	ai r0,1280	; 5
     DD9C 0500     
7877 DD9E D800  38 	movb r0,@cvb_FC
     DDA0 20C9     
7878 DDA2 D020  34 	movb @cvb_T2,r0
     DDA4 20D6     
7879 DDA6 0220  22 	ai r0,64256	; -5
     DDA8 FB00     
7880 DDAA D800  38 	movb r0,@cvb_FL
     DDAC 20CA     
7881               cv617
7882               	; 	GOSUB fogecol
7883 DDAE 06A0  32 	bl @jsr
     DDB0 A974     
7884 DDB2 DE28     	data cvb_FOGECOL
7885               	; 	fpc = t2
7886 DDB4 D820  54 	movb @cvb_T2,@cvb_FPC
     DDB6 20D6     
     DDB8 20A6     
7887               	; 	fc = fl
7888 DDBA D820  54 	movb @cvb_FL,@cvb_FC
     DDBC 20CA     
     DDBE 20C9     
7889               	; 	GOSUB fogdcol
7890 DDC0 06A0  32 	bl @jsr
     DDC2 A974     
7891 DDC4 DEE4     	data cvb_FOGDCOL
7892               	; 	END
7893 DDC6 C03A  30 	mov *r10+,r0
7894 DDC8 0450  20 	b *r0
7895               	;
7896               	; fogvt: PROCEDURE
7897               	even
7898               cvb_FOGVT
7899               	; 	IF t > fpr THEN fc = fpr - 5 : fl = t + 5 ELSE fc = fpr + 5 : fl = t - 5
7900 DDCA D020  34 	movb @cvb_FPR,r0
     DDCC 20AC     
7901 DDCE 9800  34 	cb r0,@cvb_T
     DDD0 208B     
7902 DDD2 1A02  14 	jl cv619
7903 DDD4 0460  28 	b @cv618
     DDD6 DDF4     
7904               cv619
7905 DDD8 D020  34 	movb @cvb_FPR,r0
     DDDA 20AC     
7906 DDDC 0220  22 	ai r0,64256	; -5
     DDDE FB00     
7907 DDE0 D800  38 	movb r0,@cvb_FC
     DDE2 20C9     
7908 DDE4 D020  34 	movb @cvb_T,r0
     DDE6 208B     
7909 DDE8 0220  22 	ai r0,1280	; 5
     DDEA 0500     
7910 DDEC D800  38 	movb r0,@cvb_FL
     DDEE 20CA     
7911 DDF0 0460  28 	b @cv620
     DDF2 DE0C     
7912               cv618
7913 DDF4 D020  34 	movb @cvb_FPR,r0
     DDF6 20AC     
7914 DDF8 0220  22 	ai r0,1280	; 5
     DDFA 0500     
7915 DDFC D800  38 	movb r0,@cvb_FC
     DDFE 20C9     
7916 DE00 D020  34 	movb @cvb_T,r0
     DE02 208B     
7917 DE04 0220  22 	ai r0,64256	; -5
     DE06 FB00     
7918 DE08 D800  38 	movb r0,@cvb_FL
     DE0A 20CA     
7919               cv620
7920               	; 	GOSUB fogerow
7921 DE0C 06A0  32 	bl @jsr
     DE0E A974     
7922 DE10 DFF2     	data cvb_FOGEROW
7923               	; 	fpr = t
7924 DE12 D820  54 	movb @cvb_T,@cvb_FPR
     DE14 208B     
     DE16 20AC     
7925               	; 	fc = fl
7926 DE18 D820  54 	movb @cvb_FL,@cvb_FC
     DE1A 20CA     
     DE1C 20C9     
7927               	; 	GOSUB fogdrow
7928 DE1E 06A0  32 	bl @jsr
     DE20 A974     
7929 DE22 E0A6     	data cvb_FOGDROW
7930               	; 	END
7931 DE24 C03A  30 	mov *r10+,r0
7932 DE26 0450  20 	b *r0
7933               	;
7934               	; fogecol: PROCEDURE
7935               	even
7936               cvb_FOGECOL
7937               	; 	IF fc > 31 THEN RETURN
7938 DE28 D020  34 	movb @cvb_FC,r0
     DE2A 20C9     
7939 DE2C 0201  20 	li r1,8192   ; 32*256
     DE2E 2000     
7940 DE30 9040  18 	cb r0,r1
7941 DE32 1402  14 	jhe cv622
7942 DE34 0460  28 	b @cv621
     DE36 DE3C     
7943               cv622
7944 DE38 C03A  30 	mov *r10+,r0
7945 DE3A 0450  20 	b *r0
7946               cv621
7947               	; 	r0f = 0 : IF fpr > 5 THEN r0f = fpr - 5
7948 DE3C 04C0  14 	clr r0
7949 DE3E D800  38 	movb r0,@cvb_R0F
     DE40 20A5     
7950 DE42 D020  34 	movb @cvb_FPR,r0
     DE44 20AC     
7951 DE46 0201  20 	li r1,1536   ; 6*256
     DE48 0600     
7952 DE4A 9040  18 	cb r0,r1
7953 DE4C 1402  14 	jhe cv624
7954 DE4E 0460  28 	b @cv623
     DE50 DE5E     
7955               cv624
7956 DE52 D020  34 	movb @cvb_FPR,r0
     DE54 20AC     
7957 DE56 0220  22 	ai r0,64256	; -5
     DE58 FB00     
7958 DE5A D800  38 	movb r0,@cvb_R0F
     DE5C 20A5     
7959               cv623
7960               	; 	r1f = fpr + 5 : IF r1f > 23 THEN r1f = 23
7961 DE5E D020  34 	movb @cvb_FPR,r0
     DE60 20AC     
7962 DE62 0220  22 	ai r0,1280	; 5
     DE64 0500     
7963 DE66 D800  38 	movb r0,@cvb_R1F
     DE68 20A8     
7964 DE6A 0201  20 	li r1,6144   ; 24*256
     DE6C 1800     
7965 DE6E 9040  18 	cb r0,r1
7966 DE70 1402  14 	jhe cv626
7967 DE72 0460  28 	b @cv625
     DE74 DE7E     
7968               cv626
7969 DE76 0200  20 	li r0,5888   ; 23*256
     DE78 1700     
7970 DE7A D800  38 	movb r0,@cvb_R1F
     DE7C 20A8     
7971               cv625
7972               	; 	#ad = $1800 + r0f * 32 + fc
7973 DE7E D020  34 	movb @cvb_FC,r0
     DE80 20C9     
7974 DE82 0980  32 	srl r0,8
7975 DE84 C040  18 	mov r0,r1
7976 DE86 D020  34 	movb @cvb_R0F,r0
     DE88 20A5     
7977 DE8A 0980  32 	srl r0,8
7978 DE8C 0A50  26 	sla r0,5
7979 DE8E 0220  22 	ai r0,6144
     DE90 1800     
7980 DE92 A001  18 	a r1,r0
7981 DE94 C800  38 	mov r0,@cvb__AD
     DE96 20AA     
7982               	; 	FOR r = r0f TO r1f
7983 DE98 D820  54 	movb @cvb_R0F,@cvb_R
     DE9A 20A5     
     DE9C 208A     
7984               cv627
7985               	; 	VPOKE #ad, 32
7986 DE9E 0200  20 	li r0,8192   ; 32*256
     DEA0 2000     
7987 DEA2 064A  14 	dect r10
7988 DEA4 C680  30 	mov r0,*r10
7989 DEA6 C020  34 	mov @cvb__AD,r0
     DEA8 20AA     
7990 DEAA C0BA  30 	mov *r10+,r2
7991 DEAC 0300  22 	limi 0
     DEAE 0000     
7992 DEB0 06A0  32 	bl @JSR
     DEB2 A974     
7993 DEB4 A018     	data WRTVRM
7994 DEB6 0300  22 	limi 2
     DEB8 0002     
7995               	; 	#ad = #ad + 32
7996 DEBA C020  34 	mov @cvb__AD,r0
     DEBC 20AA     
7997 DEBE 0220  22 	ai r0,32
     DEC0 0020     
7998 DEC2 C800  38 	mov r0,@cvb__AD
     DEC4 20AA     
7999               	; 	NEXT r
8000 DEC6 D020  34 	movb @cvb_R,r0
     DEC8 208A     
8001 DECA 0220  22 	ai r0,256	; 1
     DECC 0100     
8002 DECE D800  38 	movb r0,@cvb_R
     DED0 208A     
8003 DED2 D020  34 	movb @cvb_R1F,r0
     DED4 20A8     
8004 DED6 9800  34 	cb r0,@cvb_R
     DED8 208A     
8005 DEDA 1A02  14 	jl cv628
8006 DEDC 0460  28 	b @cv627
     DEDE DE9E     
8007               cv628
8008               	; 	END
8009 DEE0 C03A  30 	mov *r10+,r0
8010 DEE2 0450  20 	b *r0
8011               	;
8012               	; fogdcol: PROCEDURE
8013               	even
8014               cvb_FOGDCOL
8015               	; 	IF fc > 31 THEN RETURN
8016 DEE4 D020  34 	movb @cvb_FC,r0
     DEE6 20C9     
8017 DEE8 0201  20 	li r1,8192   ; 32*256
     DEEA 2000     
8018 DEEC 9040  18 	cb r0,r1
8019 DEEE 1402  14 	jhe cv630
8020 DEF0 0460  28 	b @cv629
     DEF2 DEF8     
8021               cv630
8022 DEF4 C03A  30 	mov *r10+,r0
8023 DEF6 0450  20 	b *r0
8024               cv629
8025               	; 	r0f = 0 : IF fpr > 5 THEN r0f = fpr - 5
8026 DEF8 04C0  14 	clr r0
8027 DEFA D800  38 	movb r0,@cvb_R0F
     DEFC 20A5     
8028 DEFE D020  34 	movb @cvb_FPR,r0
     DF00 20AC     
8029 DF02 0201  20 	li r1,1536   ; 6*256
     DF04 0600     
8030 DF06 9040  18 	cb r0,r1
8031 DF08 1402  14 	jhe cv632
8032 DF0A 0460  28 	b @cv631
     DF0C DF1A     
8033               cv632
8034 DF0E D020  34 	movb @cvb_FPR,r0
     DF10 20AC     
8035 DF12 0220  22 	ai r0,64256	; -5
     DF14 FB00     
8036 DF16 D800  38 	movb r0,@cvb_R0F
     DF18 20A5     
8037               cv631
8038               	; 	r1f = fpr + 5 : IF r1f > 23 THEN r1f = 23
8039 DF1A D020  34 	movb @cvb_FPR,r0
     DF1C 20AC     
8040 DF1E 0220  22 	ai r0,1280	; 5
     DF20 0500     
8041 DF22 D800  38 	movb r0,@cvb_R1F
     DF24 20A8     
8042 DF26 0201  20 	li r1,6144   ; 24*256
     DF28 1800     
8043 DF2A 9040  18 	cb r0,r1
8044 DF2C 1402  14 	jhe cv634
8045 DF2E 0460  28 	b @cv633
     DF30 DF3A     
8046               cv634
8047 DF32 0200  20 	li r0,5888   ; 23*256
     DF34 1700     
8048 DF36 D800  38 	movb r0,@cvb_R1F
     DF38 20A8     
8049               cv633
8050               	; 	i2 = fc / 8 : f = msk(fc AND 7)
8051 DF3A D020  34 	movb @cvb_FC,r0
     DF3C 20C9     
8052 DF3E 0930  22 	srl r0,3
8053 DF40 D800  38 	movb r0,@cvb_I2
     DF42 20CB     
8054 DF44 D020  34 	movb @cvb_FC,r0
     DF46 20C9     
8055 DF48 0201  20 	li r1,1792   ; 7*256
     DF4A 0700     
8056 DF4C 0541  14 	inv r1
8057 DF4E 5001  18 	szcb r1,r0
8058 DF50 0980  32 	srl r0,8
8059 DF52 0220  22 	ai r0,array_MSK
     DF54 20EE     
8060 DF56 D810  46 	movb *r0,@cvb_F
     DF58 2085     
8061               	; 	#ad = $1800 + r0f * 32 + fc
8062 DF5A D020  34 	movb @cvb_FC,r0
     DF5C 20C9     
8063 DF5E 0980  32 	srl r0,8
8064 DF60 C040  18 	mov r0,r1
8065 DF62 D020  34 	movb @cvb_R0F,r0
     DF64 20A5     
8066 DF66 0980  32 	srl r0,8
8067 DF68 0A50  26 	sla r0,5
8068 DF6A 0220  22 	ai r0,6144
     DF6C 1800     
8069 DF6E A001  18 	a r1,r0
8070 DF70 C800  38 	mov r0,@cvb__AD
     DF72 20AA     
8071               	; 	FOR r = r0f TO r1f
8072 DF74 D820  54 	movb @cvb_R0F,@cvb_R
     DF76 20A5     
     DF78 208A     
8073               cv635
8074               	; 	IF (rm(r * 4 + i2) AND f) > 0 THEN VPOKE #ad, 128
8075 DF7A D020  34 	movb @cvb_F,r0
     DF7C 2085     
8076 DF7E 064A  14 	dect r10
8077 DF80 C680  30 	mov r0,*r10
8078 DF82 D020  34 	movb @cvb_I2,r0
     DF84 20CB     
8079 DF86 0980  32 	srl r0,8
8080 DF88 C040  18 	mov r0,r1
8081 DF8A D020  34 	movb @cvb_R,r0
     DF8C 208A     
8082 DF8E 0980  32 	srl r0,8
8083 DF90 0A20  20 	sla r0,2
8084 DF92 A001  18 	a r1,r0
8085 DF94 0220  22 	ai r0,array_RM
     DF96 212A     
8086 DF98 D010  26 	movb *r0,r0
8087 DF9A C07A  30 	mov *r10+,r1
8088 DF9C 0541  14 	inv r1
8089 DF9E 5001  18 	szcb r1,r0
8090 DFA0 0201  20 	li r1,256   ; 1*256
     DFA2 0100     
8091 DFA4 9040  18 	cb r0,r1
8092 DFA6 1402  14 	jhe cv637
8093 DFA8 0460  28 	b @cv636
     DFAA DFC8     
8094               cv637
8095 DFAC 0200  20 	li r0,32768   ; 128*256
     DFAE 8000     
8096 DFB0 064A  14 	dect r10
8097 DFB2 C680  30 	mov r0,*r10
8098 DFB4 C020  34 	mov @cvb__AD,r0
     DFB6 20AA     
8099 DFB8 C0BA  30 	mov *r10+,r2
8100 DFBA 0300  22 	limi 0
     DFBC 0000     
8101 DFBE 06A0  32 	bl @JSR
     DFC0 A974     
8102 DFC2 A018     	data WRTVRM
8103 DFC4 0300  22 	limi 2
     DFC6 0002     
8104               cv636
8105               	; 	#ad = #ad + 32
8106 DFC8 C020  34 	mov @cvb__AD,r0
     DFCA 20AA     
8107 DFCC 0220  22 	ai r0,32
     DFCE 0020     
8108 DFD0 C800  38 	mov r0,@cvb__AD
     DFD2 20AA     
8109               	; 	NEXT r
8110 DFD4 D020  34 	movb @cvb_R,r0
     DFD6 208A     
8111 DFD8 0220  22 	ai r0,256	; 1
     DFDA 0100     
8112 DFDC D800  38 	movb r0,@cvb_R
     DFDE 208A     
8113 DFE0 D020  34 	movb @cvb_R1F,r0
     DFE2 20A8     
8114 DFE4 9800  34 	cb r0,@cvb_R
     DFE6 208A     
8115 DFE8 1A02  14 	jl cv638
8116 DFEA 0460  28 	b @cv635
     DFEC DF7A     
8117               cv638
8118               	; 	END
8119 DFEE C03A  30 	mov *r10+,r0
8120 DFF0 0450  20 	b *r0
8121               	;
8122               	; fogerow: PROCEDURE
8123               	even
8124               cvb_FOGEROW
8125               	; 	IF fc > 23 THEN RETURN
8126 DFF2 D020  34 	movb @cvb_FC,r0
     DFF4 20C9     
8127 DFF6 0201  20 	li r1,6144   ; 24*256
     DFF8 1800     
8128 DFFA 9040  18 	cb r0,r1
8129 DFFC 1402  14 	jhe cv640
8130 DFFE 0460  28 	b @cv639
     E000 E006     
8131               cv640
8132 E002 C03A  30 	mov *r10+,r0
8133 E004 0450  20 	b *r0
8134               cv639
8135               	; 	c0f = 0 : IF fpc > 5 THEN c0f = fpc - 5
8136 E006 04C0  14 	clr r0
8137 E008 D800  38 	movb r0,@cvb_C0F
     E00A 20D9     
8138 E00C D020  34 	movb @cvb_FPC,r0
     E00E 20A6     
8139 E010 0201  20 	li r1,1536   ; 6*256
     E012 0600     
8140 E014 9040  18 	cb r0,r1
8141 E016 1402  14 	jhe cv642
8142 E018 0460  28 	b @cv641
     E01A E028     
8143               cv642
8144 E01C D020  34 	movb @cvb_FPC,r0
     E01E 20A6     
8145 E020 0220  22 	ai r0,64256	; -5
     E022 FB00     
8146 E024 D800  38 	movb r0,@cvb_C0F
     E026 20D9     
8147               cv641
8148               	; 	c1f = fpc + 5 : IF c1f > 31 THEN c1f = 31
8149 E028 D020  34 	movb @cvb_FPC,r0
     E02A 20A6     
8150 E02C 0220  22 	ai r0,1280	; 5
     E02E 0500     
8151 E030 D800  38 	movb r0,@cvb_C1F
     E032 20DA     
8152 E034 0201  20 	li r1,8192   ; 32*256
     E036 2000     
8153 E038 9040  18 	cb r0,r1
8154 E03A 1402  14 	jhe cv644
8155 E03C 0460  28 	b @cv643
     E03E E048     
8156               cv644
8157 E040 0200  20 	li r0,7936   ; 31*256
     E042 1F00     
8158 E044 D800  38 	movb r0,@cvb_C1F
     E046 20DA     
8159               cv643
8160               	; 	#ad = $1800 + fc * 32 + c0f
8161 E048 D020  34 	movb @cvb_C0F,r0
     E04A 20D9     
8162 E04C 0980  32 	srl r0,8
8163 E04E C040  18 	mov r0,r1
8164 E050 D020  34 	movb @cvb_FC,r0
     E052 20C9     
8165 E054 0980  32 	srl r0,8
8166 E056 0A50  26 	sla r0,5
8167 E058 0220  22 	ai r0,6144
     E05A 1800     
8168 E05C A001  18 	a r1,r0
8169 E05E C800  38 	mov r0,@cvb__AD
     E060 20AA     
8170               	; 	FOR c2 = c0f TO c1f
8171 E062 D820  54 	movb @cvb_C0F,@cvb_C2
     E064 20D9     
     E066 20BD     
8172               cv645
8173               	; 	VPOKE #ad, 32
8174 E068 0200  20 	li r0,8192   ; 32*256
     E06A 2000     
8175 E06C 064A  14 	dect r10
8176 E06E C680  30 	mov r0,*r10
8177 E070 C020  34 	mov @cvb__AD,r0
     E072 20AA     
8178 E074 C0BA  30 	mov *r10+,r2
8179 E076 0300  22 	limi 0
     E078 0000     
8180 E07A 06A0  32 	bl @JSR
     E07C A974     
8181 E07E A018     	data WRTVRM
8182 E080 0300  22 	limi 2
     E082 0002     
8183               	; 	#ad = #ad + 1
8184 E084 05A0  34 	inc @cvb__AD
     E086 20AA     
8185               	; 	NEXT c2
8186 E088 D020  34 	movb @cvb_C2,r0
     E08A 20BD     
8187 E08C 0220  22 	ai r0,256	; 1
     E08E 0100     
8188 E090 D800  38 	movb r0,@cvb_C2
     E092 20BD     
8189 E094 D020  34 	movb @cvb_C1F,r0
     E096 20DA     
8190 E098 9800  34 	cb r0,@cvb_C2
     E09A 20BD     
8191 E09C 1A02  14 	jl cv646
8192 E09E 0460  28 	b @cv645
     E0A0 E068     
8193               cv646
8194               	; 	END
8195 E0A2 C03A  30 	mov *r10+,r0
8196 E0A4 0450  20 	b *r0
8197               	;
8198               	; fogdrow: PROCEDURE
8199               	even
8200               cvb_FOGDROW
8201               	; 	IF fc > 23 THEN RETURN
8202 E0A6 D020  34 	movb @cvb_FC,r0
     E0A8 20C9     
8203 E0AA 0201  20 	li r1,6144   ; 24*256
     E0AC 1800     
8204 E0AE 9040  18 	cb r0,r1
8205 E0B0 1402  14 	jhe cv648
8206 E0B2 0460  28 	b @cv647
     E0B4 E0BA     
8207               cv648
8208 E0B6 C03A  30 	mov *r10+,r0
8209 E0B8 0450  20 	b *r0
8210               cv647
8211               	; 	c0f = 0 : IF fpc > 5 THEN c0f = fpc - 5
8212 E0BA 04C0  14 	clr r0
8213 E0BC D800  38 	movb r0,@cvb_C0F
     E0BE 20D9     
8214 E0C0 D020  34 	movb @cvb_FPC,r0
     E0C2 20A6     
8215 E0C4 0201  20 	li r1,1536   ; 6*256
     E0C6 0600     
8216 E0C8 9040  18 	cb r0,r1
8217 E0CA 1402  14 	jhe cv650
8218 E0CC 0460  28 	b @cv649
     E0CE E0DC     
8219               cv650
8220 E0D0 D020  34 	movb @cvb_FPC,r0
     E0D2 20A6     
8221 E0D4 0220  22 	ai r0,64256	; -5
     E0D6 FB00     
8222 E0D8 D800  38 	movb r0,@cvb_C0F
     E0DA 20D9     
8223               cv649
8224               	; 	c1f = fpc + 5 : IF c1f > 31 THEN c1f = 31
8225 E0DC D020  34 	movb @cvb_FPC,r0
     E0DE 20A6     
8226 E0E0 0220  22 	ai r0,1280	; 5
     E0E2 0500     
8227 E0E4 D800  38 	movb r0,@cvb_C1F
     E0E6 20DA     
8228 E0E8 0201  20 	li r1,8192   ; 32*256
     E0EA 2000     
8229 E0EC 9040  18 	cb r0,r1
8230 E0EE 1402  14 	jhe cv652
8231 E0F0 0460  28 	b @cv651
     E0F2 E0FC     
8232               cv652
8233 E0F4 0200  20 	li r0,7936   ; 31*256
     E0F6 1F00     
8234 E0F8 D800  38 	movb r0,@cvb_C1F
     E0FA 20DA     
8235               cv651
8236               	; 	i2 = fc * 4
8237 E0FC D020  34 	movb @cvb_FC,r0
     E0FE 20C9     
8238 E100 0240  22 	andi r0,>ff00
     E102 FF00     
8239 E104 0A20  20 	sla r0,2
8240 E106 D800  38 	movb r0,@cvb_I2
     E108 20CB     
8241               	; 	#ad = $1800 + fc * 32 + c0f
8242 E10A D020  34 	movb @cvb_C0F,r0
     E10C 20D9     
8243 E10E 0980  32 	srl r0,8
8244 E110 C040  18 	mov r0,r1
8245 E112 D020  34 	movb @cvb_FC,r0
     E114 20C9     
8246 E116 0980  32 	srl r0,8
8247 E118 0A50  26 	sla r0,5
8248 E11A 0220  22 	ai r0,6144
     E11C 1800     
8249 E11E A001  18 	a r1,r0
8250 E120 C800  38 	mov r0,@cvb__AD
     E122 20AA     
8251               	; 	FOR c2 = c0f TO c1f
8252 E124 D820  54 	movb @cvb_C0F,@cvb_C2
     E126 20D9     
     E128 20BD     
8253               cv653
8254               	; 	IF (rm(i2 + (c2 / 8)) AND msk(c2 AND 7)) > 0 THEN VPOKE #ad, 128
8255 E12A D020  34 	movb @cvb_C2,r0
     E12C 20BD     
8256 E12E 0201  20 	li r1,1792   ; 7*256
     E130 0700     
8257 E132 0541  14 	inv r1
8258 E134 5001  18 	szcb r1,r0
8259 E136 0980  32 	srl r0,8
8260 E138 0220  22 	ai r0,array_MSK
     E13A 20EE     
8261 E13C D010  26 	movb *r0,r0
8262 E13E 064A  14 	dect r10
8263 E140 C680  30 	mov r0,*r10
8264 E142 D020  34 	movb @cvb_C2,r0
     E144 20BD     
8265 E146 0980  32 	srl r0,8
8266 E148 0930  22 	srl r0,3
8267 E14A C040  18 	mov r0,r1
8268 E14C D020  34 	movb @cvb_I2,r0
     E14E 20CB     
8269 E150 0980  32 	srl r0,8
8270 E152 A001  18 	a r1,r0
8271 E154 0220  22 	ai r0,array_RM
     E156 212A     
8272 E158 D010  26 	movb *r0,r0
8273 E15A C07A  30 	mov *r10+,r1
8274 E15C 0541  14 	inv r1
8275 E15E 5001  18 	szcb r1,r0
8276 E160 0201  20 	li r1,256   ; 1*256
     E162 0100     
8277 E164 9040  18 	cb r0,r1
8278 E166 1402  14 	jhe cv655
8279 E168 0460  28 	b @cv654
     E16A E188     
8280               cv655
8281 E16C 0200  20 	li r0,32768   ; 128*256
     E16E 8000     
8282 E170 064A  14 	dect r10
8283 E172 C680  30 	mov r0,*r10
8284 E174 C020  34 	mov @cvb__AD,r0
     E176 20AA     
8285 E178 C0BA  30 	mov *r10+,r2
8286 E17A 0300  22 	limi 0
     E17C 0000     
8287 E17E 06A0  32 	bl @JSR
     E180 A974     
8288 E182 A018     	data WRTVRM
8289 E184 0300  22 	limi 2
     E186 0002     
8290               cv654
8291               	; 	#ad = #ad + 1
8292 E188 05A0  34 	inc @cvb__AD
     E18A 20AA     
8293               	; 	NEXT c2
8294 E18C D020  34 	movb @cvb_C2,r0
     E18E 20BD     
8295 E190 0220  22 	ai r0,256	; 1
     E192 0100     
8296 E194 D800  38 	movb r0,@cvb_C2
     E196 20BD     
8297 E198 D020  34 	movb @cvb_C1F,r0
     E19A 20DA     
8298 E19C 9800  34 	cb r0,@cvb_C2
     E19E 20BD     
8299 E1A0 1A02  14 	jl cv656
8300 E1A2 0460  28 	b @cv653
     E1A4 E12A     
8301               cv656
8302               	; 	END
8303 E1A6 C03A  30 	mov *r10+,r0
8304 E1A8 0450  20 	b *r0
8305               	;
8306               	; fogwipe: PROCEDURE
8307               	even
8308               cvb_FOGWIPE
8309               	; 	' blank the whole window (room entry / arrival snaps only)
8310               	; 	GOSUB fogbnd
8311 E1AA 06A0  32 	bl @jsr
     E1AC A974     
8312 E1AE E2F6     	data cvb_FOGBND
8313               	; 	FOR r = r0f TO r1f
8314 E1B0 D820  54 	movb @cvb_R0F,@cvb_R
     E1B2 20A5     
     E1B4 208A     
8315               cv657
8316               	; 	#ad = $1800 + r * 32 + c0f
8317 E1B6 D020  34 	movb @cvb_C0F,r0
     E1B8 20D9     
8318 E1BA 0980  32 	srl r0,8
8319 E1BC C040  18 	mov r0,r1
8320 E1BE D020  34 	movb @cvb_R,r0
     E1C0 208A     
8321 E1C2 0980  32 	srl r0,8
8322 E1C4 0A50  26 	sla r0,5
8323 E1C6 0220  22 	ai r0,6144
     E1C8 1800     
8324 E1CA A001  18 	a r1,r0
8325 E1CC C800  38 	mov r0,@cvb__AD
     E1CE 20AA     
8326               	; 	FOR c2 = c0f TO c1f
8327 E1D0 D820  54 	movb @cvb_C0F,@cvb_C2
     E1D2 20D9     
     E1D4 20BD     
8328               cv658
8329               	; 	VPOKE #ad, 32
8330 E1D6 0200  20 	li r0,8192   ; 32*256
     E1D8 2000     
8331 E1DA 064A  14 	dect r10
8332 E1DC C680  30 	mov r0,*r10
8333 E1DE C020  34 	mov @cvb__AD,r0
     E1E0 20AA     
8334 E1E2 C0BA  30 	mov *r10+,r2
8335 E1E4 0300  22 	limi 0
     E1E6 0000     
8336 E1E8 06A0  32 	bl @JSR
     E1EA A974     
8337 E1EC A018     	data WRTVRM
8338 E1EE 0300  22 	limi 2
     E1F0 0002     
8339               	; 	#ad = #ad + 1
8340 E1F2 05A0  34 	inc @cvb__AD
     E1F4 20AA     
8341               	; 	NEXT c2
8342 E1F6 D020  34 	movb @cvb_C2,r0
     E1F8 20BD     
8343 E1FA 0220  22 	ai r0,256	; 1
     E1FC 0100     
8344 E1FE D800  38 	movb r0,@cvb_C2
     E200 20BD     
8345 E202 D020  34 	movb @cvb_C1F,r0
     E204 20DA     
8346 E206 9800  34 	cb r0,@cvb_C2
     E208 20BD     
8347 E20A 1A02  14 	jl cv659
8348 E20C 0460  28 	b @cv658
     E20E E1D6     
8349               cv659
8350               	; 	NEXT r
8351 E210 D020  34 	movb @cvb_R,r0
     E212 208A     
8352 E214 0220  22 	ai r0,256	; 1
     E216 0100     
8353 E218 D800  38 	movb r0,@cvb_R
     E21A 208A     
8354 E21C D020  34 	movb @cvb_R1F,r0
     E21E 20A8     
8355 E220 9800  34 	cb r0,@cvb_R
     E222 208A     
8356 E224 1A02  14 	jl cv660
8357 E226 0460  28 	b @cv657
     E228 E1B6     
8358               cv660
8359               	; 	END
8360 E22A C03A  30 	mov *r10+,r0
8361 E22C 0450  20 	b *r0
8362               	;
8363               	; fogdraw: PROCEDURE
8364               	even
8365               cvb_FOGDRAW
8366               	; 	GOSUB fogbnd
8367 E22E 06A0  32 	bl @jsr
     E230 A974     
8368 E232 E2F6     	data cvb_FOGBND
8369               	; 	FOR r = r0f TO r1f
8370 E234 D820  54 	movb @cvb_R0F,@cvb_R
     E236 20A5     
     E238 208A     
8371               cv661
8372               	; 	#ad = $1800 + r * 32 + c0f
8373 E23A D020  34 	movb @cvb_C0F,r0
     E23C 20D9     
8374 E23E 0980  32 	srl r0,8
8375 E240 C040  18 	mov r0,r1
8376 E242 D020  34 	movb @cvb_R,r0
     E244 208A     
8377 E246 0980  32 	srl r0,8
8378 E248 0A50  26 	sla r0,5
8379 E24A 0220  22 	ai r0,6144
     E24C 1800     
8380 E24E A001  18 	a r1,r0
8381 E250 C800  38 	mov r0,@cvb__AD
     E252 20AA     
8382               	; 	FOR c2 = c0f TO c1f
8383 E254 D820  54 	movb @cvb_C0F,@cvb_C2
     E256 20D9     
     E258 20BD     
8384               cv662
8385               	; 	IF (rm(r * 4 + (c2 / 8)) AND msk(c2 AND 7)) > 0 THEN VPOKE #ad, 128
8386 E25A D020  34 	movb @cvb_C2,r0
     E25C 20BD     
8387 E25E 0201  20 	li r1,1792   ; 7*256
     E260 0700     
8388 E262 0541  14 	inv r1
8389 E264 5001  18 	szcb r1,r0
8390 E266 0980  32 	srl r0,8
8391 E268 0220  22 	ai r0,array_MSK
     E26A 20EE     
8392 E26C D010  26 	movb *r0,r0
8393 E26E 064A  14 	dect r10
8394 E270 C680  30 	mov r0,*r10
8395 E272 D020  34 	movb @cvb_C2,r0
     E274 20BD     
8396 E276 0980  32 	srl r0,8
8397 E278 0930  22 	srl r0,3
8398 E27A C040  18 	mov r0,r1
8399 E27C D020  34 	movb @cvb_R,r0
     E27E 208A     
8400 E280 0980  32 	srl r0,8
8401 E282 0A20  20 	sla r0,2
8402 E284 A001  18 	a r1,r0
8403 E286 0220  22 	ai r0,array_RM
     E288 212A     
8404 E28A D010  26 	movb *r0,r0
8405 E28C C07A  30 	mov *r10+,r1
8406 E28E 0541  14 	inv r1
8407 E290 5001  18 	szcb r1,r0
8408 E292 0201  20 	li r1,256   ; 1*256
     E294 0100     
8409 E296 9040  18 	cb r0,r1
8410 E298 1402  14 	jhe cv664
8411 E29A 0460  28 	b @cv663
     E29C E2BA     
8412               cv664
8413 E29E 0200  20 	li r0,32768   ; 128*256
     E2A0 8000     
8414 E2A2 064A  14 	dect r10
8415 E2A4 C680  30 	mov r0,*r10
8416 E2A6 C020  34 	mov @cvb__AD,r0
     E2A8 20AA     
8417 E2AA C0BA  30 	mov *r10+,r2
8418 E2AC 0300  22 	limi 0
     E2AE 0000     
8419 E2B0 06A0  32 	bl @JSR
     E2B2 A974     
8420 E2B4 A018     	data WRTVRM
8421 E2B6 0300  22 	limi 2
     E2B8 0002     
8422               cv663
8423               	; 	#ad = #ad + 1
8424 E2BA 05A0  34 	inc @cvb__AD
     E2BC 20AA     
8425               	; 	NEXT c2
8426 E2BE D020  34 	movb @cvb_C2,r0
     E2C0 20BD     
8427 E2C2 0220  22 	ai r0,256	; 1
     E2C4 0100     
8428 E2C6 D800  38 	movb r0,@cvb_C2
     E2C8 20BD     
8429 E2CA D020  34 	movb @cvb_C1F,r0
     E2CC 20DA     
8430 E2CE 9800  34 	cb r0,@cvb_C2
     E2D0 20BD     
8431 E2D2 1A02  14 	jl cv665
8432 E2D4 0460  28 	b @cv662
     E2D6 E25A     
8433               cv665
8434               	; 	NEXT r
8435 E2D8 D020  34 	movb @cvb_R,r0
     E2DA 208A     
8436 E2DC 0220  22 	ai r0,256	; 1
     E2DE 0100     
8437 E2E0 D800  38 	movb r0,@cvb_R
     E2E2 208A     
8438 E2E4 D020  34 	movb @cvb_R1F,r0
     E2E6 20A8     
8439 E2E8 9800  34 	cb r0,@cvb_R
     E2EA 208A     
8440 E2EC 1A02  14 	jl cv666
8441 E2EE 0460  28 	b @cv661
     E2F0 E23A     
8442               cv666
8443               	; 	END
8444 E2F2 C03A  30 	mov *r10+,r0
8445 E2F4 0450  20 	b *r0
8446               	;
8447               	; fogbnd: PROCEDURE
8448               	even
8449               cvb_FOGBND
8450               	; 	' 5-cell radius = 40px lamplight
8451               	; 	r0f = 0 : IF fpr > 5 THEN r0f = fpr - 5
8452 E2F6 04C0  14 	clr r0
8453 E2F8 D800  38 	movb r0,@cvb_R0F
     E2FA 20A5     
8454 E2FC D020  34 	movb @cvb_FPR,r0
     E2FE 20AC     
8455 E300 0201  20 	li r1,1536   ; 6*256
     E302 0600     
8456 E304 9040  18 	cb r0,r1
8457 E306 1402  14 	jhe cv668
8458 E308 0460  28 	b @cv667
     E30A E318     
8459               cv668
8460 E30C D020  34 	movb @cvb_FPR,r0
     E30E 20AC     
8461 E310 0220  22 	ai r0,64256	; -5
     E312 FB00     
8462 E314 D800  38 	movb r0,@cvb_R0F
     E316 20A5     
8463               cv667
8464               	; 	r1f = fpr + 5 : IF r1f > 23 THEN r1f = 23
8465 E318 D020  34 	movb @cvb_FPR,r0
     E31A 20AC     
8466 E31C 0220  22 	ai r0,1280	; 5
     E31E 0500     
8467 E320 D800  38 	movb r0,@cvb_R1F
     E322 20A8     
8468 E324 0201  20 	li r1,6144   ; 24*256
     E326 1800     
8469 E328 9040  18 	cb r0,r1
8470 E32A 1402  14 	jhe cv670
8471 E32C 0460  28 	b @cv669
     E32E E338     
8472               cv670
8473 E330 0200  20 	li r0,5888   ; 23*256
     E332 1700     
8474 E334 D800  38 	movb r0,@cvb_R1F
     E336 20A8     
8475               cv669
8476               	; 	c0f = 0 : IF fpc > 5 THEN c0f = fpc - 5
8477 E338 04C0  14 	clr r0
8478 E33A D800  38 	movb r0,@cvb_C0F
     E33C 20D9     
8479 E33E D020  34 	movb @cvb_FPC,r0
     E340 20A6     
8480 E342 0201  20 	li r1,1536   ; 6*256
     E344 0600     
8481 E346 9040  18 	cb r0,r1
8482 E348 1402  14 	jhe cv672
8483 E34A 0460  28 	b @cv671
     E34C E35A     
8484               cv672
8485 E34E D020  34 	movb @cvb_FPC,r0
     E350 20A6     
8486 E352 0220  22 	ai r0,64256	; -5
     E354 FB00     
8487 E356 D800  38 	movb r0,@cvb_C0F
     E358 20D9     
8488               cv671
8489               	; 	c1f = fpc + 5 : IF c1f > 31 THEN c1f = 31
8490 E35A D020  34 	movb @cvb_FPC,r0
     E35C 20A6     
8491 E35E 0220  22 	ai r0,1280	; 5
     E360 0500     
8492 E362 D800  38 	movb r0,@cvb_C1F
     E364 20DA     
8493 E366 0201  20 	li r1,8192   ; 32*256
     E368 2000     
8494 E36A 9040  18 	cb r0,r1
8495 E36C 1402  14 	jhe cv674
8496 E36E 0460  28 	b @cv673
     E370 E37A     
8497               cv674
8498 E372 0200  20 	li r0,7936   ; 31*256
     E374 1F00     
8499 E376 D800  38 	movb r0,@cvb_C1F
     E378 20DA     
8500               cv673
8501               	; 	END
8502 E37A C03A  30 	mov *r10+,r0
8503 E37C 0450  20 	b *r0
8504               	;
8505               	; dsafe: PROCEDURE
8506               	even
8507               cvb_DSAFE
8508               	; 	' never let a dragon camp the doorway you enter through
8509               	; 	#ax = ddx(d) : #bx = px
8510 E37E D020  34 	movb @cvb_D,r0
     E380 2083     
8511 E382 0980  32 	srl r0,8
8512 E384 0220  22 	ai r0,array_DDX
     E386 20E6     
8513 E388 D010  26 	movb *r0,r0
8514 E38A 0980  32 	srl r0,8
8515 E38C C800  38 	mov r0,@cvb__AX
     E38E 20B0     
8516 E390 D020  34 	movb @cvb_PX,r0
     E392 20D4     
8517 E394 0980  32 	srl r0,8
8518 E396 C800  38 	mov r0,@cvb__BX
     E398 20B2     
8519               	; 	GOSUB adiff
8520 E39A 06A0  32 	bl @jsr
     E39C A974     
8521 E39E C180     	data cvb_ADIFF
8522               	; 	IF #cx > 40 THEN RETURN
8523 E3A0 C020  34 	mov @cvb__CX,r0
     E3A2 20B4     
8524 E3A4 0201  20 	li r1,41
     E3A6 0029     
8525 E3A8 8040  18 	c r0,r1
8526 E3AA 1402  14 	jhe cv676
8527 E3AC 0460  28 	b @cv675
     E3AE E3B4     
8528               cv676
8529 E3B0 C03A  30 	mov *r10+,r0
8530 E3B2 0450  20 	b *r0
8531               cv675
8532               	; 	#ax = ddy(d) : #bx = py
8533 E3B4 D020  34 	movb @cvb_D,r0
     E3B6 2083     
8534 E3B8 0980  32 	srl r0,8
8535 E3BA 0220  22 	ai r0,array_DDY
     E3BC 20EA     
8536 E3BE D010  26 	movb *r0,r0
8537 E3C0 0980  32 	srl r0,8
8538 E3C2 C800  38 	mov r0,@cvb__AX
     E3C4 20B0     
8539 E3C6 D020  34 	movb @cvb_PY,r0
     E3C8 20D5     
8540 E3CA 0980  32 	srl r0,8
8541 E3CC C800  38 	mov r0,@cvb__BX
     E3CE 20B2     
8542               	; 	GOSUB adiff
8543 E3D0 06A0  32 	bl @jsr
     E3D2 A974     
8544 E3D4 C180     	data cvb_ADIFF
8545               	; 	IF #cx > 40 THEN RETURN
8546 E3D6 C020  34 	mov @cvb__CX,r0
     E3D8 20B4     
8547 E3DA 0201  20 	li r1,41
     E3DC 0029     
8548 E3DE 8040  18 	c r0,r1
8549 E3E0 1402  14 	jhe cv678
8550 E3E2 0460  28 	b @cv677
     E3E4 E3EA     
8551               cv678
8552 E3E6 C03A  30 	mov *r10+,r0
8553 E3E8 0450  20 	b *r0
8554               cv677
8555               	; 	ddx(d) = 108 : ddy(d) = 64
8556 E3EA 0201  20 	li r1,27648
     E3EC 6C00     
8557 E3EE D020  34 	movb @cvb_D,r0
     E3F0 2083     
8558 E3F2 0980  32 	srl r0,8
8559 E3F4 0220  22 	ai r0,array_DDX
     E3F6 20E6     
8560 E3F8 D401  30 	movb r1,*r0
8561 E3FA 0201  20 	li r1,16384
     E3FC 4000     
8562 E3FE D020  34 	movb @cvb_D,r0
     E400 2083     
8563 E402 0980  32 	srl r0,8
8564 E404 0220  22 	ai r0,array_DDY
     E406 20EA     
8565 E408 D401  30 	movb r1,*r0
8566               	; 	END
8567 E40A C03A  30 	mov *r10+,r0
8568 E40C 0450  20 	b *r0
8569               	;
8570               	; 	' ------------------------------------------------------------
8571               	; 	' game 4: scramble the objects across the open kingdom.
8572               	; 	' The white key must not land inside the white castle's own
8573               	; 	' red maze (rooms 34/35) - that would seal it away. The BLACK
8574               	; 	' key (o=1) is never scrambled: it stays sealed in the red-maze
8575               	; 	' chamber so the bridge is always required.
8576               	; 	' ------------------------------------------------------------
8577               	; rndobj: PROCEDURE
8578               	even
8579               cvb_RNDOBJ
8580               	; 	FOR o = 0 TO 6
8581 E40E 04C0  14 	clr r0
8582 E410 D800  38 	movb r0,@cvb_O
     E412 2089     
8583               cv679
8584               	; 	IF o = 1 THEN GOTO rnxt
8585 E414 D020  34 	movb @cvb_O,r0
     E416 2089     
8586 E418 0201  20 	li r1,256   ; 1*256
     E41A 0100     
8587 E41C 9001  18 	cb r1,r0
8588 E41E 1302  14 	jeq cv681
8589 E420 0460  28 	b @cv680
     E422 E428     
8590               cv681
8591 E424 0460  28 	b @cvb_RNXT
     E426 E502     
8592               cv680
8593               	; rrty:	t2 = RANDOM(16)
8594               cvb_RRTY
8595 E428 06A0  32 	bl @jsr
     E42A A974     
8596 E42C A2A6     	data random
8597 E42E 0A80  32 	sla r0,8
8598 E430 0201  20 	li r1,3840   ; 15*256
     E432 0F00     
8599 E434 0541  14 	inv r1
8600 E436 5001  18 	szcb r1,r0
8601 E438 D800  38 	movb r0,@cvb_T2
     E43A 20D6     
8602               	; 	RESTORE rndrm
8603 E43C 0200  20 	li r0,cvb_RNDRM
     E43E EE50     
8604 E440 C800  30 	mov r0,@read_pointer
     E442 8340     
8605               	; 	WHILE t2 > 0 : READ BYTE t : t2 = t2 - 1 : WEND
8606               cv682
8607 E444 D020  34 	movb @cvb_T2,r0
     E446 20D6     
8608 E448 0201  20 	li r1,256   ; 1*256
     E44A 0100     
8609 E44C 9040  18 	cb r0,r1
8610 E44E 1402  14 	jhe cv684
8611 E450 0460  28 	b @cv683
     E452 E472     
8612               cv684
8613 E454 C060  30 	mov @read_pointer,r1
     E456 8340     
8614 E458 D011  26 	movb *r1,r0
8615 E45A 05A0  26 	inc @read_pointer
     E45C 8340     
8616 E45E D800  38 	movb r0,@cvb_T
     E460 208B     
8617 E462 D020  34 	movb @cvb_T2,r0
     E464 20D6     
8618 E466 0220  22 	ai r0,65280	; -1
     E468 FF00     
8619 E46A D800  38 	movb r0,@cvb_T2
     E46C 20D6     
8620 E46E 0460  28 	b @cv682
     E470 E444     
8621               cv683
8622               	; 	READ BYTE t
8623 E472 C060  30 	mov @read_pointer,r1
     E474 8340     
8624 E476 D011  26 	movb *r1,r0
8625 E478 05A0  26 	inc @read_pointer
     E47A 8340     
8626 E47C D800  38 	movb r0,@cvb_T
     E47E 208B     
8627               	; 	IF o = 2 THEN IF (t = 34) OR (t = 35) THEN GOTO rrty
8628 E480 D020  34 	movb @cvb_O,r0
     E482 2089     
8629 E484 0201  20 	li r1,512   ; 2*256
     E486 0200     
8630 E488 9001  18 	cb r1,r0
8631 E48A 1302  14 	jeq cv686
8632 E48C 0460  28 	b @cv685
     E48E E4C6     
8633               cv686
8634 E490 D020  34 	movb @cvb_T,r0
     E492 208B     
8635 E494 0201  20 	li r1,8960   ; 35*256
     E496 2300     
8636 E498 9001  18 	cb r1,r0
8637 E49A 1302  14 	jeq cv688
8638 E49C 04C0  14 	clr r0
8639 E49E 1001  14 	jmp $+4
8640               cv688
8641 E4A0 0700  14 	seto r0
8642 E4A2 064A  14 	dect r10
8643 E4A4 C680  30 	mov r0,*r10
8644 E4A6 D020  34 	movb @cvb_T,r0
     E4A8 208B     
8645 E4AA 0201  20 	li r1,8704   ; 34*256
     E4AC 2200     
8646 E4AE 9001  18 	cb r1,r0
8647 E4B0 1302  14 	jeq cv689
8648 E4B2 04C0  14 	clr r0
8649 E4B4 1001  14 	jmp $+4
8650               cv689
8651 E4B6 0700  14 	seto r0
8652 E4B8 C07A  30 	mov *r10+,r1
8653 E4BA F001  18 	socb r1,r0
8654 E4BC 1602  14 	jne cv690
8655 E4BE 0460  28 	b @cv687
     E4C0 E4C6     
8656               cv690
8657 E4C2 0460  28 	b @cvb_RRTY
     E4C4 E428     
8658               cv687
8659               cv685
8660               	; 	orm(o) = t : obx(o) = 96 + o * 8 : oby(o) = 88
8661 E4C6 D060  34 	movb @cvb_T,r1
     E4C8 208B     
8662 E4CA D020  34 	movb @cvb_O,r0
     E4CC 2089     
8663 E4CE 0980  32 	srl r0,8
8664 E4D0 0220  22 	ai r0,array_ORM
     E4D2 211E     
8665 E4D4 D401  30 	movb r1,*r0
8666 E4D6 D020  34 	movb @cvb_O,r0
     E4D8 2089     
8667 E4DA 0240  22 	andi r0,>ff00
     E4DC FF00     
8668 E4DE 0A30  22 	sla r0,3
8669 E4E0 0220  22 	ai r0,24576	; 96
     E4E2 6000     
8670 E4E4 C040  18 	mov r0,r1
8671 E4E6 D020  34 	movb @cvb_O,r0
     E4E8 2089     
8672 E4EA 0980  32 	srl r0,8
8673 E4EC 0220  22 	ai r0,array_OBX
     E4EE 210A     
8674 E4F0 D401  30 	movb r1,*r0
8675 E4F2 0201  20 	li r1,22528
     E4F4 5800     
8676 E4F6 D020  34 	movb @cvb_O,r0
     E4F8 2089     
8677 E4FA 0980  32 	srl r0,8
8678 E4FC 0220  22 	ai r0,array_OBY
     E4FE 2112     
8679 E500 D401  30 	movb r1,*r0
8680               	; rnxt:
8681               cvb_RNXT
8682               	; 	NEXT o
8683 E502 D020  34 	movb @cvb_O,r0
     E504 2089     
8684 E506 0220  22 	ai r0,256	; 1
     E508 0100     
8685 E50A D800  38 	movb r0,@cvb_O
     E50C 2089     
8686 E50E 0201  20 	li r1,1792   ; 7*256
     E510 0700     
8687 E512 9040  18 	cb r0,r1
8688 E514 1402  14 	jhe cv691
8689 E516 0460  28 	b @cv679
     E518 E414     
8690               cv691
8691               	; 	END
8692 E51A C03A  30 	mov *r10+,r0
8693 E51C 0450  20 	b *r0
8694               	;
8695               	; 	' ------------------------------------------------------------
8696               	; 	' one-channel sound effect driver (1=pickup 2=drop 3=gate
8697               	; 	' 4=slay-noise 5=dragon roar 6=bat squeak); swallow/win inline
8698               	; 	' ------------------------------------------------------------
8699               	; dosfx: PROCEDURE
8700               	even
8701               cvb_DOSFX
8702               	; 	IF sfx = 0 THEN RETURN
8703 E51E D020  34 	movb @cvb_SFX,r0
     E520 20D7     
8704 E522 1302  14 	jeq cv693
8705 E524 0460  28 	b @cv692
     E526 E52C     
8706               cv693
8707 E528 C03A  30 	mov *r10+,r0
8708 E52A 0450  20 	b *r0
8709               cv692
8710               	; 	IF sfx = 1 THEN SOUND 0, 90, 12
8711 E52C D020  34 	movb @cvb_SFX,r0
     E52E 20D7     
8712 E530 0201  20 	li r1,256   ; 1*256
     E532 0100     
8713 E534 9001  18 	cb r1,r0
8714 E536 1302  14 	jeq cv695
8715 E538 0460  28 	b @cv694
     E53A E558     
8716               cv695
8717 E53C 0200  20 	li r0,90
     E53E 005A     
8718 E540 0202  20 	li r2,>8000
     E542 8000     
8719 E544 06A0  32 	bl @jsr
     E546 A974     
8720 E548 A2BA     	data sn76489_freq
8721 E54A 0200  20 	li r0,3072   ; 12*256
     E54C 0C00     
8722 E54E 0202  20 	li r2,>9000
     E550 9000     
8723 E552 06A0  32 	bl @jsr
     E554 A974     
8724 E556 A2D6     	data sn76489_vol
8725               cv694
8726               	; 	IF sfx = 2 THEN SOUND 0, 320, 10
8727 E558 D020  34 	movb @cvb_SFX,r0
     E55A 20D7     
8728 E55C 0201  20 	li r1,512   ; 2*256
     E55E 0200     
8729 E560 9001  18 	cb r1,r0
8730 E562 1302  14 	jeq cv697
8731 E564 0460  28 	b @cv696
     E566 E584     
8732               cv697
8733 E568 0200  20 	li r0,320
     E56A 0140     
8734 E56C 0202  20 	li r2,>8000
     E56E 8000     
8735 E570 06A0  32 	bl @jsr
     E572 A974     
8736 E574 A2BA     	data sn76489_freq
8737 E576 0200  20 	li r0,2560   ; 10*256
     E578 0A00     
8738 E57A 0202  20 	li r2,>9000
     E57C 9000     
8739 E57E 06A0  32 	bl @jsr
     E580 A974     
8740 E582 A2D6     	data sn76489_vol
8741               cv696
8742               	; 	IF sfx = 3 THEN SOUND 0, #sfq, 11 : #sfq = #sfq - 25
8743 E584 D020  34 	movb @cvb_SFX,r0
     E586 20D7     
8744 E588 0201  20 	li r1,768   ; 3*256
     E58A 0300     
8745 E58C 9001  18 	cb r1,r0
8746 E58E 1302  14 	jeq cv699
8747 E590 0460  28 	b @cv698
     E592 E5BC     
8748               cv699
8749 E594 C020  34 	mov @cvb__SFQ,r0
     E596 208E     
8750 E598 0202  20 	li r2,>8000
     E59A 8000     
8751 E59C 06A0  32 	bl @jsr
     E59E A974     
8752 E5A0 A2BA     	data sn76489_freq
8753 E5A2 0200  20 	li r0,2816   ; 11*256
     E5A4 0B00     
8754 E5A6 0202  20 	li r2,>9000
     E5A8 9000     
8755 E5AA 06A0  32 	bl @jsr
     E5AC A974     
8756 E5AE A2D6     	data sn76489_vol
8757 E5B0 C020  34 	mov @cvb__SFQ,r0
     E5B2 208E     
8758 E5B4 0220  22 	ai r0,-25
     E5B6 FFE7     
8759 E5B8 C800  38 	mov r0,@cvb__SFQ
     E5BA 208E     
8760               cv698
8761               	; 	IF sfx = 4 THEN SOUND 3, 5, sfc
8762 E5BC D020  34 	movb @cvb_SFX,r0
     E5BE 20D7     
8763 E5C0 0201  20 	li r1,1024   ; 4*256
     E5C2 0400     
8764 E5C4 9001  18 	cb r1,r0
8765 E5C6 1302  14 	jeq cv701
8766 E5C8 0460  28 	b @cv700
     E5CA E5E4     
8767               cv701
8768 E5CC 0200  20 	li r0,1280   ; 5*256
     E5CE 0500     
8769 E5D0 06A0  32 	bl @jsr
     E5D2 A974     
8770 E5D4 A2E4     	data sn76489_control
8771 E5D6 D020  34 	movb @cvb_SFC,r0
     E5D8 20CF     
8772 E5DA 0202  20 	li r2,>f000
     E5DC F000     
8773 E5DE 06A0  32 	bl @jsr
     E5E0 A974     
8774 E5E2 A2D6     	data sn76489_vol
8775               cv700
8776               	; 	IF sfx = 5 THEN SOUND 0, 880 + ((sfc AND 2) * 30), 10
8777 E5E4 D020  34 	movb @cvb_SFX,r0
     E5E6 20D7     
8778 E5E8 0201  20 	li r1,1280   ; 5*256
     E5EA 0500     
8779 E5EC 9001  18 	cb r1,r0
8780 E5EE 1302  14 	jeq cv703
8781 E5F0 0460  28 	b @cv702
     E5F2 E626     
8782               cv703
8783 E5F4 D020  34 	movb @cvb_SFC,r0
     E5F6 20CF     
8784 E5F8 0201  20 	li r1,512   ; 2*256
     E5FA 0200     
8785 E5FC 0541  14 	inv r1
8786 E5FE 5001  18 	szcb r1,r0
8787 E600 0980  32 	srl r0,8
8788 E602 0201  20 	li r1,30
     E604 001E     
8789 E606 3801  58 	mpy r1,r0
8790 E608 C001  18 	mov r1,r0
8791 E60A 0220  22 	ai r0,880
     E60C 0370     
8792 E60E 0202  20 	li r2,>8000
     E610 8000     
8793 E612 06A0  32 	bl @jsr
     E614 A974     
8794 E616 A2BA     	data sn76489_freq
8795 E618 0200  20 	li r0,2560   ; 10*256
     E61A 0A00     
8796 E61C 0202  20 	li r2,>9000
     E61E 9000     
8797 E620 06A0  32 	bl @jsr
     E622 A974     
8798 E624 A2D6     	data sn76489_vol
8799               cv702
8800               	; 	IF sfx = 6 THEN SOUND 0, 60 + ((sfc AND 2) * 6), 9
8801 E626 D020  34 	movb @cvb_SFX,r0
     E628 20D7     
8802 E62A 0201  20 	li r1,1536   ; 6*256
     E62C 0600     
8803 E62E 9001  18 	cb r1,r0
8804 E630 1302  14 	jeq cv705
8805 E632 0460  28 	b @cv704
     E634 E668     
8806               cv705
8807 E636 D020  34 	movb @cvb_SFC,r0
     E638 20CF     
8808 E63A 0201  20 	li r1,512   ; 2*256
     E63C 0200     
8809 E63E 0541  14 	inv r1
8810 E640 5001  18 	szcb r1,r0
8811 E642 0980  32 	srl r0,8
8812 E644 0201  20 	li r1,6
     E646 0006     
8813 E648 3801  58 	mpy r1,r0
8814 E64A C001  18 	mov r1,r0
8815 E64C 0220  22 	ai r0,60
     E64E 003C     
8816 E650 0202  20 	li r2,>8000
     E652 8000     
8817 E654 06A0  32 	bl @jsr
     E656 A974     
8818 E658 A2BA     	data sn76489_freq
8819 E65A 0200  20 	li r0,2304   ; 9*256
     E65C 0900     
8820 E65E 0202  20 	li r2,>9000
     E660 9000     
8821 E662 06A0  32 	bl @jsr
     E664 A974     
8822 E666 A2D6     	data sn76489_vol
8823               cv704
8824               	; 	sfc = sfc - 1
8825 E668 D020  34 	movb @cvb_SFC,r0
     E66A 20CF     
8826 E66C 0220  22 	ai r0,65280	; -1
     E66E FF00     
8827 E670 D800  38 	movb r0,@cvb_SFC
     E672 20CF     
8828               	; 	IF sfc = 0 THEN sfx = 0 : SOUND 0, , 0 : SOUND 3, , 0
8829 E674 04C1  14 	clr r1
8830 E676 9001  18 	cb r1,r0
8831 E678 1302  14 	jeq cv707
8832 E67A 0460  28 	b @cv706
     E67C E69C     
8833               cv707
8834 E67E 04C0  14 	clr r0
8835 E680 D800  38 	movb r0,@cvb_SFX
     E682 20D7     
8836 E684 04C0  14 	clr r0
8837 E686 0202  20 	li r2,>9000
     E688 9000     
8838 E68A 06A0  32 	bl @jsr
     E68C A974     
8839 E68E A2D6     	data sn76489_vol
8840 E690 04C0  14 	clr r0
8841 E692 0202  20 	li r2,>f000
     E694 F000     
8842 E696 06A0  32 	bl @jsr
     E698 A974     
8843 E69A A2D6     	data sn76489_vol
8844               cv706
8845               	; 	END
8846 E69C C03A  30 	mov *r10+,r0
8847 E69E 0450  20 	b *r0
8848               	;
8849               	; 	' ------------------------------------------------------------
8850               	; 	' win: colour-cycling walls + fanfare, then back to the title
8851               	; 	' ------------------------------------------------------------
8852               	; winseq:
8853               cvb_WINSEQ
8854               	; 	FOR i = 0 TO 95
8855 E6A0 04C0  14 	clr r0
8856 E6A2 D800  38 	movb r0,@cvb_I
     E6A4 2086     
8857               cv708
8858               	; 	WAIT
8859 E6A6 06A0  32 	bl @jsr
     E6A8 A974     
8860 E6AA A64A     	data wait
8861               	; 	t = (i AND 15) * 16 + cb
8862 E6AC D020  34 	movb @cvb_CB,r0
     E6AE 20C2     
8863 E6B0 0980  32 	srl r0,8
8864 E6B2 064A  14 	dect r10
8865 E6B4 C680  30 	mov r0,*r10
8866 E6B6 D020  34 	movb @cvb_I,r0
     E6B8 2086     
8867 E6BA 0201  20 	li r1,3840   ; 15*256
     E6BC 0F00     
8868 E6BE 0541  14 	inv r1
8869 E6C0 5001  18 	szcb r1,r0
8870 E6C2 0980  32 	srl r0,8
8871 E6C4 0A40  24 	sla r0,4
8872 E6C6 C07A  30 	mov *r10+,r1
8873 E6C8 A001  18 	a r1,r0
8874 E6CA 0A80  32 	sla r0,8
8875 E6CC D800  38 	movb r0,@cvb_T
     E6CE 208B     
8876               	; 	FOR r = 0 TO 7
8877 E6D0 04C0  14 	clr r0
8878 E6D2 D800  38 	movb r0,@cvb_R
     E6D4 208A     
8879               cv709
8880               	; 	VPOKE $2400 + r, t : VPOKE $2C00 + r, t : VPOKE $3400 + r, t
8881 E6D6 D020  34 	movb @cvb_T,r0
     E6D8 208B     
8882 E6DA 064A  14 	dect r10
8883 E6DC C680  30 	mov r0,*r10
8884 E6DE D020  34 	movb @cvb_R,r0
     E6E0 208A     
8885 E6E2 0980  32 	srl r0,8
8886 E6E4 0220  22 	ai r0,9216
     E6E6 2400     
8887 E6E8 C0BA  30 	mov *r10+,r2
8888 E6EA 0300  22 	limi 0
     E6EC 0000     
8889 E6EE 06A0  32 	bl @JSR
     E6F0 A974     
8890 E6F2 A018     	data WRTVRM
8891 E6F4 0300  22 	limi 2
     E6F6 0002     
8892 E6F8 D020  34 	movb @cvb_T,r0
     E6FA 208B     
8893 E6FC 064A  14 	dect r10
8894 E6FE C680  30 	mov r0,*r10
8895 E700 D020  34 	movb @cvb_R,r0
     E702 208A     
8896 E704 0980  32 	srl r0,8
8897 E706 0220  22 	ai r0,11264
     E708 2C00     
8898 E70A C0BA  30 	mov *r10+,r2
8899 E70C 0300  22 	limi 0
     E70E 0000     
8900 E710 06A0  32 	bl @JSR
     E712 A974     
8901 E714 A018     	data WRTVRM
8902 E716 0300  22 	limi 2
     E718 0002     
8903 E71A D020  34 	movb @cvb_T,r0
     E71C 208B     
8904 E71E 064A  14 	dect r10
8905 E720 C680  30 	mov r0,*r10
8906 E722 D020  34 	movb @cvb_R,r0
     E724 208A     
8907 E726 0980  32 	srl r0,8
8908 E728 0220  22 	ai r0,13312
     E72A 3400     
8909 E72C C0BA  30 	mov *r10+,r2
8910 E72E 0300  22 	limi 0
     E730 0000     
8911 E732 06A0  32 	bl @JSR
     E734 A974     
8912 E736 A018     	data WRTVRM
8913 E738 0300  22 	limi 2
     E73A 0002     
8914               	; 	NEXT r
8915 E73C D020  34 	movb @cvb_R,r0
     E73E 208A     
8916 E740 0220  22 	ai r0,256	; 1
     E742 0100     
8917 E744 D800  38 	movb r0,@cvb_R
     E746 208A     
8918 E748 0201  20 	li r1,2048   ; 8*256
     E74A 0800     
8919 E74C 9040  18 	cb r0,r1
8920 E74E 1402  14 	jhe cv710
8921 E750 0460  28 	b @cv709
     E752 E6D6     
8922               cv710
8923               	; 	t = i AND 3
8924 E754 D020  34 	movb @cvb_I,r0
     E756 2086     
8925 E758 0201  20 	li r1,768   ; 3*256
     E75A 0300     
8926 E75C 0541  14 	inv r1
8927 E75E 5001  18 	szcb r1,r0
8928 E760 D800  38 	movb r0,@cvb_T
     E762 208B     
8929               	; 	IF t = 0 THEN SOUND 0, 214, 12
8930 E764 04C1  14 	clr r1
8931 E766 9001  18 	cb r1,r0
8932 E768 1302  14 	jeq cv712
8933 E76A 0460  28 	b @cv711
     E76C E78A     
8934               cv712
8935 E76E 0200  20 	li r0,214
     E770 00D6     
8936 E772 0202  20 	li r2,>8000
     E774 8000     
8937 E776 06A0  32 	bl @jsr
     E778 A974     
8938 E77A A2BA     	data sn76489_freq
8939 E77C 0200  20 	li r0,3072   ; 12*256
     E77E 0C00     
8940 E780 0202  20 	li r2,>9000
     E782 9000     
8941 E784 06A0  32 	bl @jsr
     E786 A974     
8942 E788 A2D6     	data sn76489_vol
8943               cv711
8944               	; 	IF t = 1 THEN SOUND 0, 170, 12
8945 E78A D020  34 	movb @cvb_T,r0
     E78C 208B     
8946 E78E 0201  20 	li r1,256   ; 1*256
     E790 0100     
8947 E792 9001  18 	cb r1,r0
8948 E794 1302  14 	jeq cv714
8949 E796 0460  28 	b @cv713
     E798 E7B6     
8950               cv714
8951 E79A 0200  20 	li r0,170
     E79C 00AA     
8952 E79E 0202  20 	li r2,>8000
     E7A0 8000     
8953 E7A2 06A0  32 	bl @jsr
     E7A4 A974     
8954 E7A6 A2BA     	data sn76489_freq
8955 E7A8 0200  20 	li r0,3072   ; 12*256
     E7AA 0C00     
8956 E7AC 0202  20 	li r2,>9000
     E7AE 9000     
8957 E7B0 06A0  32 	bl @jsr
     E7B2 A974     
8958 E7B4 A2D6     	data sn76489_vol
8959               cv713
8960               	; 	IF t = 2 THEN SOUND 0, 143, 12
8961 E7B6 D020  34 	movb @cvb_T,r0
     E7B8 208B     
8962 E7BA 0201  20 	li r1,512   ; 2*256
     E7BC 0200     
8963 E7BE 9001  18 	cb r1,r0
8964 E7C0 1302  14 	jeq cv716
8965 E7C2 0460  28 	b @cv715
     E7C4 E7E2     
8966               cv716
8967 E7C6 0200  20 	li r0,143
     E7C8 008F     
8968 E7CA 0202  20 	li r2,>8000
     E7CC 8000     
8969 E7CE 06A0  32 	bl @jsr
     E7D0 A974     
8970 E7D2 A2BA     	data sn76489_freq
8971 E7D4 0200  20 	li r0,3072   ; 12*256
     E7D6 0C00     
8972 E7D8 0202  20 	li r2,>9000
     E7DA 9000     
8973 E7DC 06A0  32 	bl @jsr
     E7DE A974     
8974 E7E0 A2D6     	data sn76489_vol
8975               cv715
8976               	; 	IF t = 3 THEN SOUND 0, 107, 12
8977 E7E2 D020  34 	movb @cvb_T,r0
     E7E4 208B     
8978 E7E6 0201  20 	li r1,768   ; 3*256
     E7E8 0300     
8979 E7EA 9001  18 	cb r1,r0
8980 E7EC 1302  14 	jeq cv718
8981 E7EE 0460  28 	b @cv717
     E7F0 E80E     
8982               cv718
8983 E7F2 0200  20 	li r0,107
     E7F4 006B     
8984 E7F6 0202  20 	li r2,>8000
     E7F8 8000     
8985 E7FA 06A0  32 	bl @jsr
     E7FC A974     
8986 E7FE A2BA     	data sn76489_freq
8987 E800 0200  20 	li r0,3072   ; 12*256
     E802 0C00     
8988 E804 0202  20 	li r2,>9000
     E806 9000     
8989 E808 06A0  32 	bl @jsr
     E80A A974     
8990 E80C A2D6     	data sn76489_vol
8991               cv717
8992               	; 	NEXT i
8993 E80E D020  34 	movb @cvb_I,r0
     E810 2086     
8994 E812 0220  22 	ai r0,256	; 1
     E814 0100     
8995 E816 D800  38 	movb r0,@cvb_I
     E818 2086     
8996 E81A 0201  20 	li r1,24576   ; 96*256
     E81C 6000     
8997 E81E 9040  18 	cb r0,r1
8998 E820 1402  14 	jhe cv719
8999 E822 0460  28 	b @cv708
     E824 E6A6     
9000               cv719
9001               	; 	SOUND 0, , 0
9002 E826 04C0  14 	clr r0
9003 E828 0202  20 	li r2,>9000
     E82A 9000     
9004 E82C 06A0  32 	bl @jsr
     E82E A974     
9005 E830 A2D6     	data sn76489_vol
9006               	; 	PRINT AT 32 * 13 + 10, "THE CHALICE"
9007 E832 0200  20 	li r0,426
     E834 01AA     
9008 E836 C800  30 	mov r0,@cursor
     E838 8342     
9009 E83A 0202  20 	li r2,cv720
     E83C E84C     
9010 E83E 0203  20 	li r3,11
     E840 000B     
9011 E842 06A0  32 	bl @jsr
     E844 A974     
9012 E846 A11C     	data print_string
9013 E848 0460  28 	b @cv721
     E84A E858     
9014               cv720
9015 E84C 5448     	byte >54,>48,>45,>20,>43,>48,>41,>4c
     E84E 4520     
     E850 4348     
     E852 414C     
9016 E854 4943     	byte >49,>43,>45
     E856 45       
9017               	even
9018               cv721
9019               	; 	PRINT AT 32 * 14 + 10, "  IS HOME! "
9020 E858 0200  20 	li r0,458
     E85A 01CA     
9021 E85C C800  30 	mov r0,@cursor
     E85E 8342     
9022 E860 0202  20 	li r2,cv722
     E862 E872     
9023 E864 0203  20 	li r3,11
     E866 000B     
9024 E868 06A0  32 	bl @jsr
     E86A A974     
9025 E86C A11C     	data print_string
9026 E86E 0460  28 	b @cv723
     E870 E87E     
9027               cv722
9028 E872 2020     	byte >20,>20,>49,>53,>20,>48,>4f,>4d
     E874 4953     
     E876 2048     
     E878 4F4D     
9029 E87A 4521     	byte >45,>21,>20
     E87C 20       
9030               	even
9031               cv723
9032               	; 	PRINT AT 32 * 16 + 7, "PRESS FIRE TO PLAY"
9033 E87E 0200  20 	li r0,519
     E880 0207     
9034 E882 C800  30 	mov r0,@cursor
     E884 8342     
9035 E886 0202  20 	li r2,cv724
     E888 E898     
9036 E88A 0203  20 	li r3,18
     E88C 0012     
9037 E88E 06A0  32 	bl @jsr
     E890 A974     
9038 E892 A11C     	data print_string
9039 E894 0460  28 	b @cv725
     E896 E8AA     
9040               cv724
9041 E898 5052     	byte >50,>52,>45,>53,>53,>20,>46,>49
     E89A 4553     
     E89C 5320     
     E89E 4649     
9042 E8A0 5245     	byte >52,>45,>20,>54,>4f,>20,>50,>4c
     E8A2 2054     
     E8A4 4F20     
     E8A6 504C     
9043 E8A8 4159     	byte >41,>59
9044               	even
9045               cv725
9046               	; ww1:	WAIT : IF cont1.button > 0 THEN GOTO ww1
9047               cvb_WW1
9048 E8AA 06A0  32 	bl @jsr
     E8AC A974     
9049 E8AE A64A     	data wait
9050 E8B0 D020  30 	movb @joy1_data,r0
     E8B2 8346     
9051 E8B4 0201  20 	li r1,16384   ; 64*256
     E8B6 4000     
9052 E8B8 0541  14 	inv r1
9053 E8BA 5001  18 	szcb r1,r0
9054 E8BC 0201  20 	li r1,256   ; 1*256
     E8BE 0100     
9055 E8C0 9040  18 	cb r0,r1
9056 E8C2 1402  14 	jhe cv727
9057 E8C4 0460  28 	b @cv726
     E8C6 E8CC     
9058               cv727
9059 E8C8 0460  28 	b @cvb_WW1
     E8CA E8AA     
9060               cv726
9061               	; ww2:	WAIT : IF cont1.button = 0 THEN GOTO ww2
9062               cvb_WW2
9063 E8CC 06A0  32 	bl @jsr
     E8CE A974     
9064 E8D0 A64A     	data wait
9065 E8D2 D020  30 	movb @joy1_data,r0
     E8D4 8346     
9066 E8D6 0201  20 	li r1,16384   ; 64*256
     E8D8 4000     
9067 E8DA 0541  14 	inv r1
9068 E8DC 5001  18 	szcb r1,r0
9069 E8DE 04C1  14 	clr r1
9070 E8E0 9001  18 	cb r1,r0
9071 E8E2 1302  14 	jeq cv729
9072 E8E4 0460  28 	b @cv728
     E8E6 E8EC     
9073               cv729
9074 E8E8 0460  28 	b @cvb_WW2
     E8EA E8CC     
9075               cv728
9076               	; 	GOTO restart
9077 E8EC 0460  28 	b @cvb_RESTART
     E8EE AA96     
9078               	;
9079               	; 	' ------------------------------------------------------------
9080               	; 	' title + game select (UP/DOWN choose, FIRE start)
9081               	; 	' ------------------------------------------------------------
9082               	; title: PROCEDURE
9083               	even
9084               cvb_TITLE
9085               	; 	CLS
9086 E8F0 06A0  32 	bl @jsr
     E8F2 A974     
9087 E8F4 A0FC     	data cls
9088               	; 	' clear every sprite left over from the game just played
9089               	; 	FOR i = 0 TO 16 : SPRITE i, $d1, 0, 0, 0 : NEXT i
9090 E8F6 04C0  14 	clr r0
9091 E8F8 D800  38 	movb r0,@cvb_I
     E8FA 2086     
9092               cv730
9093 E8FC D120  34 	movb @cvb_I,r4
     E8FE 2086     
9094 E900 0205  20 	li r5,53504
     E902 D100     
9095 E904 04C6  14 	clr r6
9096 E906 04C7  14 	clr r7
9097 E908 04C0  14 	clr r0
9098 E90A 06A0  32 	bl @jsr
     E90C A974     
9099 E90E A24E     	data update_sprite
9100 E910 D020  34 	movb @cvb_I,r0
     E912 2086     
9101 E914 0220  22 	ai r0,256	; 1
     E916 0100     
9102 E918 D800  38 	movb r0,@cvb_I
     E91A 2086     
9103 E91C 0201  20 	li r1,4352   ; 17*256
     E91E 1100     
9104 E920 9040  18 	cb r0,r1
9105 E922 1402  14 	jhe cv731
9106 E924 0460  28 	b @cv730
     E926 E8FC     
9107               cv731
9108               	; 	BORDER 1
9109 E928 0200  20 	li r0,256   ; 1*256
     E92A 0100     
9110 E92C 0980  32 	srl r0,8
9111 E92E 0260  22 	ori r0,>8700
     E930 8700     
9112 E932 06C0  14 	swpb r0
9113 E934 0300  22 	limi 0
     E936 0000     
9114 E938 D800  30 	movb r0,@VDPWADR
     E93A 8C02     
9115 E93C 06C0  14 	swpb r0
9116 E93E D800  30 	movb r0,@VDPWADR
     E940 8C02     
9117 E942 0300  22 	limi 2
     E944 0002     
9118               	; 	t = 11 * 16 + 1
9119 E946 0200  20 	li r0,45312   ; 177*256
     E948 B100     
9120 E94A D800  38 	movb r0,@cvb_T
     E94C 208B     
9121               	; 	FOR i = 0 TO 7
9122 E94E 04C0  14 	clr r0
9123 E950 D800  38 	movb r0,@cvb_I
     E952 2086     
9124               cv732
9125               	; 	VPOKE $2400 + i, t : VPOKE $2C00 + i, t : VPOKE $3400 + i, t
9126 E954 D020  34 	movb @cvb_T,r0
     E956 208B     
9127 E958 064A  14 	dect r10
9128 E95A C680  30 	mov r0,*r10
9129 E95C D020  34 	movb @cvb_I,r0
     E95E 2086     
9130 E960 0980  32 	srl r0,8
9131 E962 0220  22 	ai r0,9216
     E964 2400     
9132 E966 C0BA  30 	mov *r10+,r2
9133 E968 0300  22 	limi 0
     E96A 0000     
9134 E96C 06A0  32 	bl @JSR
     E96E A974     
9135 E970 A018     	data WRTVRM
9136 E972 0300  22 	limi 2
     E974 0002     
9137 E976 D020  34 	movb @cvb_T,r0
     E978 208B     
9138 E97A 064A  14 	dect r10
9139 E97C C680  30 	mov r0,*r10
9140 E97E D020  34 	movb @cvb_I,r0
     E980 2086     
9141 E982 0980  32 	srl r0,8
9142 E984 0220  22 	ai r0,11264
     E986 2C00     
9143 E988 C0BA  30 	mov *r10+,r2
9144 E98A 0300  22 	limi 0
     E98C 0000     
9145 E98E 06A0  32 	bl @JSR
     E990 A974     
9146 E992 A018     	data WRTVRM
9147 E994 0300  22 	limi 2
     E996 0002     
9148 E998 D020  34 	movb @cvb_T,r0
     E99A 208B     
9149 E99C 064A  14 	dect r10
9150 E99E C680  30 	mov r0,*r10
9151 E9A0 D020  34 	movb @cvb_I,r0
     E9A2 2086     
9152 E9A4 0980  32 	srl r0,8
9153 E9A6 0220  22 	ai r0,13312
     E9A8 3400     
9154 E9AA C0BA  30 	mov *r10+,r2
9155 E9AC 0300  22 	limi 0
     E9AE 0000     
9156 E9B0 06A0  32 	bl @JSR
     E9B2 A974     
9157 E9B4 A018     	data WRTVRM
9158 E9B6 0300  22 	limi 2
     E9B8 0002     
9159               	; 	VPOKE $2100 + i, 1 : VPOKE $2900 + i, 1 : VPOKE $3100 + i, 1
9160 E9BA 0200  20 	li r0,256   ; 1*256
     E9BC 0100     
9161 E9BE 064A  14 	dect r10
9162 E9C0 C680  30 	mov r0,*r10
9163 E9C2 D020  34 	movb @cvb_I,r0
     E9C4 2086     
9164 E9C6 0980  32 	srl r0,8
9165 E9C8 0220  22 	ai r0,8448
     E9CA 2100     
9166 E9CC C0BA  30 	mov *r10+,r2
9167 E9CE 0300  22 	limi 0
     E9D0 0000     
9168 E9D2 06A0  32 	bl @JSR
     E9D4 A974     
9169 E9D6 A018     	data WRTVRM
9170 E9D8 0300  22 	limi 2
     E9DA 0002     
9171 E9DC 0200  20 	li r0,256   ; 1*256
     E9DE 0100     
9172 E9E0 064A  14 	dect r10
9173 E9E2 C680  30 	mov r0,*r10
9174 E9E4 D020  34 	movb @cvb_I,r0
     E9E6 2086     
9175 E9E8 0980  32 	srl r0,8
9176 E9EA 0220  22 	ai r0,10496
     E9EC 2900     
9177 E9EE C0BA  30 	mov *r10+,r2
9178 E9F0 0300  22 	limi 0
     E9F2 0000     
9179 E9F4 06A0  32 	bl @JSR
     E9F6 A974     
9180 E9F8 A018     	data WRTVRM
9181 E9FA 0300  22 	limi 2
     E9FC 0002     
9182 E9FE 0200  20 	li r0,256   ; 1*256
     EA00 0100     
9183 EA02 064A  14 	dect r10
9184 EA04 C680  30 	mov r0,*r10
9185 EA06 D020  34 	movb @cvb_I,r0
     EA08 2086     
9186 EA0A 0980  32 	srl r0,8
9187 EA0C 0220  22 	ai r0,12544
     EA0E 3100     
9188 EA10 C0BA  30 	mov *r10+,r2
9189 EA12 0300  22 	limi 0
     EA14 0000     
9190 EA16 06A0  32 	bl @JSR
     EA18 A974     
9191 EA1A A018     	data WRTVRM
9192 EA1C 0300  22 	limi 2
     EA1E 0002     
9193               	; 	NEXT i
9194 EA20 D020  34 	movb @cvb_I,r0
     EA22 2086     
9195 EA24 0220  22 	ai r0,256	; 1
     EA26 0100     
9196 EA28 D800  38 	movb r0,@cvb_I
     EA2A 2086     
9197 EA2C 0201  20 	li r1,2048   ; 8*256
     EA2E 0800     
9198 EA30 9040  18 	cb r0,r1
9199 EA32 1402  14 	jhe cv733
9200 EA34 0460  28 	b @cv732
     EA36 E954     
9201               cv733
9202               	; 	' undo any secret-room glyph colour cycling (middle third)
9203               	; 	RESTORE eggch
9204 EA38 0200  20 	li r0,cvb_EGGCH
     EA3A EE40     
9205 EA3C C800  30 	mov r0,@read_pointer
     EA3E 8340     
9206               	; 	FOR i2 = 0 TO 15
9207 EA40 04C0  14 	clr r0
9208 EA42 D800  38 	movb r0,@cvb_I2
     EA44 20CB     
9209               cv734
9210               	; 	READ BYTE t
9211 EA46 C060  30 	mov @read_pointer,r1
     EA48 8340     
9212 EA4A D011  26 	movb *r1,r0
9213 EA4C 05A0  26 	inc @read_pointer
     EA4E 8340     
9214 EA50 D800  38 	movb r0,@cvb_T
     EA52 208B     
9215               	; 	#ad = $2800 + t * 8
9216 EA54 0980  32 	srl r0,8
9217 EA56 0A30  22 	sla r0,3
9218 EA58 0220  22 	ai r0,10240
     EA5A 2800     
9219 EA5C C800  38 	mov r0,@cvb__AD
     EA5E 20AA     
9220               	; 	FOR i = 0 TO 7 : VPOKE #ad + i, $F0 : NEXT i
9221 EA60 04C0  14 	clr r0
9222 EA62 D800  38 	movb r0,@cvb_I
     EA64 2086     
9223               cv735
9224 EA66 0200  20 	li r0,61440   ; 240*256
     EA68 F000     
9225 EA6A 064A  14 	dect r10
9226 EA6C C680  30 	mov r0,*r10
9227 EA6E D020  34 	movb @cvb_I,r0
     EA70 2086     
9228 EA72 0980  32 	srl r0,8
9229 EA74 C040  18 	mov r0,r1
9230 EA76 C020  34 	mov @cvb__AD,r0
     EA78 20AA     
9231 EA7A A001  18 	a r1,r0
9232 EA7C C0BA  30 	mov *r10+,r2
9233 EA7E 0300  22 	limi 0
     EA80 0000     
9234 EA82 06A0  32 	bl @JSR
     EA84 A974     
9235 EA86 A018     	data WRTVRM
9236 EA88 0300  22 	limi 2
     EA8A 0002     
9237 EA8C D020  34 	movb @cvb_I,r0
     EA8E 2086     
9238 EA90 0220  22 	ai r0,256	; 1
     EA92 0100     
9239 EA94 D800  38 	movb r0,@cvb_I
     EA96 2086     
9240 EA98 0201  20 	li r1,2048   ; 8*256
     EA9A 0800     
9241 EA9C 9040  18 	cb r0,r1
9242 EA9E 1402  14 	jhe cv736
9243 EAA0 0460  28 	b @cv735
     EAA2 EA66     
9244               cv736
9245               	; 	NEXT i2
9246 EAA4 D020  34 	movb @cvb_I2,r0
     EAA6 20CB     
9247 EAA8 0220  22 	ai r0,256	; 1
     EAAA 0100     
9248 EAAC D800  38 	movb r0,@cvb_I2
     EAAE 20CB     
9249 EAB0 0201  20 	li r1,4096   ; 16*256
     EAB2 1000     
9250 EAB4 9040  18 	cb r0,r1
9251 EAB6 1402  14 	jhe cv737
9252 EAB8 0460  28 	b @cv734
     EABA EA46     
9253               cv737
9254               	; 	PRINT AT 32 * 2 + 7, "A D V E N T I R E"
9255 EABC 0200  20 	li r0,71
     EABE 0047     
9256 EAC0 C800  30 	mov r0,@cursor
     EAC2 8342     
9257 EAC4 0202  20 	li r2,cv738
     EAC6 EAD6     
9258 EAC8 0203  20 	li r3,17
     EACA 0011     
9259 EACC 06A0  32 	bl @jsr
     EACE A974     
9260 EAD0 A11C     	data print_string
9261 EAD2 0460  28 	b @cv739
     EAD4 EAE8     
9262               cv738
9263 EAD6 4120     	byte >41,>20,>44,>20,>56,>20,>45,>20
     EAD8 4420     
     EADA 5620     
     EADC 4520     
9264 EADE 4E20     	byte >4e,>20,>54,>20,>49,>20,>52,>20
     EAE0 5420     
     EAE2 4920     
     EAE4 5220     
9265 EAE6 45       	byte >45
9266               	even
9267               cv739
9268               	; 	PRINT AT 32 * 5 + 10, "\128\128 \128\128 \128\128 \128\128"
9269 EAE8 0200  20 	li r0,170
     EAEA 00AA     
9270 EAEC C800  30 	mov r0,@cursor
     EAEE 8342     
9271 EAF0 0202  20 	li r2,cv740
     EAF2 EB02     
9272 EAF4 0203  20 	li r3,11
     EAF6 000B     
9273 EAF8 06A0  32 	bl @jsr
     EAFA A974     
9274 EAFC A11C     	data print_string
9275 EAFE 0460  28 	b @cv741
     EB00 EB0E     
9276               cv740
9277 EB02 8080     	byte >80,>80,>20,>80,>80,>20,>80,>80
     EB04 2080     
     EB06 8020     
     EB08 8080     
9278 EB0A 2080     	byte >20,>80,>80
     EB0C 80       
9279               	even
9280               cv741
9281               	; 	PRINT AT 32 * 6 + 10, "\128\128\128\128\128\128\128\128\128\128\128"
9282 EB0E 0200  20 	li r0,202
     EB10 00CA     
9283 EB12 C800  30 	mov r0,@cursor
     EB14 8342     
9284 EB16 0202  20 	li r2,cv742
     EB18 EB28     
9285 EB1A 0203  20 	li r3,11
     EB1C 000B     
9286 EB1E 06A0  32 	bl @jsr
     EB20 A974     
9287 EB22 A11C     	data print_string
9288 EB24 0460  28 	b @cv743
     EB26 EB34     
9289               cv742
9290 EB28 8080     	byte >80,>80,>80,>80,>80,>80,>80,>80
     EB2A 8080     
     EB2C 8080     
     EB2E 8080     
9291 EB30 8080     	byte >80,>80,>80
     EB32 80       
9292               	even
9293               cv743
9294               	; 	PRINT AT 32 * 7 + 10, "\128\128\128\128\129\129\129\128\128\128\128"
9295 EB34 0200  20 	li r0,234
     EB36 00EA     
9296 EB38 C800  30 	mov r0,@cursor
     EB3A 8342     
9297 EB3C 0202  20 	li r2,cv744
     EB3E EB4E     
9298 EB40 0203  20 	li r3,11
     EB42 000B     
9299 EB44 06A0  32 	bl @jsr
     EB46 A974     
9300 EB48 A11C     	data print_string
9301 EB4A 0460  28 	b @cv745
     EB4C EB5A     
9302               cv744
9303 EB4E 8080     	byte >80,>80,>80,>80,>81,>81,>81,>80
     EB50 8080     
     EB52 8181     
     EB54 8180     
9304 EB56 8080     	byte >80,>80,>80
     EB58 80       
9305               	even
9306               cv745
9307               	; 	PRINT AT 32 * 8 + 10, "\128\128\128\128\129\129\129\128\128\128\128"
9308 EB5A 0200  20 	li r0,266
     EB5C 010A     
9309 EB5E C800  30 	mov r0,@cursor
     EB60 8342     
9310 EB62 0202  20 	li r2,cv746
     EB64 EB74     
9311 EB66 0203  20 	li r3,11
     EB68 000B     
9312 EB6A 06A0  32 	bl @jsr
     EB6C A974     
9313 EB6E A11C     	data print_string
9314 EB70 0460  28 	b @cv747
     EB72 EB80     
9315               cv746
9316 EB74 8080     	byte >80,>80,>80,>80,>81,>81,>81,>80
     EB76 8080     
     EB78 8181     
     EB7A 8180     
9317 EB7C 8080     	byte >80,>80,>80
     EB7E 80       
9318               	even
9319               cv747
9320               	; 	PRINT AT 32 * 11 + 7, "GAME 1  INTRO KINGDOM"
9321 EB80 0200  20 	li r0,359
     EB82 0167     
9322 EB84 C800  30 	mov r0,@cursor
     EB86 8342     
9323 EB88 0202  20 	li r2,cv748
     EB8A EB9A     
9324 EB8C 0203  20 	li r3,21
     EB8E 0015     
9325 EB90 06A0  32 	bl @jsr
     EB92 A974     
9326 EB94 A11C     	data print_string
9327 EB96 0460  28 	b @cv749
     EB98 EBB0     
9328               cv748
9329 EB9A 4741     	byte >47,>41,>4d,>45,>20,>31,>20,>20
     EB9C 4D45     
     EB9E 2031     
     EBA0 2020     
9330 EBA2 494E     	byte >49,>4e,>54,>52,>4f,>20,>4b,>49
     EBA4 5452     
     EBA6 4F20     
     EBA8 4B49     
9331 EBAA 4E47     	byte >4e,>47,>44,>4f,>4d
     EBAC 444F     
     EBAE 4D       
9332               	even
9333               cv749
9334               	; 	PRINT AT 32 * 13 + 7, "GAME 2  SMALL KINGDOM"
9335 EBB0 0200  20 	li r0,423
     EBB2 01A7     
9336 EBB4 C800  30 	mov r0,@cursor
     EBB6 8342     
9337 EBB8 0202  20 	li r2,cv750
     EBBA EBCA     
9338 EBBC 0203  20 	li r3,21
     EBBE 0015     
9339 EBC0 06A0  32 	bl @jsr
     EBC2 A974     
9340 EBC4 A11C     	data print_string
9341 EBC6 0460  28 	b @cv751
     EBC8 EBE0     
9342               cv750
9343 EBCA 4741     	byte >47,>41,>4d,>45,>20,>32,>20,>20
     EBCC 4D45     
     EBCE 2032     
     EBD0 2020     
9344 EBD2 534D     	byte >53,>4d,>41,>4c,>4c,>20,>4b,>49
     EBD4 414C     
     EBD6 4C20     
     EBD8 4B49     
9345 EBDA 4E47     	byte >4e,>47,>44,>4f,>4d
     EBDC 444F     
     EBDE 4D       
9346               	even
9347               cv751
9348               	; 	PRINT AT 32 * 15 + 7, "GAME 3  FULL KINGDOM"
9349 EBE0 0200  20 	li r0,487
     EBE2 01E7     
9350 EBE4 C800  30 	mov r0,@cursor
     EBE6 8342     
9351 EBE8 0202  20 	li r2,cv752
     EBEA EBFA     
9352 EBEC 0203  20 	li r3,20
     EBEE 0014     
9353 EBF0 06A0  32 	bl @jsr
     EBF2 A974     
9354 EBF4 A11C     	data print_string
9355 EBF6 0460  28 	b @cv753
     EBF8 EC0E     
9356               cv752
9357 EBFA 4741     	byte >47,>41,>4d,>45,>20,>33,>20,>20
     EBFC 4D45     
     EBFE 2033     
     EC00 2020     
9358 EC02 4655     	byte >46,>55,>4c,>4c,>20,>4b,>49,>4e
     EC04 4C4C     
     EC06 204B     
     EC08 494E     
9359 EC0A 4744     	byte >47,>44,>4f,>4d
     EC0C 4F4D     
9360               	even
9361               cv753
9362               	; 	PRINT AT 32 * 17 + 7, "GAME 4  RANDOM KINGDOM"
9363 EC0E 0200  20 	li r0,551
     EC10 0227     
9364 EC12 C800  30 	mov r0,@cursor
     EC14 8342     
9365 EC16 0202  20 	li r2,cv754
     EC18 EC28     
9366 EC1A 0203  20 	li r3,22
     EC1C 0016     
9367 EC1E 06A0  32 	bl @jsr
     EC20 A974     
9368 EC22 A11C     	data print_string
9369 EC24 0460  28 	b @cv755
     EC26 EC3E     
9370               cv754
9371 EC28 4741     	byte >47,>41,>4d,>45,>20,>34,>20,>20
     EC2A 4D45     
     EC2C 2034     
     EC2E 2020     
9372 EC30 5241     	byte >52,>41,>4e,>44,>4f,>4d,>20,>4b
     EC32 4E44     
     EC34 4F4D     
     EC36 204B     
9373 EC38 494E     	byte >49,>4e,>47,>44,>4f,>4d
     EC3A 4744     
     EC3C 4F4D     
9374               	even
9375               cv755
9376               	; 	PRINT AT 32 * 21 + 6, "PRESS FIRE TO START"
9377 EC3E 0200  20 	li r0,678
     EC40 02A6     
9378 EC42 C800  30 	mov r0,@cursor
     EC44 8342     
9379 EC46 0202  20 	li r2,cv756
     EC48 EC58     
9380 EC4A 0203  20 	li r3,19
     EC4C 0013     
9381 EC4E 06A0  32 	bl @jsr
     EC50 A974     
9382 EC52 A11C     	data print_string
9383 EC54 0460  28 	b @cv757
     EC56 EC6C     
9384               cv756
9385 EC58 5052     	byte >50,>52,>45,>53,>53,>20,>46,>49
     EC5A 4553     
     EC5C 5320     
     EC5E 4649     
9386 EC60 5245     	byte >52,>45,>20,>54,>4f,>20,>53,>54
     EC62 2054     
     EC64 4F20     
     EC66 5354     
9387 EC68 4152     	byte >41,>52,>54
     EC6A 54       
9388               	even
9389               cv757
9390               	; 	' debounce: the press that ended the last game must not start
9391               	; 	' the next one - require the button quiet for ~2/3 second
9392               	; 	udl = 0 : t2 = 20
9393 EC6C 04C0  14 	clr r0
9394 EC6E D800  38 	movb r0,@cvb_UDL
     EC70 2088     
9395 EC72 0200  20 	li r0,5120   ; 20*256
     EC74 1400     
9396 EC76 D800  38 	movb r0,@cvb_T2
     EC78 20D6     
9397               	; tdb:	WAIT
9398               cvb_TDB
9399 EC7A 06A0  32 	bl @jsr
     EC7C A974     
9400 EC7E A64A     	data wait
9401               	; 	IF cont1.button > 0 THEN t2 = 20 : GOTO tdb
9402 EC80 D020  30 	movb @joy1_data,r0
     EC82 8346     
9403 EC84 0201  20 	li r1,16384   ; 64*256
     EC86 4000     
9404 EC88 0541  14 	inv r1
9405 EC8A 5001  18 	szcb r1,r0
9406 EC8C 0201  20 	li r1,256   ; 1*256
     EC8E 0100     
9407 EC90 9040  18 	cb r0,r1
9408 EC92 1402  14 	jhe cv759
9409 EC94 0460  28 	b @cv758
     EC96 ECA4     
9410               cv759
9411 EC98 0200  20 	li r0,5120   ; 20*256
     EC9A 1400     
9412 EC9C D800  38 	movb r0,@cvb_T2
     EC9E 20D6     
9413 ECA0 0460  28 	b @cvb_TDB
     ECA2 EC7A     
9414               cv758
9415               	; 	t2 = t2 - 1
9416 ECA4 D020  34 	movb @cvb_T2,r0
     ECA6 20D6     
9417 ECA8 0220  22 	ai r0,65280	; -1
     ECAA FF00     
9418 ECAC D800  38 	movb r0,@cvb_T2
     ECAE 20D6     
9419               	; 	IF t2 > 0 THEN GOTO tdb
9420 ECB0 0201  20 	li r1,256   ; 1*256
     ECB2 0100     
9421 ECB4 9040  18 	cb r0,r1
9422 ECB6 1402  14 	jhe cv761
9423 ECB8 0460  28 	b @cv760
     ECBA ECC0     
9424               cv761
9425 ECBC 0460  28 	b @cvb_TDB
     ECBE EC7A     
9426               cv760
9427               	; tsel:
9428               cvb_TSEL
9429               	; 	WAIT
9430 ECC0 06A0  32 	bl @jsr
     ECC2 A974     
9431 ECC4 A64A     	data wait
9432               	; 	IF udl > 0 THEN udl = udl - 1
9433 ECC6 D020  34 	movb @cvb_UDL,r0
     ECC8 2088     
9434 ECCA 0201  20 	li r1,256   ; 1*256
     ECCC 0100     
9435 ECCE 9040  18 	cb r0,r1
9436 ECD0 1402  14 	jhe cv763
9437 ECD2 0460  28 	b @cv762
     ECD4 ECE2     
9438               cv763
9439 ECD6 D020  34 	movb @cvb_UDL,r0
     ECD8 2088     
9440 ECDA 0220  22 	ai r0,65280	; -1
     ECDC FF00     
9441 ECDE D800  38 	movb r0,@cvb_UDL
     ECE0 2088     
9442               cv762
9443               	; 	FOR i = 0 TO 3
9444 ECE2 04C0  14 	clr r0
9445 ECE4 D800  38 	movb r0,@cvb_I
     ECE6 2086     
9446               cv764
9447               	; 	IF i = gm - 1 THEN PRINT AT 32 * (11 + i * 2) + 5, ">" ELSE PRINT AT 32 * (11 + i * 2) + 5, " "
9448 ECE8 D020  34 	movb @cvb_GM,r0
     ECEA 20CC     
9449 ECEC 0980  32 	srl r0,8
9450 ECEE 0600  14 	dec r0
9451 ECF0 C040  18 	mov r0,r1
9452 ECF2 D020  34 	movb @cvb_I,r0
     ECF4 2086     
9453 ECF6 0980  32 	srl r0,8
9454 ECF8 8040  18 	c r0,r1
9455 ECFA 1302  14 	jeq cv766
9456 ECFC 0460  28 	b @cv765
     ECFE ED2E     
9457               cv766
9458 ED00 D020  34 	movb @cvb_I,r0
     ED02 2086     
9459 ED04 0980  32 	srl r0,8
9460 ED06 0A10  18 	sla r0,1
9461 ED08 0220  22 	ai r0,11
     ED0A 000B     
9462 ED0C 0A50  26 	sla r0,5
9463 ED0E 0220  22 	ai r0,5
     ED10 0005     
9464 ED12 C800  30 	mov r0,@cursor
     ED14 8342     
9465 ED16 0202  20 	li r2,cv767
     ED18 ED28     
9466 ED1A 0203  20 	li r3,1
     ED1C 0001     
9467 ED1E 06A0  32 	bl @jsr
     ED20 A974     
9468 ED22 A11C     	data print_string
9469 ED24 0460  28 	b @cv768
     ED26 ED2A     
9470               cv767
9471 ED28 3E       	byte >3e
9472               	even
9473               cv768
9474 ED2A 0460  28 	b @cv769
     ED2C ED58     
9475               cv765
9476 ED2E D020  34 	movb @cvb_I,r0
     ED30 2086     
9477 ED32 0980  32 	srl r0,8
9478 ED34 0A10  18 	sla r0,1
9479 ED36 0220  22 	ai r0,11
     ED38 000B     
9480 ED3A 0A50  26 	sla r0,5
9481 ED3C 0220  22 	ai r0,5
     ED3E 0005     
9482 ED40 C800  30 	mov r0,@cursor
     ED42 8342     
9483 ED44 0202  20 	li r2,cv770
     ED46 ED56     
9484 ED48 0203  20 	li r3,1
     ED4A 0001     
9485 ED4C 06A0  32 	bl @jsr
     ED4E A974     
9486 ED50 A11C     	data print_string
9487 ED52 0460  28 	b @cv771
     ED54 ED58     
9488               cv770
9489 ED56 20       	byte >20
9490               	even
9491               cv771
9492               cv769
9493               	; 	NEXT i
9494 ED58 D020  34 	movb @cvb_I,r0
     ED5A 2086     
9495 ED5C 0220  22 	ai r0,256	; 1
     ED5E 0100     
9496 ED60 D800  38 	movb r0,@cvb_I
     ED62 2086     
9497 ED64 0201  20 	li r1,1024   ; 4*256
     ED66 0400     
9498 ED68 9040  18 	cb r0,r1
9499 ED6A 1402  14 	jhe cv772
9500 ED6C 0460  28 	b @cv764
     ED6E ECE8     
9501               cv772
9502               	; 	IF udl = 0 THEN IF cont1.up THEN IF gm > 1 THEN gm = gm - 1 : udl = 8
9503 ED70 D020  34 	movb @cvb_UDL,r0
     ED72 2088     
9504 ED74 1302  14 	jeq cv774
9505 ED76 0460  28 	b @cv773
     ED78 EDB0     
9506               cv774
9507 ED7A D020  30 	movb @joy1_data,r0
     ED7C 8346     
9508 ED7E 0201  20 	li r1,256   ; 1*256
     ED80 0100     
9509 ED82 0541  14 	inv r1
9510 ED84 5001  18 	szcb r1,r0
9511 ED86 1602  14 	jne cv776
9512 ED88 0460  28 	b @cv775
     ED8A EDB0     
9513               cv776
9514 ED8C D020  34 	movb @cvb_GM,r0
     ED8E 20CC     
9515 ED90 0201  20 	li r1,512   ; 2*256
     ED92 0200     
9516 ED94 9040  18 	cb r0,r1
9517 ED96 1402  14 	jhe cv778
9518 ED98 0460  28 	b @cv777
     ED9A EDB0     
9519               cv778
9520 ED9C D020  34 	movb @cvb_GM,r0
     ED9E 20CC     
9521 EDA0 0220  22 	ai r0,65280	; -1
     EDA2 FF00     
9522 EDA4 D800  38 	movb r0,@cvb_GM
     EDA6 20CC     
9523 EDA8 0200  20 	li r0,2048   ; 8*256
     EDAA 0800     
9524 EDAC D800  38 	movb r0,@cvb_UDL
     EDAE 2088     
9525               cv777
9526               cv775
9527               cv773
9528               	; 	IF udl = 0 THEN IF cont1.down THEN IF gm < 4 THEN gm = gm + 1 : udl = 8
9529 EDB0 D020  34 	movb @cvb_UDL,r0
     EDB2 2088     
9530 EDB4 1302  14 	jeq cv780
9531 EDB6 0460  28 	b @cv779
     EDB8 EDF0     
9532               cv780
9533 EDBA D020  30 	movb @joy1_data,r0
     EDBC 8346     
9534 EDBE 0201  20 	li r1,1024   ; 4*256
     EDC0 0400     
9535 EDC2 0541  14 	inv r1
9536 EDC4 5001  18 	szcb r1,r0
9537 EDC6 1602  14 	jne cv782
9538 EDC8 0460  28 	b @cv781
     EDCA EDF0     
9539               cv782
9540 EDCC D020  34 	movb @cvb_GM,r0
     EDCE 20CC     
9541 EDD0 0201  20 	li r1,1024   ; 4*256
     EDD2 0400     
9542 EDD4 9040  18 	cb r0,r1
9543 EDD6 1A02  14 	jl cv784
9544 EDD8 0460  28 	b @cv783
     EDDA EDF0     
9545               cv784
9546 EDDC D020  34 	movb @cvb_GM,r0
     EDDE 20CC     
9547 EDE0 0220  22 	ai r0,256	; 1
     EDE2 0100     
9548 EDE4 D800  38 	movb r0,@cvb_GM
     EDE6 20CC     
9549 EDE8 0200  20 	li r0,2048   ; 8*256
     EDEA 0800     
9550 EDEC D800  38 	movb r0,@cvb_UDL
     EDEE 2088     
9551               cv783
9552               cv781
9553               cv779
9554               	; 	IF cont1.button = 0 THEN GOTO tsel
9555 EDF0 D020  30 	movb @joy1_data,r0
     EDF2 8346     
9556 EDF4 0201  20 	li r1,16384   ; 64*256
     EDF6 4000     
9557 EDF8 0541  14 	inv r1
9558 EDFA 5001  18 	szcb r1,r0
9559 EDFC 04C1  14 	clr r1
9560 EDFE 9001  18 	cb r1,r0
9561 EE00 1302  14 	jeq cv786
9562 EE02 0460  28 	b @cv785
     EE04 EE0A     
9563               cv786
9564 EE06 0460  28 	b @cvb_TSEL
     EE08 ECC0     
9565               cv785
9566               	; tw2:	WAIT : IF cont1.button > 0 THEN GOTO tw2
9567               cvb_TW2
9568 EE0A 06A0  32 	bl @jsr
     EE0C A974     
9569 EE0E A64A     	data wait
9570 EE10 D020  30 	movb @joy1_data,r0
     EE12 8346     
9571 EE14 0201  20 	li r1,16384   ; 64*256
     EE16 4000     
9572 EE18 0541  14 	inv r1
9573 EE1A 5001  18 	szcb r1,r0
9574 EE1C 0201  20 	li r1,256   ; 1*256
     EE1E 0100     
9575 EE20 9040  18 	cb r0,r1
9576 EE22 1402  14 	jhe cv788
9577 EE24 0460  28 	b @cv787
     EE26 EE2C     
9578               cv788
9579 EE28 0460  28 	b @cvb_TW2
     EE2A EE0A     
9580               cv787
9581               	; 	btnp = 1
9582 EE2C 0200  20 	li r0,256   ; 1*256
     EE2E 0100     
9583 EE30 D800  38 	movb r0,@cvb_BTNP
     EE32 20BC     
9584               	; 	END
9585 EE34 C03A  30 	mov *r10+,r0
9586 EE36 0450  20 	b *r0
9587               	;
9588               	; 	' ============================================================
9589               	; 	' DATA
9590               	; 	' ============================================================
9591               	;
9592               	; mskdat:
9593               cvb_MSKDAT
9594               	; 	DATA BYTE $80, $40, $20, $10, $08, $04, $02, $01
9595 EE38 8040     	byte >80,>40,>20,>10,>08,>04,>02,>01
     EE3A 2010     
     EE3C 0804     
     EE3E 0201     
9596               	;
9597               	; 	' secret-room glyphs whose colours ripple (16 codes)
9598               	; eggch:
9599               cvb_EGGCH
9600               	; 	DATA BYTE 65, 68, 86, 69, 78, 84, 73, 82
9601 EE40 4144     	byte >41,>44,>56,>45,>4e,>54,>49,>52
     EE42 5645     
     EE44 4E54     
     EE46 4952     
9602               	; 	DATA BYTE 50, 48, 54, 85, 72, 77, 67, 76
9603 EE48 3230     	byte >32,>30,>36,>55,>48,>4d,>43,>4c
     EE4A 3655     
     EE4C 484D     
     EE4E 434C     
9604               	;
9605               	; 	' game 4 scatter rooms (16 open/maze/corridor rooms)
9606               	; rndrm:
9607               cvb_RNDRM
9608               	; 	DATA BYTE 15, 16, 17, 19, 20, 21, 22, 23
9609 EE50 0F10     	byte >0f,>10,>11,>13,>14,>15,>16,>17
     EE52 1113     
     EE54 1415     
     EE56 1617     
9610               	; 	DATA BYTE 29, 30, 31, 34, 35, 36, 37, 38
9611 EE58 1D1E     	byte >1d,>1e,>1f,>22,>23,>24,>25,>26
     EE5A 1F22     
     EE5C 2324     
     EE5E 2526     
9612               	;
9613               	; 	' ------------------------------------------------------------
9614               	; 	' links: N,E,S,W per room (255 = none). Castle halls have no
9615               	; 	' inbound edge links (gate warps only), so the bat can never
9616               	; 	' carry loot into a locked castle.
9617               	; 	' ------------------------------------------------------------
9618               	; lnkc:	' game 1 - custom intro map, rooms 0-12
9619               cvb_LNKC
9620               	; 	DATA BYTE 255, 255, 1, 255
9621 EE60 FFFF     	byte >ff,>ff,>01,>ff
     EE62 01FF     
9622               	; 	DATA BYTE 0, 3, 4, 11
9623 EE64 0003     	byte >00,>03,>04,>0b
     EE66 040B     
9624               	; 	DATA BYTE 255, 255, 0, 255
9625 EE68 FFFF     	byte >ff,>ff,>00,>ff
     EE6A 00FF     
9626               	; 	DATA BYTE 255, 5, 255, 1
9627 EE6C FF05     	byte >ff,>05,>ff,>01
     EE6E FF01     
9628               	; 	DATA BYTE 1, 6, 255, 255
9629 EE70 0106     	byte >01,>06,>ff,>ff
     EE72 FFFF     
9630               	; 	DATA BYTE 255, 255, 7, 3
9631 EE74 FFFF     	byte >ff,>ff,>07,>03
     EE76 0703     
9632               	; 	DATA BYTE 255, 7, 255, 4
9633 EE78 FF07     	byte >ff,>07,>ff,>04
     EE7A FF04     
9634               	; 	DATA BYTE 5, 8, 255, 6
9635 EE7C 0508     	byte >05,>08,>ff,>06
     EE7E FF06     
9636               	; 	DATA BYTE 255, 255, 255, 7
9637 EE80 FFFF     	byte >ff,>ff,>ff,>07
     EE82 FF07     
9638               	; 	DATA BYTE 255, 10, 8, 255
9639 EE84 FF0A     	byte >ff,>0a,>08,>ff
     EE86 08FF     
9640               	; 	DATA BYTE 255, 255, 255, 9
9641 EE88 FFFF     	byte >ff,>ff,>ff,>09
     EE8A FF09     
9642               	; 	DATA BYTE 255, 1, 255, 255
9643 EE8C FF01     	byte >ff,>01,>ff,>ff
     EE8E FFFF     
9644               	; 	DATA BYTE 255, 255, 11, 255
9645 EE90 FFFF     	byte >ff,>ff,>0b,>ff
     EE92 0BFF     
9646               	;
9647               	; lnkb:	' game 2 - small kingdom (rooms 13-38; sealed = 255)
9648               cvb_LNKB
9649               	; 	DATA BYTE 255, 255, 16, 255	' 13 gold grounds
9650 EE94 FFFF     	byte >ff,>ff,>10,>ff
     EE96 10FF     
9651               	; 	DATA BYTE 255, 255, 13, 255	' 14 gold hall
9652 EE98 FFFF     	byte >ff,>ff,>0d,>ff
     EE9A 0DFF     
9653               	; 	DATA BYTE 255, 16, 255, 19	' 15 corridor W
9654 EE9C FF10     	byte >ff,>10,>ff,>13
     EE9E FF13     
9655               	; 	DATA BYTE 13, 17, 255, 15	' 16 corridor mid
9656 EEA0 0D11     	byte >0d,>11,>ff,>0f
     EEA2 FF0F     
9657               	; 	DATA BYTE 255, 255, 255, 16	' 17 corridor E (dead end here)
9658 EEA4 FFFF     	byte >ff,>ff,>ff,>10
     EEA6 FF10     
9659               	; 	DATA BYTE 255, 255, 255, 255	' 18 secret (absent)
9660 EEA8 FFFF     	byte >ff,>ff,>ff,>ff
     EEAA FFFF     
9661               	; 	DATA BYTE 20, 15, 255, 21	' 19 blue maze
9662 EEAC 140F     	byte >14,>0f,>ff,>15
     EEAE FF15     
9663               	; 	DATA BYTE 23, 21, 19, 21	' 20 blue maze
9664 EEB0 1715     	byte >17,>15,>13,>15
     EEB2 1315     
9665               	; 	DATA BYTE 22, 20, 19, 20	' 21 blue maze
9666 EEB4 1614     	byte >16,>14,>13,>14
     EEB6 1314     
9667               	; 	DATA BYTE 23, 23, 21, 255	' 22 blue maze
9668 EEB8 1717     	byte >17,>17,>15,>ff
     EEBA 15FF     
9669               	; 	DATA BYTE 24, 20, 20, 22	' 23 blue maze top
9670 EEBC 1814     	byte >18,>14,>14,>16
     EEBE 1416     
9671               	; 	DATA BYTE 255, 255, 23, 255	' 24 black grounds
9672 EEC0 FFFF     	byte >ff,>ff,>17,>ff
     EEC2 17FF     
9673               	; 	DATA BYTE 255, 255, 24, 255	' 25 black hall (chalice+magnet)
9674 EEC4 FFFF     	byte >ff,>ff,>18,>ff
     EEC6 18FF     
9675               	; 	DATA BYTE 255, 255, 255, 255	' 26
9676 EEC8 FFFF     	byte >ff,>ff,>ff,>ff
     EECA FFFF     
9677               	; 	DATA BYTE 255, 255, 255, 255	' 27
9678 EECC FFFF     	byte >ff,>ff,>ff,>ff
     EECE FFFF     
9679               	; 	DATA BYTE 255, 255, 255, 255	' 28
9680 EED0 FFFF     	byte >ff,>ff,>ff,>ff
     EED2 FFFF     
9681               	; 	DATA BYTE 255, 255, 255, 255	' 29
9682 EED4 FFFF     	byte >ff,>ff,>ff,>ff
     EED6 FFFF     
9683               	; 	DATA BYTE 255, 255, 255, 255	' 30
9684 EED8 FFFF     	byte >ff,>ff,>ff,>ff
     EEDA FFFF     
9685               	; 	DATA BYTE 255, 255, 255, 255	' 31
9686 EEDC FFFF     	byte >ff,>ff,>ff,>ff
     EEDE FFFF     
9687               	; 	DATA BYTE 255, 255, 255, 255	' 32
9688 EEE0 FFFF     	byte >ff,>ff,>ff,>ff
     EEE2 FFFF     
9689               	; 	DATA BYTE 255, 255, 255, 255	' 33
9690 EEE4 FFFF     	byte >ff,>ff,>ff,>ff
     EEE6 FFFF     
9691               	; 	DATA BYTE 255, 255, 255, 255	' 34
9692 EEE8 FFFF     	byte >ff,>ff,>ff,>ff
     EEEA FFFF     
9693               	; 	DATA BYTE 255, 255, 255, 255	' 35
9694 EEEC FFFF     	byte >ff,>ff,>ff,>ff
     EEEE FFFF     
9695               	; 	DATA BYTE 255, 255, 255, 255	' 36
9696 EEF0 FFFF     	byte >ff,>ff,>ff,>ff
     EEF2 FFFF     
9697               	; 	DATA BYTE 255, 255, 255, 255	' 37
9698 EEF4 FFFF     	byte >ff,>ff,>ff,>ff
     EEF6 FFFF     
9699               	; 	DATA BYTE 255, 255, 255, 255	' 38
9700 EEF8 FFFF     	byte >ff,>ff,>ff,>ff
     EEFA FFFF     
9701               	;
9702               	; lnka:	' games 3/4 - full kingdom (rooms 13-38)
9703               cvb_LNKA
9704               	; 	DATA BYTE 255, 255, 16, 255	' 13 gold grounds
9705 EEFC FFFF     	byte >ff,>ff,>10,>ff
     EEFE 10FF     
9706               	; 	DATA BYTE 255, 255, 13, 255	' 14 gold hall (WIN)
9707 EF00 FFFF     	byte >ff,>ff,>0d,>ff
     EF02 0DFF     
9708               	; 	DATA BYTE 255, 16, 255, 19	' 15 corridor W -> blue maze
9709 EF04 FF10     	byte >ff,>10,>ff,>13
     EF06 FF13     
9710               	; 	DATA BYTE 13, 17, 255, 15	' 16 corridor mid (N to castle)
9711 EF08 0D11     	byte >0d,>11,>ff,>0f
     EF0A FF0F     
9712               	; 	DATA BYTE 255, 18, 29, 16	' 17 corridor E (egg wall E, catacombs S)
9713 EF0C FF12     	byte >ff,>12,>1d,>10
     EF0E 1D10     
9714               	; 	DATA BYTE 255, 255, 255, 17	' 18 SECRET room
9715 EF10 FFFF     	byte >ff,>ff,>ff,>11
     EF12 FF11     
9716               	; 	DATA BYTE 20, 15, 255, 21	' 19 blue maze
9717 EF14 140F     	byte >14,>0f,>ff,>15
     EF16 FF15     
9718               	; 	DATA BYTE 23, 21, 19, 21	' 20 blue maze (hyperspace W)
9719 EF18 1715     	byte >17,>15,>13,>15
     EF1A 1315     
9720               	; 	DATA BYTE 22, 20, 19, 20	' 21 blue maze
9721 EF1C 1614     	byte >16,>14,>13,>14
     EF1E 1314     
9722               	; 	DATA BYTE 23, 23, 21, 255	' 22 blue maze (hyperspace E)
9723 EF20 1717     	byte >17,>17,>15,>ff
     EF22 15FF     
9724               	; 	DATA BYTE 24, 20, 20, 22	' 23 blue maze top -> black castle
9725 EF24 1814     	byte >18,>14,>14,>16
     EF26 1416     
9726               	; 	'   (23 E goes to 20, whose west edge is open; 22's west
9727               	; 	'   edge is walled, so an E-link into it would trap you)
9728               	; 	DATA BYTE 255, 255, 23, 255	' 24 black grounds
9729 EF28 FFFF     	byte >ff,>ff,>17,>ff
     EF2A 17FF     
9730               	; 	DATA BYTE 255, 26, 24, 255	' 25 black hall -> dark maze
9731 EF2C FF1A     	byte >ff,>1a,>18,>ff
     EF2E 18FF     
9732               	; 	DATA BYTE 27, 27, 255, 25	' 26 black maze (dark)
9733 EF30 1B1B     	byte >1b,>1b,>ff,>19
     EF32 FF19     
9734               	; 	DATA BYTE 28, 26, 26, 26	' 27 black maze (dark)
9735 EF34 1C1A     	byte >1c,>1a,>1a,>1a
     EF36 1A1A     
9736               	; 	DATA BYTE 255, 255, 27, 27	' 28 black maze + dot chamber (dark)
9737 EF38 FFFF     	byte >ff,>ff,>1b,>1b
     EF3A 1B1B     
9738               	; 	DATA BYTE 17, 30, 30, 31	' 29 catacombs (dark)
9739 EF3C 111E     	byte >11,>1e,>1e,>1f
     EF3E 1E1F     
9740               	; 	DATA BYTE 29, 31, 31, 29	' 30 catacombs (dark)
9741 EF40 1D1F     	byte >1d,>1f,>1f,>1d
     EF42 1F1D     
9742               	; 	DATA BYTE 30, 36, 255, 32	' 31 catacombs (dark)
9743 EF44 1E24     	byte >1e,>24,>ff,>20
     EF46 FF20     
9744               	; 	DATA BYTE 255, 31, 255, 255	' 32 white grounds
9745 EF48 FF1F     	byte >ff,>1f,>ff,>ff
     EF4A FFFF     
9746               	; 	DATA BYTE 255, 34, 32, 255	' 33 white hall -> red maze
9747 EF4C FF22     	byte >ff,>22,>20,>ff
     EF4E 20FF     
9748               	; 	DATA BYTE 35, 35, 255, 33	' 34 red maze
9749 EF50 2323     	byte >23,>23,>ff,>21
     EF52 FF21     
9750               	; 	DATA BYTE 255, 255, 34, 34	' 35 red maze end (black key)
9751 EF54 FFFF     	byte >ff,>ff,>22,>22
     EF56 2222     
9752               	; 	DATA BYTE 255, 255, 37, 31	' 36 purple side room
9753 EF58 FFFF     	byte >ff,>ff,>25,>1f
     EF5A 251F     
9754               	; 	DATA BYTE 36, 255, 38, 255	' 37 cyan side room
9755 EF5C 24FF     	byte >24,>ff,>26,>ff
     EF5E 26FF     
9756               	; 	DATA BYTE 37, 255, 255, 255	' 38 rose side room
9757 EF60 25FF     	byte >25,>ff,>ff,>ff
     EF62 FFFF     
9758               	;
9759               	; 	' ------------------------------------------------------------
9760               	; 	' colours: (wall, background, dark) per room
9761               	; 	' ------------------------------------------------------------
9762               	; colc:	' game 1 custom map: coloured walls on GRAY (so the black
9763               cvb_COLC
9764               	; 	' bat reads everywhere); its black castle is black too
9765               	; 	DATA BYTE 11, 14, 0
9766 EF64 0B0E     	byte >0b,>0e,>00
     EF66 00       
9767               	; 	DATA BYTE 2, 14, 0
9768 EF67   02     	byte >02,>0e,>00
     EF68 0E00     
9769               	; 	DATA BYTE 10, 14, 0
9770 EF6A 0A0E     	byte >0a,>0e,>00
     EF6C 00       
9771               	; 	DATA BYTE 8, 14, 0
9772 EF6D   08     	byte >08,>0e,>00
     EF6E 0E00     
9773               	; 	DATA BYTE 3, 14, 0
9774 EF70 030E     	byte >03,>0e,>00
     EF72 00       
9775               	; 	DATA BYTE 5, 14, 0
9776 EF73   05     	byte >05,>0e,>00
     EF74 0E00     
9777               	; 	DATA BYTE 13, 14, 0
9778 EF76 0D0E     	byte >0d,>0e,>00
     EF78 00       
9779               	; 	DATA BYTE 4, 14, 0
9780 EF79   04     	byte >04,>0e,>00
     EF7A 0E00     
9781               	; 	DATA BYTE 1, 14, 0
9782 EF7C 010E     	byte >01,>0e,>00
     EF7E 00       
9783               	; 	DATA BYTE 1, 14, 0
9784 EF7F   01     	byte >01,>0e,>00
     EF80 0E00     
9785               	; 	DATA BYTE 6, 14, 0
9786 EF82 060E     	byte >06,>0e,>00
     EF84 00       
9787               	; 	DATA BYTE 15, 14, 0
9788 EF85   0F     	byte >0f,>0e,>00
     EF86 0E00     
9789               	; 	DATA BYTE 15, 14, 0
9790 EF88 0F0E     	byte >0f,>0e,>00
     EF8A 00       
9791               	;
9792               	; cola:	' rooms 13-38: coloured walls on GRAY, except the dark
9793               cvb_COLA
9794               	; 	' mazes (gray walls on black) - the black castle is BLACK
9795               	; 	DATA BYTE 11, 14, 0	' 13 gold grounds
9796 EF8B   0B     	byte >0b,>0e,>00
     EF8C 0E00     
9797               	; 	DATA BYTE 10, 14, 0	' 14 gold hall
9798 EF8E 0A0E     	byte >0a,>0e,>00
     EF90 00       
9799               	; 	DATA BYTE 12, 14, 0	' 15 corridor W (olive)
9800 EF91   0C     	byte >0c,>0e,>00
     EF92 0E00     
9801               	; 	DATA BYTE 2, 14, 0	' 16 corridor mid (green)
9802 EF94 020E     	byte >02,>0e,>00
     EF96 00       
9803               	; 	DATA BYTE 11, 14, 0	' 17 corridor E (yellow)
9804 EF97   0B     	byte >0b,>0e,>00
     EF98 0E00     
9805               	; 	DATA BYTE 13, 14, 0	' 18 secret room (purple)
9806 EF9A 0D0E     	byte >0d,>0e,>00
     EF9C 00       
9807               	; 	DATA BYTE 4, 14, 0	' 19 blue maze
9808 EF9D   04     	byte >04,>0e,>00
     EF9E 0E00     
9809               	; 	DATA BYTE 4, 14, 0	' 20
9810 EFA0 040E     	byte >04,>0e,>00
     EFA2 00       
9811               	; 	DATA BYTE 4, 14, 0	' 21
9812 EFA3   04     	byte >04,>0e,>00
     EFA4 0E00     
9813               	; 	DATA BYTE 4, 14, 0	' 22
9814 EFA6 040E     	byte >04,>0e,>00
     EFA8 00       
9815               	; 	DATA BYTE 4, 14, 0	' 23
9816 EFA9   04     	byte >04,>0e,>00
     EFAA 0E00     
9817               	; 	DATA BYTE 1, 14, 0	' 24 BLACK castle on gray
9818 EFAC 010E     	byte >01,>0e,>00
     EFAE 00       
9819               	; 	DATA BYTE 1, 14, 0	' 25 black hall
9820 EFAF   01     	byte >01,>0e,>00
     EFB0 0E00     
9821               	; 	DATA BYTE 14, 1, 1	' 26 black maze: dark
9822 EFB2 0E01     	byte >0e,>01,>01
     EFB4 01       
9823               	; 	DATA BYTE 14, 1, 1	' 27
9824 EFB5   0E     	byte >0e,>01,>01
     EFB6 0101     
9825               	; 	DATA BYTE 14, 1, 1	' 28
9826 EFB8 0E01     	byte >0e,>01,>01
     EFBA 01       
9827               	; 	DATA BYTE 14, 1, 1	' 29 catacombs: dark
9828 EFBB   0E     	byte >0e,>01,>01
     EFBC 0101     
9829               	; 	DATA BYTE 14, 1, 1	' 30
9830 EFBE 0E01     	byte >0e,>01,>01
     EFC0 01       
9831               	; 	DATA BYTE 14, 1, 1	' 31
9832 EFC1   0E     	byte >0e,>01,>01
     EFC2 0101     
9833               	; 	DATA BYTE 15, 14, 0	' 32 white castle
9834 EFC4 0F0E     	byte >0f,>0e,>00
     EFC6 00       
9835               	; 	DATA BYTE 15, 14, 0	' 33 white hall
9836 EFC7   0F     	byte >0f,>0e,>00
     EFC8 0E00     
9837               	; 	DATA BYTE 8, 14, 0	' 34 red maze
9838 EFCA 080E     	byte >08,>0e,>00
     EFCC 00       
9839               	; 	DATA BYTE 8, 14, 0	' 35
9840 EFCD   08     	byte >08,>0e,>00
     EFCE 0E00     
9841               	; 	DATA BYTE 13, 14, 0	' 36 purple room
9842 EFD0 0D0E     	byte >0d,>0e,>00
     EFD2 00       
9843               	; 	DATA BYTE 7, 14, 0	' 37 cyan room
9844 EFD3   07     	byte >07,>0e,>00
     EFD4 0E00     
9845               	; 	DATA BYTE 9, 14, 0	' 38 rose room
9846 EFD6 090E     	byte >09,>0e,>00
     EFD8 00       
9847               	;
9848               	; 	' ------------------------------------------------------------
9849               	; 	' per-game world: 8 objects (room,x,y) in order gold key,
9850               	; 	' black key, white key, sword, bridge, chalice, magnet, dot;
9851               	; 	' then 3 dragons (room,x,y,colour,fast); bat (room,x,y);
9852               	; 	' start room; win room. room 255 = not in this game.
9853               	; 	' ------------------------------------------------------------
9854               	; objd1:	' GAME 1 custom intro map
9855               cvb_OBJD1
9856               	; 	DATA BYTE 4, 180, 120
9857 EFD9   04     	byte >04,>b4,>78
     EFDA B478     
9858               	; 	DATA BYTE 6, 180, 20
9859 EFDC 06B4     	byte >06,>b4,>14
     EFDE 14       
9860               	; 	DATA BYTE 7, 120, 88
9861 EFDF   07     	byte >07,>78,>58
     EFE0 7858     
9862               	; 	DATA BYTE 3, 120, 24
9863 EFE2 0378     	byte >03,>78,>18
     EFE4 18       
9864               	; 	DATA BYTE 12, 96, 80
9865 EFE5   0C     	byte >0c,>60,>50
     EFE6 6050     
9866               	; 	DATA BYTE 10, 120, 88
9867 EFE8 0A78     	byte >0a,>78,>58
     EFEA 58       
9868               	; 	DATA BYTE 255, 0, 0
9869 EFEB   FF     	byte >ff,>00,>00
     EFEC 0000     
9870               	; 	DATA BYTE 255, 0, 0
9871 EFEE FF00     	byte >ff,>00,>00
     EFF0 00       
9872               	; 	DATA BYTE 8, 36, 80, 11, 0
9873 EFF1   08     	byte >08,>24,>50,>0b,>00
     EFF2 2450     
     EFF4 0B00     
9874               	; 	DATA BYTE 6, 140, 72, 2, 0
9875 EFF6 068C     	byte >06,>8c,>48,>02,>00
     EFF8 4802     
     EFFA 00       
9876               	; 	DATA BYTE 7, 104, 40, 8, 1
9877 EFFB   07     	byte >07,>68,>28,>08,>01
     EFFC 6828     
     EFFE 0801     
9878               	; 	DATA BYTE 5, 120, 60
9879 F000 0578     	byte >05,>78,>3c
     F002 3C       
9880               	; 	DATA BYTE 0, 2
9881 F003   00     	byte >00,>02
     F004 02       
9882               	;
9883               	; objd2:	' GAME 2 small kingdom: two castles, two dragons, no bat
9884               cvb_OBJD2
9885               	; 	DATA BYTE 15, 60, 88
9886 F005   0F     	byte >0f,>3c,>58
     F006 3C58     
9887               	; 	DATA BYTE 21, 180, 108
9888 F008 15B4     	byte >15,>b4,>6c
     F00A 6C       
9889               	; 	DATA BYTE 255, 0, 0
9890 F00B   FF     	byte >ff,>00,>00
     F00C 0000     
9891               	; 	DATA BYTE 14, 120, 120
9892 F00E 0E78     	byte >0e,>78,>78
     F010 78       
9893               	; 	DATA BYTE 255, 0, 0
9894 F011   FF     	byte >ff,>00,>00
     F012 0000     
9895               	; 	DATA BYTE 25, 180, 120
9896 F014 19B4     	byte >19,>b4,>78
     F016 78       
9897               	; 	DATA BYTE 25, 60, 120
9898 F017   19     	byte >19,>3c,>78
     F018 3C78     
9899               	; 	DATA BYTE 255, 0, 0
9900 F01A FF00     	byte >ff,>00,>00
     F01C 00       
9901               	; 	DATA BYTE 23, 104, 72, 11, 0
9902 F01D   17     	byte >17,>68,>48,>0b,>00
     F01E 6848     
     F020 0B00     
9903               	; 	DATA BYTE 24, 48, 88, 2, 0
9904 F022 1830     	byte >18,>30,>58,>02,>00
     F024 5802     
     F026 00       
9905               	; 	DATA BYTE 255, 0, 0, 8, 1
9906 F027   FF     	byte >ff,>00,>00,>08,>01
     F028 0000     
     F02A 0801     
9907               	; 	DATA BYTE 255, 0, 0
9908 F02C FF00     	byte >ff,>00,>00
     F02E 00       
9909               	; 	DATA BYTE 13, 14
9910 F02F   0D     	byte >0d,>0e
     F030 0E       
9911               	;
9912               	; objd3:	' GAMES 3/4 full kingdom
9913               cvb_OBJD3
9914               	; 	DATA BYTE 30, 116, 88
9915 F031   1E     	byte >1e,>74,>58
     F032 7458     
9916               	; 	DATA BYTE 35, 184, 32
9917 F034 23B8     	byte >23,>b8,>20
     F036 20       
9918               	; 	DATA BYTE 21, 36, 40
9919 F037   15     	byte >15,>24,>28
     F038 2428     
9920               	; 	DATA BYTE 16, 60, 88
9921 F03A 103C     	byte >10,>3c,>58
     F03C 58       
9922               	; 	DATA BYTE 31, 180, 88
9923 F03D   1F     	byte >1f,>b4,>58
     F03E B458     
9924               	; 	DATA BYTE 28, 60, 88
9925 F040 1C3C     	byte >1c,>3c,>58
     F042 58       
9926               	; 	DATA BYTE 27, 116, 152
9927 F043   1B     	byte >1b,>74,>98
     F044 7498     
9928               	; 	DATA BYTE 28, 184, 24
9929 F046 1CB8     	byte >1c,>b8,>18
     F048 18       
9930               	; 	DATA BYTE 17, 48, 88, 11, 0
9931 F049   11     	byte >11,>30,>58,>0b,>00
     F04A 3058     
     F04C 0B00     
9932               	; 	DATA BYTE 29, 104, 64, 2, 0
9933 F04E 1D68     	byte >1d,>68,>40,>02,>00
     F050 4002     
     F052 00       
9934               	; 	DATA BYTE 20, 104, 60, 8, 1
9935 F053   14     	byte >14,>68,>3c,>08,>01
     F054 683C     
     F056 0801     
9936               	; 	DATA BYTE 19, 120, 60
9937 F058 1378     	byte >13,>78,>3c
     F05A 3C       
9938               	; 	DATA BYTE 13, 14
9939 F05B   0D     	byte >0d,>0e
     F05C 0E       
9940               	;
9941               	; 	' ------------------------------------------------------------
9942               	; 	' rooms: 24 rows x 32 cells, 4 bytes/row (MSB = leftmost).
9943               	; 	' Rooms 0-12 (custom intro map) are the old block layouts
9944               	; 	' mechanically doubled to the fine grid - game 1 is pixel-
9945               	; 	' identical. Rooms 13-38 are fine-grid originals (BITMAP art,
9946               	; 	' two 16-cell halves per row).
9947               	; 	' ------------------------------------------------------------
9948               	; rd0:	' --- 0 gold castle grounds ---
9949               cvb_RD0
9950               	; 	DATA BYTE $FF, $FF, $FF, $FF
9951 F05D   FF     	byte >ff,>ff,>ff,>ff
     F05E FFFF     
     F060 FF       
9952               	; 	DATA BYTE $FF, $FF, $FF, $FF
9953 F061   FF     	byte >ff,>ff,>ff,>ff
     F062 FFFF     
     F064 FF       
9954               	; 	DATA BYTE $CF, $00, $00, $F3
9955 F065   CF     	byte >cf,>00,>00,>f3
     F066 0000     
     F068 F3       
9956               	; 	DATA BYTE $CF, $00, $00, $F3
9957 F069   CF     	byte >cf,>00,>00,>f3
     F06A 0000     
     F06C F3       
9958               	; 	DATA BYTE $FF, $FC, $3F, $FF
9959 F06D   FF     	byte >ff,>fc,>3f,>ff
     F06E FC3F     
     F070 FF       
9960               	; 	DATA BYTE $FF, $FC, $3F, $FF
9961 F071   FF     	byte >ff,>fc,>3f,>ff
     F072 FC3F     
     F074 FF       
9962               	; 	DATA BYTE $FF, $FC, $3F, $FF
9963 F075   FF     	byte >ff,>fc,>3f,>ff
     F076 FC3F     
     F078 FF       
9964               	; 	DATA BYTE $FF, $FC, $3F, $FF
9965 F079   FF     	byte >ff,>fc,>3f,>ff
     F07A FC3F     
     F07C FF       
9966               	; 	DATA BYTE $C0, $00, $00, $03
9967 F07D   C0     	byte >c0,>00,>00,>03
     F07E 0000     
     F080 03       
9968               	; 	DATA BYTE $C0, $00, $00, $03
9969 F081   C0     	byte >c0,>00,>00,>03
     F082 0000     
     F084 03       
9970               	; 	DATA BYTE $C0, $00, $00, $03
9971 F085   C0     	byte >c0,>00,>00,>03
     F086 0000     
     F088 03       
9972               	; 	DATA BYTE $C0, $00, $00, $03
9973 F089   C0     	byte >c0,>00,>00,>03
     F08A 0000     
     F08C 03       
9974               	; 	DATA BYTE $C0, $00, $00, $03
9975 F08D   C0     	byte >c0,>00,>00,>03
     F08E 0000     
     F090 03       
9976               	; 	DATA BYTE $C0, $00, $00, $03
9977 F091   C0     	byte >c0,>00,>00,>03
     F092 0000     
     F094 03       
9978               	; 	DATA BYTE $C0, $00, $00, $03
9979 F095   C0     	byte >c0,>00,>00,>03
     F096 0000     
     F098 03       
9980               	; 	DATA BYTE $C0, $00, $00, $03
9981 F099   C0     	byte >c0,>00,>00,>03
     F09A 0000     
     F09C 03       
9982               	; 	DATA BYTE $C0, $00, $00, $03
9983 F09D   C0     	byte >c0,>00,>00,>03
     F09E 0000     
     F0A0 03       
9984               	; 	DATA BYTE $C0, $00, $00, $03
9985 F0A1   C0     	byte >c0,>00,>00,>03
     F0A2 0000     
     F0A4 03       
9986               	; 	DATA BYTE $C0, $00, $00, $03
9987 F0A5   C0     	byte >c0,>00,>00,>03
     F0A6 0000     
     F0A8 03       
9988               	; 	DATA BYTE $C0, $00, $00, $03
9989 F0A9   C0     	byte >c0,>00,>00,>03
     F0AA 0000     
     F0AC 03       
9990               	; 	DATA BYTE $C0, $00, $00, $03
9991 F0AD   C0     	byte >c0,>00,>00,>03
     F0AE 0000     
     F0B0 03       
9992               	; 	DATA BYTE $C0, $00, $00, $03
9993 F0B1   C0     	byte >c0,>00,>00,>03
     F0B2 0000     
     F0B4 03       
9994               	; 	DATA BYTE $FF, $FC, $3F, $FF
9995 F0B5   FF     	byte >ff,>fc,>3f,>ff
     F0B6 FC3F     
     F0B8 FF       
9996               	; 	DATA BYTE $FF, $FC, $3F, $FF
9997 F0B9   FF     	byte >ff,>fc,>3f,>ff
     F0BA FC3F     
     F0BC FF       
9998               	; rd1:	' --- 1 north meadow ---
9999               cvb_RD1
10000               	; 	DATA BYTE $FF, $FC, $3F, $FF
10001 F0BD   FF     	byte >ff,>fc,>3f,>ff
     F0BE FC3F     
     F0C0 FF       
10002               	; 	DATA BYTE $FF, $FC, $3F, $FF
10003 F0C1   FF     	byte >ff,>fc,>3f,>ff
     F0C2 FC3F     
     F0C4 FF       
10004               	; 	DATA BYTE $C0, $00, $00, $03
10005 F0C5   C0     	byte >c0,>00,>00,>03
     F0C6 0000     
     F0C8 03       
10006               	; 	DATA BYTE $C0, $00, $00, $03
10007 F0C9   C0     	byte >c0,>00,>00,>03
     F0CA 0000     
     F0CC 03       
10008               	; 	DATA BYTE $C0, $00, $00, $03
10009 F0CD   C0     	byte >c0,>00,>00,>03
     F0CE 0000     
     F0D0 03       
10010               	; 	DATA BYTE $C0, $00, $00, $03
10011 F0D1   C0     	byte >c0,>00,>00,>03
     F0D2 0000     
     F0D4 03       
10012               	; 	DATA BYTE $C0, $00, $00, $03
10013 F0D5   C0     	byte >c0,>00,>00,>03
     F0D6 0000     
     F0D8 03       
10014               	; 	DATA BYTE $C0, $00, $00, $03
10015 F0D9   C0     	byte >c0,>00,>00,>03
     F0DA 0000     
     F0DC 03       
10016               	; 	DATA BYTE $C0, $00, $00, $03
10017 F0DD   C0     	byte >c0,>00,>00,>03
     F0DE 0000     
     F0E0 03       
10018               	; 	DATA BYTE $C0, $00, $00, $03
10019 F0E1   C0     	byte >c0,>00,>00,>03
     F0E2 0000     
     F0E4 03       
10020               	; 	DATA BYTE $00, $00, $00, $00
10021 F0E5   00     	byte >00,>00,>00,>00
     F0E6 0000     
     F0E8 00       
10022               	; 	DATA BYTE $00, $00, $00, $00
10023 F0E9   00     	byte >00,>00,>00,>00
     F0EA 0000     
     F0EC 00       
10024               	; 	DATA BYTE $00, $00, $00, $00
10025 F0ED   00     	byte >00,>00,>00,>00
     F0EE 0000     
     F0F0 00       
10026               	; 	DATA BYTE $00, $00, $00, $00
10027 F0F1   00     	byte >00,>00,>00,>00
     F0F2 0000     
     F0F4 00       
10028               	; 	DATA BYTE $C0, $00, $00, $03
10029 F0F5   C0     	byte >c0,>00,>00,>03
     F0F6 0000     
     F0F8 03       
10030               	; 	DATA BYTE $C0, $00, $00, $03
10031 F0F9   C0     	byte >c0,>00,>00,>03
     F0FA 0000     
     F0FC 03       
10032               	; 	DATA BYTE $C0, $00, $00, $03
10033 F0FD   C0     	byte >c0,>00,>00,>03
     F0FE 0000     
     F100 03       
10034               	; 	DATA BYTE $C0, $00, $00, $03
10035 F101   C0     	byte >c0,>00,>00,>03
     F102 0000     
     F104 03       
10036               	; 	DATA BYTE $C0, $00, $00, $03
10037 F105   C0     	byte >c0,>00,>00,>03
     F106 0000     
     F108 03       
10038               	; 	DATA BYTE $C0, $00, $00, $03
10039 F109   C0     	byte >c0,>00,>00,>03
     F10A 0000     
     F10C 03       
10040               	; 	DATA BYTE $C0, $00, $00, $03
10041 F10D   C0     	byte >c0,>00,>00,>03
     F10E 0000     
     F110 03       
10042               	; 	DATA BYTE $C0, $00, $00, $03
10043 F111   C0     	byte >c0,>00,>00,>03
     F112 0000     
     F114 03       
10044               	; 	DATA BYTE $FF, $FC, $3F, $FF
10045 F115   FF     	byte >ff,>fc,>3f,>ff
     F116 FC3F     
     F118 FF       
10046               	; 	DATA BYTE $FF, $FC, $3F, $FF
10047 F119   FF     	byte >ff,>fc,>3f,>ff
     F11A FC3F     
     F11C FF       
10048               	; rd2:	' --- 2 gold castle hall (custom WIN) ---
10049               cvb_RD2
10050               	; 	DATA BYTE $FF, $FF, $FF, $FF
10051 F11D   FF     	byte >ff,>ff,>ff,>ff
     F11E FFFF     
     F120 FF       
10052               	; 	DATA BYTE $FF, $FF, $FF, $FF
10053 F121   FF     	byte >ff,>ff,>ff,>ff
     F122 FFFF     
     F124 FF       
10054               	; 	DATA BYTE $C0, $00, $00, $03
10055 F125   C0     	byte >c0,>00,>00,>03
     F126 0000     
     F128 03       
10056               	; 	DATA BYTE $C0, $00, $00, $03
10057 F129   C0     	byte >c0,>00,>00,>03
     F12A 0000     
     F12C 03       
10058               	; 	DATA BYTE $C0, $00, $00, $03
10059 F12D   C0     	byte >c0,>00,>00,>03
     F12E 0000     
     F130 03       
10060               	; 	DATA BYTE $C0, $00, $00, $03
10061 F131   C0     	byte >c0,>00,>00,>03
     F132 0000     
     F134 03       
10062               	; 	DATA BYTE $C0, $00, $00, $03
10063 F135   C0     	byte >c0,>00,>00,>03
     F136 0000     
     F138 03       
10064               	; 	DATA BYTE $C0, $00, $00, $03
10065 F139   C0     	byte >c0,>00,>00,>03
     F13A 0000     
     F13C 03       
10066               	; 	DATA BYTE $C3, $C0, $03, $C3
10067 F13D   C3     	byte >c3,>c0,>03,>c3
     F13E C003     
     F140 C3       
10068               	; 	DATA BYTE $C3, $C0, $03, $C3
10069 F141   C3     	byte >c3,>c0,>03,>c3
     F142 C003     
     F144 C3       
10070               	; 	DATA BYTE $C3, $C0, $03, $C3
10071 F145   C3     	byte >c3,>c0,>03,>c3
     F146 C003     
     F148 C3       
10072               	; 	DATA BYTE $C3, $C0, $03, $C3
10073 F149   C3     	byte >c3,>c0,>03,>c3
     F14A C003     
     F14C C3       
10074               	; 	DATA BYTE $C0, $00, $00, $03
10075 F14D   C0     	byte >c0,>00,>00,>03
     F14E 0000     
     F150 03       
10076               	; 	DATA BYTE $C0, $00, $00, $03
10077 F151   C0     	byte >c0,>00,>00,>03
     F152 0000     
     F154 03       
10078               	; 	DATA BYTE $C0, $00, $00, $03
10079 F155   C0     	byte >c0,>00,>00,>03
     F156 0000     
     F158 03       
10080               	; 	DATA BYTE $C0, $00, $00, $03
10081 F159   C0     	byte >c0,>00,>00,>03
     F15A 0000     
     F15C 03       
10082               	; 	DATA BYTE $C0, $00, $00, $03
10083 F15D   C0     	byte >c0,>00,>00,>03
     F15E 0000     
     F160 03       
10084               	; 	DATA BYTE $C0, $00, $00, $03
10085 F161   C0     	byte >c0,>00,>00,>03
     F162 0000     
     F164 03       
10086               	; 	DATA BYTE $C0, $00, $00, $03
10087 F165   C0     	byte >c0,>00,>00,>03
     F166 0000     
     F168 03       
10088               	; 	DATA BYTE $C0, $00, $00, $03
10089 F169   C0     	byte >c0,>00,>00,>03
     F16A 0000     
     F16C 03       
10090               	; 	DATA BYTE $C0, $00, $00, $03
10091 F16D   C0     	byte >c0,>00,>00,>03
     F16E 0000     
     F170 03       
10092               	; 	DATA BYTE $C0, $00, $00, $03
10093 F171   C0     	byte >c0,>00,>00,>03
     F172 0000     
     F174 03       
10094               	; 	DATA BYTE $FF, $FC, $3F, $FF
10095 F175   FF     	byte >ff,>fc,>3f,>ff
     F176 FC3F     
     F178 FF       
10096               	; 	DATA BYTE $FF, $FC, $3F, $FF
10097 F179   FF     	byte >ff,>fc,>3f,>ff
     F17A FC3F     
     F17C FF       
10098               	; rd3:	' --- 3 red corridor ---
10099               cvb_RD3
10100               	; 	DATA BYTE $FF, $FF, $FF, $FF
10101 F17D   FF     	byte >ff,>ff,>ff,>ff
     F17E FFFF     
     F180 FF       
10102               	; 	DATA BYTE $FF, $FF, $FF, $FF
10103 F181   FF     	byte >ff,>ff,>ff,>ff
     F182 FFFF     
     F184 FF       
10104               	; 	DATA BYTE $C0, $00, $00, $03
10105 F185   C0     	byte >c0,>00,>00,>03
     F186 0000     
     F188 03       
10106               	; 	DATA BYTE $C0, $00, $00, $03
10107 F189   C0     	byte >c0,>00,>00,>03
     F18A 0000     
     F18C 03       
10108               	; 	DATA BYTE $C0, $00, $00, $03
10109 F18D   C0     	byte >c0,>00,>00,>03
     F18E 0000     
     F190 03       
10110               	; 	DATA BYTE $C0, $00, $00, $03
10111 F191   C0     	byte >c0,>00,>00,>03
     F192 0000     
     F194 03       
10112               	; 	DATA BYTE $C0, $FF, $FF, $03
10113 F195   C0     	byte >c0,>ff,>ff,>03
     F196 FFFF     
     F198 03       
10114               	; 	DATA BYTE $C0, $FF, $FF, $03
10115 F199   C0     	byte >c0,>ff,>ff,>03
     F19A FFFF     
     F19C 03       
10116               	; 	DATA BYTE $C0, $00, $00, $03
10117 F19D   C0     	byte >c0,>00,>00,>03
     F19E 0000     
     F1A0 03       
10118               	; 	DATA BYTE $C0, $00, $00, $03
10119 F1A1   C0     	byte >c0,>00,>00,>03
     F1A2 0000     
     F1A4 03       
10120               	; 	DATA BYTE $00, $00, $00, $00
10121 F1A5   00     	byte >00,>00,>00,>00
     F1A6 0000     
     F1A8 00       
10122               	; 	DATA BYTE $00, $00, $00, $00
10123 F1A9   00     	byte >00,>00,>00,>00
     F1AA 0000     
     F1AC 00       
10124               	; 	DATA BYTE $00, $00, $00, $00
10125 F1AD   00     	byte >00,>00,>00,>00
     F1AE 0000     
     F1B0 00       
10126               	; 	DATA BYTE $00, $00, $00, $00
10127 F1B1   00     	byte >00,>00,>00,>00
     F1B2 0000     
     F1B4 00       
10128               	; 	DATA BYTE $C0, $00, $00, $03
10129 F1B5   C0     	byte >c0,>00,>00,>03
     F1B6 0000     
     F1B8 03       
10130               	; 	DATA BYTE $C0, $00, $00, $03
10131 F1B9   C0     	byte >c0,>00,>00,>03
     F1BA 0000     
     F1BC 03       
10132               	; 	DATA BYTE $C0, $FF, $FF, $03
10133 F1BD   C0     	byte >c0,>ff,>ff,>03
     F1BE FFFF     
     F1C0 03       
10134               	; 	DATA BYTE $C0, $FF, $FF, $03
10135 F1C1   C0     	byte >c0,>ff,>ff,>03
     F1C2 FFFF     
     F1C4 03       
10136               	; 	DATA BYTE $C0, $00, $00, $03
10137 F1C5   C0     	byte >c0,>00,>00,>03
     F1C6 0000     
     F1C8 03       
10138               	; 	DATA BYTE $C0, $00, $00, $03
10139 F1C9   C0     	byte >c0,>00,>00,>03
     F1CA 0000     
     F1CC 03       
10140               	; 	DATA BYTE $C0, $00, $00, $03
10141 F1CD   C0     	byte >c0,>00,>00,>03
     F1CE 0000     
     F1D0 03       
10142               	; 	DATA BYTE $C0, $00, $00, $03
10143 F1D1   C0     	byte >c0,>00,>00,>03
     F1D2 0000     
     F1D4 03       
10144               	; 	DATA BYTE $FF, $FF, $FF, $FF
10145 F1D5   FF     	byte >ff,>ff,>ff,>ff
     F1D6 FFFF     
     F1D8 FF       
10146               	; 	DATA BYTE $FF, $FF, $FF, $FF
10147 F1D9   FF     	byte >ff,>ff,>ff,>ff
     F1DA FFFF     
     F1DC FF       
10148               	; rd4:	' --- 4 south meadow ---
10149               cvb_RD4
10150               	; 	DATA BYTE $FF, $FC, $3F, $FF
10151 F1DD   FF     	byte >ff,>fc,>3f,>ff
     F1DE FC3F     
     F1E0 FF       
10152               	; 	DATA BYTE $FF, $FC, $3F, $FF
10153 F1E1   FF     	byte >ff,>fc,>3f,>ff
     F1E2 FC3F     
     F1E4 FF       
10154               	; 	DATA BYTE $C0, $00, $00, $03
10155 F1E5   C0     	byte >c0,>00,>00,>03
     F1E6 0000     
     F1E8 03       
10156               	; 	DATA BYTE $C0, $00, $00, $03
10157 F1E9   C0     	byte >c0,>00,>00,>03
     F1EA 0000     
     F1EC 03       
10158               	; 	DATA BYTE $C0, $00, $00, $03
10159 F1ED   C0     	byte >c0,>00,>00,>03
     F1EE 0000     
     F1F0 03       
10160               	; 	DATA BYTE $C0, $00, $00, $03
10161 F1F1   C0     	byte >c0,>00,>00,>03
     F1F2 0000     
     F1F4 03       
10162               	; 	DATA BYTE $C0, $00, $00, $03
10163 F1F5   C0     	byte >c0,>00,>00,>03
     F1F6 0000     
     F1F8 03       
10164               	; 	DATA BYTE $C0, $00, $00, $03
10165 F1F9   C0     	byte >c0,>00,>00,>03
     F1FA 0000     
     F1FC 03       
10166               	; 	DATA BYTE $C0, $00, $00, $03
10167 F1FD   C0     	byte >c0,>00,>00,>03
     F1FE 0000     
     F200 03       
10168               	; 	DATA BYTE $C0, $00, $00, $03
10169 F201   C0     	byte >c0,>00,>00,>03
     F202 0000     
     F204 03       
10170               	; 	DATA BYTE $C0, $00, $00, $00
10171 F205   C0     	byte >c0,>00,>00,>00
     F206 0000     
     F208 00       
10172               	; 	DATA BYTE $C0, $00, $00, $00
10173 F209   C0     	byte >c0,>00,>00,>00
     F20A 0000     
     F20C 00       
10174               	; 	DATA BYTE $C0, $00, $00, $00
10175 F20D   C0     	byte >c0,>00,>00,>00
     F20E 0000     
     F210 00       
10176               	; 	DATA BYTE $C0, $00, $00, $00
10177 F211   C0     	byte >c0,>00,>00,>00
     F212 0000     
     F214 00       
10178               	; 	DATA BYTE $C0, $00, $00, $03
10179 F215   C0     	byte >c0,>00,>00,>03
     F216 0000     
     F218 03       
10180               	; 	DATA BYTE $C0, $00, $00, $03
10181 F219   C0     	byte >c0,>00,>00,>03
     F21A 0000     
     F21C 03       
10182               	; 	DATA BYTE $C0, $3F, $FC, $03
10183 F21D   C0     	byte >c0,>3f,>fc,>03
     F21E 3FFC     
     F220 03       
10184               	; 	DATA BYTE $C0, $3F, $FC, $03
10185 F221   C0     	byte >c0,>3f,>fc,>03
     F222 3FFC     
     F224 03       
10186               	; 	DATA BYTE $C0, $00, $00, $03
10187 F225   C0     	byte >c0,>00,>00,>03
     F226 0000     
     F228 03       
10188               	; 	DATA BYTE $C0, $00, $00, $03
10189 F229   C0     	byte >c0,>00,>00,>03
     F22A 0000     
     F22C 03       
10190               	; 	DATA BYTE $C0, $00, $00, $03
10191 F22D   C0     	byte >c0,>00,>00,>03
     F22E 0000     
     F230 03       
10192               	; 	DATA BYTE $C0, $00, $00, $03
10193 F231   C0     	byte >c0,>00,>00,>03
     F232 0000     
     F234 03       
10194               	; 	DATA BYTE $FF, $FF, $FF, $FF
10195 F235   FF     	byte >ff,>ff,>ff,>ff
     F236 FFFF     
     F238 FF       
10196               	; 	DATA BYTE $FF, $FF, $FF, $FF
10197 F239   FF     	byte >ff,>ff,>ff,>ff
     F23A FFFF     
     F23C FF       
10198               	; rd5:	' --- 5 blue maze north ---
10199               cvb_RD5
10200               	; 	DATA BYTE $FF, $FF, $FF, $FF
10201 F23D   FF     	byte >ff,>ff,>ff,>ff
     F23E FFFF     
     F240 FF       
10202               	; 	DATA BYTE $FF, $FF, $FF, $FF
10203 F241   FF     	byte >ff,>ff,>ff,>ff
     F242 FFFF     
     F244 FF       
10204               	; 	DATA BYTE $C0, $00, $00, $03
10205 F245   C0     	byte >c0,>00,>00,>03
     F246 0000     
     F248 03       
10206               	; 	DATA BYTE $C0, $00, $00, $03
10207 F249   C0     	byte >c0,>00,>00,>03
     F24A 0000     
     F24C 03       
10208               	; 	DATA BYTE $CF, $FC, $3F, $F3
10209 F24D   CF     	byte >cf,>fc,>3f,>f3
     F24E FC3F     
     F250 F3       
10210               	; 	DATA BYTE $CF, $FC, $3F, $F3
10211 F251   CF     	byte >cf,>fc,>3f,>f3
     F252 FC3F     
     F254 F3       
10212               	; 	DATA BYTE $C0, $0C, $30, $03
10213 F255   C0     	byte >c0,>0c,>30,>03
     F256 0C30     
     F258 03       
10214               	; 	DATA BYTE $C0, $0C, $30, $03
10215 F259   C0     	byte >c0,>0c,>30,>03
     F25A 0C30     
     F25C 03       
10216               	; 	DATA BYTE $CF, $0C, $30, $F3
10217 F25D   CF     	byte >cf,>0c,>30,>f3
     F25E 0C30     
     F260 F3       
10218               	; 	DATA BYTE $CF, $0C, $30, $F3
10219 F261   CF     	byte >cf,>0c,>30,>f3
     F262 0C30     
     F264 F3       
10220               	; 	DATA BYTE $00, $0C, $30, $03
10221 F265   00     	byte >00,>0c,>30,>03
     F266 0C30     
     F268 03       
10222               	; 	DATA BYTE $00, $0C, $30, $03
10223 F269   00     	byte >00,>0c,>30,>03
     F26A 0C30     
     F26C 03       
10224               	; 	DATA BYTE $00, $0C, $30, $03
10225 F26D   00     	byte >00,>0c,>30,>03
     F26E 0C30     
     F270 03       
10226               	; 	DATA BYTE $00, $0C, $30, $03
10227 F271   00     	byte >00,>0c,>30,>03
     F272 0C30     
     F274 03       
10228               	; 	DATA BYTE $CF, $0C, $30, $F3
10229 F275   CF     	byte >cf,>0c,>30,>f3
     F276 0C30     
     F278 F3       
10230               	; 	DATA BYTE $CF, $0C, $30, $F3
10231 F279   CF     	byte >cf,>0c,>30,>f3
     F27A 0C30     
     F27C F3       
10232               	; 	DATA BYTE $C0, $0C, $30, $03
10233 F27D   C0     	byte >c0,>0c,>30,>03
     F27E 0C30     
     F280 03       
10234               	; 	DATA BYTE $C0, $0C, $30, $03
10235 F281   C0     	byte >c0,>0c,>30,>03
     F282 0C30     
     F284 03       
10236               	; 	DATA BYTE $CF, $FC, $3F, $F3
10237 F285   CF     	byte >cf,>fc,>3f,>f3
     F286 FC3F     
     F288 F3       
10238               	; 	DATA BYTE $CF, $FC, $3F, $F3
10239 F289   CF     	byte >cf,>fc,>3f,>f3
     F28A FC3F     
     F28C F3       
10240               	; 	DATA BYTE $C0, $00, $00, $03
10241 F28D   C0     	byte >c0,>00,>00,>03
     F28E 0000     
     F290 03       
10242               	; 	DATA BYTE $C0, $00, $00, $03
10243 F291   C0     	byte >c0,>00,>00,>03
     F292 0000     
     F294 03       
10244               	; 	DATA BYTE $FF, $FC, $3F, $FF
10245 F295   FF     	byte >ff,>fc,>3f,>ff
     F296 FC3F     
     F298 FF       
10246               	; 	DATA BYTE $FF, $FC, $3F, $FF
10247 F299   FF     	byte >ff,>fc,>3f,>ff
     F29A FC3F     
     F29C FF       
10248               	; rd6:	' --- 6 purple cave + sealed chamber ---
10249               cvb_RD6
10250               	; 	DATA BYTE $FF, $FF, $FF, $FF
10251 F29D   FF     	byte >ff,>ff,>ff,>ff
     F29E FFFF     
     F2A0 FF       
10252               	; 	DATA BYTE $FF, $FF, $FF, $FF
10253 F2A1   FF     	byte >ff,>ff,>ff,>ff
     F2A2 FFFF     
     F2A4 FF       
10254               	; 	DATA BYTE $C0, $00, $0C, $33
10255 F2A5   C0     	byte >c0,>00,>0c,>33
     F2A6 000C     
     F2A8 33       
10256               	; 	DATA BYTE $C0, $00, $0C, $33
10257 F2A9   C0     	byte >c0,>00,>0c,>33
     F2AA 000C     
     F2AC 33       
10258               	; 	DATA BYTE $C0, $00, $0C, $33
10259 F2AD   C0     	byte >c0,>00,>0c,>33
     F2AE 000C     
     F2B0 33       
10260               	; 	DATA BYTE $C0, $00, $0C, $33
10261 F2B1   C0     	byte >c0,>00,>0c,>33
     F2B2 000C     
     F2B4 33       
10262               	; 	DATA BYTE $C0, $00, $0F, $F3
10263 F2B5   C0     	byte >c0,>00,>0f,>f3
     F2B6 000F     
     F2B8 F3       
10264               	; 	DATA BYTE $C0, $00, $0F, $F3
10265 F2B9   C0     	byte >c0,>00,>0f,>f3
     F2BA 000F     
     F2BC F3       
10266               	; 	DATA BYTE $C0, $00, $00, $03
10267 F2BD   C0     	byte >c0,>00,>00,>03
     F2BE 0000     
     F2C0 03       
10268               	; 	DATA BYTE $C0, $00, $00, $03
10269 F2C1   C0     	byte >c0,>00,>00,>03
     F2C2 0000     
     F2C4 03       
10270               	; 	DATA BYTE $00, $00, $00, $00
10271 F2C5   00     	byte >00,>00,>00,>00
     F2C6 0000     
     F2C8 00       
10272               	; 	DATA BYTE $00, $00, $00, $00
10273 F2C9   00     	byte >00,>00,>00,>00
     F2CA 0000     
     F2CC 00       
10274               	; 	DATA BYTE $00, $00, $00, $00
10275 F2CD   00     	byte >00,>00,>00,>00
     F2CE 0000     
     F2D0 00       
10276               	; 	DATA BYTE $00, $00, $00, $00
10277 F2D1   00     	byte >00,>00,>00,>00
     F2D2 0000     
     F2D4 00       
10278               	; 	DATA BYTE $C0, $00, $00, $03
10279 F2D5   C0     	byte >c0,>00,>00,>03
     F2D6 0000     
     F2D8 03       
10280               	; 	DATA BYTE $C0, $00, $00, $03
10281 F2D9   C0     	byte >c0,>00,>00,>03
     F2DA 0000     
     F2DC 03       
10282               	; 	DATA BYTE $C0, $3F, $FC, $03
10283 F2DD   C0     	byte >c0,>3f,>fc,>03
     F2DE 3FFC     
     F2E0 03       
10284               	; 	DATA BYTE $C0, $3F, $FC, $03
10285 F2E1   C0     	byte >c0,>3f,>fc,>03
     F2E2 3FFC     
     F2E4 03       
10286               	; 	DATA BYTE $C0, $00, $00, $03
10287 F2E5   C0     	byte >c0,>00,>00,>03
     F2E6 0000     
     F2E8 03       
10288               	; 	DATA BYTE $C0, $00, $00, $03
10289 F2E9   C0     	byte >c0,>00,>00,>03
     F2EA 0000     
     F2EC 03       
10290               	; 	DATA BYTE $C0, $00, $00, $03
10291 F2ED   C0     	byte >c0,>00,>00,>03
     F2EE 0000     
     F2F0 03       
10292               	; 	DATA BYTE $C0, $00, $00, $03
10293 F2F1   C0     	byte >c0,>00,>00,>03
     F2F2 0000     
     F2F4 03       
10294               	; 	DATA BYTE $FF, $FF, $FF, $FF
10295 F2F5   FF     	byte >ff,>ff,>ff,>ff
     F2F6 FFFF     
     F2F8 FF       
10296               	; 	DATA BYTE $FF, $FF, $FF, $FF
10297 F2F9   FF     	byte >ff,>ff,>ff,>ff
     F2FA FFFF     
     F2FC FF       
10298               	; rd7:	' --- 7 blue maze south ---
10299               cvb_RD7
10300               	; 	DATA BYTE $FF, $FC, $3F, $FF
10301 F2FD   FF     	byte >ff,>fc,>3f,>ff
     F2FE FC3F     
     F300 FF       
10302               	; 	DATA BYTE $FF, $FC, $3F, $FF
10303 F301   FF     	byte >ff,>fc,>3f,>ff
     F302 FC3F     
     F304 FF       
10304               	; 	DATA BYTE $C0, $00, $00, $03
10305 F305   C0     	byte >c0,>00,>00,>03
     F306 0000     
     F308 03       
10306               	; 	DATA BYTE $C0, $00, $00, $03
10307 F309   C0     	byte >c0,>00,>00,>03
     F30A 0000     
     F30C 03       
10308               	; 	DATA BYTE $C3, $FC, $3F, $C3
10309 F30D   C3     	byte >c3,>fc,>3f,>c3
     F30E FC3F     
     F310 C3       
10310               	; 	DATA BYTE $C3, $FC, $3F, $C3
10311 F311   C3     	byte >c3,>fc,>3f,>c3
     F312 FC3F     
     F314 C3       
10312               	; 	DATA BYTE $C3, $0C, $30, $C3
10313 F315   C3     	byte >c3,>0c,>30,>c3
     F316 0C30     
     F318 C3       
10314               	; 	DATA BYTE $C3, $0C, $30, $C3
10315 F319   C3     	byte >c3,>0c,>30,>c3
     F31A 0C30     
     F31C C3       
10316               	; 	DATA BYTE $C3, $0C, $30, $C3
10317 F31D   C3     	byte >c3,>0c,>30,>c3
     F31E 0C30     
     F320 C3       
10318               	; 	DATA BYTE $C3, $0C, $30, $C3
10319 F321   C3     	byte >c3,>0c,>30,>c3
     F322 0C30     
     F324 C3       
10320               	; 	DATA BYTE $03, $0C, $30, $C0
10321 F325   03     	byte >03,>0c,>30,>c0
     F326 0C30     
     F328 C0       
10322               	; 	DATA BYTE $03, $0C, $30, $C0
10323 F329   03     	byte >03,>0c,>30,>c0
     F32A 0C30     
     F32C C0       
10324               	; 	DATA BYTE $03, $0C, $30, $C0
10325 F32D   03     	byte >03,>0c,>30,>c0
     F32E 0C30     
     F330 C0       
10326               	; 	DATA BYTE $03, $0C, $30, $C0
10327 F331   03     	byte >03,>0c,>30,>c0
     F332 0C30     
     F334 C0       
10328               	; 	DATA BYTE $C3, $0C, $30, $C3
10329 F335   C3     	byte >c3,>0c,>30,>c3
     F336 0C30     
     F338 C3       
10330               	; 	DATA BYTE $C3, $0C, $30, $C3
10331 F339   C3     	byte >c3,>0c,>30,>c3
     F33A 0C30     
     F33C C3       
10332               	; 	DATA BYTE $C3, $0C, $30, $C3
10333 F33D   C3     	byte >c3,>0c,>30,>c3
     F33E 0C30     
     F340 C3       
10334               	; 	DATA BYTE $C3, $0C, $30, $C3
10335 F341   C3     	byte >c3,>0c,>30,>c3
     F342 0C30     
     F344 C3       
10336               	; 	DATA BYTE $C3, $FC, $3F, $C3
10337 F345   C3     	byte >c3,>fc,>3f,>c3
     F346 FC3F     
     F348 C3       
10338               	; 	DATA BYTE $C3, $FC, $3F, $C3
10339 F349   C3     	byte >c3,>fc,>3f,>c3
     F34A FC3F     
     F34C C3       
10340               	; 	DATA BYTE $C0, $00, $00, $03
10341 F34D   C0     	byte >c0,>00,>00,>03
     F34E 0000     
     F350 03       
10342               	; 	DATA BYTE $C0, $00, $00, $03
10343 F351   C0     	byte >c0,>00,>00,>03
     F352 0000     
     F354 03       
10344               	; 	DATA BYTE $FF, $FF, $FF, $FF
10345 F355   FF     	byte >ff,>ff,>ff,>ff
     F356 FFFF     
     F358 FF       
10346               	; 	DATA BYTE $FF, $FF, $FF, $FF
10347 F359   FF     	byte >ff,>ff,>ff,>ff
     F35A FFFF     
     F35C FF       
10348               	; rd8:	' --- 8 black castle grounds (custom) ---
10349               cvb_RD8
10350               	; 	DATA BYTE $FF, $FF, $FF, $FF
10351 F35D   FF     	byte >ff,>ff,>ff,>ff
     F35E FFFF     
     F360 FF       
10352               	; 	DATA BYTE $FF, $FF, $FF, $FF
10353 F361   FF     	byte >ff,>ff,>ff,>ff
     F362 FFFF     
     F364 FF       
10354               	; 	DATA BYTE $CF, $00, $00, $F3
10355 F365   CF     	byte >cf,>00,>00,>f3
     F366 0000     
     F368 F3       
10356               	; 	DATA BYTE $CF, $00, $00, $F3
10357 F369   CF     	byte >cf,>00,>00,>f3
     F36A 0000     
     F36C F3       
10358               	; 	DATA BYTE $FF, $FC, $3F, $FF
10359 F36D   FF     	byte >ff,>fc,>3f,>ff
     F36E FC3F     
     F370 FF       
10360               	; 	DATA BYTE $FF, $FC, $3F, $FF
10361 F371   FF     	byte >ff,>fc,>3f,>ff
     F372 FC3F     
     F374 FF       
10362               	; 	DATA BYTE $FF, $FC, $3F, $FF
10363 F375   FF     	byte >ff,>fc,>3f,>ff
     F376 FC3F     
     F378 FF       
10364               	; 	DATA BYTE $FF, $FC, $3F, $FF
10365 F379   FF     	byte >ff,>fc,>3f,>ff
     F37A FC3F     
     F37C FF       
10366               	; 	DATA BYTE $C0, $00, $00, $03
10367 F37D   C0     	byte >c0,>00,>00,>03
     F37E 0000     
     F380 03       
10368               	; 	DATA BYTE $C0, $00, $00, $03
10369 F381   C0     	byte >c0,>00,>00,>03
     F382 0000     
     F384 03       
10370               	; 	DATA BYTE $00, $00, $00, $03
10371 F385   00     	byte >00,>00,>00,>03
     F386 0000     
     F388 03       
10372               	; 	DATA BYTE $00, $00, $00, $03
10373 F389   00     	byte >00,>00,>00,>03
     F38A 0000     
     F38C 03       
10374               	; 	DATA BYTE $00, $00, $00, $03
10375 F38D   00     	byte >00,>00,>00,>03
     F38E 0000     
     F390 03       
10376               	; 	DATA BYTE $00, $00, $00, $03
10377 F391   00     	byte >00,>00,>00,>03
     F392 0000     
     F394 03       
10378               	; 	DATA BYTE $C0, $00, $00, $03
10379 F395   C0     	byte >c0,>00,>00,>03
     F396 0000     
     F398 03       
10380               	; 	DATA BYTE $C0, $00, $00, $03
10381 F399   C0     	byte >c0,>00,>00,>03
     F39A 0000     
     F39C 03       
10382               	; 	DATA BYTE $C0, $00, $00, $03
10383 F39D   C0     	byte >c0,>00,>00,>03
     F39E 0000     
     F3A0 03       
10384               	; 	DATA BYTE $C0, $00, $00, $03
10385 F3A1   C0     	byte >c0,>00,>00,>03
     F3A2 0000     
     F3A4 03       
10386               	; 	DATA BYTE $C0, $00, $00, $03
10387 F3A5   C0     	byte >c0,>00,>00,>03
     F3A6 0000     
     F3A8 03       
10388               	; 	DATA BYTE $C0, $00, $00, $03
10389 F3A9   C0     	byte >c0,>00,>00,>03
     F3AA 0000     
     F3AC 03       
10390               	; 	DATA BYTE $C0, $00, $00, $03
10391 F3AD   C0     	byte >c0,>00,>00,>03
     F3AE 0000     
     F3B0 03       
10392               	; 	DATA BYTE $C0, $00, $00, $03
10393 F3B1   C0     	byte >c0,>00,>00,>03
     F3B2 0000     
     F3B4 03       
10394               	; 	DATA BYTE $FF, $FF, $FF, $FF
10395 F3B5   FF     	byte >ff,>ff,>ff,>ff
     F3B6 FFFF     
     F3B8 FF       
10396               	; 	DATA BYTE $FF, $FF, $FF, $FF
10397 F3B9   FF     	byte >ff,>ff,>ff,>ff
     F3BA FFFF     
     F3BC FF       
10398               	; rd9:	' --- 9 black castle hall (custom) ---
10399               cvb_RD9
10400               	; 	DATA BYTE $FF, $FF, $FF, $FF
10401 F3BD   FF     	byte >ff,>ff,>ff,>ff
     F3BE FFFF     
     F3C0 FF       
10402               	; 	DATA BYTE $FF, $FF, $FF, $FF
10403 F3C1   FF     	byte >ff,>ff,>ff,>ff
     F3C2 FFFF     
     F3C4 FF       
10404               	; 	DATA BYTE $C0, $00, $00, $03
10405 F3C5   C0     	byte >c0,>00,>00,>03
     F3C6 0000     
     F3C8 03       
10406               	; 	DATA BYTE $C0, $00, $00, $03
10407 F3C9   C0     	byte >c0,>00,>00,>03
     F3CA 0000     
     F3CC 03       
10408               	; 	DATA BYTE $C0, $00, $00, $03
10409 F3CD   C0     	byte >c0,>00,>00,>03
     F3CE 0000     
     F3D0 03       
10410               	; 	DATA BYTE $C0, $00, $00, $03
10411 F3D1   C0     	byte >c0,>00,>00,>03
     F3D2 0000     
     F3D4 03       
10412               	; 	DATA BYTE $C3, $C0, $03, $C3
10413 F3D5   C3     	byte >c3,>c0,>03,>c3
     F3D6 C003     
     F3D8 C3       
10414               	; 	DATA BYTE $C3, $C0, $03, $C3
10415 F3D9   C3     	byte >c3,>c0,>03,>c3
     F3DA C003     
     F3DC C3       
10416               	; 	DATA BYTE $C3, $C0, $03, $C3
10417 F3DD   C3     	byte >c3,>c0,>03,>c3
     F3DE C003     
     F3E0 C3       
10418               	; 	DATA BYTE $C3, $C0, $03, $C3
10419 F3E1   C3     	byte >c3,>c0,>03,>c3
     F3E2 C003     
     F3E4 C3       
10420               	; 	DATA BYTE $C0, $00, $00, $00
10421 F3E5   C0     	byte >c0,>00,>00,>00
     F3E6 0000     
     F3E8 00       
10422               	; 	DATA BYTE $C0, $00, $00, $00
10423 F3E9   C0     	byte >c0,>00,>00,>00
     F3EA 0000     
     F3EC 00       
10424               	; 	DATA BYTE $C0, $00, $00, $00
10425 F3ED   C0     	byte >c0,>00,>00,>00
     F3EE 0000     
     F3F0 00       
10426               	; 	DATA BYTE $C0, $00, $00, $00
10427 F3F1   C0     	byte >c0,>00,>00,>00
     F3F2 0000     
     F3F4 00       
10428               	; 	DATA BYTE $C0, $00, $00, $03
10429 F3F5   C0     	byte >c0,>00,>00,>03
     F3F6 0000     
     F3F8 03       
10430               	; 	DATA BYTE $C0, $00, $00, $03
10431 F3F9   C0     	byte >c0,>00,>00,>03
     F3FA 0000     
     F3FC 03       
10432               	; 	DATA BYTE $C0, $00, $00, $03
10433 F3FD   C0     	byte >c0,>00,>00,>03
     F3FE 0000     
     F400 03       
10434               	; 	DATA BYTE $C0, $00, $00, $03
10435 F401   C0     	byte >c0,>00,>00,>03
     F402 0000     
     F404 03       
10436               	; 	DATA BYTE $C0, $00, $00, $03
10437 F405   C0     	byte >c0,>00,>00,>03
     F406 0000     
     F408 03       
10438               	; 	DATA BYTE $C0, $00, $00, $03
10439 F409   C0     	byte >c0,>00,>00,>03
     F40A 0000     
     F40C 03       
10440               	; 	DATA BYTE $C0, $00, $00, $03
10441 F40D   C0     	byte >c0,>00,>00,>03
     F40E 0000     
     F410 03       
10442               	; 	DATA BYTE $C0, $00, $00, $03
10443 F411   C0     	byte >c0,>00,>00,>03
     F412 0000     
     F414 03       
10444               	; 	DATA BYTE $FF, $FC, $3F, $FF
10445 F415   FF     	byte >ff,>fc,>3f,>ff
     F416 FC3F     
     F418 FF       
10446               	; 	DATA BYTE $FF, $FC, $3F, $FF
10447 F419   FF     	byte >ff,>fc,>3f,>ff
     F41A FC3F     
     F41C FF       
10448               	; rd10:	' --- 10 dungeon (custom) ---
10449               cvb_RD10
10450               	; 	DATA BYTE $FF, $FF, $FF, $FF
10451 F41D   FF     	byte >ff,>ff,>ff,>ff
     F41E FFFF     
     F420 FF       
10452               	; 	DATA BYTE $FF, $FF, $FF, $FF
10453 F421   FF     	byte >ff,>ff,>ff,>ff
     F422 FFFF     
     F424 FF       
10454               	; 	DATA BYTE $C0, $00, $00, $03
10455 F425   C0     	byte >c0,>00,>00,>03
     F426 0000     
     F428 03       
10456               	; 	DATA BYTE $C0, $00, $00, $03
10457 F429   C0     	byte >c0,>00,>00,>03
     F42A 0000     
     F42C 03       
10458               	; 	DATA BYTE $CF, $C0, $03, $F3
10459 F42D   CF     	byte >cf,>c0,>03,>f3
     F42E C003     
     F430 F3       
10460               	; 	DATA BYTE $CF, $C0, $03, $F3
10461 F431   CF     	byte >cf,>c0,>03,>f3
     F432 C003     
     F434 F3       
10462               	; 	DATA BYTE $C0, $C0, $03, $03
10463 F435   C0     	byte >c0,>c0,>03,>03
     F436 C003     
     F438 03       
10464               	; 	DATA BYTE $C0, $C0, $03, $03
10465 F439   C0     	byte >c0,>c0,>03,>03
     F43A C003     
     F43C 03       
10466               	; 	DATA BYTE $C0, $00, $00, $03
10467 F43D   C0     	byte >c0,>00,>00,>03
     F43E 0000     
     F440 03       
10468               	; 	DATA BYTE $C0, $00, $00, $03
10469 F441   C0     	byte >c0,>00,>00,>03
     F442 0000     
     F444 03       
10470               	; 	DATA BYTE $00, $00, $00, $03
10471 F445   00     	byte >00,>00,>00,>03
     F446 0000     
     F448 03       
10472               	; 	DATA BYTE $00, $00, $00, $03
10473 F449   00     	byte >00,>00,>00,>03
     F44A 0000     
     F44C 03       
10474               	; 	DATA BYTE $00, $00, $00, $03
10475 F44D   00     	byte >00,>00,>00,>03
     F44E 0000     
     F450 03       
10476               	; 	DATA BYTE $00, $00, $00, $03
10477 F451   00     	byte >00,>00,>00,>03
     F452 0000     
     F454 03       
10478               	; 	DATA BYTE $C0, $00, $00, $03
10479 F455   C0     	byte >c0,>00,>00,>03
     F456 0000     
     F458 03       
10480               	; 	DATA BYTE $C0, $00, $00, $03
10481 F459   C0     	byte >c0,>00,>00,>03
     F45A 0000     
     F45C 03       
10482               	; 	DATA BYTE $C0, $C0, $03, $03
10483 F45D   C0     	byte >c0,>c0,>03,>03
     F45E C003     
     F460 03       
10484               	; 	DATA BYTE $C0, $C0, $03, $03
10485 F461   C0     	byte >c0,>c0,>03,>03
     F462 C003     
     F464 03       
10486               	; 	DATA BYTE $CF, $C0, $03, $F3
10487 F465   CF     	byte >cf,>c0,>03,>f3
     F466 C003     
     F468 F3       
10488               	; 	DATA BYTE $CF, $C0, $03, $F3
10489 F469   CF     	byte >cf,>c0,>03,>f3
     F46A C003     
     F46C F3       
10490               	; 	DATA BYTE $C0, $00, $00, $03
10491 F46D   C0     	byte >c0,>00,>00,>03
     F46E 0000     
     F470 03       
10492               	; 	DATA BYTE $C0, $00, $00, $03
10493 F471   C0     	byte >c0,>00,>00,>03
     F472 0000     
     F474 03       
10494               	; 	DATA BYTE $FF, $FF, $FF, $FF
10495 F475   FF     	byte >ff,>ff,>ff,>ff
     F476 FFFF     
     F478 FF       
10496               	; 	DATA BYTE $FF, $FF, $FF, $FF
10497 F479   FF     	byte >ff,>ff,>ff,>ff
     F47A FFFF     
     F47C FF       
10498               	; rd11:	' --- 11 white castle grounds (custom) ---
10499               cvb_RD11
10500               	; 	DATA BYTE $FF, $FF, $FF, $FF
10501 F47D   FF     	byte >ff,>ff,>ff,>ff
     F47E FFFF     
     F480 FF       
10502               	; 	DATA BYTE $FF, $FF, $FF, $FF
10503 F481   FF     	byte >ff,>ff,>ff,>ff
     F482 FFFF     
     F484 FF       
10504               	; 	DATA BYTE $CF, $00, $00, $F3
10505 F485   CF     	byte >cf,>00,>00,>f3
     F486 0000     
     F488 F3       
10506               	; 	DATA BYTE $CF, $00, $00, $F3
10507 F489   CF     	byte >cf,>00,>00,>f3
     F48A 0000     
     F48C F3       
10508               	; 	DATA BYTE $FF, $FC, $3F, $FF
10509 F48D   FF     	byte >ff,>fc,>3f,>ff
     F48E FC3F     
     F490 FF       
10510               	; 	DATA BYTE $FF, $FC, $3F, $FF
10511 F491   FF     	byte >ff,>fc,>3f,>ff
     F492 FC3F     
     F494 FF       
10512               	; 	DATA BYTE $FF, $FC, $3F, $FF
10513 F495   FF     	byte >ff,>fc,>3f,>ff
     F496 FC3F     
     F498 FF       
10514               	; 	DATA BYTE $FF, $FC, $3F, $FF
10515 F499   FF     	byte >ff,>fc,>3f,>ff
     F49A FC3F     
     F49C FF       
10516               	; 	DATA BYTE $C0, $00, $00, $03
10517 F49D   C0     	byte >c0,>00,>00,>03
     F49E 0000     
     F4A0 03       
10518               	; 	DATA BYTE $C0, $00, $00, $03
10519 F4A1   C0     	byte >c0,>00,>00,>03
     F4A2 0000     
     F4A4 03       
10520               	; 	DATA BYTE $C0, $00, $00, $00
10521 F4A5   C0     	byte >c0,>00,>00,>00
     F4A6 0000     
     F4A8 00       
10522               	; 	DATA BYTE $C0, $00, $00, $00
10523 F4A9   C0     	byte >c0,>00,>00,>00
     F4AA 0000     
     F4AC 00       
10524               	; 	DATA BYTE $C0, $00, $00, $00
10525 F4AD   C0     	byte >c0,>00,>00,>00
     F4AE 0000     
     F4B0 00       
10526               	; 	DATA BYTE $C0, $00, $00, $00
10527 F4B1   C0     	byte >c0,>00,>00,>00
     F4B2 0000     
     F4B4 00       
10528               	; 	DATA BYTE $C0, $00, $00, $03
10529 F4B5   C0     	byte >c0,>00,>00,>03
     F4B6 0000     
     F4B8 03       
10530               	; 	DATA BYTE $C0, $00, $00, $03
10531 F4B9   C0     	byte >c0,>00,>00,>03
     F4BA 0000     
     F4BC 03       
10532               	; 	DATA BYTE $C0, $00, $00, $03
10533 F4BD   C0     	byte >c0,>00,>00,>03
     F4BE 0000     
     F4C0 03       
10534               	; 	DATA BYTE $C0, $00, $00, $03
10535 F4C1   C0     	byte >c0,>00,>00,>03
     F4C2 0000     
     F4C4 03       
10536               	; 	DATA BYTE $C0, $00, $00, $03
10537 F4C5   C0     	byte >c0,>00,>00,>03
     F4C6 0000     
     F4C8 03       
10538               	; 	DATA BYTE $C0, $00, $00, $03
10539 F4C9   C0     	byte >c0,>00,>00,>03
     F4CA 0000     
     F4CC 03       
10540               	; 	DATA BYTE $C0, $00, $00, $03
10541 F4CD   C0     	byte >c0,>00,>00,>03
     F4CE 0000     
     F4D0 03       
10542               	; 	DATA BYTE $C0, $00, $00, $03
10543 F4D1   C0     	byte >c0,>00,>00,>03
     F4D2 0000     
     F4D4 03       
10544               	; 	DATA BYTE $FF, $FF, $FF, $FF
10545 F4D5   FF     	byte >ff,>ff,>ff,>ff
     F4D6 FFFF     
     F4D8 FF       
10546               	; 	DATA BYTE $FF, $FF, $FF, $FF
10547 F4D9   FF     	byte >ff,>ff,>ff,>ff
     F4DA FFFF     
     F4DC FF       
10548               	; rd12:	' --- 12 white castle hall (custom) ---
10549               cvb_RD12
10550               	; 	DATA BYTE $FF, $FF, $FF, $FF
10551 F4DD   FF     	byte >ff,>ff,>ff,>ff
     F4DE FFFF     
     F4E0 FF       
10552               	; 	DATA BYTE $FF, $FF, $FF, $FF
10553 F4E1   FF     	byte >ff,>ff,>ff,>ff
     F4E2 FFFF     
     F4E4 FF       
10554               	; 	DATA BYTE $C0, $00, $00, $03
10555 F4E5   C0     	byte >c0,>00,>00,>03
     F4E6 0000     
     F4E8 03       
10556               	; 	DATA BYTE $C0, $00, $00, $03
10557 F4E9   C0     	byte >c0,>00,>00,>03
     F4EA 0000     
     F4EC 03       
10558               	; 	DATA BYTE $C0, $00, $00, $03
10559 F4ED   C0     	byte >c0,>00,>00,>03
     F4EE 0000     
     F4F0 03       
10560               	; 	DATA BYTE $C0, $00, $00, $03
10561 F4F1   C0     	byte >c0,>00,>00,>03
     F4F2 0000     
     F4F4 03       
10562               	; 	DATA BYTE $C3, $C0, $03, $C3
10563 F4F5   C3     	byte >c3,>c0,>03,>c3
     F4F6 C003     
     F4F8 C3       
10564               	; 	DATA BYTE $C3, $C0, $03, $C3
10565 F4F9   C3     	byte >c3,>c0,>03,>c3
     F4FA C003     
     F4FC C3       
10566               	; 	DATA BYTE $C3, $C0, $03, $C3
10567 F4FD   C3     	byte >c3,>c0,>03,>c3
     F4FE C003     
     F500 C3       
10568               	; 	DATA BYTE $C3, $C0, $03, $C3
10569 F501   C3     	byte >c3,>c0,>03,>c3
     F502 C003     
     F504 C3       
10570               	; 	DATA BYTE $C0, $00, $00, $03
10571 F505   C0     	byte >c0,>00,>00,>03
     F506 0000     
     F508 03       
10572               	; 	DATA BYTE $C0, $00, $00, $03
10573 F509   C0     	byte >c0,>00,>00,>03
     F50A 0000     
     F50C 03       
10574               	; 	DATA BYTE $C0, $00, $00, $03
10575 F50D   C0     	byte >c0,>00,>00,>03
     F50E 0000     
     F510 03       
10576               	; 	DATA BYTE $C0, $00, $00, $03
10577 F511   C0     	byte >c0,>00,>00,>03
     F512 0000     
     F514 03       
10578               	; 	DATA BYTE $C0, $00, $00, $03
10579 F515   C0     	byte >c0,>00,>00,>03
     F516 0000     
     F518 03       
10580               	; 	DATA BYTE $C0, $00, $00, $03
10581 F519   C0     	byte >c0,>00,>00,>03
     F51A 0000     
     F51C 03       
10582               	; 	DATA BYTE $C0, $00, $00, $03
10583 F51D   C0     	byte >c0,>00,>00,>03
     F51E 0000     
     F520 03       
10584               	; 	DATA BYTE $C0, $00, $00, $03
10585 F521   C0     	byte >c0,>00,>00,>03
     F522 0000     
     F524 03       
10586               	; 	DATA BYTE $C0, $00, $00, $03
10587 F525   C0     	byte >c0,>00,>00,>03
     F526 0000     
     F528 03       
10588               	; 	DATA BYTE $C0, $00, $00, $03
10589 F529   C0     	byte >c0,>00,>00,>03
     F52A 0000     
     F52C 03       
10590               	; 	DATA BYTE $C0, $00, $00, $03
10591 F52D   C0     	byte >c0,>00,>00,>03
     F52E 0000     
     F530 03       
10592               	; 	DATA BYTE $C0, $00, $00, $03
10593 F531   C0     	byte >c0,>00,>00,>03
     F532 0000     
     F534 03       
10594               	; 	DATA BYTE $FF, $FC, $3F, $FF
10595 F535   FF     	byte >ff,>fc,>3f,>ff
     F536 FC3F     
     F538 FF       
10596               	; 	DATA BYTE $FF, $FC, $3F, $FF
10597 F539   FF     	byte >ff,>fc,>3f,>ff
     F53A FC3F     
     F53C FF       
10598               	; rd13:	' --- 13 gold castle grounds (kingdom): crenellated keep ---
10599               cvb_RD13
10600               	; 	DATA BYTE $FF, $FF, $FF, $FF	' XXXXXXXXXXXXXXXXXXXXXXXXXXXXXXXX
10601 F53D   FF     	byte >ff,>ff,>ff,>ff
     F53E FFFF     
     F540 FF       
10602               	; 	DATA BYTE $80, $00, $00, $01	' X______________________________X
10603 F541   80     	byte >80,>00,>00,>01
     F542 0000     
     F544 01       
10604               	; 	DATA BYTE $9B, $6C, $36, $D9	' X__XX_XX_XX_XX____XX_XX_XX_XX__X
10605 F545   9B     	byte >9b,>6c,>36,>d9
     F546 6C36     
     F548 D9       
10606               	; 	DATA BYTE $9F, $FF, $FF, $F9	' X__XXXXXXXXXXXXXXXXXXXXXXXXXX__X
10607 F549   9F     	byte >9f,>ff,>ff,>f9
     F54A FFFF     
     F54C F9       
10608               	; 	DATA BYTE $9F, $FC, $3F, $F9	' X__XXXXXXXXXXX____XXXXXXXXXXX__X
10609 F54D   9F     	byte >9f,>fc,>3f,>f9
     F54E FC3F     
     F550 F9       
10610               	; 	DATA BYTE $9F, $FC, $3F, $F9	' X__XXXXXXXXXXX____XXXXXXXXXXX__X
10611 F551   9F     	byte >9f,>fc,>3f,>f9
     F552 FC3F     
     F554 F9       
10612               	; 	DATA BYTE $9F, $FC, $3F, $F9	' X__XXXXXXXXXXX____XXXXXXXXXXX__X
10613 F555   9F     	byte >9f,>fc,>3f,>f9
     F556 FC3F     
     F558 F9       
10614               	; 	DATA BYTE $9F, $FC, $3F, $F9	' X__XXXXXXXXXXX____XXXXXXXXXXX__X
10615 F559   9F     	byte >9f,>fc,>3f,>f9
     F55A FC3F     
     F55C F9       
10616               	; 	DATA BYTE $80, $00, $00, $01	' X______________________________X
10617 F55D   80     	byte >80,>00,>00,>01
     F55E 0000     
     F560 01       
10618               	; 	DATA BYTE $80, $00, $00, $01	' X______________________________X
10619 F561   80     	byte >80,>00,>00,>01
     F562 0000     
     F564 01       
10620               	; 	DATA BYTE $80, $00, $00, $01	' X______________________________X
10621 F565   80     	byte >80,>00,>00,>01
     F566 0000     
     F568 01       
10622               	; 	DATA BYTE $80, $00, $00, $01	' X______________________________X
10623 F569   80     	byte >80,>00,>00,>01
     F56A 0000     
     F56C 01       
10624               	; 	DATA BYTE $80, $00, $00, $01	' X______________________________X
10625 F56D   80     	byte >80,>00,>00,>01
     F56E 0000     
     F570 01       
10626               	; 	DATA BYTE $80, $00, $00, $01	' X______________________________X
10627 F571   80     	byte >80,>00,>00,>01
     F572 0000     
     F574 01       
10628               	; 	DATA BYTE $80, $00, $00, $01	' X______________________________X
10629 F575   80     	byte >80,>00,>00,>01
     F576 0000     
     F578 01       
10630               	; 	DATA BYTE $80, $00, $00, $01	' X______________________________X
10631 F579   80     	byte >80,>00,>00,>01
     F57A 0000     
     F57C 01       
10632               	; 	DATA BYTE $80, $00, $00, $01	' X______________________________X
10633 F57D   80     	byte >80,>00,>00,>01
     F57E 0000     
     F580 01       
10634               	; 	DATA BYTE $80, $00, $00, $01	' X______________________________X
10635 F581   80     	byte >80,>00,>00,>01
     F582 0000     
     F584 01       
10636               	; 	DATA BYTE $80, $00, $00, $01	' X______________________________X
10637 F585   80     	byte >80,>00,>00,>01
     F586 0000     
     F588 01       
10638               	; 	DATA BYTE $80, $00, $00, $01	' X______________________________X
10639 F589   80     	byte >80,>00,>00,>01
     F58A 0000     
     F58C 01       
10640               	; 	DATA BYTE $80, $00, $00, $01	' X______________________________X
10641 F58D   80     	byte >80,>00,>00,>01
     F58E 0000     
     F590 01       
10642               	; 	DATA BYTE $80, $00, $00, $01	' X______________________________X
10643 F591   80     	byte >80,>00,>00,>01
     F592 0000     
     F594 01       
10644               	; 	DATA BYTE $FF, $FC, $3F, $FF	' XXXXXXXXXXXXXX____XXXXXXXXXXXXXX
10645 F595   FF     	byte >ff,>fc,>3f,>ff
     F596 FC3F     
     F598 FF       
10646               	; 	DATA BYTE $FF, $FC, $3F, $FF	' XXXXXXXXXXXXXX____XXXXXXXXXXXXXX
10647 F599   FF     	byte >ff,>fc,>3f,>ff
     F59A FC3F     
     F59C FF       
10648               	; rd14:	' --- 14 gold castle hall (kingdom WIN) ---
10649               cvb_RD14
10650               	; 	DATA BYTE $FF, $FF, $FF, $FF	' XXXXXXXXXXXXXXXXXXXXXXXXXXXXXXXX
10651 F59D   FF     	byte >ff,>ff,>ff,>ff
     F59E FFFF     
     F5A0 FF       
10652               	; 	DATA BYTE $80, $00, $00, $01	' X______________________________X
10653 F5A1   80     	byte >80,>00,>00,>01
     F5A2 0000     
     F5A4 01       
10654               	; 	DATA BYTE $80, $00, $00, $01	' X______________________________X
10655 F5A5   80     	byte >80,>00,>00,>01
     F5A6 0000     
     F5A8 01       
10656               	; 	DATA BYTE $80, $00, $00, $01	' X______________________________X
10657 F5A9   80     	byte >80,>00,>00,>01
     F5AA 0000     
     F5AC 01       
10658               	; 	DATA BYTE $80, $00, $00, $01	' X______________________________X
10659 F5AD   80     	byte >80,>00,>00,>01
     F5AE 0000     
     F5B0 01       
10660               	; 	DATA BYTE $80, $00, $00, $01	' X______________________________X
10661 F5B1   80     	byte >80,>00,>00,>01
     F5B2 0000     
     F5B4 01       
10662               	; 	DATA BYTE $80, $00, $00, $01	' X______________________________X
10663 F5B5   80     	byte >80,>00,>00,>01
     F5B6 0000     
     F5B8 01       
10664               	; 	DATA BYTE $80, $00, $00, $01	' X______________________________X
10665 F5B9   80     	byte >80,>00,>00,>01
     F5BA 0000     
     F5BC 01       
10666               	; 	DATA BYTE $83, $C0, $03, $C1	' X_____XXXX____________XXXX_____X
10667 F5BD   83     	byte >83,>c0,>03,>c1
     F5BE C003     
     F5C0 C1       
10668               	; 	DATA BYTE $83, $C0, $03, $C1	' X_____XXXX____________XXXX_____X
10669 F5C1   83     	byte >83,>c0,>03,>c1
     F5C2 C003     
     F5C4 C1       
10670               	; 	DATA BYTE $83, $C0, $03, $C1	' X_____XXXX____________XXXX_____X
10671 F5C5   83     	byte >83,>c0,>03,>c1
     F5C6 C003     
     F5C8 C1       
10672               	; 	DATA BYTE $83, $C0, $03, $C1	' X_____XXXX____________XXXX_____X
10673 F5C9   83     	byte >83,>c0,>03,>c1
     F5CA C003     
     F5CC C1       
10674               	; 	DATA BYTE $80, $00, $00, $01	' X______________________________X
10675 F5CD   80     	byte >80,>00,>00,>01
     F5CE 0000     
     F5D0 01       
10676               	; 	DATA BYTE $80, $00, $00, $01	' X______________________________X
10677 F5D1   80     	byte >80,>00,>00,>01
     F5D2 0000     
     F5D4 01       
10678               	; 	DATA BYTE $80, $00, $00, $01	' X______________________________X
10679 F5D5   80     	byte >80,>00,>00,>01
     F5D6 0000     
     F5D8 01       
10680               	; 	DATA BYTE $80, $00, $00, $01	' X______________________________X
10681 F5D9   80     	byte >80,>00,>00,>01
     F5DA 0000     
     F5DC 01       
10682               	; 	DATA BYTE $80, $00, $00, $01	' X______________________________X
10683 F5DD   80     	byte >80,>00,>00,>01
     F5DE 0000     
     F5E0 01       
10684               	; 	DATA BYTE $80, $00, $00, $01	' X______________________________X
10685 F5E1   80     	byte >80,>00,>00,>01
     F5E2 0000     
     F5E4 01       
10686               	; 	DATA BYTE $80, $00, $00, $01	' X______________________________X
10687 F5E5   80     	byte >80,>00,>00,>01
     F5E6 0000     
     F5E8 01       
10688               	; 	DATA BYTE $80, $00, $00, $01	' X______________________________X
10689 F5E9   80     	byte >80,>00,>00,>01
     F5EA 0000     
     F5EC 01       
10690               	; 	DATA BYTE $80, $00, $00, $01	' X______________________________X
10691 F5ED   80     	byte >80,>00,>00,>01
     F5EE 0000     
     F5F0 01       
10692               	; 	DATA BYTE $80, $00, $00, $01	' X______________________________X
10693 F5F1   80     	byte >80,>00,>00,>01
     F5F2 0000     
     F5F4 01       
10694               	; 	DATA BYTE $FF, $FC, $3F, $FF	' XXXXXXXXXXXXXX____XXXXXXXXXXXXXX
10695 F5F5   FF     	byte >ff,>fc,>3f,>ff
     F5F6 FC3F     
     F5F8 FF       
10696               	; 	DATA BYTE $FF, $FC, $3F, $FF	' XXXXXXXXXXXXXX____XXXXXXXXXXXXXX
10697 F5F9   FF     	byte >ff,>fc,>3f,>ff
     F5FA FC3F     
     F5FC FF       
10698               	; rd15:	' --- 15 corridor west (open E/W) ---
10699               cvb_RD15
10700               	; 	DATA BYTE $FF, $FF, $FF, $FF	' XXXXXXXXXXXXXXXXXXXXXXXXXXXXXXXX
10701 F5FD   FF     	byte >ff,>ff,>ff,>ff
     F5FE FFFF     
     F600 FF       
10702               	; 	DATA BYTE $FF, $FF, $FF, $FF	' XXXXXXXXXXXXXXXXXXXXXXXXXXXXXXXX
10703 F601   FF     	byte >ff,>ff,>ff,>ff
     F602 FFFF     
     F604 FF       
10704               	; 	DATA BYTE $FF, $FF, $FF, $FF	' XXXXXXXXXXXXXXXXXXXXXXXXXXXXXXXX
10705 F605   FF     	byte >ff,>ff,>ff,>ff
     F606 FFFF     
     F608 FF       
10706               	; 	DATA BYTE $00, $00, $00, $00	' ________________________________
10707 F609   00     	byte >00,>00,>00,>00
     F60A 0000     
     F60C 00       
10708               	; 	DATA BYTE $00, $00, $00, $00	' ________________________________
10709 F60D   00     	byte >00,>00,>00,>00
     F60E 0000     
     F610 00       
10710               	; 	DATA BYTE $00, $00, $00, $00	' ________________________________
10711 F611   00     	byte >00,>00,>00,>00
     F612 0000     
     F614 00       
10712               	; 	DATA BYTE $00, $00, $00, $00	' ________________________________
10713 F615   00     	byte >00,>00,>00,>00
     F616 0000     
     F618 00       
10714               	; 	DATA BYTE $00, $00, $00, $00	' ________________________________
10715 F619   00     	byte >00,>00,>00,>00
     F61A 0000     
     F61C 00       
10716               	; 	DATA BYTE $00, $00, $00, $00	' ________________________________
10717 F61D   00     	byte >00,>00,>00,>00
     F61E 0000     
     F620 00       
10718               	; 	DATA BYTE $00, $00, $00, $00	' ________________________________
10719 F621   00     	byte >00,>00,>00,>00
     F622 0000     
     F624 00       
10720               	; 	DATA BYTE $00, $00, $00, $00	' ________________________________
10721 F625   00     	byte >00,>00,>00,>00
     F626 0000     
     F628 00       
10722               	; 	DATA BYTE $00, $00, $00, $00	' ________________________________
10723 F629   00     	byte >00,>00,>00,>00
     F62A 0000     
     F62C 00       
10724               	; 	DATA BYTE $00, $00, $00, $00	' ________________________________
10725 F62D   00     	byte >00,>00,>00,>00
     F62E 0000     
     F630 00       
10726               	; 	DATA BYTE $00, $00, $00, $00	' ________________________________
10727 F631   00     	byte >00,>00,>00,>00
     F632 0000     
     F634 00       
10728               	; 	DATA BYTE $00, $00, $00, $00	' ________________________________
10729 F635   00     	byte >00,>00,>00,>00
     F636 0000     
     F638 00       
10730               	; 	DATA BYTE $00, $00, $00, $00	' ________________________________
10731 F639   00     	byte >00,>00,>00,>00
     F63A 0000     
     F63C 00       
10732               	; 	DATA BYTE $00, $00, $00, $00	' ________________________________
10733 F63D   00     	byte >00,>00,>00,>00
     F63E 0000     
     F640 00       
10734               	; 	DATA BYTE $00, $00, $00, $00	' ________________________________
10735 F641   00     	byte >00,>00,>00,>00
     F642 0000     
     F644 00       
10736               	; 	DATA BYTE $00, $00, $00, $00	' ________________________________
10737 F645   00     	byte >00,>00,>00,>00
     F646 0000     
     F648 00       
10738               	; 	DATA BYTE $00, $00, $00, $00	' ________________________________
10739 F649   00     	byte >00,>00,>00,>00
     F64A 0000     
     F64C 00       
10740               	; 	DATA BYTE $00, $00, $00, $00	' ________________________________
10741 F64D   00     	byte >00,>00,>00,>00
     F64E 0000     
     F650 00       
10742               	; 	DATA BYTE $FF, $FF, $FF, $FF	' XXXXXXXXXXXXXXXXXXXXXXXXXXXXXXXX
10743 F651   FF     	byte >ff,>ff,>ff,>ff
     F652 FFFF     
     F654 FF       
10744               	; 	DATA BYTE $FF, $FF, $FF, $FF	' XXXXXXXXXXXXXXXXXXXXXXXXXXXXXXXX
10745 F655   FF     	byte >ff,>ff,>ff,>ff
     F656 FFFF     
     F658 FF       
10746               	; 	DATA BYTE $FF, $FF, $FF, $FF	' XXXXXXXXXXXXXXXXXXXXXXXXXXXXXXXX
10747 F659   FF     	byte >ff,>ff,>ff,>ff
     F65A FFFF     
     F65C FF       
10748               	; rd16:	' --- 16 corridor mid (N gap to the gold castle) ---
10749               cvb_RD16
10750               	; 	DATA BYTE $FF, $FC, $3F, $FF	' XXXXXXXXXXXXXX____XXXXXXXXXXXXXX
10751 F65D   FF     	byte >ff,>fc,>3f,>ff
     F65E FC3F     
     F660 FF       
10752               	; 	DATA BYTE $FF, $FC, $3F, $FF	' XXXXXXXXXXXXXX____XXXXXXXXXXXXXX
10753 F661   FF     	byte >ff,>fc,>3f,>ff
     F662 FC3F     
     F664 FF       
10754               	; 	DATA BYTE $FF, $FC, $3F, $FF	' XXXXXXXXXXXXXX____XXXXXXXXXXXXXX
10755 F665   FF     	byte >ff,>fc,>3f,>ff
     F666 FC3F     
     F668 FF       
10756               	; 	DATA BYTE $00, $00, $00, $00	' ________________________________
10757 F669   00     	byte >00,>00,>00,>00
     F66A 0000     
     F66C 00       
10758               	; 	DATA BYTE $00, $00, $00, $00	' ________________________________
10759 F66D   00     	byte >00,>00,>00,>00
     F66E 0000     
     F670 00       
10760               	; 	DATA BYTE $00, $00, $00, $00	' ________________________________
10761 F671   00     	byte >00,>00,>00,>00
     F672 0000     
     F674 00       
10762               	; 	DATA BYTE $00, $00, $00, $00	' ________________________________
10763 F675   00     	byte >00,>00,>00,>00
     F676 0000     
     F678 00       
10764               	; 	DATA BYTE $00, $00, $00, $00	' ________________________________
10765 F679   00     	byte >00,>00,>00,>00
     F67A 0000     
     F67C 00       
10766               	; 	DATA BYTE $00, $00, $00, $00	' ________________________________
10767 F67D   00     	byte >00,>00,>00,>00
     F67E 0000     
     F680 00       
10768               	; 	DATA BYTE $00, $00, $00, $00	' ________________________________
10769 F681   00     	byte >00,>00,>00,>00
     F682 0000     
     F684 00       
10770               	; 	DATA BYTE $00, $00, $00, $00	' ________________________________
10771 F685   00     	byte >00,>00,>00,>00
     F686 0000     
     F688 00       
10772               	; 	DATA BYTE $00, $00, $00, $00	' ________________________________
10773 F689   00     	byte >00,>00,>00,>00
     F68A 0000     
     F68C 00       
10774               	; 	DATA BYTE $00, $00, $00, $00	' ________________________________
10775 F68D   00     	byte >00,>00,>00,>00
     F68E 0000     
     F690 00       
10776               	; 	DATA BYTE $00, $00, $00, $00	' ________________________________
10777 F691   00     	byte >00,>00,>00,>00
     F692 0000     
     F694 00       
10778               	; 	DATA BYTE $00, $00, $00, $00	' ________________________________
10779 F695   00     	byte >00,>00,>00,>00
     F696 0000     
     F698 00       
10780               	; 	DATA BYTE $00, $00, $00, $00	' ________________________________
10781 F699   00     	byte >00,>00,>00,>00
     F69A 0000     
     F69C 00       
10782               	; 	DATA BYTE $00, $00, $00, $00	' ________________________________
10783 F69D   00     	byte >00,>00,>00,>00
     F69E 0000     
     F6A0 00       
10784               	; 	DATA BYTE $00, $00, $00, $00	' ________________________________
10785 F6A1   00     	byte >00,>00,>00,>00
     F6A2 0000     
     F6A4 00       
10786               	; 	DATA BYTE $00, $00, $00, $00	' ________________________________
10787 F6A5   00     	byte >00,>00,>00,>00
     F6A6 0000     
     F6A8 00       
10788               	; 	DATA BYTE $00, $00, $00, $00	' ________________________________
10789 F6A9   00     	byte >00,>00,>00,>00
     F6AA 0000     
     F6AC 00       
10790               	; 	DATA BYTE $00, $00, $00, $00	' ________________________________
10791 F6AD   00     	byte >00,>00,>00,>00
     F6AE 0000     
     F6B0 00       
10792               	; 	DATA BYTE $FF, $FF, $FF, $FF	' XXXXXXXXXXXXXXXXXXXXXXXXXXXXXXXX
10793 F6B1   FF     	byte >ff,>ff,>ff,>ff
     F6B2 FFFF     
     F6B4 FF       
10794               	; 	DATA BYTE $FF, $FF, $FF, $FF	' XXXXXXXXXXXXXXXXXXXXXXXXXXXXXXXX
10795 F6B5   FF     	byte >ff,>ff,>ff,>ff
     F6B6 FFFF     
     F6B8 FF       
10796               	; 	DATA BYTE $FF, $FF, $FF, $FF	' XXXXXXXXXXXXXXXXXXXXXXXXXXXXXXXX
10797 F6B9   FF     	byte >ff,>ff,>ff,>ff
     F6BA FFFF     
     F6BC FF       
10798               	; rd17:	' --- 17 corridor east (secret wall E, catacombs S) ---
10799               cvb_RD17
10800               	; 	DATA BYTE $FF, $FF, $FF, $FF	' XXXXXXXXXXXXXXXXXXXXXXXXXXXXXXXX
10801 F6BD   FF     	byte >ff,>ff,>ff,>ff
     F6BE FFFF     
     F6C0 FF       
10802               	; 	DATA BYTE $FF, $FF, $FF, $FF	' XXXXXXXXXXXXXXXXXXXXXXXXXXXXXXXX
10803 F6C1   FF     	byte >ff,>ff,>ff,>ff
     F6C2 FFFF     
     F6C4 FF       
10804               	; 	DATA BYTE $FF, $FF, $FF, $FF	' XXXXXXXXXXXXXXXXXXXXXXXXXXXXXXXX
10805 F6C5   FF     	byte >ff,>ff,>ff,>ff
     F6C6 FFFF     
     F6C8 FF       
10806               	; 	DATA BYTE $00, $00, $00, $03	' ______________________________XX
10807 F6C9   00     	byte >00,>00,>00,>03
     F6CA 0000     
     F6CC 03       
10808               	; 	DATA BYTE $00, $00, $00, $03	' ______________________________XX
10809 F6CD   00     	byte >00,>00,>00,>03
     F6CE 0000     
     F6D0 03       
10810               	; 	DATA BYTE $00, $00, $00, $03	' ______________________________XX
10811 F6D1   00     	byte >00,>00,>00,>03
     F6D2 0000     
     F6D4 03       
10812               	; 	DATA BYTE $00, $00, $00, $03	' ______________________________XX
10813 F6D5   00     	byte >00,>00,>00,>03
     F6D6 0000     
     F6D8 03       
10814               	; 	DATA BYTE $00, $00, $00, $03	' ______________________________XX
10815 F6D9   00     	byte >00,>00,>00,>03
     F6DA 0000     
     F6DC 03       
10816               	; 	DATA BYTE $00, $00, $00, $03	' ______________________________XX
10817 F6DD   00     	byte >00,>00,>00,>03
     F6DE 0000     
     F6E0 03       
10818               	; 	DATA BYTE $00, $00, $00, $03	' ______________________________XX
10819 F6E1   00     	byte >00,>00,>00,>03
     F6E2 0000     
     F6E4 03       
10820               	; 	DATA BYTE $00, $00, $00, $03	' ______________________________XX
10821 F6E5   00     	byte >00,>00,>00,>03
     F6E6 0000     
     F6E8 03       
10822               	; 	DATA BYTE $00, $00, $00, $03	' ______________________________XX
10823 F6E9   00     	byte >00,>00,>00,>03
     F6EA 0000     
     F6EC 03       
10824               	; 	DATA BYTE $00, $00, $00, $03	' ______________________________XX
10825 F6ED   00     	byte >00,>00,>00,>03
     F6EE 0000     
     F6F0 03       
10826               	; 	DATA BYTE $00, $00, $00, $03	' ______________________________XX
10827 F6F1   00     	byte >00,>00,>00,>03
     F6F2 0000     
     F6F4 03       
10828               	; 	DATA BYTE $00, $00, $00, $03	' ______________________________XX
10829 F6F5   00     	byte >00,>00,>00,>03
     F6F6 0000     
     F6F8 03       
10830               	; 	DATA BYTE $00, $00, $00, $03	' ______________________________XX
10831 F6F9   00     	byte >00,>00,>00,>03
     F6FA 0000     
     F6FC 03       
10832               	; 	DATA BYTE $00, $00, $00, $03	' ______________________________XX
10833 F6FD   00     	byte >00,>00,>00,>03
     F6FE 0000     
     F700 03       
10834               	; 	DATA BYTE $00, $00, $00, $03	' ______________________________XX
10835 F701   00     	byte >00,>00,>00,>03
     F702 0000     
     F704 03       
10836               	; 	DATA BYTE $00, $00, $00, $03	' ______________________________XX
10837 F705   00     	byte >00,>00,>00,>03
     F706 0000     
     F708 03       
10838               	; 	DATA BYTE $00, $00, $00, $03	' ______________________________XX
10839 F709   00     	byte >00,>00,>00,>03
     F70A 0000     
     F70C 03       
10840               	; 	DATA BYTE $00, $00, $00, $03	' ______________________________XX
10841 F70D   00     	byte >00,>00,>00,>03
     F70E 0000     
     F710 03       
10842               	; 	DATA BYTE $FF, $FC, $3F, $FF	' XXXXXXXXXXXXXX____XXXXXXXXXXXXXX
10843 F711   FF     	byte >ff,>fc,>3f,>ff
     F712 FC3F     
     F714 FF       
10844               	; 	DATA BYTE $FF, $FC, $3F, $FF	' XXXXXXXXXXXXXX____XXXXXXXXXXXXXX
10845 F715   FF     	byte >ff,>fc,>3f,>ff
     F716 FC3F     
     F718 FF       
10846               	; 	DATA BYTE $FF, $FC, $3F, $FF	' XXXXXXXXXXXXXX____XXXXXXXXXXXXXX
10847 F719   FF     	byte >ff,>fc,>3f,>ff
     F71A FC3F     
     F71C FF       
10848               	; rd18:	' --- 18 SECRET room ---
10849               cvb_RD18
10850               	; 	DATA BYTE $FF, $FF, $FF, $FF	' XXXXXXXXXXXXXXXXXXXXXXXXXXXXXXXX
10851 F71D   FF     	byte >ff,>ff,>ff,>ff
     F71E FFFF     
     F720 FF       
10852               	; 	DATA BYTE $80, $00, $00, $01	' X______________________________X
10853 F721   80     	byte >80,>00,>00,>01
     F722 0000     
     F724 01       
10854               	; 	DATA BYTE $80, $00, $00, $01	' X______________________________X
10855 F725   80     	byte >80,>00,>00,>01
     F726 0000     
     F728 01       
10856               	; 	DATA BYTE $80, $00, $00, $01	' X______________________________X
10857 F729   80     	byte >80,>00,>00,>01
     F72A 0000     
     F72C 01       
10858               	; 	DATA BYTE $80, $00, $00, $01	' X______________________________X
10859 F72D   80     	byte >80,>00,>00,>01
     F72E 0000     
     F730 01       
10860               	; 	DATA BYTE $80, $00, $00, $01	' X______________________________X
10861 F731   80     	byte >80,>00,>00,>01
     F732 0000     
     F734 01       
10862               	; 	DATA BYTE $80, $00, $00, $01	' X______________________________X
10863 F735   80     	byte >80,>00,>00,>01
     F736 0000     
     F738 01       
10864               	; 	DATA BYTE $80, $00, $00, $01	' X______________________________X
10865 F739   80     	byte >80,>00,>00,>01
     F73A 0000     
     F73C 01       
10866               	; 	DATA BYTE $80, $00, $00, $01	' X______________________________X
10867 F73D   80     	byte >80,>00,>00,>01
     F73E 0000     
     F740 01       
10868               	; 	DATA BYTE $80, $00, $00, $01	' X______________________________X
10869 F741   80     	byte >80,>00,>00,>01
     F742 0000     
     F744 01       
10870               	; 	DATA BYTE $00, $00, $00, $01	' _______________________________X
10871 F745   00     	byte >00,>00,>00,>01
     F746 0000     
     F748 01       
10872               	; 	DATA BYTE $00, $00, $00, $01	' _______________________________X
10873 F749   00     	byte >00,>00,>00,>01
     F74A 0000     
     F74C 01       
10874               	; 	DATA BYTE $00, $00, $00, $01	' _______________________________X
10875 F74D   00     	byte >00,>00,>00,>01
     F74E 0000     
     F750 01       
10876               	; 	DATA BYTE $00, $00, $00, $01	' _______________________________X
10877 F751   00     	byte >00,>00,>00,>01
     F752 0000     
     F754 01       
10878               	; 	DATA BYTE $80, $00, $00, $01	' X______________________________X
10879 F755   80     	byte >80,>00,>00,>01
     F756 0000     
     F758 01       
10880               	; 	DATA BYTE $80, $00, $00, $01	' X______________________________X
10881 F759   80     	byte >80,>00,>00,>01
     F75A 0000     
     F75C 01       
10882               	; 	DATA BYTE $80, $00, $00, $01	' X______________________________X
10883 F75D   80     	byte >80,>00,>00,>01
     F75E 0000     
     F760 01       
10884               	; 	DATA BYTE $80, $00, $00, $01	' X______________________________X
10885 F761   80     	byte >80,>00,>00,>01
     F762 0000     
     F764 01       
10886               	; 	DATA BYTE $80, $00, $00, $01	' X______________________________X
10887 F765   80     	byte >80,>00,>00,>01
     F766 0000     
     F768 01       
10888               	; 	DATA BYTE $80, $00, $00, $01	' X______________________________X
10889 F769   80     	byte >80,>00,>00,>01
     F76A 0000     
     F76C 01       
10890               	; 	DATA BYTE $80, $00, $00, $01	' X______________________________X
10891 F76D   80     	byte >80,>00,>00,>01
     F76E 0000     
     F770 01       
10892               	; 	DATA BYTE $80, $00, $00, $01	' X______________________________X
10893 F771   80     	byte >80,>00,>00,>01
     F772 0000     
     F774 01       
10894               	; 	DATA BYTE $FF, $FF, $FF, $FF	' XXXXXXXXXXXXXXXXXXXXXXXXXXXXXXXX
10895 F775   FF     	byte >ff,>ff,>ff,>ff
     F776 FFFF     
     F778 FF       
10896               	; 	DATA BYTE $FF, $FF, $FF, $FF	' XXXXXXXXXXXXXXXXXXXXXXXXXXXXXXXX
10897 F779   FF     	byte >ff,>ff,>ff,>ff
     F77A FFFF     
     F77C FF       
10898               	; rd19:	' --- 19 blue maze SE (N/E/W; twin N gaps, dead-end nook) ---
10899               cvb_RD19
10900               	; 	DATA BYTE $FC, $FF, $FF, $F3	' XXXXXX__XXXXXXXXXXXXXXXXXXXX__XX
10901 F77D   FC     	byte >fc,>ff,>ff,>f3
     F77E FFFF     
     F780 F3       
10902               	; 	DATA BYTE $80, $00, $00, $01	' X______________________________X
10903 F781   80     	byte >80,>00,>00,>01
     F782 0000     
     F784 01       
10904               	; 	DATA BYTE $80, $00, $00, $01	' X______________________________X
10905 F785   80     	byte >80,>00,>00,>01
     F786 0000     
     F788 01       
10906               	; 	DATA BYTE $FF, $F3, $F3, $FF	' XXXXXXXXXXXX__XXXXXX__XXXXXXXXXX
10907 F789   FF     	byte >ff,>f3,>f3,>ff
     F78A F3F3     
     F78C FF       
10908               	; 	DATA BYTE $84, $00, $00, $01	' X____X_________________________X
10909 F78D   84     	byte >84,>00,>00,>01
     F78E 0000     
     F790 01       
10910               	; 	DATA BYTE $84, $00, $00, $01	' X____X_________________________X
10911 F791   84     	byte >84,>00,>00,>01
     F792 0000     
     F794 01       
10912               	; 	DATA BYTE $CF, $CF, $FF, $FF	' XX__XXXXXX__XXXXXXXXXXXXXXXXXXXX
10913 F795   CF     	byte >cf,>cf,>ff,>ff
     F796 CFFF     
     F798 FF       
10914               	; 	DATA BYTE $80, $00, $00, $00	' X_______________________________
10915 F799   80     	byte >80,>00,>00,>00
     F79A 0000     
     F79C 00       
10916               	; 	DATA BYTE $80, $00, $00, $00	' X_______________________________
10917 F79D   80     	byte >80,>00,>00,>00
     F79E 0000     
     F7A0 00       
10918               	; 	DATA BYTE $FF, $FF, $FC, $FF	' XXXXXXXXXXXXXXXXXXXXXX__XXXXXXXX
10919 F7A1   FF     	byte >ff,>ff,>fc,>ff
     F7A2 FFFC     
     F7A4 FF       
10920               	; 	DATA BYTE $00, $00, $00, $01	' _______________________________X
10921 F7A5   00     	byte >00,>00,>00,>01
     F7A6 0000     
     F7A8 01       
10922               	; 	DATA BYTE $00, $00, $00, $01	' _______________________________X
10923 F7A9   00     	byte >00,>00,>00,>01
     F7AA 0000     
     F7AC 01       
10924               	; 	DATA BYTE $FF, $3F, $FF, $FF	' XXXXXXXX__XXXXXXXXXXXXXXXXXXXXXX
10925 F7AD   FF     	byte >ff,>3f,>ff,>ff
     F7AE 3FFF     
     F7B0 FF       
10926               	; 	DATA BYTE $80, $00, $00, $01	' X______________________________X
10927 F7B1   80     	byte >80,>00,>00,>01
     F7B2 0000     
     F7B4 01       
10928               	; 	DATA BYTE $80, $10, $40, $01	' X__________X_____X_____________X
10929 F7B5   80     	byte >80,>10,>40,>01
     F7B6 1040     
     F7B8 01       
10930               	; 	DATA BYTE $80, $10, $40, $01	' X__________X_____X_____________X
10931 F7B9   80     	byte >80,>10,>40,>01
     F7BA 1040     
     F7BC 01       
10932               	; 	DATA BYTE $FF, $FC, $FF, $FF	' XXXXXXXXXXXXXX__XXXXXXXXXXXXXXXX
10933 F7BD   FF     	byte >ff,>fc,>ff,>ff
     F7BE FCFF     
     F7C0 FF       
10934               	; 	DATA BYTE $80, $00, $00, $01	' X______________________________X
10935 F7C1   80     	byte >80,>00,>00,>01
     F7C2 0000     
     F7C4 01       
10936               	; 	DATA BYTE $80, $00, $00, $01	' X______________________________X
10937 F7C5   80     	byte >80,>00,>00,>01
     F7C6 0000     
     F7C8 01       
10938               	; 	DATA BYTE $F3, $FF, $FF, $CF	' XXXX__XXXXXXXXXXXXXXXXXXXX__XXXX
10939 F7C9   F3     	byte >f3,>ff,>ff,>cf
     F7CA FFFF     
     F7CC CF       
10940               	; 	DATA BYTE $80, $00, $00, $01	' X______________________________X
10941 F7CD   80     	byte >80,>00,>00,>01
     F7CE 0000     
     F7D0 01       
10942               	; 	DATA BYTE $80, $40, $01, $01	' X________X_____________X_______X
10943 F7D1   80     	byte >80,>40,>01,>01
     F7D2 4001     
     F7D4 01       
10944               	; 	DATA BYTE $80, $40, $01, $01	' X________X_____________X_______X
10945 F7D5   80     	byte >80,>40,>01,>01
     F7D6 4001     
     F7D8 01       
10946               	; 	DATA BYTE $FF, $FF, $FF, $FF	' XXXXXXXXXXXXXXXXXXXXXXXXXXXXXXXX
10947 F7D9   FF     	byte >ff,>ff,>ff,>ff
     F7DA FFFF     
     F7DC FF       
10948               	; rd20:	' --- 20 blue maze mid (all sides; twin W doors, twin S gaps) ---
10949               cvb_RD20
10950               	; 	DATA BYTE $FF, $CF, $FF, $FF	' XXXXXXXXXX__XXXXXXXXXXXXXXXXXXXX
10951 F7DD   FF     	byte >ff,>cf,>ff,>ff
     F7DE CFFF     
     F7E0 FF       
10952               	; 	DATA BYTE $80, $00, $00, $01	' X______________________________X
10953 F7E1   80     	byte >80,>00,>00,>01
     F7E2 0000     
     F7E4 01       
10954               	; 	DATA BYTE $80, $00, $00, $01	' X______________________________X
10955 F7E5   80     	byte >80,>00,>00,>01
     F7E6 0000     
     F7E8 01       
10956               	; 	DATA BYTE $FC, $FF, $FF, $3F	' XXXXXX__XXXXXXXXXXXXXXXX__XXXXXX
10957 F7E9   FC     	byte >fc,>ff,>ff,>3f
     F7EA FFFF     
     F7EC 3F       
10958               	; 	DATA BYTE $00, $00, $00, $01	' _______________________________X
10959 F7ED   00     	byte >00,>00,>00,>01
     F7EE 0000     
     F7F0 01       
10960               	; 	DATA BYTE $00, $00, $00, $01	' _______________________________X
10961 F7F1   00     	byte >00,>00,>00,>01
     F7F2 0000     
     F7F4 01       
10962               	; 	DATA BYTE $FF, $FC, $FF, $FF	' XXXXXXXXXXXXXX__XXXXXXXXXXXXXXXX
10963 F7F5   FF     	byte >ff,>fc,>ff,>ff
     F7F6 FCFF     
     F7F8 FF       
10964               	; 	DATA BYTE $80, $00, $00, $09	' X___________________________X__X
10965 F7F9   80     	byte >80,>00,>00,>09
     F7FA 0000     
     F7FC 09       
10966               	; 	DATA BYTE $80, $00, $00, $09	' X___________________________X__X
10967 F7FD   80     	byte >80,>00,>00,>09
     F7FE 0000     
     F800 09       
10968               	; 	DATA BYTE $CF, $FF, $FF, $F3	' XX__XXXXXXXXXXXXXXXXXXXXXXXX__XX
10969 F801   CF     	byte >cf,>ff,>ff,>f3
     F802 FFFF     
     F804 F3       
10970               	; 	DATA BYTE $80, $00, $00, $01	' X______________________________X
10971 F805   80     	byte >80,>00,>00,>01
     F806 0000     
     F808 01       
10972               	; 	DATA BYTE $81, $00, $00, $81	' X______X________________X______X
10973 F809   81     	byte >81,>00,>00,>81
     F80A 0000     
     F80C 81       
10974               	; 	DATA BYTE $FF, $F3, $F3, $FF	' XXXXXXXXXXXX__XXXXXX__XXXXXXXXXX
10975 F80D   FF     	byte >ff,>f3,>f3,>ff
     F80E F3F3     
     F810 FF       
10976               	; 	DATA BYTE $00, $00, $00, $01	' _______________________________X
10977 F811   00     	byte >00,>00,>00,>01
     F812 0000     
     F814 01       
10978               	; 	DATA BYTE $00, $00, $00, $01	' _______________________________X
10979 F815   00     	byte >00,>00,>00,>01
     F816 0000     
     F818 01       
10980               	; 	DATA BYTE $F3, $FF, $FF, $FF	' XXXX__XXXXXXXXXXXXXXXXXXXXXXXXXX
10981 F819   F3     	byte >f3,>ff,>ff,>ff
     F81A FFFF     
     F81C FF       
10982               	; 	DATA BYTE $80, $00, $00, $21	' X_________________________X____X
10983 F81D   80     	byte >80,>00,>00,>21
     F81E 0000     
     F820 21       
10984               	; 	DATA BYTE $80, $00, $00, $21	' X_________________________X____X
10985 F821   80     	byte >80,>00,>00,>21
     F822 0000     
     F824 21       
10986               	; 	DATA BYTE $FF, $FF, $F3, $F3	' XXXXXXXXXXXXXXXXXXXX__XXXXXX__XX
10987 F825   FF     	byte >ff,>ff,>f3,>f3
     F826 FFF3     
     F828 F3       
10988               	; 	DATA BYTE $80, $00, $00, $00	' X_______________________________
10989 F829   80     	byte >80,>00,>00,>00
     F82A 0000     
     F82C 00       
10990               	; 	DATA BYTE $80, $00, $00, $00	' X_______________________________
10991 F82D   80     	byte >80,>00,>00,>00
     F82E 0000     
     F830 00       
10992               	; 	DATA BYTE $81, $80, $03, $01	' X______XX_____________XX_______X
10993 F831   81     	byte >81,>80,>03,>01
     F832 8003     
     F834 01       
10994               	; 	DATA BYTE $80, $00, $00, $01	' X______________________________X
10995 F835   80     	byte >80,>00,>00,>01
     F836 0000     
     F838 01       
10996               	; 	DATA BYTE $FC, $FF, $FF, $CF	' XXXXXX__XXXXXXXXXXXXXXXXXX__XXXX
10997 F839   FC     	byte >fc,>ff,>ff,>cf
     F83A FFFF     
     F83C CF       
10998               	; rd21:	' --- 21 blue maze cross (all sides; twin N gaps, twin E doors) ---
10999               cvb_RD21
11000               	; 	DATA BYTE $F3, $FF, $FF, $3F	' XXXX__XXXXXXXXXXXXXXXXXX__XXXXXX
11001 F83D   F3     	byte >f3,>ff,>ff,>3f
     F83E FFFF     
     F840 3F       
11002               	; 	DATA BYTE $80, $00, $00, $01	' X______________________________X
11003 F841   80     	byte >80,>00,>00,>01
     F842 0000     
     F844 01       
11004               	; 	DATA BYTE $80, $00, $00, $01	' X______________________________X
11005 F845   80     	byte >80,>00,>00,>01
     F846 0000     
     F848 01       
11006               	; 	DATA BYTE $FF, $3F, $F3, $FF	' XXXXXXXX__XXXXXXXXXX__XXXXXXXXXX
11007 F849   FF     	byte >ff,>3f,>f3,>ff
     F84A 3FF3     
     F84C FF       
11008               	; 	DATA BYTE $80, $02, $00, $01	' X_____________X________________X
11009 F84D   80     	byte >80,>02,>00,>01
     F84E 0200     
     F850 01       
11010               	; 	DATA BYTE $80, $02, $00, $01	' X_____________X________________X
11011 F851   80     	byte >80,>02,>00,>01
     F852 0200     
     F854 01       
11012               	; 	DATA BYTE $CF, $FF, $FF, $CF	' XX__XXXXXXXXXXXXXXXXXXXXXX__XXXX
11013 F855   CF     	byte >cf,>ff,>ff,>cf
     F856 FFFF     
     F858 CF       
11014               	; 	DATA BYTE $80, $00, $00, $00	' X_______________________________
11015 F859   80     	byte >80,>00,>00,>00
     F85A 0000     
     F85C 00       
11016               	; 	DATA BYTE $80, $00, $00, $00	' X_______________________________
11017 F85D   80     	byte >80,>00,>00,>00
     F85E 0000     
     F860 00       
11018               	; 	DATA BYTE $FF, $F3, $FC, $FF	' XXXXXXXXXXXX__XXXXXXXX__XXXXXXXX
11019 F861   FF     	byte >ff,>f3,>fc,>ff
     F862 F3FC     
     F864 FF       
11020               	; 	DATA BYTE $00, $00, $00, $01	' _______________________________X
11021 F865   00     	byte >00,>00,>00,>01
     F866 0000     
     F868 01       
11022               	; 	DATA BYTE $00, $00, $00, $01	' _______________________________X
11023 F869   00     	byte >00,>00,>00,>01
     F86A 0000     
     F86C 01       
11024               	; 	DATA BYTE $F3, $FF, $FF, $F3	' XXXX__XXXXXXXXXXXXXXXXXXXXXX__XX
11025 F86D   F3     	byte >f3,>ff,>ff,>f3
     F86E FFFF     
     F870 F3       
11026               	; 	DATA BYTE $80, $00, $00, $01	' X______________________________X
11027 F871   80     	byte >80,>00,>00,>01
     F872 0000     
     F874 01       
11028               	; 	DATA BYTE $80, $00, $00, $01	' X______________________________X
11029 F875   80     	byte >80,>00,>00,>01
     F876 0000     
     F878 01       
11030               	; 	DATA BYTE $FF, $CF, $CF, $FF	' XXXXXXXXXX__XXXXXX__XXXXXXXXXXXX
11031 F879   FF     	byte >ff,>cf,>cf,>ff
     F87A CFCF     
     F87C FF       
11032               	; 	DATA BYTE $80, $00, $00, $00	' X_______________________________
11033 F87D   80     	byte >80,>00,>00,>00
     F87E 0000     
     F880 00       
11034               	; 	DATA BYTE $80, $00, $00, $00	' X_______________________________
11035 F881   80     	byte >80,>00,>00,>00
     F882 0000     
     F884 00       
11036               	; 	DATA BYTE $FC, $FF, $FF, $FF	' XXXXXX__XXXXXXXXXXXXXXXXXXXXXXXX
11037 F885   FC     	byte >fc,>ff,>ff,>ff
     F886 FFFF     
     F888 FF       
11038               	; 	DATA BYTE $80, $00, $00, $01	' X______________________________X
11039 F889   80     	byte >80,>00,>00,>01
     F88A 0000     
     F88C 01       
11040               	; 	DATA BYTE $80, $20, $08, $01	' X_________X_________X__________X
11041 F88D   80     	byte >80,>20,>08,>01
     F88E 2008     
     F890 01       
11042               	; 	DATA BYTE $80, $20, $08, $01	' X_________X_________X__________X
11043 F891   80     	byte >80,>20,>08,>01
     F892 2008     
     F894 01       
11044               	; 	DATA BYTE $80, $20, $08, $01	' X_________X_________X__________X
11045 F895   80     	byte >80,>20,>08,>01
     F896 2008     
     F898 01       
11046               	; 	DATA BYTE $FF, $FF, $CF, $FF	' XXXXXXXXXXXXXXXXXX__XXXXXXXXXXXX
11047 F899   FF     	byte >ff,>ff,>cf,>ff
     F89A FFCF     
     F89C FF       
11048               	; rd22:	' --- 22 blue maze W branch (N/E/S; twin N gaps, pockets) ---
11049               cvb_RD22
11050               	; 	DATA BYTE $FF, $3F, $FC, $FF	' XXXXXXXX__XXXXXXXXXXXX__XXXXXXXX
11051 F89D   FF     	byte >ff,>3f,>fc,>ff
     F89E 3FFC     
     F8A0 FF       
11052               	; 	DATA BYTE $80, $00, $00, $01	' X______________________________X
11053 F8A1   80     	byte >80,>00,>00,>01
     F8A2 0000     
     F8A4 01       
11054               	; 	DATA BYTE $80, $00, $00, $01	' X______________________________X
11055 F8A5   80     	byte >80,>00,>00,>01
     F8A6 0000     
     F8A8 01       
11056               	; 	DATA BYTE $F3, $FF, $FF, $CF	' XXXX__XXXXXXXXXXXXXXXXXXXX__XXXX
11057 F8A9   F3     	byte >f3,>ff,>ff,>cf
     F8AA FFFF     
     F8AC CF       
11058               	; 	DATA BYTE $80, $00, $00, $01	' X______________________________X
11059 F8AD   80     	byte >80,>00,>00,>01
     F8AE 0000     
     F8B0 01       
11060               	; 	DATA BYTE $80, $00, $00, $01	' X______________________________X
11061 F8B1   80     	byte >80,>00,>00,>01
     F8B2 0000     
     F8B4 01       
11062               	; 	DATA BYTE $FF, $CF, $FF, $FF	' XXXXXXXXXX__XXXXXXXXXXXXXXXXXXXX
11063 F8B5   FF     	byte >ff,>cf,>ff,>ff
     F8B6 CFFF     
     F8B8 FF       
11064               	; 	DATA BYTE $80, $00, $08, $01	' X___________________X__________X
11065 F8B9   80     	byte >80,>00,>08,>01
     F8BA 0008     
     F8BC 01       
11066               	; 	DATA BYTE $80, $00, $08, $01	' X___________________X__________X
11067 F8BD   80     	byte >80,>00,>08,>01
     F8BE 0008     
     F8C0 01       
11068               	; 	DATA BYTE $FF, $FC, $FF, $3F	' XXXXXXXXXXXXXX__XXXXXXXX__XXXXXX
11069 F8C1   FF     	byte >ff,>fc,>ff,>3f
     F8C2 FCFF     
     F8C4 3F       
11070               	; 	DATA BYTE $80, $00, $00, $00	' X_______________________________
11071 F8C5   80     	byte >80,>00,>00,>00
     F8C6 0000     
     F8C8 00       
11072               	; 	DATA BYTE $80, $00, $00, $00	' X_______________________________
11073 F8C9   80     	byte >80,>00,>00,>00
     F8CA 0000     
     F8CC 00       
11074               	; 	DATA BYTE $CF, $FF, $FF, $FF	' XX__XXXXXXXXXXXXXXXXXXXXXXXXXXXX
11075 F8CD   CF     	byte >cf,>ff,>ff,>ff
     F8CE FFFF     
     F8D0 FF       
11076               	; 	DATA BYTE $80, $00, $00, $01	' X______________________________X
11077 F8D1   80     	byte >80,>00,>00,>01
     F8D2 0000     
     F8D4 01       
11078               	; 	DATA BYTE $80, $00, $00, $01	' X______________________________X
11079 F8D5   80     	byte >80,>00,>00,>01
     F8D6 0000     
     F8D8 01       
11080               	; 	DATA BYTE $FF, $F3, $FF, $FF	' XXXXXXXXXXXX__XXXXXXXXXXXXXXXXXX
11081 F8D9   FF     	byte >ff,>f3,>ff,>ff
     F8DA F3FF     
     F8DC FF       
11082               	; 	DATA BYTE $80, $00, $02, $01	' X_____________________X________X
11083 F8DD   80     	byte >80,>00,>02,>01
     F8DE 0002     
     F8E0 01       
11084               	; 	DATA BYTE $80, $00, $02, $01	' X_____________________X________X
11085 F8E1   80     	byte >80,>00,>02,>01
     F8E2 0002     
     F8E4 01       
11086               	; 	DATA BYTE $FC, $FF, $FF, $CF	' XXXXXX__XXXXXXXXXXXXXXXXXX__XXXX
11087 F8E5   FC     	byte >fc,>ff,>ff,>cf
     F8E6 FFFF     
     F8E8 CF       
11088               	; 	DATA BYTE $80, $00, $00, $01	' X______________________________X
11089 F8E9   80     	byte >80,>00,>00,>01
     F8EA 0000     
     F8EC 01       
11090               	; 	DATA BYTE $80, $00, $00, $01	' X______________________________X
11091 F8ED   80     	byte >80,>00,>00,>01
     F8EE 0000     
     F8F0 01       
11092               	; 	DATA BYTE $80, $00, $00, $01	' X______________________________X
11093 F8F1   80     	byte >80,>00,>00,>01
     F8F2 0000     
     F8F4 01       
11094               	; 	DATA BYTE $80, $00, $00, $01	' X______________________________X
11095 F8F5   80     	byte >80,>00,>00,>01
     F8F6 0000     
     F8F8 01       
11096               	; 	DATA BYTE $FF, $F3, $FF, $FF	' XXXXXXXXXXXX__XXXXXXXXXXXXXXXXXX
11097 F8F9   FF     	byte >ff,>f3,>ff,>ff
     F8FA F3FF     
     F8FC FF       
11098               	; rd23:	' --- 23 blue maze top (all sides; N to the black castle) ---
11099               cvb_RD23
11100               	; 	DATA BYTE $F3, $FF, $FF, $3F	' XXXX__XXXXXXXXXXXXXXXXXX__XXXXXX
11101 F8FD   F3     	byte >f3,>ff,>ff,>3f
     F8FE FFFF     
     F900 3F       
11102               	; 	DATA BYTE $80, $00, $00, $01	' X______________________________X
11103 F901   80     	byte >80,>00,>00,>01
     F902 0000     
     F904 01       
11104               	; 	DATA BYTE $80, $00, $00, $01	' X______________________________X
11105 F905   80     	byte >80,>00,>00,>01
     F906 0000     
     F908 01       
11106               	; 	DATA BYTE $FF, $3F, $F3, $FF	' XXXXXXXX__XXXXXXXXXX__XXXXXXXXXX
11107 F909   FF     	byte >ff,>3f,>f3,>ff
     F90A 3FF3     
     F90C FF       
11108               	; 	DATA BYTE $80, $02, $00, $01	' X_____________X________________X
11109 F90D   80     	byte >80,>02,>00,>01
     F90E 0200     
     F910 01       
11110               	; 	DATA BYTE $80, $02, $00, $01	' X_____________X________________X
11111 F911   80     	byte >80,>02,>00,>01
     F912 0200     
     F914 01       
11112               	; 	DATA BYTE $CF, $FF, $FF, $CF	' XX__XXXXXXXXXXXXXXXXXXXXXX__XXXX
11113 F915   CF     	byte >cf,>ff,>ff,>cf
     F916 FFFF     
     F918 CF       
11114               	; 	DATA BYTE $80, $00, $00, $00	' X_______________________________
11115 F919   80     	byte >80,>00,>00,>00
     F91A 0000     
     F91C 00       
11116               	; 	DATA BYTE $80, $00, $00, $00	' X_______________________________
11117 F91D   80     	byte >80,>00,>00,>00
     F91E 0000     
     F920 00       
11118               	; 	DATA BYTE $FF, $F3, $FC, $FF	' XXXXXXXXXXXX__XXXXXXXX__XXXXXXXX
11119 F921   FF     	byte >ff,>f3,>fc,>ff
     F922 F3FC     
     F924 FF       
11120               	; 	DATA BYTE $00, $00, $00, $01	' _______________________________X
11121 F925   00     	byte >00,>00,>00,>01
     F926 0000     
     F928 01       
11122               	; 	DATA BYTE $00, $00, $00, $01	' _______________________________X
11123 F929   00     	byte >00,>00,>00,>01
     F92A 0000     
     F92C 01       
11124               	; 	DATA BYTE $F3, $FF, $FF, $F3	' XXXX__XXXXXXXXXXXXXXXXXXXXXX__XX
11125 F92D   F3     	byte >f3,>ff,>ff,>f3
     F92E FFFF     
     F930 F3       
11126               	; 	DATA BYTE $80, $00, $00, $01	' X______________________________X
11127 F931   80     	byte >80,>00,>00,>01
     F932 0000     
     F934 01       
11128               	; 	DATA BYTE $80, $00, $00, $01	' X______________________________X
11129 F935   80     	byte >80,>00,>00,>01
     F936 0000     
     F938 01       
11130               	; 	DATA BYTE $FF, $CF, $CF, $FF	' XXXXXXXXXX__XXXXXX__XXXXXXXXXXXX
11131 F939   FF     	byte >ff,>cf,>cf,>ff
     F93A CFCF     
     F93C FF       
11132               	; 	DATA BYTE $80, $00, $00, $00	' X_______________________________
11133 F93D   80     	byte >80,>00,>00,>00
     F93E 0000     
     F940 00       
11134               	; 	DATA BYTE $80, $00, $00, $00	' X_______________________________
11135 F941   80     	byte >80,>00,>00,>00
     F942 0000     
     F944 00       
11136               	; 	DATA BYTE $FC, $FF, $FF, $FF	' XXXXXX__XXXXXXXXXXXXXXXXXXXXXXXX
11137 F945   FC     	byte >fc,>ff,>ff,>ff
     F946 FFFF     
     F948 FF       
11138               	; 	DATA BYTE $80, $00, $00, $01	' X______________________________X
11139 F949   80     	byte >80,>00,>00,>01
     F94A 0000     
     F94C 01       
11140               	; 	DATA BYTE $80, $20, $08, $01	' X_________X_________X__________X
11141 F94D   80     	byte >80,>20,>08,>01
     F94E 2008     
     F950 01       
11142               	; 	DATA BYTE $80, $20, $08, $01	' X_________X_________X__________X
11143 F951   80     	byte >80,>20,>08,>01
     F952 2008     
     F954 01       
11144               	; 	DATA BYTE $80, $20, $08, $01	' X_________X_________X__________X
11145 F955   80     	byte >80,>20,>08,>01
     F956 2008     
     F958 01       
11146               	; 	DATA BYTE $FF, $FF, $CF, $FF	' XXXXXXXXXXXXXXXXXX__XXXXXXXXXXXX
11147 F959   FF     	byte >ff,>ff,>cf,>ff
     F95A FFCF     
     F95C FF       
11148               	; rd24:	' --- 24 BLACK castle grounds (S to the blue maze) ---
11149               cvb_RD24
11150               	; 	DATA BYTE $FF, $FF, $FF, $FF	' XXXXXXXXXXXXXXXXXXXXXXXXXXXXXXXX
11151 F95D   FF     	byte >ff,>ff,>ff,>ff
     F95E FFFF     
     F960 FF       
11152               	; 	DATA BYTE $80, $00, $00, $01	' X______________________________X
11153 F961   80     	byte >80,>00,>00,>01
     F962 0000     
     F964 01       
11154               	; 	DATA BYTE $9B, $6C, $36, $D9	' X__XX_XX_XX_XX____XX_XX_XX_XX__X
11155 F965   9B     	byte >9b,>6c,>36,>d9
     F966 6C36     
     F968 D9       
11156               	; 	DATA BYTE $9F, $FF, $FF, $F9	' X__XXXXXXXXXXXXXXXXXXXXXXXXXX__X
11157 F969   9F     	byte >9f,>ff,>ff,>f9
     F96A FFFF     
     F96C F9       
11158               	; 	DATA BYTE $9F, $FC, $3F, $F9	' X__XXXXXXXXXXX____XXXXXXXXXXX__X
11159 F96D   9F     	byte >9f,>fc,>3f,>f9
     F96E FC3F     
     F970 F9       
11160               	; 	DATA BYTE $9F, $FC, $3F, $F9	' X__XXXXXXXXXXX____XXXXXXXXXXX__X
11161 F971   9F     	byte >9f,>fc,>3f,>f9
     F972 FC3F     
     F974 F9       
11162               	; 	DATA BYTE $9F, $FC, $3F, $F9	' X__XXXXXXXXXXX____XXXXXXXXXXX__X
11163 F975   9F     	byte >9f,>fc,>3f,>f9
     F976 FC3F     
     F978 F9       
11164               	; 	DATA BYTE $9F, $FC, $3F, $F9	' X__XXXXXXXXXXX____XXXXXXXXXXX__X
11165 F979   9F     	byte >9f,>fc,>3f,>f9
     F97A FC3F     
     F97C F9       
11166               	; 	DATA BYTE $80, $00, $00, $01	' X______________________________X
11167 F97D   80     	byte >80,>00,>00,>01
     F97E 0000     
     F980 01       
11168               	; 	DATA BYTE $80, $00, $00, $01	' X______________________________X
11169 F981   80     	byte >80,>00,>00,>01
     F982 0000     
     F984 01       
11170               	; 	DATA BYTE $80, $00, $00, $01	' X______________________________X
11171 F985   80     	byte >80,>00,>00,>01
     F986 0000     
     F988 01       
11172               	; 	DATA BYTE $80, $00, $00, $01	' X______________________________X
11173 F989   80     	byte >80,>00,>00,>01
     F98A 0000     
     F98C 01       
11174               	; 	DATA BYTE $80, $00, $00, $01	' X______________________________X
11175 F98D   80     	byte >80,>00,>00,>01
     F98E 0000     
     F990 01       
11176               	; 	DATA BYTE $80, $00, $00, $01	' X______________________________X
11177 F991   80     	byte >80,>00,>00,>01
     F992 0000     
     F994 01       
11178               	; 	DATA BYTE $80, $00, $00, $01	' X______________________________X
11179 F995   80     	byte >80,>00,>00,>01
     F996 0000     
     F998 01       
11180               	; 	DATA BYTE $80, $00, $00, $01	' X______________________________X
11181 F999   80     	byte >80,>00,>00,>01
     F99A 0000     
     F99C 01       
11182               	; 	DATA BYTE $80, $00, $00, $01	' X______________________________X
11183 F99D   80     	byte >80,>00,>00,>01
     F99E 0000     
     F9A0 01       
11184               	; 	DATA BYTE $80, $00, $00, $01	' X______________________________X
11185 F9A1   80     	byte >80,>00,>00,>01
     F9A2 0000     
     F9A4 01       
11186               	; 	DATA BYTE $80, $00, $00, $01	' X______________________________X
11187 F9A5   80     	byte >80,>00,>00,>01
     F9A6 0000     
     F9A8 01       
11188               	; 	DATA BYTE $80, $00, $00, $01	' X______________________________X
11189 F9A9   80     	byte >80,>00,>00,>01
     F9AA 0000     
     F9AC 01       
11190               	; 	DATA BYTE $80, $00, $00, $01	' X______________________________X
11191 F9AD   80     	byte >80,>00,>00,>01
     F9AE 0000     
     F9B0 01       
11192               	; 	DATA BYTE $80, $00, $00, $01	' X______________________________X
11193 F9B1   80     	byte >80,>00,>00,>01
     F9B2 0000     
     F9B4 01       
11194               	; 	DATA BYTE $FF, $FC, $3F, $FF	' XXXXXXXXXXXXXX____XXXXXXXXXXXXXX
11195 F9B5   FF     	byte >ff,>fc,>3f,>ff
     F9B6 FC3F     
     F9B8 FF       
11196               	; 	DATA BYTE $FF, $FC, $3F, $FF	' XXXXXXXXXXXXXX____XXXXXXXXXXXXXX
11197 F9B9   FF     	byte >ff,>fc,>3f,>ff
     F9BA FC3F     
     F9BC FF       
11198               	; rd25:	' --- 25 black castle hall (E to the dark maze) ---
11199               cvb_RD25
11200               	; 	DATA BYTE $FF, $FF, $FF, $FF	' XXXXXXXXXXXXXXXXXXXXXXXXXXXXXXXX
11201 F9BD   FF     	byte >ff,>ff,>ff,>ff
     F9BE FFFF     
     F9C0 FF       
11202               	; 	DATA BYTE $80, $00, $00, $01	' X______________________________X
11203 F9C1   80     	byte >80,>00,>00,>01
     F9C2 0000     
     F9C4 01       
11204               	; 	DATA BYTE $80, $00, $00, $01	' X______________________________X
11205 F9C5   80     	byte >80,>00,>00,>01
     F9C6 0000     
     F9C8 01       
11206               	; 	DATA BYTE $80, $00, $00, $01	' X______________________________X
11207 F9C9   80     	byte >80,>00,>00,>01
     F9CA 0000     
     F9CC 01       
11208               	; 	DATA BYTE $80, $00, $00, $01	' X______________________________X
11209 F9CD   80     	byte >80,>00,>00,>01
     F9CE 0000     
     F9D0 01       
11210               	; 	DATA BYTE $80, $00, $00, $01	' X______________________________X
11211 F9D1   80     	byte >80,>00,>00,>01
     F9D2 0000     
     F9D4 01       
11212               	; 	DATA BYTE $80, $00, $00, $01	' X______________________________X
11213 F9D5   80     	byte >80,>00,>00,>01
     F9D6 0000     
     F9D8 01       
11214               	; 	DATA BYTE $80, $00, $00, $01	' X______________________________X
11215 F9D9   80     	byte >80,>00,>00,>01
     F9DA 0000     
     F9DC 01       
11216               	; 	DATA BYTE $83, $C0, $03, $C1	' X_____XXXX____________XXXX_____X
11217 F9DD   83     	byte >83,>c0,>03,>c1
     F9DE C003     
     F9E0 C1       
11218               	; 	DATA BYTE $83, $C0, $03, $C1	' X_____XXXX____________XXXX_____X
11219 F9E1   83     	byte >83,>c0,>03,>c1
     F9E2 C003     
     F9E4 C1       
11220               	; 	DATA BYTE $83, $C0, $03, $C0	' X_____XXXX____________XXXX______
11221 F9E5   83     	byte >83,>c0,>03,>c0
     F9E6 C003     
     F9E8 C0       
11222               	; 	DATA BYTE $83, $C0, $03, $C0	' X_____XXXX____________XXXX______
11223 F9E9   83     	byte >83,>c0,>03,>c0
     F9EA C003     
     F9EC C0       
11224               	; 	DATA BYTE $80, $00, $00, $00	' X_______________________________
11225 F9ED   80     	byte >80,>00,>00,>00
     F9EE 0000     
     F9F0 00       
11226               	; 	DATA BYTE $80, $00, $00, $00	' X_______________________________
11227 F9F1   80     	byte >80,>00,>00,>00
     F9F2 0000     
     F9F4 00       
11228               	; 	DATA BYTE $80, $00, $00, $01	' X______________________________X
11229 F9F5   80     	byte >80,>00,>00,>01
     F9F6 0000     
     F9F8 01       
11230               	; 	DATA BYTE $80, $00, $00, $01	' X______________________________X
11231 F9F9   80     	byte >80,>00,>00,>01
     F9FA 0000     
     F9FC 01       
11232               	; 	DATA BYTE $80, $00, $00, $01	' X______________________________X
11233 F9FD   80     	byte >80,>00,>00,>01
     F9FE 0000     
     FA00 01       
11234               	; 	DATA BYTE $80, $00, $00, $01	' X______________________________X
11235 FA01   80     	byte >80,>00,>00,>01
     FA02 0000     
     FA04 01       
11236               	; 	DATA BYTE $80, $00, $00, $01	' X______________________________X
11237 FA05   80     	byte >80,>00,>00,>01
     FA06 0000     
     FA08 01       
11238               	; 	DATA BYTE $80, $00, $00, $01	' X______________________________X
11239 FA09   80     	byte >80,>00,>00,>01
     FA0A 0000     
     FA0C 01       
11240               	; 	DATA BYTE $80, $00, $00, $01	' X______________________________X
11241 FA0D   80     	byte >80,>00,>00,>01
     FA0E 0000     
     FA10 01       
11242               	; 	DATA BYTE $80, $00, $00, $01	' X______________________________X
11243 FA11   80     	byte >80,>00,>00,>01
     FA12 0000     
     FA14 01       
11244               	; 	DATA BYTE $FF, $FC, $3F, $FF	' XXXXXXXXXXXXXX____XXXXXXXXXXXXXX
11245 FA15   FF     	byte >ff,>fc,>3f,>ff
     FA16 FC3F     
     FA18 FF       
11246               	; 	DATA BYTE $FF, $FC, $3F, $FF	' XXXXXXXXXXXXXX____XXXXXXXXXXXXXX
11247 FA19   FF     	byte >ff,>fc,>3f,>ff
     FA1A FC3F     
     FA1C FF       
11248               	; rd26:	' --- 26 black maze (dark; N/E/W) ---
11249               cvb_RD26
11250               	; 	DATA BYTE $FC, $FF, $FF, $F3	' XXXXXX__XXXXXXXXXXXXXXXXXXXX__XX
11251 FA1D   FC     	byte >fc,>ff,>ff,>f3
     FA1E FFFF     
     FA20 F3       
11252               	; 	DATA BYTE $80, $00, $00, $01	' X______________________________X
11253 FA21   80     	byte >80,>00,>00,>01
     FA22 0000     
     FA24 01       
11254               	; 	DATA BYTE $80, $00, $00, $01	' X______________________________X
11255 FA25   80     	byte >80,>00,>00,>01
     FA26 0000     
     FA28 01       
11256               	; 	DATA BYTE $FF, $F3, $F3, $FF	' XXXXXXXXXXXX__XXXXXX__XXXXXXXXXX
11257 FA29   FF     	byte >ff,>f3,>f3,>ff
     FA2A F3F3     
     FA2C FF       
11258               	; 	DATA BYTE $84, $00, $00, $01	' X____X_________________________X
11259 FA2D   84     	byte >84,>00,>00,>01
     FA2E 0000     
     FA30 01       
11260               	; 	DATA BYTE $84, $00, $00, $01	' X____X_________________________X
11261 FA31   84     	byte >84,>00,>00,>01
     FA32 0000     
     FA34 01       
11262               	; 	DATA BYTE $CF, $CF, $FF, $FF	' XX__XXXXXX__XXXXXXXXXXXXXXXXXXXX
11263 FA35   CF     	byte >cf,>cf,>ff,>ff
     FA36 CFFF     
     FA38 FF       
11264               	; 	DATA BYTE $80, $00, $00, $00	' X_______________________________
11265 FA39   80     	byte >80,>00,>00,>00
     FA3A 0000     
     FA3C 00       
11266               	; 	DATA BYTE $80, $00, $00, $00	' X_______________________________
11267 FA3D   80     	byte >80,>00,>00,>00
     FA3E 0000     
     FA40 00       
11268               	; 	DATA BYTE $FF, $FF, $FC, $FF	' XXXXXXXXXXXXXXXXXXXXXX__XXXXXXXX
11269 FA41   FF     	byte >ff,>ff,>fc,>ff
     FA42 FFFC     
     FA44 FF       
11270               	; 	DATA BYTE $00, $00, $00, $01	' _______________________________X
11271 FA45   00     	byte >00,>00,>00,>01
     FA46 0000     
     FA48 01       
11272               	; 	DATA BYTE $00, $00, $00, $01	' _______________________________X
11273 FA49   00     	byte >00,>00,>00,>01
     FA4A 0000     
     FA4C 01       
11274               	; 	DATA BYTE $FF, $3F, $FF, $FF	' XXXXXXXX__XXXXXXXXXXXXXXXXXXXXXX
11275 FA4D   FF     	byte >ff,>3f,>ff,>ff
     FA4E 3FFF     
     FA50 FF       
11276               	; 	DATA BYTE $80, $00, $00, $01	' X______________________________X
11277 FA51   80     	byte >80,>00,>00,>01
     FA52 0000     
     FA54 01       
11278               	; 	DATA BYTE $80, $10, $40, $01	' X__________X_____X_____________X
11279 FA55   80     	byte >80,>10,>40,>01
     FA56 1040     
     FA58 01       
11280               	; 	DATA BYTE $80, $10, $40, $01	' X__________X_____X_____________X
11281 FA59   80     	byte >80,>10,>40,>01
     FA5A 1040     
     FA5C 01       
11282               	; 	DATA BYTE $FF, $FC, $FF, $FF	' XXXXXXXXXXXXXX__XXXXXXXXXXXXXXXX
11283 FA5D   FF     	byte >ff,>fc,>ff,>ff
     FA5E FCFF     
     FA60 FF       
11284               	; 	DATA BYTE $80, $00, $00, $01	' X______________________________X
11285 FA61   80     	byte >80,>00,>00,>01
     FA62 0000     
     FA64 01       
11286               	; 	DATA BYTE $80, $00, $00, $01	' X______________________________X
11287 FA65   80     	byte >80,>00,>00,>01
     FA66 0000     
     FA68 01       
11288               	; 	DATA BYTE $F3, $FF, $FF, $CF	' XXXX__XXXXXXXXXXXXXXXXXXXX__XXXX
11289 FA69   F3     	byte >f3,>ff,>ff,>cf
     FA6A FFFF     
     FA6C CF       
11290               	; 	DATA BYTE $80, $00, $00, $01	' X______________________________X
11291 FA6D   80     	byte >80,>00,>00,>01
     FA6E 0000     
     FA70 01       
11292               	; 	DATA BYTE $80, $40, $01, $01	' X________X_____________X_______X
11293 FA71   80     	byte >80,>40,>01,>01
     FA72 4001     
     FA74 01       
11294               	; 	DATA BYTE $80, $40, $01, $01	' X________X_____________X_______X
11295 FA75   80     	byte >80,>40,>01,>01
     FA76 4001     
     FA78 01       
11296               	; 	DATA BYTE $FF, $FF, $FF, $FF	' XXXXXXXXXXXXXXXXXXXXXXXXXXXXXXXX
11297 FA79   FF     	byte >ff,>ff,>ff,>ff
     FA7A FFFF     
     FA7C FF       
11298               	; rd27:	' --- 27 black maze (dark; all sides) ---
11299               cvb_RD27
11300               	; 	DATA BYTE $FF, $CF, $FF, $FF	' XXXXXXXXXX__XXXXXXXXXXXXXXXXXXXX
11301 FA7D   FF     	byte >ff,>cf,>ff,>ff
     FA7E CFFF     
     FA80 FF       
11302               	; 	DATA BYTE $80, $00, $00, $01	' X______________________________X
11303 FA81   80     	byte >80,>00,>00,>01
     FA82 0000     
     FA84 01       
11304               	; 	DATA BYTE $80, $00, $00, $01	' X______________________________X
11305 FA85   80     	byte >80,>00,>00,>01
     FA86 0000     
     FA88 01       
11306               	; 	DATA BYTE $FC, $FF, $FF, $3F	' XXXXXX__XXXXXXXXXXXXXXXX__XXXXXX
11307 FA89   FC     	byte >fc,>ff,>ff,>3f
     FA8A FFFF     
     FA8C 3F       
11308               	; 	DATA BYTE $00, $00, $00, $01	' _______________________________X
11309 FA8D   00     	byte >00,>00,>00,>01
     FA8E 0000     
     FA90 01       
11310               	; 	DATA BYTE $00, $00, $00, $01	' _______________________________X
11311 FA91   00     	byte >00,>00,>00,>01
     FA92 0000     
     FA94 01       
11312               	; 	DATA BYTE $FF, $FC, $FF, $FF	' XXXXXXXXXXXXXX__XXXXXXXXXXXXXXXX
11313 FA95   FF     	byte >ff,>fc,>ff,>ff
     FA96 FCFF     
     FA98 FF       
11314               	; 	DATA BYTE $80, $00, $00, $09	' X___________________________X__X
11315 FA99   80     	byte >80,>00,>00,>09
     FA9A 0000     
     FA9C 09       
11316               	; 	DATA BYTE $80, $00, $00, $09	' X___________________________X__X
11317 FA9D   80     	byte >80,>00,>00,>09
     FA9E 0000     
     FAA0 09       
11318               	; 	DATA BYTE $CF, $FF, $FF, $F3	' XX__XXXXXXXXXXXXXXXXXXXXXXXX__XX
11319 FAA1   CF     	byte >cf,>ff,>ff,>f3
     FAA2 FFFF     
     FAA4 F3       
11320               	; 	DATA BYTE $80, $00, $00, $01	' X______________________________X
11321 FAA5   80     	byte >80,>00,>00,>01
     FAA6 0000     
     FAA8 01       
11322               	; 	DATA BYTE $81, $00, $00, $81	' X______X________________X______X
11323 FAA9   81     	byte >81,>00,>00,>81
     FAAA 0000     
     FAAC 81       
11324               	; 	DATA BYTE $FF, $F3, $F3, $FF	' XXXXXXXXXXXX__XXXXXX__XXXXXXXXXX
11325 FAAD   FF     	byte >ff,>f3,>f3,>ff
     FAAE F3F3     
     FAB0 FF       
11326               	; 	DATA BYTE $00, $00, $00, $01	' _______________________________X
11327 FAB1   00     	byte >00,>00,>00,>01
     FAB2 0000     
     FAB4 01       
11328               	; 	DATA BYTE $00, $00, $00, $01	' _______________________________X
11329 FAB5   00     	byte >00,>00,>00,>01
     FAB6 0000     
     FAB8 01       
11330               	; 	DATA BYTE $F3, $FF, $FF, $FF	' XXXX__XXXXXXXXXXXXXXXXXXXXXXXXXX
11331 FAB9   F3     	byte >f3,>ff,>ff,>ff
     FABA FFFF     
     FABC FF       
11332               	; 	DATA BYTE $80, $00, $00, $21	' X_________________________X____X
11333 FABD   80     	byte >80,>00,>00,>21
     FABE 0000     
     FAC0 21       
11334               	; 	DATA BYTE $80, $00, $00, $21	' X_________________________X____X
11335 FAC1   80     	byte >80,>00,>00,>21
     FAC2 0000     
     FAC4 21       
11336               	; 	DATA BYTE $FF, $FF, $F3, $F3	' XXXXXXXXXXXXXXXXXXXX__XXXXXX__XX
11337 FAC5   FF     	byte >ff,>ff,>f3,>f3
     FAC6 FFF3     
     FAC8 F3       
11338               	; 	DATA BYTE $80, $00, $00, $00	' X_______________________________
11339 FAC9   80     	byte >80,>00,>00,>00
     FACA 0000     
     FACC 00       
11340               	; 	DATA BYTE $80, $00, $00, $00	' X_______________________________
11341 FACD   80     	byte >80,>00,>00,>00
     FACE 0000     
     FAD0 00       
11342               	; 	DATA BYTE $81, $80, $03, $01	' X______XX_____________XX_______X
11343 FAD1   81     	byte >81,>80,>03,>01
     FAD2 8003     
     FAD4 01       
11344               	; 	DATA BYTE $80, $00, $00, $01	' X______________________________X
11345 FAD5   80     	byte >80,>00,>00,>01
     FAD6 0000     
     FAD8 01       
11346               	; 	DATA BYTE $FC, $FF, $FF, $CF	' XXXXXX__XXXXXXXXXXXXXXXXXX__XXXX
11347 FAD9   FC     	byte >fc,>ff,>ff,>cf
     FADA FFFF     
     FADC CF       
11348               	; rd28:	' --- 28 black maze end: sealed DOT chamber (dark; S/W) ---
11349               cvb_RD28
11350               	; 	DATA BYTE $FF, $FF, $FF, $FF	' XXXXXXXXXXXXXXXXXXXXXXXXXXXXXXXX
11351 FADD   FF     	byte >ff,>ff,>ff,>ff
     FADE FFFF     
     FAE0 FF       
11352               	; 	DATA BYTE $80, $00, $00, $01	' X______________________________X
11353 FAE1   80     	byte >80,>00,>00,>01
     FAE2 0000     
     FAE4 01       
11354               	; 	DATA BYTE $80, $00, $0F, $F1	' X___________________XXXXXXXX___X
11355 FAE5   80     	byte >80,>00,>0f,>f1
     FAE6 000F     
     FAE8 F1       
11356               	; 	DATA BYTE $80, $00, $08, $11	' X___________________X______X___X
11357 FAE9   80     	byte >80,>00,>08,>11
     FAEA 0008     
     FAEC 11       
11358               	; 	DATA BYTE $90, $00, $08, $11	' X__X________________X______X___X
11359 FAED   90     	byte >90,>00,>08,>11
     FAEE 0008     
     FAF0 11       
11360               	; 	DATA BYTE $90, $00, $08, $11	' X__X________________X______X___X
11361 FAF1   90     	byte >90,>00,>08,>11
     FAF2 0008     
     FAF4 11       
11362               	; 	DATA BYTE $90, $00, $08, $11	' X__X________________X______X___X
11363 FAF5   90     	byte >90,>00,>08,>11
     FAF6 0008     
     FAF8 11       
11364               	; 	DATA BYTE $80, $00, $0F, $F1	' X___________________XXXXXXXX___X
11365 FAF9   80     	byte >80,>00,>0f,>f1
     FAFA 000F     
     FAFC F1       
11366               	; 	DATA BYTE $80, $00, $00, $01	' X______________________________X
11367 FAFD   80     	byte >80,>00,>00,>01
     FAFE 0000     
     FB00 01       
11368               	; 	DATA BYTE $FF, $3F, $F3, $FF	' XXXXXXXX__XXXXXXXXXX__XXXXXXXXXX
11369 FB01   FF     	byte >ff,>3f,>f3,>ff
     FB02 3FF3     
     FB04 FF       
11370               	; 	DATA BYTE $00, $00, $00, $01	' _______________________________X
11371 FB05   00     	byte >00,>00,>00,>01
     FB06 0000     
     FB08 01       
11372               	; 	DATA BYTE $00, $00, $00, $01	' _______________________________X
11373 FB09   00     	byte >00,>00,>00,>01
     FB0A 0000     
     FB0C 01       
11374               	; 	DATA BYTE $FF, $FC, $FF, $3F	' XXXXXXXXXXXXXX__XXXXXXXX__XXXXXX
11375 FB0D   FF     	byte >ff,>fc,>ff,>3f
     FB0E FCFF     
     FB10 3F       
11376               	; 	DATA BYTE $80, $00, $00, $01	' X______________________________X
11377 FB11   80     	byte >80,>00,>00,>01
     FB12 0000     
     FB14 01       
11378               	; 	DATA BYTE $82, $00, $00, $41	' X_____X__________________X_____X
11379 FB15   82     	byte >82,>00,>00,>41
     FB16 0000     
     FB18 41       
11380               	; 	DATA BYTE $82, $00, $00, $41	' X_____X__________________X_____X
11381 FB19   82     	byte >82,>00,>00,>41
     FB1A 0000     
     FB1C 41       
11382               	; 	DATA BYTE $F3, $FF, $FF, $CF	' XXXX__XXXXXXXXXXXXXXXXXXXX__XXXX
11383 FB1D   F3     	byte >f3,>ff,>ff,>cf
     FB1E FFFF     
     FB20 CF       
11384               	; 	DATA BYTE $80, $00, $00, $01	' X______________________________X
11385 FB21   80     	byte >80,>00,>00,>01
     FB22 0000     
     FB24 01       
11386               	; 	DATA BYTE $80, $00, $00, $01	' X______________________________X
11387 FB25   80     	byte >80,>00,>00,>01
     FB26 0000     
     FB28 01       
11388               	; 	DATA BYTE $FF, $F3, $FF, $3F	' XXXXXXXXXXXX__XXXXXXXXXX__XXXXXX
11389 FB29   FF     	byte >ff,>f3,>ff,>3f
     FB2A F3FF     
     FB2C 3F       
11390               	; 	DATA BYTE $80, $00, $02, $01	' X_____________________X________X
11391 FB2D   80     	byte >80,>00,>02,>01
     FB2E 0002     
     FB30 01       
11392               	; 	DATA BYTE $80, $00, $02, $01	' X_____________________X________X
11393 FB31   80     	byte >80,>00,>02,>01
     FB32 0002     
     FB34 01       
11394               	; 	DATA BYTE $80, $00, $02, $01	' X_____________________X________X
11395 FB35   80     	byte >80,>00,>02,>01
     FB36 0002     
     FB38 01       
11396               	; 	DATA BYTE $FC, $FF, $FF, $FF	' XXXXXX__XXXXXXXXXXXXXXXXXXXXXXXX
11397 FB39   FC     	byte >fc,>ff,>ff,>ff
     FB3A FFFF     
     FB3C FF       
11398               	; rd29:	' --- 29 catacombs (dark; all sides) ---
11399               cvb_RD29
11400               	; 	DATA BYTE $F3, $FF, $FF, $3F	' XXXX__XXXXXXXXXXXXXXXXXX__XXXXXX
11401 FB3D   F3     	byte >f3,>ff,>ff,>3f
     FB3E FFFF     
     FB40 3F       
11402               	; 	DATA BYTE $80, $00, $00, $01	' X______________________________X
11403 FB41   80     	byte >80,>00,>00,>01
     FB42 0000     
     FB44 01       
11404               	; 	DATA BYTE $80, $00, $00, $01	' X______________________________X
11405 FB45   80     	byte >80,>00,>00,>01
     FB46 0000     
     FB48 01       
11406               	; 	DATA BYTE $FF, $3F, $F3, $FF	' XXXXXXXX__XXXXXXXXXX__XXXXXXXXXX
11407 FB49   FF     	byte >ff,>3f,>f3,>ff
     FB4A 3FF3     
     FB4C FF       
11408               	; 	DATA BYTE $80, $02, $00, $01	' X_____________X________________X
11409 FB4D   80     	byte >80,>02,>00,>01
     FB4E 0200     
     FB50 01       
11410               	; 	DATA BYTE $80, $02, $00, $01	' X_____________X________________X
11411 FB51   80     	byte >80,>02,>00,>01
     FB52 0200     
     FB54 01       
11412               	; 	DATA BYTE $CF, $FF, $FF, $CF	' XX__XXXXXXXXXXXXXXXXXXXXXX__XXXX
11413 FB55   CF     	byte >cf,>ff,>ff,>cf
     FB56 FFFF     
     FB58 CF       
11414               	; 	DATA BYTE $80, $00, $00, $00	' X_______________________________
11415 FB59   80     	byte >80,>00,>00,>00
     FB5A 0000     
     FB5C 00       
11416               	; 	DATA BYTE $80, $00, $00, $00	' X_______________________________
11417 FB5D   80     	byte >80,>00,>00,>00
     FB5E 0000     
     FB60 00       
11418               	; 	DATA BYTE $FF, $F3, $FC, $FF	' XXXXXXXXXXXX__XXXXXXXX__XXXXXXXX
11419 FB61   FF     	byte >ff,>f3,>fc,>ff
     FB62 F3FC     
     FB64 FF       
11420               	; 	DATA BYTE $00, $00, $00, $01	' _______________________________X
11421 FB65   00     	byte >00,>00,>00,>01
     FB66 0000     
     FB68 01       
11422               	; 	DATA BYTE $00, $00, $00, $01	' _______________________________X
11423 FB69   00     	byte >00,>00,>00,>01
     FB6A 0000     
     FB6C 01       
11424               	; 	DATA BYTE $F3, $FF, $FF, $F3	' XXXX__XXXXXXXXXXXXXXXXXXXXXX__XX
11425 FB6D   F3     	byte >f3,>ff,>ff,>f3
     FB6E FFFF     
     FB70 F3       
11426               	; 	DATA BYTE $80, $00, $00, $01	' X______________________________X
11427 FB71   80     	byte >80,>00,>00,>01
     FB72 0000     
     FB74 01       
11428               	; 	DATA BYTE $80, $00, $00, $01	' X______________________________X
11429 FB75   80     	byte >80,>00,>00,>01
     FB76 0000     
     FB78 01       
11430               	; 	DATA BYTE $FF, $CF, $CF, $FF	' XXXXXXXXXX__XXXXXX__XXXXXXXXXXXX
11431 FB79   FF     	byte >ff,>cf,>cf,>ff
     FB7A CFCF     
     FB7C FF       
11432               	; 	DATA BYTE $80, $00, $00, $00	' X_______________________________
11433 FB7D   80     	byte >80,>00,>00,>00
     FB7E 0000     
     FB80 00       
11434               	; 	DATA BYTE $80, $00, $00, $00	' X_______________________________
11435 FB81   80     	byte >80,>00,>00,>00
     FB82 0000     
     FB84 00       
11436               	; 	DATA BYTE $FC, $FF, $FF, $FF	' XXXXXX__XXXXXXXXXXXXXXXXXXXXXXXX
11437 FB85   FC     	byte >fc,>ff,>ff,>ff
     FB86 FFFF     
     FB88 FF       
11438               	; 	DATA BYTE $80, $00, $00, $01	' X______________________________X
11439 FB89   80     	byte >80,>00,>00,>01
     FB8A 0000     
     FB8C 01       
11440               	; 	DATA BYTE $80, $20, $08, $01	' X_________X_________X__________X
11441 FB8D   80     	byte >80,>20,>08,>01
     FB8E 2008     
     FB90 01       
11442               	; 	DATA BYTE $80, $20, $08, $01	' X_________X_________X__________X
11443 FB91   80     	byte >80,>20,>08,>01
     FB92 2008     
     FB94 01       
11444               	; 	DATA BYTE $80, $20, $08, $01	' X_________X_________X__________X
11445 FB95   80     	byte >80,>20,>08,>01
     FB96 2008     
     FB98 01       
11446               	; 	DATA BYTE $FF, $FF, $CF, $FF	' XXXXXXXXXXXXXXXXXX__XXXXXXXXXXXX
11447 FB99   FF     	byte >ff,>ff,>cf,>ff
     FB9A FFCF     
     FB9C FF       
11448               	; rd30:	' --- 30 catacombs (dark; all sides) ---
11449               cvb_RD30
11450               	; 	DATA BYTE $FF, $CF, $FF, $FF	' XXXXXXXXXX__XXXXXXXXXXXXXXXXXXXX
11451 FB9D   FF     	byte >ff,>cf,>ff,>ff
     FB9E CFFF     
     FBA0 FF       
11452               	; 	DATA BYTE $80, $00, $00, $01	' X______________________________X
11453 FBA1   80     	byte >80,>00,>00,>01
     FBA2 0000     
     FBA4 01       
11454               	; 	DATA BYTE $80, $00, $00, $01	' X______________________________X
11455 FBA5   80     	byte >80,>00,>00,>01
     FBA6 0000     
     FBA8 01       
11456               	; 	DATA BYTE $FC, $FF, $FF, $3F	' XXXXXX__XXXXXXXXXXXXXXXX__XXXXXX
11457 FBA9   FC     	byte >fc,>ff,>ff,>3f
     FBAA FFFF     
     FBAC 3F       
11458               	; 	DATA BYTE $00, $00, $00, $01	' _______________________________X
11459 FBAD   00     	byte >00,>00,>00,>01
     FBAE 0000     
     FBB0 01       
11460               	; 	DATA BYTE $00, $00, $00, $01	' _______________________________X
11461 FBB1   00     	byte >00,>00,>00,>01
     FBB2 0000     
     FBB4 01       
11462               	; 	DATA BYTE $FF, $FC, $FF, $FF	' XXXXXXXXXXXXXX__XXXXXXXXXXXXXXXX
11463 FBB5   FF     	byte >ff,>fc,>ff,>ff
     FBB6 FCFF     
     FBB8 FF       
11464               	; 	DATA BYTE $80, $00, $00, $09	' X___________________________X__X
11465 FBB9   80     	byte >80,>00,>00,>09
     FBBA 0000     
     FBBC 09       
11466               	; 	DATA BYTE $80, $00, $00, $09	' X___________________________X__X
11467 FBBD   80     	byte >80,>00,>00,>09
     FBBE 0000     
     FBC0 09       
11468               	; 	DATA BYTE $CF, $FF, $FF, $F3	' XX__XXXXXXXXXXXXXXXXXXXXXXXX__XX
11469 FBC1   CF     	byte >cf,>ff,>ff,>f3
     FBC2 FFFF     
     FBC4 F3       
11470               	; 	DATA BYTE $80, $00, $00, $01	' X______________________________X
11471 FBC5   80     	byte >80,>00,>00,>01
     FBC6 0000     
     FBC8 01       
11472               	; 	DATA BYTE $81, $00, $00, $81	' X______X________________X______X
11473 FBC9   81     	byte >81,>00,>00,>81
     FBCA 0000     
     FBCC 81       
11474               	; 	DATA BYTE $FF, $F3, $F3, $FF	' XXXXXXXXXXXX__XXXXXX__XXXXXXXXXX
11475 FBCD   FF     	byte >ff,>f3,>f3,>ff
     FBCE F3F3     
     FBD0 FF       
11476               	; 	DATA BYTE $00, $00, $00, $01	' _______________________________X
11477 FBD1   00     	byte >00,>00,>00,>01
     FBD2 0000     
     FBD4 01       
11478               	; 	DATA BYTE $00, $00, $00, $01	' _______________________________X
11479 FBD5   00     	byte >00,>00,>00,>01
     FBD6 0000     
     FBD8 01       
11480               	; 	DATA BYTE $F3, $FF, $FF, $FF	' XXXX__XXXXXXXXXXXXXXXXXXXXXXXXXX
11481 FBD9   F3     	byte >f3,>ff,>ff,>ff
     FBDA FFFF     
     FBDC FF       
11482               	; 	DATA BYTE $80, $00, $00, $21	' X_________________________X____X
11483 FBDD   80     	byte >80,>00,>00,>21
     FBDE 0000     
     FBE0 21       
11484               	; 	DATA BYTE $80, $00, $00, $21	' X_________________________X____X
11485 FBE1   80     	byte >80,>00,>00,>21
     FBE2 0000     
     FBE4 21       
11486               	; 	DATA BYTE $FF, $FF, $F3, $F3	' XXXXXXXXXXXXXXXXXXXX__XXXXXX__XX
11487 FBE5   FF     	byte >ff,>ff,>f3,>f3
     FBE6 FFF3     
     FBE8 F3       
11488               	; 	DATA BYTE $80, $00, $00, $00	' X_______________________________
11489 FBE9   80     	byte >80,>00,>00,>00
     FBEA 0000     
     FBEC 00       
11490               	; 	DATA BYTE $80, $00, $00, $00	' X_______________________________
11491 FBED   80     	byte >80,>00,>00,>00
     FBEE 0000     
     FBF0 00       
11492               	; 	DATA BYTE $81, $80, $03, $01	' X______XX_____________XX_______X
11493 FBF1   81     	byte >81,>80,>03,>01
     FBF2 8003     
     FBF4 01       
11494               	; 	DATA BYTE $80, $00, $00, $01	' X______________________________X
11495 FBF5   80     	byte >80,>00,>00,>01
     FBF6 0000     
     FBF8 01       
11496               	; 	DATA BYTE $FC, $FF, $FF, $CF	' XXXXXX__XXXXXXXXXXXXXXXXXX__XXXX
11497 FBF9   FC     	byte >fc,>ff,>ff,>cf
     FBFA FFFF     
     FBFC CF       
11498               	; rd31:	' --- 31 catacombs south (dark; W white castle, E side rooms) ---
11499               cvb_RD31
11500               	; 	DATA BYTE $FC, $FF, $FF, $F3	' XXXXXX__XXXXXXXXXXXXXXXXXXXX__XX
11501 FBFD   FC     	byte >fc,>ff,>ff,>f3
     FBFE FFFF     
     FC00 F3       
11502               	; 	DATA BYTE $80, $00, $00, $01	' X______________________________X
11503 FC01   80     	byte >80,>00,>00,>01
     FC02 0000     
     FC04 01       
11504               	; 	DATA BYTE $80, $00, $00, $01	' X______________________________X
11505 FC05   80     	byte >80,>00,>00,>01
     FC06 0000     
     FC08 01       
11506               	; 	DATA BYTE $FF, $F3, $F3, $FF	' XXXXXXXXXXXX__XXXXXX__XXXXXXXXXX
11507 FC09   FF     	byte >ff,>f3,>f3,>ff
     FC0A F3F3     
     FC0C FF       
11508               	; 	DATA BYTE $84, $00, $00, $01	' X____X_________________________X
11509 FC0D   84     	byte >84,>00,>00,>01
     FC0E 0000     
     FC10 01       
11510               	; 	DATA BYTE $84, $00, $00, $01	' X____X_________________________X
11511 FC11   84     	byte >84,>00,>00,>01
     FC12 0000     
     FC14 01       
11512               	; 	DATA BYTE $CF, $CF, $FF, $FF	' XX__XXXXXX__XXXXXXXXXXXXXXXXXXXX
11513 FC15   CF     	byte >cf,>cf,>ff,>ff
     FC16 CFFF     
     FC18 FF       
11514               	; 	DATA BYTE $80, $00, $00, $00	' X_______________________________
11515 FC19   80     	byte >80,>00,>00,>00
     FC1A 0000     
     FC1C 00       
11516               	; 	DATA BYTE $80, $00, $00, $00	' X_______________________________
11517 FC1D   80     	byte >80,>00,>00,>00
     FC1E 0000     
     FC20 00       
11518               	; 	DATA BYTE $FF, $FF, $FC, $FF	' XXXXXXXXXXXXXXXXXXXXXX__XXXXXXXX
11519 FC21   FF     	byte >ff,>ff,>fc,>ff
     FC22 FFFC     
     FC24 FF       
11520               	; 	DATA BYTE $00, $00, $00, $01	' _______________________________X
11521 FC25   00     	byte >00,>00,>00,>01
     FC26 0000     
     FC28 01       
11522               	; 	DATA BYTE $00, $00, $00, $01	' _______________________________X
11523 FC29   00     	byte >00,>00,>00,>01
     FC2A 0000     
     FC2C 01       
11524               	; 	DATA BYTE $FF, $3F, $FF, $FF	' XXXXXXXX__XXXXXXXXXXXXXXXXXXXXXX
11525 FC2D   FF     	byte >ff,>3f,>ff,>ff
     FC2E 3FFF     
     FC30 FF       
11526               	; 	DATA BYTE $80, $00, $00, $01	' X______________________________X
11527 FC31   80     	byte >80,>00,>00,>01
     FC32 0000     
     FC34 01       
11528               	; 	DATA BYTE $80, $10, $40, $01	' X__________X_____X_____________X
11529 FC35   80     	byte >80,>10,>40,>01
     FC36 1040     
     FC38 01       
11530               	; 	DATA BYTE $80, $10, $40, $01	' X__________X_____X_____________X
11531 FC39   80     	byte >80,>10,>40,>01
     FC3A 1040     
     FC3C 01       
11532               	; 	DATA BYTE $FF, $FC, $FF, $FF	' XXXXXXXXXXXXXX__XXXXXXXXXXXXXXXX
11533 FC3D   FF     	byte >ff,>fc,>ff,>ff
     FC3E FCFF     
     FC40 FF       
11534               	; 	DATA BYTE $80, $00, $00, $01	' X______________________________X
11535 FC41   80     	byte >80,>00,>00,>01
     FC42 0000     
     FC44 01       
11536               	; 	DATA BYTE $80, $00, $00, $01	' X______________________________X
11537 FC45   80     	byte >80,>00,>00,>01
     FC46 0000     
     FC48 01       
11538               	; 	DATA BYTE $F3, $FF, $FF, $CF	' XXXX__XXXXXXXXXXXXXXXXXXXX__XXXX
11539 FC49   F3     	byte >f3,>ff,>ff,>cf
     FC4A FFFF     
     FC4C CF       
11540               	; 	DATA BYTE $80, $00, $00, $01	' X______________________________X
11541 FC4D   80     	byte >80,>00,>00,>01
     FC4E 0000     
     FC50 01       
11542               	; 	DATA BYTE $80, $40, $01, $01	' X________X_____________X_______X
11543 FC51   80     	byte >80,>40,>01,>01
     FC52 4001     
     FC54 01       
11544               	; 	DATA BYTE $80, $40, $01, $01	' X________X_____________X_______X
11545 FC55   80     	byte >80,>40,>01,>01
     FC56 4001     
     FC58 01       
11546               	; 	DATA BYTE $FF, $FF, $FF, $FF	' XXXXXXXXXXXXXXXXXXXXXXXXXXXXXXXX
11547 FC59   FF     	byte >ff,>ff,>ff,>ff
     FC5A FFFF     
     FC5C FF       
11548               	; rd32:	' --- 32 white castle grounds (E to catacombs) ---
11549               cvb_RD32
11550               	; 	DATA BYTE $FF, $FF, $FF, $FF	' XXXXXXXXXXXXXXXXXXXXXXXXXXXXXXXX
11551 FC5D   FF     	byte >ff,>ff,>ff,>ff
     FC5E FFFF     
     FC60 FF       
11552               	; 	DATA BYTE $80, $00, $00, $01	' X______________________________X
11553 FC61   80     	byte >80,>00,>00,>01
     FC62 0000     
     FC64 01       
11554               	; 	DATA BYTE $9B, $6C, $36, $D9	' X__XX_XX_XX_XX____XX_XX_XX_XX__X
11555 FC65   9B     	byte >9b,>6c,>36,>d9
     FC66 6C36     
     FC68 D9       
11556               	; 	DATA BYTE $9F, $FF, $FF, $F9	' X__XXXXXXXXXXXXXXXXXXXXXXXXXX__X
11557 FC69   9F     	byte >9f,>ff,>ff,>f9
     FC6A FFFF     
     FC6C F9       
11558               	; 	DATA BYTE $9F, $FC, $3F, $F9	' X__XXXXXXXXXXX____XXXXXXXXXXX__X
11559 FC6D   9F     	byte >9f,>fc,>3f,>f9
     FC6E FC3F     
     FC70 F9       
11560               	; 	DATA BYTE $9F, $FC, $3F, $F9	' X__XXXXXXXXXXX____XXXXXXXXXXX__X
11561 FC71   9F     	byte >9f,>fc,>3f,>f9
     FC72 FC3F     
     FC74 F9       
11562               	; 	DATA BYTE $9F, $FC, $3F, $F9	' X__XXXXXXXXXXX____XXXXXXXXXXX__X
11563 FC75   9F     	byte >9f,>fc,>3f,>f9
     FC76 FC3F     
     FC78 F9       
11564               	; 	DATA BYTE $9F, $FC, $3F, $F9	' X__XXXXXXXXXXX____XXXXXXXXXXX__X
11565 FC79   9F     	byte >9f,>fc,>3f,>f9
     FC7A FC3F     
     FC7C F9       
11566               	; 	DATA BYTE $80, $00, $00, $01	' X______________________________X
11567 FC7D   80     	byte >80,>00,>00,>01
     FC7E 0000     
     FC80 01       
11568               	; 	DATA BYTE $80, $00, $00, $01	' X______________________________X
11569 FC81   80     	byte >80,>00,>00,>01
     FC82 0000     
     FC84 01       
11570               	; 	DATA BYTE $80, $00, $00, $00	' X_______________________________
11571 FC85   80     	byte >80,>00,>00,>00
     FC86 0000     
     FC88 00       
11572               	; 	DATA BYTE $80, $00, $00, $00	' X_______________________________
11573 FC89   80     	byte >80,>00,>00,>00
     FC8A 0000     
     FC8C 00       
11574               	; 	DATA BYTE $80, $00, $00, $00	' X_______________________________
11575 FC8D   80     	byte >80,>00,>00,>00
     FC8E 0000     
     FC90 00       
11576               	; 	DATA BYTE $80, $00, $00, $00	' X_______________________________
11577 FC91   80     	byte >80,>00,>00,>00
     FC92 0000     
     FC94 00       
11578               	; 	DATA BYTE $80, $00, $00, $01	' X______________________________X
11579 FC95   80     	byte >80,>00,>00,>01
     FC96 0000     
     FC98 01       
11580               	; 	DATA BYTE $80, $00, $00, $01	' X______________________________X
11581 FC99   80     	byte >80,>00,>00,>01
     FC9A 0000     
     FC9C 01       
11582               	; 	DATA BYTE $80, $00, $00, $01	' X______________________________X
11583 FC9D   80     	byte >80,>00,>00,>01
     FC9E 0000     
     FCA0 01       
11584               	; 	DATA BYTE $80, $00, $00, $01	' X______________________________X
11585 FCA1   80     	byte >80,>00,>00,>01
     FCA2 0000     
     FCA4 01       
11586               	; 	DATA BYTE $80, $00, $00, $01	' X______________________________X
11587 FCA5   80     	byte >80,>00,>00,>01
     FCA6 0000     
     FCA8 01       
11588               	; 	DATA BYTE $80, $00, $00, $01	' X______________________________X
11589 FCA9   80     	byte >80,>00,>00,>01
     FCAA 0000     
     FCAC 01       
11590               	; 	DATA BYTE $80, $00, $00, $01	' X______________________________X
11591 FCAD   80     	byte >80,>00,>00,>01
     FCAE 0000     
     FCB0 01       
11592               	; 	DATA BYTE $80, $00, $00, $01	' X______________________________X
11593 FCB1   80     	byte >80,>00,>00,>01
     FCB2 0000     
     FCB4 01       
11594               	; 	DATA BYTE $FF, $FF, $FF, $FF	' XXXXXXXXXXXXXXXXXXXXXXXXXXXXXXXX
11595 FCB5   FF     	byte >ff,>ff,>ff,>ff
     FCB6 FFFF     
     FCB8 FF       
11596               	; 	DATA BYTE $FF, $FF, $FF, $FF	' XXXXXXXXXXXXXXXXXXXXXXXXXXXXXXXX
11597 FCB9   FF     	byte >ff,>ff,>ff,>ff
     FCBA FFFF     
     FCBC FF       
11598               	; rd33:	' --- 33 white castle hall (E to the red maze) ---
11599               cvb_RD33
11600               	; 	DATA BYTE $FF, $FF, $FF, $FF	' XXXXXXXXXXXXXXXXXXXXXXXXXXXXXXXX
11601 FCBD   FF     	byte >ff,>ff,>ff,>ff
     FCBE FFFF     
     FCC0 FF       
11602               	; 	DATA BYTE $80, $00, $00, $01	' X______________________________X
11603 FCC1   80     	byte >80,>00,>00,>01
     FCC2 0000     
     FCC4 01       
11604               	; 	DATA BYTE $80, $00, $00, $01	' X______________________________X
11605 FCC5   80     	byte >80,>00,>00,>01
     FCC6 0000     
     FCC8 01       
11606               	; 	DATA BYTE $80, $00, $00, $01	' X______________________________X
11607 FCC9   80     	byte >80,>00,>00,>01
     FCCA 0000     
     FCCC 01       
11608               	; 	DATA BYTE $80, $00, $00, $01	' X______________________________X
11609 FCCD   80     	byte >80,>00,>00,>01
     FCCE 0000     
     FCD0 01       
11610               	; 	DATA BYTE $80, $00, $00, $01	' X______________________________X
11611 FCD1   80     	byte >80,>00,>00,>01
     FCD2 0000     
     FCD4 01       
11612               	; 	DATA BYTE $80, $00, $00, $01	' X______________________________X
11613 FCD5   80     	byte >80,>00,>00,>01
     FCD6 0000     
     FCD8 01       
11614               	; 	DATA BYTE $80, $00, $00, $01	' X______________________________X
11615 FCD9   80     	byte >80,>00,>00,>01
     FCDA 0000     
     FCDC 01       
11616               	; 	DATA BYTE $83, $C0, $03, $C1	' X_____XXXX____________XXXX_____X
11617 FCDD   83     	byte >83,>c0,>03,>c1
     FCDE C003     
     FCE0 C1       
11618               	; 	DATA BYTE $83, $C0, $03, $C1	' X_____XXXX____________XXXX_____X
11619 FCE1   83     	byte >83,>c0,>03,>c1
     FCE2 C003     
     FCE4 C1       
11620               	; 	DATA BYTE $83, $C0, $03, $C0	' X_____XXXX____________XXXX______
11621 FCE5   83     	byte >83,>c0,>03,>c0
     FCE6 C003     
     FCE8 C0       
11622               	; 	DATA BYTE $83, $C0, $03, $C0	' X_____XXXX____________XXXX______
11623 FCE9   83     	byte >83,>c0,>03,>c0
     FCEA C003     
     FCEC C0       
11624               	; 	DATA BYTE $80, $00, $00, $00	' X_______________________________
11625 FCED   80     	byte >80,>00,>00,>00
     FCEE 0000     
     FCF0 00       
11626               	; 	DATA BYTE $80, $00, $00, $00	' X_______________________________
11627 FCF1   80     	byte >80,>00,>00,>00
     FCF2 0000     
     FCF4 00       
11628               	; 	DATA BYTE $80, $00, $00, $01	' X______________________________X
11629 FCF5   80     	byte >80,>00,>00,>01
     FCF6 0000     
     FCF8 01       
11630               	; 	DATA BYTE $80, $00, $00, $01	' X______________________________X
11631 FCF9   80     	byte >80,>00,>00,>01
     FCFA 0000     
     FCFC 01       
11632               	; 	DATA BYTE $80, $00, $00, $01	' X______________________________X
11633 FCFD   80     	byte >80,>00,>00,>01
     FCFE 0000     
     FD00 01       
11634               	; 	DATA BYTE $80, $00, $00, $01	' X______________________________X
11635 FD01   80     	byte >80,>00,>00,>01
     FD02 0000     
     FD04 01       
11636               	; 	DATA BYTE $80, $00, $00, $01	' X______________________________X
11637 FD05   80     	byte >80,>00,>00,>01
     FD06 0000     
     FD08 01       
11638               	; 	DATA BYTE $80, $00, $00, $01	' X______________________________X
11639 FD09   80     	byte >80,>00,>00,>01
     FD0A 0000     
     FD0C 01       
11640               	; 	DATA BYTE $80, $00, $00, $01	' X______________________________X
11641 FD0D   80     	byte >80,>00,>00,>01
     FD0E 0000     
     FD10 01       
11642               	; 	DATA BYTE $80, $00, $00, $01	' X______________________________X
11643 FD11   80     	byte >80,>00,>00,>01
     FD12 0000     
     FD14 01       
11644               	; 	DATA BYTE $FF, $FC, $3F, $FF	' XXXXXXXXXXXXXX____XXXXXXXXXXXXXX
11645 FD15   FF     	byte >ff,>fc,>3f,>ff
     FD16 FC3F     
     FD18 FF       
11646               	; 	DATA BYTE $FF, $FC, $3F, $FF	' XXXXXXXXXXXXXX____XXXXXXXXXXXXXX
11647 FD19   FF     	byte >ff,>fc,>3f,>ff
     FD1A FC3F     
     FD1C FF       
11648               	; rd34:	' --- 34 red maze (N/E/W) ---
11649               cvb_RD34
11650               	; 	DATA BYTE $FC, $FF, $FF, $F3	' XXXXXX__XXXXXXXXXXXXXXXXXXXX__XX
11651 FD1D   FC     	byte >fc,>ff,>ff,>f3
     FD1E FFFF     
     FD20 F3       
11652               	; 	DATA BYTE $80, $00, $00, $01	' X______________________________X
11653 FD21   80     	byte >80,>00,>00,>01
     FD22 0000     
     FD24 01       
11654               	; 	DATA BYTE $80, $00, $00, $01	' X______________________________X
11655 FD25   80     	byte >80,>00,>00,>01
     FD26 0000     
     FD28 01       
11656               	; 	DATA BYTE $FF, $F3, $F3, $FF	' XXXXXXXXXXXX__XXXXXX__XXXXXXXXXX
11657 FD29   FF     	byte >ff,>f3,>f3,>ff
     FD2A F3F3     
     FD2C FF       
11658               	; 	DATA BYTE $84, $00, $00, $01	' X____X_________________________X
11659 FD2D   84     	byte >84,>00,>00,>01
     FD2E 0000     
     FD30 01       
11660               	; 	DATA BYTE $84, $00, $00, $01	' X____X_________________________X
11661 FD31   84     	byte >84,>00,>00,>01
     FD32 0000     
     FD34 01       
11662               	; 	DATA BYTE $CF, $CF, $FF, $FF	' XX__XXXXXX__XXXXXXXXXXXXXXXXXXXX
11663 FD35   CF     	byte >cf,>cf,>ff,>ff
     FD36 CFFF     
     FD38 FF       
11664               	; 	DATA BYTE $80, $00, $00, $00	' X_______________________________
11665 FD39   80     	byte >80,>00,>00,>00
     FD3A 0000     
     FD3C 00       
11666               	; 	DATA BYTE $80, $00, $00, $00	' X_______________________________
11667 FD3D   80     	byte >80,>00,>00,>00
     FD3E 0000     
     FD40 00       
11668               	; 	DATA BYTE $FF, $FF, $FC, $FF	' XXXXXXXXXXXXXXXXXXXXXX__XXXXXXXX
11669 FD41   FF     	byte >ff,>ff,>fc,>ff
     FD42 FFFC     
     FD44 FF       
11670               	; 	DATA BYTE $00, $00, $00, $01	' _______________________________X
11671 FD45   00     	byte >00,>00,>00,>01
     FD46 0000     
     FD48 01       
11672               	; 	DATA BYTE $00, $00, $00, $01	' _______________________________X
11673 FD49   00     	byte >00,>00,>00,>01
     FD4A 0000     
     FD4C 01       
11674               	; 	DATA BYTE $FF, $3F, $FF, $FF	' XXXXXXXX__XXXXXXXXXXXXXXXXXXXXXX
11675 FD4D   FF     	byte >ff,>3f,>ff,>ff
     FD4E 3FFF     
     FD50 FF       
11676               	; 	DATA BYTE $80, $00, $00, $01	' X______________________________X
11677 FD51   80     	byte >80,>00,>00,>01
     FD52 0000     
     FD54 01       
11678               	; 	DATA BYTE $80, $10, $40, $01	' X__________X_____X_____________X
11679 FD55   80     	byte >80,>10,>40,>01
     FD56 1040     
     FD58 01       
11680               	; 	DATA BYTE $80, $10, $40, $01	' X__________X_____X_____________X
11681 FD59   80     	byte >80,>10,>40,>01
     FD5A 1040     
     FD5C 01       
11682               	; 	DATA BYTE $FF, $FC, $FF, $FF	' XXXXXXXXXXXXXX__XXXXXXXXXXXXXXXX
11683 FD5D   FF     	byte >ff,>fc,>ff,>ff
     FD5E FCFF     
     FD60 FF       
11684               	; 	DATA BYTE $80, $00, $00, $01	' X______________________________X
11685 FD61   80     	byte >80,>00,>00,>01
     FD62 0000     
     FD64 01       
11686               	; 	DATA BYTE $80, $00, $00, $01	' X______________________________X
11687 FD65   80     	byte >80,>00,>00,>01
     FD66 0000     
     FD68 01       
11688               	; 	DATA BYTE $F3, $FF, $FF, $CF	' XXXX__XXXXXXXXXXXXXXXXXXXX__XXXX
11689 FD69   F3     	byte >f3,>ff,>ff,>cf
     FD6A FFFF     
     FD6C CF       
11690               	; 	DATA BYTE $80, $00, $00, $01	' X______________________________X
11691 FD6D   80     	byte >80,>00,>00,>01
     FD6E 0000     
     FD70 01       
11692               	; 	DATA BYTE $80, $40, $01, $01	' X________X_____________X_______X
11693 FD71   80     	byte >80,>40,>01,>01
     FD72 4001     
     FD74 01       
11694               	; 	DATA BYTE $80, $40, $01, $01	' X________X_____________X_______X
11695 FD75   80     	byte >80,>40,>01,>01
     FD76 4001     
     FD78 01       
11696               	; 	DATA BYTE $FF, $FF, $FF, $FF	' XXXXXXXXXXXXXXXXXXXXXXXXXXXXXXXX
11697 FD79   FF     	byte >ff,>ff,>ff,>ff
     FD7A FFFF     
     FD7C FF       
11698               	; rd35:	' --- 35 red maze end: BLACK KEY sealed in a chamber (S/W) ---
11699               cvb_RD35
11700               	; 	DATA BYTE $FF, $FF, $FF, $FF	' XXXXXXXXXXXXXXXXXXXXXXXXXXXXXXXX
11701 FD7D   FF     	byte >ff,>ff,>ff,>ff
     FD7E FFFF     
     FD80 FF       
11702               	; 	DATA BYTE $80, $00, $00, $01	' X______________________________X
11703 FD81   80     	byte >80,>00,>00,>01
     FD82 0000     
     FD84 01       
11704               	; 	DATA BYTE $80, $00, $0F, $F1	' X___________________XXXXXXXX___X
11705 FD85   80     	byte >80,>00,>0f,>f1
     FD86 000F     
     FD88 F1       
11706               	; 	DATA BYTE $80, $00, $08, $11	' X___________________X______X___X
11707 FD89   80     	byte >80,>00,>08,>11
     FD8A 0008     
     FD8C 11       
11708               	; 	DATA BYTE $90, $00, $08, $11	' X__X________________X______X___X
11709 FD8D   90     	byte >90,>00,>08,>11
     FD8E 0008     
     FD90 11       
11710               	; 	DATA BYTE $90, $00, $08, $11	' X__X________________X______X___X
11711 FD91   90     	byte >90,>00,>08,>11
     FD92 0008     
     FD94 11       
11712               	; 	DATA BYTE $90, $00, $08, $11	' X__X________________X______X___X
11713 FD95   90     	byte >90,>00,>08,>11
     FD96 0008     
     FD98 11       
11714               	; 	DATA BYTE $80, $00, $0F, $F1	' X___________________XXXXXXXX___X
11715 FD99   80     	byte >80,>00,>0f,>f1
     FD9A 000F     
     FD9C F1       
11716               	; 	DATA BYTE $80, $00, $00, $01	' X______________________________X
11717 FD9D   80     	byte >80,>00,>00,>01
     FD9E 0000     
     FDA0 01       
11718               	; 	DATA BYTE $FF, $3F, $F3, $FF	' XXXXXXXX__XXXXXXXXXX__XXXXXXXXXX
11719 FDA1   FF     	byte >ff,>3f,>f3,>ff
     FDA2 3FF3     
     FDA4 FF       
11720               	; 	DATA BYTE $00, $00, $00, $01	' _______________________________X
11721 FDA5   00     	byte >00,>00,>00,>01
     FDA6 0000     
     FDA8 01       
11722               	; 	DATA BYTE $00, $00, $00, $01	' _______________________________X
11723 FDA9   00     	byte >00,>00,>00,>01
     FDAA 0000     
     FDAC 01       
11724               	; 	DATA BYTE $FF, $FC, $FF, $3F	' XXXXXXXXXXXXXX__XXXXXXXX__XXXXXX
11725 FDAD   FF     	byte >ff,>fc,>ff,>3f
     FDAE FCFF     
     FDB0 3F       
11726               	; 	DATA BYTE $80, $00, $00, $01	' X______________________________X
11727 FDB1   80     	byte >80,>00,>00,>01
     FDB2 0000     
     FDB4 01       
11728               	; 	DATA BYTE $82, $00, $00, $41	' X_____X__________________X_____X
11729 FDB5   82     	byte >82,>00,>00,>41
     FDB6 0000     
     FDB8 41       
11730               	; 	DATA BYTE $82, $00, $00, $41	' X_____X__________________X_____X
11731 FDB9   82     	byte >82,>00,>00,>41
     FDBA 0000     
     FDBC 41       
11732               	; 	DATA BYTE $F3, $FF, $FF, $CF	' XXXX__XXXXXXXXXXXXXXXXXXXX__XXXX
11733 FDBD   F3     	byte >f3,>ff,>ff,>cf
     FDBE FFFF     
     FDC0 CF       
11734               	; 	DATA BYTE $80, $00, $00, $01	' X______________________________X
11735 FDC1   80     	byte >80,>00,>00,>01
     FDC2 0000     
     FDC4 01       
11736               	; 	DATA BYTE $80, $00, $00, $01	' X______________________________X
11737 FDC5   80     	byte >80,>00,>00,>01
     FDC6 0000     
     FDC8 01       
11738               	; 	DATA BYTE $FF, $F3, $FF, $3F	' XXXXXXXXXXXX__XXXXXXXXXX__XXXXXX
11739 FDC9   FF     	byte >ff,>f3,>ff,>3f
     FDCA F3FF     
     FDCC 3F       
11740               	; 	DATA BYTE $80, $00, $02, $01	' X_____________________X________X
11741 FDCD   80     	byte >80,>00,>02,>01
     FDCE 0002     
     FDD0 01       
11742               	; 	DATA BYTE $80, $00, $02, $01	' X_____________________X________X
11743 FDD1   80     	byte >80,>00,>02,>01
     FDD2 0002     
     FDD4 01       
11744               	; 	DATA BYTE $80, $00, $02, $01	' X_____________________X________X
11745 FDD5   80     	byte >80,>00,>02,>01
     FDD6 0002     
     FDD8 01       
11746               	; 	DATA BYTE $FC, $FF, $FF, $FF	' XXXXXX__XXXXXXXXXXXXXXXXXXXXXXXX
11747 FDD9   FC     	byte >fc,>ff,>ff,>ff
     FDDA FFFF     
     FDDC FF       
11748               	; rd36:	' --- 36 purple side room ---
11749               cvb_RD36
11750               	; 	DATA BYTE $FF, $FF, $FF, $FF	' XXXXXXXXXXXXXXXXXXXXXXXXXXXXXXXX
11751 FDDD   FF     	byte >ff,>ff,>ff,>ff
     FDDE FFFF     
     FDE0 FF       
11752               	; 	DATA BYTE $80, $00, $00, $01	' X______________________________X
11753 FDE1   80     	byte >80,>00,>00,>01
     FDE2 0000     
     FDE4 01       
11754               	; 	DATA BYTE $80, $00, $00, $01	' X______________________________X
11755 FDE5   80     	byte >80,>00,>00,>01
     FDE6 0000     
     FDE8 01       
11756               	; 	DATA BYTE $80, $00, $00, $01	' X______________________________X
11757 FDE9   80     	byte >80,>00,>00,>01
     FDEA 0000     
     FDEC 01       
11758               	; 	DATA BYTE $80, $00, $00, $01	' X______________________________X
11759 FDED   80     	byte >80,>00,>00,>01
     FDEE 0000     
     FDF0 01       
11760               	; 	DATA BYTE $80, $00, $00, $01	' X______________________________X
11761 FDF1   80     	byte >80,>00,>00,>01
     FDF2 0000     
     FDF4 01       
11762               	; 	DATA BYTE $80, $00, $00, $01	' X______________________________X
11763 FDF5   80     	byte >80,>00,>00,>01
     FDF6 0000     
     FDF8 01       
11764               	; 	DATA BYTE $80, $00, $00, $01	' X______________________________X
11765 FDF9   80     	byte >80,>00,>00,>01
     FDFA 0000     
     FDFC 01       
11766               	; 	DATA BYTE $80, $00, $00, $01	' X______________________________X
11767 FDFD   80     	byte >80,>00,>00,>01
     FDFE 0000     
     FE00 01       
11768               	; 	DATA BYTE $80, $00, $00, $01	' X______________________________X
11769 FE01   80     	byte >80,>00,>00,>01
     FE02 0000     
     FE04 01       
11770               	; 	DATA BYTE $00, $00, $00, $01	' _______________________________X
11771 FE05   00     	byte >00,>00,>00,>01
     FE06 0000     
     FE08 01       
11772               	; 	DATA BYTE $00, $00, $00, $01	' _______________________________X
11773 FE09   00     	byte >00,>00,>00,>01
     FE0A 0000     
     FE0C 01       
11774               	; 	DATA BYTE $00, $00, $00, $01	' _______________________________X
11775 FE0D   00     	byte >00,>00,>00,>01
     FE0E 0000     
     FE10 01       
11776               	; 	DATA BYTE $00, $00, $00, $01	' _______________________________X
11777 FE11   00     	byte >00,>00,>00,>01
     FE12 0000     
     FE14 01       
11778               	; 	DATA BYTE $80, $00, $00, $01	' X______________________________X
11779 FE15   80     	byte >80,>00,>00,>01
     FE16 0000     
     FE18 01       
11780               	; 	DATA BYTE $80, $00, $00, $01	' X______________________________X
11781 FE19   80     	byte >80,>00,>00,>01
     FE1A 0000     
     FE1C 01       
11782               	; 	DATA BYTE $80, $00, $00, $01	' X______________________________X
11783 FE1D   80     	byte >80,>00,>00,>01
     FE1E 0000     
     FE20 01       
11784               	; 	DATA BYTE $80, $00, $00, $01	' X______________________________X
11785 FE21   80     	byte >80,>00,>00,>01
     FE22 0000     
     FE24 01       
11786               	; 	DATA BYTE $80, $00, $00, $01	' X______________________________X
11787 FE25   80     	byte >80,>00,>00,>01
     FE26 0000     
     FE28 01       
11788               	; 	DATA BYTE $80, $00, $00, $01	' X______________________________X
11789 FE29   80     	byte >80,>00,>00,>01
     FE2A 0000     
     FE2C 01       
11790               	; 	DATA BYTE $80, $00, $00, $01	' X______________________________X
11791 FE2D   80     	byte >80,>00,>00,>01
     FE2E 0000     
     FE30 01       
11792               	; 	DATA BYTE $80, $00, $00, $01	' X______________________________X
11793 FE31   80     	byte >80,>00,>00,>01
     FE32 0000     
     FE34 01       
11794               	; 	DATA BYTE $FF, $FC, $3F, $FF	' XXXXXXXXXXXXXX____XXXXXXXXXXXXXX
11795 FE35   FF     	byte >ff,>fc,>3f,>ff
     FE36 FC3F     
     FE38 FF       
11796               	; 	DATA BYTE $FF, $FC, $3F, $FF	' XXXXXXXXXXXXXX____XXXXXXXXXXXXXX
11797 FE39   FF     	byte >ff,>fc,>3f,>ff
     FE3A FC3F     
     FE3C FF       
11798               	; rd37:	' --- 37 cyan side room ---
11799               cvb_RD37
11800               	; 	DATA BYTE $FF, $FC, $3F, $FF	' XXXXXXXXXXXXXX____XXXXXXXXXXXXXX
11801 FE3D   FF     	byte >ff,>fc,>3f,>ff
     FE3E FC3F     
     FE40 FF       
11802               	; 	DATA BYTE $80, $00, $00, $01	' X______________________________X
11803 FE41   80     	byte >80,>00,>00,>01
     FE42 0000     
     FE44 01       
11804               	; 	DATA BYTE $80, $00, $00, $01	' X______________________________X
11805 FE45   80     	byte >80,>00,>00,>01
     FE46 0000     
     FE48 01       
11806               	; 	DATA BYTE $80, $00, $00, $01	' X______________________________X
11807 FE49   80     	byte >80,>00,>00,>01
     FE4A 0000     
     FE4C 01       
11808               	; 	DATA BYTE $80, $00, $00, $01	' X______________________________X
11809 FE4D   80     	byte >80,>00,>00,>01
     FE4E 0000     
     FE50 01       
11810               	; 	DATA BYTE $80, $00, $00, $01	' X______________________________X
11811 FE51   80     	byte >80,>00,>00,>01
     FE52 0000     
     FE54 01       
11812               	; 	DATA BYTE $80, $00, $00, $01	' X______________________________X
11813 FE55   80     	byte >80,>00,>00,>01
     FE56 0000     
     FE58 01       
11814               	; 	DATA BYTE $80, $00, $00, $01	' X______________________________X
11815 FE59   80     	byte >80,>00,>00,>01
     FE5A 0000     
     FE5C 01       
11816               	; 	DATA BYTE $83, $C0, $03, $C1	' X_____XXXX____________XXXX_____X
11817 FE5D   83     	byte >83,>c0,>03,>c1
     FE5E C003     
     FE60 C1       
11818               	; 	DATA BYTE $83, $C0, $03, $C1	' X_____XXXX____________XXXX_____X
11819 FE61   83     	byte >83,>c0,>03,>c1
     FE62 C003     
     FE64 C1       
11820               	; 	DATA BYTE $83, $C0, $03, $C1	' X_____XXXX____________XXXX_____X
11821 FE65   83     	byte >83,>c0,>03,>c1
     FE66 C003     
     FE68 C1       
11822               	; 	DATA BYTE $83, $C0, $03, $C1	' X_____XXXX____________XXXX_____X
11823 FE69   83     	byte >83,>c0,>03,>c1
     FE6A C003     
     FE6C C1       
11824               	; 	DATA BYTE $80, $00, $00, $01	' X______________________________X
11825 FE6D   80     	byte >80,>00,>00,>01
     FE6E 0000     
     FE70 01       
11826               	; 	DATA BYTE $80, $00, $00, $01	' X______________________________X
11827 FE71   80     	byte >80,>00,>00,>01
     FE72 0000     
     FE74 01       
11828               	; 	DATA BYTE $80, $00, $00, $01	' X______________________________X
11829 FE75   80     	byte >80,>00,>00,>01
     FE76 0000     
     FE78 01       
11830               	; 	DATA BYTE $80, $00, $00, $01	' X______________________________X
11831 FE79   80     	byte >80,>00,>00,>01
     FE7A 0000     
     FE7C 01       
11832               	; 	DATA BYTE $80, $00, $00, $01	' X______________________________X
11833 FE7D   80     	byte >80,>00,>00,>01
     FE7E 0000     
     FE80 01       
11834               	; 	DATA BYTE $80, $00, $00, $01	' X______________________________X
11835 FE81   80     	byte >80,>00,>00,>01
     FE82 0000     
     FE84 01       
11836               	; 	DATA BYTE $80, $00, $00, $01	' X______________________________X
11837 FE85   80     	byte >80,>00,>00,>01
     FE86 0000     
     FE88 01       
11838               	; 	DATA BYTE $80, $00, $00, $01	' X______________________________X
11839 FE89   80     	byte >80,>00,>00,>01
     FE8A 0000     
     FE8C 01       
11840               	; 	DATA BYTE $80, $00, $00, $01	' X______________________________X
11841 FE8D   80     	byte >80,>00,>00,>01
     FE8E 0000     
     FE90 01       
11842               	; 	DATA BYTE $80, $00, $00, $01	' X______________________________X
11843 FE91   80     	byte >80,>00,>00,>01
     FE92 0000     
     FE94 01       
11844               	; 	DATA BYTE $FF, $FC, $3F, $FF	' XXXXXXXXXXXXXX____XXXXXXXXXXXXXX
11845 FE95   FF     	byte >ff,>fc,>3f,>ff
     FE96 FC3F     
     FE98 FF       
11846               	; 	DATA BYTE $FF, $FC, $3F, $FF	' XXXXXXXXXXXXXX____XXXXXXXXXXXXXX
11847 FE99   FF     	byte >ff,>fc,>3f,>ff
     FE9A FC3F     
     FE9C FF       
11848               	; rd38:	' --- 38 rose side room ---
11849               cvb_RD38
11850               	; 	DATA BYTE $FF, $FC, $3F, $FF	' XXXXXXXXXXXXXX____XXXXXXXXXXXXXX
11851 FE9D   FF     	byte >ff,>fc,>3f,>ff
     FE9E FC3F     
     FEA0 FF       
11852               	; 	DATA BYTE $80, $00, $00, $01	' X______________________________X
11853 FEA1   80     	byte >80,>00,>00,>01
     FEA2 0000     
     FEA4 01       
11854               	; 	DATA BYTE $80, $00, $00, $01	' X______________________________X
11855 FEA5   80     	byte >80,>00,>00,>01
     FEA6 0000     
     FEA8 01       
11856               	; 	DATA BYTE $80, $00, $00, $01	' X______________________________X
11857 FEA9   80     	byte >80,>00,>00,>01
     FEAA 0000     
     FEAC 01       
11858               	; 	DATA BYTE $80, $00, $00, $01	' X______________________________X
11859 FEAD   80     	byte >80,>00,>00,>01
     FEAE 0000     
     FEB0 01       
11860               	; 	DATA BYTE $80, $00, $00, $01	' X______________________________X
11861 FEB1   80     	byte >80,>00,>00,>01
     FEB2 0000     
     FEB4 01       
11862               	; 	DATA BYTE $80, $00, $00, $01	' X______________________________X
11863 FEB5   80     	byte >80,>00,>00,>01
     FEB6 0000     
     FEB8 01       
11864               	; 	DATA BYTE $80, $00, $00, $01	' X______________________________X
11865 FEB9   80     	byte >80,>00,>00,>01
     FEBA 0000     
     FEBC 01       
11866               	; 	DATA BYTE $80, $00, $00, $01	' X______________________________X
11867 FEBD   80     	byte >80,>00,>00,>01
     FEBE 0000     
     FEC0 01       
11868               	; 	DATA BYTE $80, $00, $00, $01	' X______________________________X
11869 FEC1   80     	byte >80,>00,>00,>01
     FEC2 0000     
     FEC4 01       
11870               	; 	DATA BYTE $80, $00, $00, $01	' X______________________________X
11871 FEC5   80     	byte >80,>00,>00,>01
     FEC6 0000     
     FEC8 01       
11872               	; 	DATA BYTE $80, $00, $00, $01	' X______________________________X
11873 FEC9   80     	byte >80,>00,>00,>01
     FECA 0000     
     FECC 01       
11874               	; 	DATA BYTE $80, $00, $00, $01	' X______________________________X
11875 FECD   80     	byte >80,>00,>00,>01
     FECE 0000     
     FED0 01       
11876               	; 	DATA BYTE $80, $00, $00, $01	' X______________________________X
11877 FED1   80     	byte >80,>00,>00,>01
     FED2 0000     
     FED4 01       
11878               	; 	DATA BYTE $80, $3F, $FC, $01	' X_________XXXXXXXXXXXX_________X
11879 FED5   80     	byte >80,>3f,>fc,>01
     FED6 3FFC     
     FED8 01       
11880               	; 	DATA BYTE $80, $3F, $FC, $01	' X_________XXXXXXXXXXXX_________X
11881 FED9   80     	byte >80,>3f,>fc,>01
     FEDA 3FFC     
     FEDC 01       
11882               	; 	DATA BYTE $80, $3F, $FC, $01	' X_________XXXXXXXXXXXX_________X
11883 FEDD   80     	byte >80,>3f,>fc,>01
     FEDE 3FFC     
     FEE0 01       
11884               	; 	DATA BYTE $80, $3F, $FC, $01	' X_________XXXXXXXXXXXX_________X
11885 FEE1   80     	byte >80,>3f,>fc,>01
     FEE2 3FFC     
     FEE4 01       
11886               	; 	DATA BYTE $80, $00, $00, $01	' X______________________________X
11887 FEE5   80     	byte >80,>00,>00,>01
     FEE6 0000     
     FEE8 01       
11888               	; 	DATA BYTE $80, $00, $00, $01	' X______________________________X
11889 FEE9   80     	byte >80,>00,>00,>01
     FEEA 0000     
     FEEC 01       
11890               	; 	DATA BYTE $80, $00, $00, $01	' X______________________________X
11891 FEED   80     	byte >80,>00,>00,>01
     FEEE 0000     
     FEF0 01       
11892               	; 	DATA BYTE $80, $00, $00, $01	' X______________________________X
11893 FEF1   80     	byte >80,>00,>00,>01
     FEF2 0000     
     FEF4 01       
11894               	; 	DATA BYTE $FF, $FF, $FF, $FF	' XXXXXXXXXXXXXXXXXXXXXXXXXXXXXXXX
11895 FEF5   FF     	byte >ff,>ff,>ff,>ff
     FEF6 FFFF     
     FEF8 FF       
11896               	; 	DATA BYTE $FF, $FF, $FF, $FF	' XXXXXXXXXXXXXXXXXXXXXXXXXXXXXXXX
11897 FEF9   FF     	byte >ff,>ff,>ff,>ff
     FEFA FFFF     
     FEFC FF       
11898               	;
11899               	; 	' ------------------------------------------------------------
11900               	; 	' characters 128 (solid wall) and 129 (portcullis)
11901               	; 	' ------------------------------------------------------------
11902               	; wallchar:
11903               cvb_WALLCHAR
11904               	; 	BITMAP "XXXXXXXX"
11905               	; 	BITMAP "XXXXXXXX"
11906               	; 	BITMAP "XXXXXXXX"
11907               	; 	BITMAP "XXXXXXXX"
11908               	; 	BITMAP "XXXXXXXX"
11909               	; 	BITMAP "XXXXXXXX"
11910               	; 	BITMAP "XXXXXXXX"
11911               	; 	BITMAP "XXXXXXXX"
11912 FEFD   FF     	byte >ff,>ff,>ff,>ff,>ff,>ff,>ff,>ff
     FEFE FFFF     
     FF00 FFFF     
     FF02 FFFF     
     FF04 FF       
11913               	; 	BITMAP "XXXXXXXX"
11914               	; 	BITMAP "X_X_X_X_"
11915               	; 	BITMAP "X_X_X_X_"
11916               	; 	BITMAP "XXXXXXXX"
11917               	; 	BITMAP "X_X_X_X_"
11918               	; 	BITMAP "X_X_X_X_"
11919               	; 	BITMAP "XXXXXXXX"
11920               	; 	BITMAP "X_X_X_X_"
11921 FF05   FF     	byte >ff,>aa,>aa,>ff,>aa,>aa,>ff,>aa
     FF06 AAAA     
     FF08 FFAA     
     FF0A AAFF     
     FF0C AA       
11922               	;
11923               	; wallcol:
11924               cvb_WALLCOL
11925               	; 	DATA BYTE $B1, $B1, $B1, $B1, $B1, $B1, $B1, $B1
11926 FF0D   B1     	byte >b1,>b1,>b1,>b1,>b1,>b1,>b1,>b1
     FF0E B1B1     
     FF10 B1B1     
     FF12 B1B1     
     FF14 B1       
11927               	; 	DATA BYTE $E1, $E1, $E1, $E1, $E1, $E1, $E1, $E1
11928 FF15   E1     	byte >e1,>e1,>e1,>e1,>e1,>e1,>e1,>e1
     FF16 E1E1     
     FF18 E1E1     
     FF1A E1E1     
     FF1C E1       
11929               	;
11930               	; 	' ------------------------------------------------------------
11931               	; 	' sprites (16x16 art, shown 32x32 = 4x4 characters):
11932               	; 	' 0 player (kept 8x8 on screen), 1 dragon top half (head/
11933               	; 	' neck), 2 dragon bottom half (body/legs) - together 32x64,
11934               	; 	' 3 slain dragon, 4 key, 5 sword, 6 chalice, 7 bridge,
11935               	; 	' 8 bat A, 9 bat B, 10 bridge channel fill, 11 magnet, 12 dot
11936               	; 	' ------------------------------------------------------------
11937               	; gsprites:
11938               cvb_GSPRITES
11939               	; 	BITMAP "XXXX____________"
11940               	; 	BITMAP "XXXX____________"
11941               	; 	BITMAP "XXXX____________"
11942               	; 	BITMAP "XXXX____________"
11943               	; 	BITMAP "________________"
11944               	; 	BITMAP "________________"
11945               	; 	BITMAP "________________"
11946               	; 	BITMAP "________________"
11947               	; 	BITMAP "________________"
11948               	; 	BITMAP "________________"
11949               	; 	BITMAP "________________"
11950               	; 	BITMAP "________________"
11951               	; 	BITMAP "________________"
11952               	; 	BITMAP "________________"
11953               	; 	BITMAP "________________"
11954               	; 	BITMAP "________________"
11955 FF1D   F0     	byte >f0,>f0,>f0,>f0,>00,>00,>00,>00
     FF1E F0F0     
     FF20 F000     
     FF22 0000     
     FF24 00       
11956 FF25   00     	byte >00,>00,>00,>00,>00,>00,>00,>00
     FF26 0000     
     FF28 0000     
     FF2A 0000     
     FF2C 00       
11957 FF2D   00     	byte >00,>00,>00,>00,>00,>00,>00,>00
     FF2E 0000     
     FF30 0000     
     FF32 0000     
     FF34 00       
11958 FF35   00     	byte >00,>00,>00,>00,>00,>00,>00,>00
     FF36 0000     
     FF38 0000     
     FF3A 0000     
     FF3C 00       
11959               	;
11960               	; 	BITMAP "_____XXX________"
11961               	; 	BITMAP "____XXXXX_______"
11962               	; 	BITMAP "____XX_XX_______"
11963               	; 	BITMAP "____XXXXX_______"
11964               	; 	BITMAP "____XXX_________"
11965               	; 	BITMAP "_____XX_________"
11966               	; 	BITMAP "_____XX_________"
11967               	; 	BITMAP "_____XXX________"
11968               	; 	BITMAP "_____XXX________"
11969               	; 	BITMAP "____XXXX____X___"
11970               	; 	BITMAP "____XXXX___XX___"
11971               	; 	BITMAP "___XXXXX__XXX___"
11972               	; 	BITMAP "___XXXXXX_XX____"
11973               	; 	BITMAP "__XXXXXXXXXX____"
11974               	; 	BITMAP "__XXXXXXXXXX____"
11975               	; 	BITMAP "_XXXXXXXXXXX____"
11976 FF3D   07     	byte >07,>0f,>0d,>0f,>0e,>06,>06,>07
     FF3E 0F0D     
     FF40 0F0E     
     FF42 0606     
     FF44 07       
11977 FF45   07     	byte >07,>0f,>0f,>1f,>1f,>3f,>3f,>7f
     FF46 0F0F     
     FF48 1F1F     
     FF4A 3F3F     
     FF4C 7F       
11978 FF4D   00     	byte >00,>80,>80,>80,>00,>00,>00,>00
     FF4E 8080     
     FF50 8000     
     FF52 0000     
     FF54 00       
11979 FF55   00     	byte >00,>08,>18,>38,>b0,>f0,>f0,>f0
     FF56 0818     
     FF58 38B0     
     FF5A F0F0     
     FF5C F0       
11980               	;
11981               	; 	BITMAP "_XXXXXXXXXX_____"
11982               	; 	BITMAP "XXXXXXXXXXX_____"
11983               	; 	BITMAP "XX_XXXXXXXX_____"
11984               	; 	BITMAP "X__XXXXXXX______"
11985               	; 	BITMAP "___XXXXXXX______"
11986               	; 	BITMAP "___XXXXXXX______"
11987               	; 	BITMAP "__XXXXXXXX______"
11988               	; 	BITMAP "__XXX__XXXX_____"
11989               	; 	BITMAP "__XX____XX______"
11990               	; 	BITMAP "__XX____XX______"
11991               	; 	BITMAP "__XX____XX______"
11992               	; 	BITMAP "_XXX____XXX_____"
11993               	; 	BITMAP "_XX______XX_____"
11994               	; 	BITMAP "XXX______XXX____"
11995               	; 	BITMAP "________________"
11996               	; 	BITMAP "________________"
11997 FF5D   7F     	byte >7f,>ff,>df,>9f,>1f,>1f,>3f,>39
     FF5E FFDF     
     FF60 9F1F     
     FF62 1F3F     
     FF64 39       
11998 FF65   30     	byte >30,>30,>30,>70,>60,>e0,>00,>00
     FF66 3030     
     FF68 7060     
     FF6A E000     
     FF6C 00       
11999 FF6D   E0     	byte >e0,>e0,>e0,>c0,>c0,>c0,>c0,>e0
     FF6E E0E0     
     FF70 C0C0     
     FF72 C0C0     
     FF74 E0       
12000 FF75   C0     	byte >c0,>c0,>c0,>e0,>60,>70,>00,>00
     FF76 C0C0     
     FF78 E060     
     FF7A 7000     
     FF7C 00       
12001               	;
12002               	; 	BITMAP "________________"
12003               	; 	BITMAP "________________"
12004               	; 	BITMAP "________________"
12005               	; 	BITMAP "________________"
12006               	; 	BITMAP "________________"
12007               	; 	BITMAP "________________"
12008               	; 	BITMAP "________________"
12009               	; 	BITMAP "________________"
12010               	; 	BITMAP "________________"
12011               	; 	BITMAP "________________"
12012               	; 	BITMAP "__XX___XX___XX__"
12013               	; 	BITMAP "__XX___XX___XX__"
12014               	; 	BITMAP "__X____X_____X__"
12015               	; 	BITMAP "_XXXXXXXXXXXXXX_"
12016               	; 	BITMAP "XXXXXXXXXXXXXXXX"
12017               	; 	BITMAP "XX_XXXXXXXXXX_XX"
12018 FF7D   00     	byte >00,>00,>00,>00,>00,>00,>00,>00
     FF7E 0000     
     FF80 0000     
     FF82 0000     
     FF84 00       
12019 FF85   00     	byte >00,>00,>31,>31,>21,>7f,>ff,>df
     FF86 0031     
     FF88 3121     
     FF8A 7FFF     
     FF8C DF       
12020 FF8D   00     	byte >00,>00,>00,>00,>00,>00,>00,>00
     FF8E 0000     
     FF90 0000     
     FF92 0000     
     FF94 00       
12021 FF95   00     	byte >00,>00,>8c,>8c,>04,>fe,>ff,>fb
     FF96 008C     
     FF98 8C04     
     FF9A FEFF     
     FF9C FB       
12022               	;
12023               	; 	BITMAP "________________"
12024               	; 	BITMAP "________________"
12025               	; 	BITMAP "_XX_____________"
12026               	; 	BITMAP "X_XXXXXX________"
12027               	; 	BITMAP "_XX__X_X________"
12028               	; 	BITMAP "________________"
12029               	; 	BITMAP "________________"
12030               	; 	BITMAP "________________"
12031               	; 	BITMAP "________________"
12032               	; 	BITMAP "________________"
12033               	; 	BITMAP "________________"
12034               	; 	BITMAP "________________"
12035               	; 	BITMAP "________________"
12036               	; 	BITMAP "________________"
12037               	; 	BITMAP "________________"
12038               	; 	BITMAP "________________"
12039 FF9D   00     	byte >00,>00,>60,>bf,>65,>00,>00,>00
     FF9E 0060     
     FFA0 BF65     
     FFA2 0000     
     FFA4 00       
12040 FFA5   00     	byte >00,>00,>00,>00,>00,>00,>00,>00
     FFA6 0000     
     FFA8 0000     
     FFAA 0000     
     FFAC 00       
12041 FFAD   00     	byte >00,>00,>00,>00,>00,>00,>00,>00
     FFAE 0000     
     FFB0 0000     
     FFB2 0000     
     FFB4 00       
12042 FFB5   00     	byte >00,>00,>00,>00,>00,>00,>00,>00
     FFB6 0000     
     FFB8 0000     
     FFBA 0000     
     FFBC 00       
12043               	;
12044               	; 	BITMAP "________________"
12045               	; 	BITMAP "________________"
12046               	; 	BITMAP "__X_____________"
12047               	; 	BITMAP "XXXXXXXXXXXX____"
12048               	; 	BITMAP "__X_____________"
12049               	; 	BITMAP "________________"
12050               	; 	BITMAP "________________"
12051               	; 	BITMAP "________________"
12052               	; 	BITMAP "________________"
12053               	; 	BITMAP "________________"
12054               	; 	BITMAP "________________"
12055               	; 	BITMAP "________________"
12056               	; 	BITMAP "________________"
12057               	; 	BITMAP "________________"
12058               	; 	BITMAP "________________"
12059               	; 	BITMAP "________________"
12060 FFBD   00     	byte >00,>00,>20,>ff,>20,>00,>00,>00
     FFBE 0020     
     FFC0 FF20     
     FFC2 0000     
     FFC4 00       
12061 FFC5   00     	byte >00,>00,>00,>00,>00,>00,>00,>00
     FFC6 0000     
     FFC8 0000     
     FFCA 0000     
     FFCC 00       
12062 FFCD   00     	byte >00,>00,>00,>f0,>00,>00,>00,>00
     FFCE 0000     
     FFD0 F000     
     FFD2 0000     
     FFD4 00       
12063 FFD5   00     	byte >00,>00,>00,>00,>00,>00,>00,>00
     FFD6 0000     
     FFD8 0000     
     FFDA 0000     
     FFDC 00       
12064               	;
12065               	; 	BITMAP "_XX__________XX_"
12066               	; 	BITMAP "_XX__________XX_"
12067               	; 	BITMAP "_XX__________XX_"
12068               	; 	BITMAP "_XX__________XX_"
12069               	; 	BITMAP "___XX______XX___"
12070               	; 	BITMAP "___XX______XX___"
12071               	; 	BITMAP "_____XXXXXX_____"
12072               	; 	BITMAP "_____XXXXXX_____"
12073               	; 	BITMAP "_______XX_______"
12074               	; 	BITMAP "_______XX_______"
12075               	; 	BITMAP "_______XX_______"
12076               	; 	BITMAP "_______XX_______"
12077               	; 	BITMAP "___XXXXXXXXXX___"
12078               	; 	BITMAP "___XXXXXXXXXX___"
12079               	; 	BITMAP "________________"
12080               	; 	BITMAP "________________"
12081 FFDD   60     	byte >60,>60,>60,>60,>18,>18,>07,>07
     FFDE 6060     
     FFE0 6018     
     FFE2 1807     
     FFE4 07       
12082 FFE5   01     	byte >01,>01,>01,>01,>1f,>1f,>00,>00
     FFE6 0101     
     FFE8 011F     
     FFEA 1F00     
     FFEC 00       
12083 FFED   06     	byte >06,>06,>06,>06,>18,>18,>e0,>e0
     FFEE 0606     
     FFF0 0618     
     FFF2 18E0     
     FFF4 E0       
12084 FFF5   80     	byte >80,>80,>80,>80,>f8,>f8,>00,>00
     FFF6 8080     
     FFF8 80F8     
     FFFA F800     
     FFFC 00       
12085               	;
12086               	; 	BITMAP "XXX__________XXX"
12087               	; 	BITMAP "XX____________XX"
12088               	; 	BITMAP "XX____________XX"
12089               	; 	BITMAP "XX____________XX"
12090               	; 	BITMAP "XX____________XX"
12091               	; 	BITMAP "XX____________XX"
12092               	; 	BITMAP "XX____________XX"
12093               	; 	BITMAP "XX____________XX"
12094               	; 	BITMAP "XX____________XX"
12095               	; 	BITMAP "XX____________XX"
12096               	; 	BITMAP "XX____________XX"
12097               	; 	BITMAP "XX____________XX"
12098               	; 	BITMAP "XX____________XX"
12099               	; 	BITMAP "XX____________XX"
12100               	; 	BITMAP "XX____________XX"
12101               	; 	BITMAP "XXX__________XXX"
12102 FFFD   E0     	byte >e0,>c0,>c0,>c0,>c0,>c0,>c0,>c0
     FFFE C0C0     
     10000 C0C0     
     10002 C0C0     
     10004 C0       
12103 10005   C0     	byte >c0,>c0,>c0,>c0,>c0,>c0,>c0,>e0
     10006 C0C0     
     10008 C0C0     
     1000A C0C0     
     1000C E0       
12104 1000D   07     	byte >07,>03,>03,>03,>03,>03,>03,>03
     1000E 0303     
     10010 0303     
     10012 0303     
     10014 03       
12105 10015   03     	byte >03,>03,>03,>03,>03,>03,>03,>07
     10016 0303     
     10018 0303     
     1001A 0303     
     1001C 07       
12106               	;
12107               	; 	BITMAP "________________"
12108               	; 	BITMAP "________________"
12109               	; 	BITMAP "X______XX______X"
12110               	; 	BITMAP "XX_____XX_____XX"
12111               	; 	BITMAP "_XXX__XXXX__XXX_"
12112               	; 	BITMAP "__XXXXXXXXXXXX__"
12113               	; 	BITMAP "____XX_XX_XX____"
12114               	; 	BITMAP "________________"
12115               	; 	BITMAP "________________"
12116               	; 	BITMAP "________________"
12117               	; 	BITMAP "________________"
12118               	; 	BITMAP "________________"
12119               	; 	BITMAP "________________"
12120               	; 	BITMAP "________________"
12121               	; 	BITMAP "________________"
12122               	; 	BITMAP "________________"
12123 1001D   00     	byte >00,>00,>81,>c1,>73,>3f,>0d,>00
     1001E 0081     
     10020 C173     
     10022 3F0D     
     10024 00       
12124 10025   00     	byte >00,>00,>00,>00,>00,>00,>00,>00
     10026 0000     
     10028 0000     
     1002A 0000     
     1002C 00       
12125 1002D   00     	byte >00,>00,>81,>83,>ce,>fc,>b0,>00
     1002E 0081     
     10030 83CE     
     10032 FCB0     
     10034 00       
12126 10035   00     	byte >00,>00,>00,>00,>00,>00,>00,>00
     10036 0000     
     10038 0000     
     1003A 0000     
     1003C 00       
12127               	;
12128               	; 	BITMAP "________________"
12129               	; 	BITMAP "________________"
12130               	; 	BITMAP "________________"
12131               	; 	BITMAP "____X_XXXX_X____"
12132               	; 	BITMAP "__XXXXXXXXXXXX__"
12133               	; 	BITMAP "_XXX__XXXX__XXX_"
12134               	; 	BITMAP "X______XX______X"
12135               	; 	BITMAP "________________"
12136               	; 	BITMAP "________________"
12137               	; 	BITMAP "________________"
12138               	; 	BITMAP "________________"
12139               	; 	BITMAP "________________"
12140               	; 	BITMAP "________________"
12141               	; 	BITMAP "________________"
12142               	; 	BITMAP "________________"
12143               	; 	BITMAP "________________"
12144 1003D   00     	byte >00,>00,>00,>0b,>3f,>73,>81,>00
     1003E 0000     
     10040 0B3F     
     10042 7381     
     10044 00       
12145 10045   00     	byte >00,>00,>00,>00,>00,>00,>00,>00
     10046 0000     
     10048 0000     
     1004A 0000     
     1004C 00       
12146 1004D   00     	byte >00,>00,>00,>d0,>fc,>ce,>81,>00
     1004E 0000     
     10050 D0FC     
     10052 CE81     
     10054 00       
12147 10055   00     	byte >00,>00,>00,>00,>00,>00,>00,>00
     10056 0000     
     10058 0000     
     1005A 0000     
     1005C 00       
12148               	;
12149               	; 	BITMAP "__XXXXXXXXXXXX__"
12150               	; 	BITMAP "__XXXXXXXXXXXX__"
12151               	; 	BITMAP "__XXXXXXXXXXXX__"
12152               	; 	BITMAP "__XXXXXXXXXXXX__"
12153               	; 	BITMAP "__XXXXXXXXXXXX__"
12154               	; 	BITMAP "__XXXXXXXXXXXX__"
12155               	; 	BITMAP "__XXXXXXXXXXXX__"
12156               	; 	BITMAP "__XXXXXXXXXXXX__"
12157               	; 	BITMAP "__XXXXXXXXXXXX__"
12158               	; 	BITMAP "__XXXXXXXXXXXX__"
12159               	; 	BITMAP "__XXXXXXXXXXXX__"
12160               	; 	BITMAP "__XXXXXXXXXXXX__"
12161               	; 	BITMAP "__XXXXXXXXXXXX__"
12162               	; 	BITMAP "__XXXXXXXXXXXX__"
12163               	; 	BITMAP "__XXXXXXXXXXXX__"
12164               	; 	BITMAP "__XXXXXXXXXXXX__"
12165 1005D   3F     	byte >3f,>3f,>3f,>3f,>3f,>3f,>3f,>3f
     1005E 3F3F     
     10060 3F3F     
     10062 3F3F     
     10064 3F       
12166 10065   3F     	byte >3f,>3f,>3f,>3f,>3f,>3f,>3f,>3f
     10066 3F3F     
     10068 3F3F     
     1006A 3F3F     
     1006C 3F       
12167 1006D   FC     	byte >fc,>fc,>fc,>fc,>fc,>fc,>fc,>fc
     1006E FCFC     
     10070 FCFC     
     10072 FCFC     
     10074 FC       
12168 10075   FC     	byte >fc,>fc,>fc,>fc,>fc,>fc,>fc,>fc
     10076 FCFC     
     10078 FCFC     
     1007A FCFC     
     1007C FC       
12169               	;
12170               	; 	BITMAP "_XXX______XXX___"
12171               	; 	BITMAP "_XXX______XXX___"
12172               	; 	BITMAP "_XXX______XXX___"
12173               	; 	BITMAP "_XXX______XXX___"
12174               	; 	BITMAP "_XXX______XXX___"
12175               	; 	BITMAP "_XXXX____XXXX___"
12176               	; 	BITMAP "__XXXXXXXXXX____"
12177               	; 	BITMAP "___XXXXXXXX_____"
12178               	; 	BITMAP "________________"
12179               	; 	BITMAP "________________"
12180               	; 	BITMAP "________________"
12181               	; 	BITMAP "________________"
12182               	; 	BITMAP "________________"
12183               	; 	BITMAP "________________"
12184               	; 	BITMAP "________________"
12185               	; 	BITMAP "________________"
12186 1007D   70     	byte >70,>70,>70,>70,>70,>78,>3f,>1f
     1007E 7070     
     10080 7070     
     10082 783F     
     10084 1F       
12187 10085   00     	byte >00,>00,>00,>00,>00,>00,>00,>00
     10086 0000     
     10088 0000     
     1008A 0000     
     1008C 00       
12188 1008D   38     	byte >38,>38,>38,>38,>38,>78,>f0,>e0
     1008E 3838     
     10090 3838     
     10092 78F0     
     10094 E0       
12189 10095   00     	byte >00,>00,>00,>00,>00,>00,>00,>00
     10096 0000     
     10098 0000     
     1009A 0000     
     1009C 00       
12190               	;
12191               	; 	BITMAP "X_______________"
12192               	; 	BITMAP "________________"
12193               	; 	BITMAP "________________"
12194               	; 	BITMAP "________________"
12195               	; 	BITMAP "________________"
12196               	; 	BITMAP "________________"
12197               	; 	BITMAP "________________"
12198               	; 	BITMAP "________________"
12199               	; 	BITMAP "________________"
12200               	; 	BITMAP "________________"
12201               	; 	BITMAP "________________"
12202               	; 	BITMAP "________________"
12203               	; 	BITMAP "________________"
12204               	; 	BITMAP "________________"
12205               	; 	BITMAP "________________"
12206               	; 	BITMAP "________________"
12207 1009D   80     	byte >80,>00,>00,>00,>00,>00,>00,>00
     1009E 0000     
     100A0 0000     
     100A2 0000     
     100A4 00       
12208 100A5   00     	byte >00,>00,>00,>00,>00,>00,>00,>00
     100A6 0000     
     100A8 0000     
     100AA 0000     
     100AC 00       
12209 100AD   00     	byte >00,>00,>00,>00,>00,>00,>00,>00
     100AE 0000     
     100B0 0000     
     100B2 0000     
     100B4 00       
12210 100B5   00     	byte >00,>00,>00,>00,>00,>00,>00,>00
     100B6 0000     
     100B8 0000     
     100BA 0000     
     100BC 00       
12211               SLAST
12212               
12213               ;;; CV BASIC Epilogue
12214               
12215               ; data in low RAM
12216                   dorg >2000
12217               
12218               ; must be even aligned
12219               ; mirror for sprite table
12220 2000          sprites	    bss 128
12221               
12222               ; Vars can start at >2080
12223                   dorg >2080
12224               
12225               cvb_BFX:
12226 2080          	bss 1
12227               cvb_BFY:
12228 2081          	bss 1
12229               cvb_B:
12230 2082          	bss 1
12231               cvb_D:
12232 2083          	bss 1
12233               cvb_E:
12234 2084          	bss 1
12235               cvb_F:
12236 2085          	bss 1
12237               cvb_I:
12238 2086          	bss 1
12239               cvb_M:
12240 2087          	bss 1
12241               cvb_UDL:
12242 2088          	bss 1
12243               cvb_O:
12244 2089          	bss 1
12245               cvb_R:
12246 208A          	bss 1
12247               cvb_T:
12248 208B          	bss 1
12249               cvb_TPX:
12250 208C          	bss 1
12251               cvb_TPY:
12252 208D          	bss 1
12253               cvb__SFQ:
12254 208E          	bss 2
12255               cvb_BRF:
12256 2090          	bss 1
12257               cvb_RMCH:
12258 2091          	bss 1
12259               cvb_BTC:
12260 2092          	bss 1
12261               cvb_LKE:
12262 2093          	bss 1
12263               cvb_BTR:
12264 2094          	bss 1
12265               cvb_LKN:
12266 2095          	bss 1
12267               cvb_BTX:
12268 2096          	bss 1
12269               cvb_BTY:
12270 2097          	bss 1
12271               cvb_LKR:
12272 2098          	bss 1
12273               cvb_LKS:
12274 2099          	bss 1
12275               cvb_LKW:
12276 209A          	bss 1
12277               cvb_GOPN:
12278 209B          	bss 1
12279               cvb_EGGON:
12280 209C          	bss 1
12281               cvb_DRK:
12282 209D          	bss 1
12283               cvb_WINRM:
12284 209E          	bss 1
12285               cvb_EFLAG:
12286 209F          	bss 1
12287               cvb__CRX:
12288 20A0          	bss 2
12289               cvb__CRY:
12290 20A2          	bss 2
12291               cvb_PKCD:
12292 20A4          	bss 1
12293               cvb_R0F:
12294 20A5          	bss 1
12295               cvb_FPC:
12296 20A6          	bss 1
12297               cvb_FON:
12298 20A7          	bss 1
12299               cvb_R1F:
12300 20A8          	bss 1
12301               	even
12302               cvb__AD:
12303 20AA          	bss 2
12304               cvb_FPR:
12305 20AC          	bss 1
12306               	even
12307               cvb__AW:
12308 20AE          	bss 2
12309               cvb__AX:
12310 20B0          	bss 2
12311               cvb__BX:
12312 20B2          	bss 2
12313               cvb__CX:
12314 20B4          	bss 2
12315               cvb_BTCD:
12316 20B6          	bss 1
12317               	even
12318               cvb__DX:
12319 20B8          	bss 2
12320               cvb_PRN:
12321 20BA          	bss 1
12322               cvb_HIT:
12323 20BB          	bss 1
12324               cvb_BTNP:
12325 20BC          	bss 1
12326               cvb_C2:
12327 20BD          	bss 1
12328               cvb_C3:
12329 20BE          	bss 1
12330               cvb_BF:
12331 20BF          	bss 1
12332               cvb_BH:
12333 20C0          	bss 1
12334               cvb_AX:
12335 20C1          	bss 1
12336               cvb_CB:
12337 20C2          	bss 1
12338               cvb_E2:
12339 20C3          	bss 1
12340               cvb_BW:
12341 20C4          	bss 1
12342               cvb_CR:
12343 20C5          	bss 1
12344               cvb_PCOL:
12345 20C6          	bss 1
12346               cvb_CW:
12347 20C7          	bss 1
12348               cvb_DS:
12349 20C8          	bss 1
12350               cvb_FC:
12351 20C9          	bss 1
12352               cvb_FL:
12353 20CA          	bss 1
12354               cvb_I2:
12355 20CB          	bss 1
12356               cvb_GM:
12357 20CC          	bss 1
12358               cvb_GZ:
12359 20CD          	bss 1
12360               cvb_PE:
12361 20CE          	bss 1
12362               cvb_SFC:
12363 20CF          	bss 1
12364               cvb_SFD:
12365 20D0          	bss 1
12366               cvb_PN:
12367 20D1          	bss 1
12368               cvb_PS:
12369 20D2          	bss 1
12370               cvb_PW:
12371 20D3          	bss 1
12372               cvb_PX:
12373 20D4          	bss 1
12374               cvb_PY:
12375 20D5          	bss 1
12376               cvb_T2:
12377 20D6          	bss 1
12378               cvb_SFX:
12379 20D7          	bss 1
12380               cvb_RN:
12381 20D8          	bss 1
12382               cvb_C0F:
12383 20D9          	bss 1
12384               cvb_C1F:
12385 20DA          	bss 1
12386               cvb_TK:
12387 20DB          	bss 1
12388               cvb_TX:
12389 20DC          	bss 1
12390               cvb_TY:
12391 20DD          	bss 1
12392               cvb_X0:
12393 20DE          	bss 1
12394               cvb_WF:
12395 20DF          	bss 1
12396               cvb_Y0:
12397 20E0          	bss 1
12398               cvb_SNB:
12399 20E1          	bss 1
12400               array_DCL:
12401 20E2          	bss 3
12402               	even
12403               array_DDX:
12404 20E6          	bss 3
12405               	even
12406               array_DDY:
12407 20EA          	bss 3
12408               	even
12409               array_MSK:
12410 20EE          	bss 8
12411               array_DRM:
12412 20F6          	bss 3
12413               	even
12414               array_DSP:
12415 20FA          	bss 3
12416               	even
12417               array_DST:
12418 20FE          	bss 3
12419               	even
12420               array_OCL:
12421 2102          	bss 8
12422               array_OBX:
12423 210A          	bss 8
12424               array_OBY:
12425 2112          	bss 8
12426               array_FDL:
12427 211A          	bss 3
12428               	even
12429               array_ORM:
12430 211E          	bss 8
12431               array_GOP:
12432 2126          	bss 3
12433               	even
12434               array_RM:
12435 212A          	bss 96
12436               ram_end:
